; Listing generated by Microsoft (R) Optimizing Compiler Version 19.41.34123.0 

	TITLE	C:\Users\RafaTheFox\Desktop\SRB2-Public-master (1)\SRB2-Public-master\objs\VC10\Win32\Debug\comptime.obj
	.686P
	.XMM
	include listing.inc
	.model	flat

INCLUDELIB LIBCMTD
INCLUDELIB OLDNAMES

PUBLIC	_comprevision
PUBLIC	??_C@_08EMFJOABJ@rillegal@			; `string'
PUBLIC	_compdate
PUBLIC	??_C@_0M@KNECCIAF@Nov?529?52024@		; `string'
PUBLIC	_comptime
PUBLIC	??_C@_08EDJIDOKN@09?359?325@			; `string'
;	COMDAT ??_C@_08EDJIDOKN@09?359?325@
CONST	SEGMENT
??_C@_08EDJIDOKN@09?359?325@ DB '09:59:25', 00H		; `string'
CONST	ENDS
;	COMDAT ??_C@_0M@KNECCIAF@Nov?529?52024@
CONST	SEGMENT
??_C@_0M@KNECCIAF@Nov?529?52024@ DB 'Nov 29 2024', 00H	; `string'
CONST	ENDS
;	COMDAT ??_C@_08EMFJOABJ@rillegal@
CONST	SEGMENT
??_C@_08EMFJOABJ@rillegal@ DB 'rillegal', 00H		; `string'
CONST	ENDS
_DATA	SEGMENT
_comprevision DD FLAT:??_C@_08EMFJOABJ@rillegal@
_compdate DD	FLAT:??_C@_0M@KNECCIAF@Nov?529?52024@
_comptime DD	FLAT:??_C@_08EDJIDOKN@09?359?325@
_DATA	ENDS
END
