; Listing generated by Microsoft (R) Optimizing Compiler Version 19.41.34123.0 

	TITLE	C:\Users\RafaTheFox\Desktop\SRB2-Public-master (1)\SRB2-Public-master\objs\VC10\Win32\Debug\dstrings.obj
	.686P
	.XMM
	include listing.inc
	.model	flat

INCLUDELIB LIBCMTD
INCLUDELIB OLDNAMES

PUBLIC	_text
PUBLIC	??_C@_0BG@HHIPJEI@Development?5mode?5ON?4?6@	; `string'
PUBLIC	??_C@_0CO@BHANFEBH@CD?9ROM?5Version?3?5default?4cfg?5fro@ ; `string'
PUBLIC	??_C@_0N@KFIFFBDJ@Press?5a?5key?4@		; `string'
PUBLIC	??_C@_0O@HEDHOKIH@Press?5y?5or?5n?4@		; `string'
PUBLIC	??_C@_0DG@FKCCEMKL@Only?5the?5server?5can?5do?5a?5load?5n@ ; `string'
PUBLIC	??_C@_0DE@MPLFCCMK@You?5can?8t?5quickload?5during?5a?5ne@ ; `string'
PUBLIC	??_C@_0DH@IOGHLPBB@You?5haven?8t?5picked?5a?5quicksave?5@ ; `string'
PUBLIC	??_C@_0DE@JEMBCFHB@You?5can?8t?5save?5if?5you?5aren?8t?5pl@ ; `string'
PUBLIC	??_C@_0DF@HFLOBCFN@Quicksave?5over?5your?5game?5named?6@ ; `string'
PUBLIC	??_C@_0DO@KKMLEKJG@Do?5you?5want?5to?5quickload?5the?5ga@ ; `string'
PUBLIC	??_C@_0CL@HKDHJGIE@You?5are?5in?5a?5network?5game?4?6End?5@ ; `string'
PUBLIC	??_C@_0EI@FFPDOJOB@Are?5you?5sure?$DP?5this?5skill?5level?6@ ; `string'
PUBLIC	??_C@_0BB@GFHBDPDA@Messages?5are?5OFF@		; `string'
PUBLIC	??_C@_0BA@JGIAJIPF@Messages?5are?5ON@		; `string'
PUBLIC	??_C@_0CH@KPANMBHF@You?5can?8t?5end?5a?5netgame?$CB?6?6Press@ ; `string'
PUBLIC	??_C@_0DG@HPBOLHAP@Are?5you?5sure?5you?5want?5to?5end?5th@ ; `string'
PUBLIC	??_C@_0BI@JGOHFMGI@?$CFs?6?6?$CIPress?5?8Y?8?5to?5quit?$CJ@ ; `string'
PUBLIC	??_C@_0EL@FMOAPOEA@No?5more?5place?5in?5the?5buffer?5for@ ; `string'
PUBLIC	??_C@_0CK@JIKHBFNF@Got?5unknown?5net?5command?5?$FL?$CFd?$FN?$DN?$CFd@ ; `string'
PUBLIC	??_C@_0BJ@MIKIPPKO@Sending?5join?5request?4?4?4?6@ ; `string'
PUBLIC	??_C@_0CC@EMECLDHI@No?5more?5free?5memory?5for?5savegam@ ; `string'
PUBLIC	??_C@_0BM@DFHJAAFF@Loading?5savegame?5length?5?$CFd?6@ ; `string'
PUBLIC	??_C@_0P@EGAOHNLM@Map?5is?5now?5?$CC?$CFs@	; `string'
PUBLIC	??_C@_04HPADIMGJ@ZONE@				; `string'
PUBLIC	??_C@_0BH@LIDMGEGJ@Can?8t?5load?5the?5level?$CB?6@ ; `string'
PUBLIC	??_C@_0BJ@EBFABLLP@WARNING?3?5Can?8t?5delete?5?$CFs@ ; `string'
PUBLIC	??_C@_0BE@ENJBKFAL@Press?5ESC?5to?5abort?6@	; `string'
PUBLIC	??_C@_0BJ@LJAEJJLI@Searching?5the?5server?4?4?4?6@ ; `string'
PUBLIC	??_C@_0BK@EFBEDKHC@Contacting?5the?5server?4?4?4?6@ ; `string'
PUBLIC	??_C@_0BD@GLEBMDO@Connecting?5to?3?5?$CFs?6@	; `string'
PUBLIC	??_C@_0O@MHMDEHLA@Gametype?3?5?$CFs?6@		; `string'
PUBLIC	??_C@_0BF@OEDDKHLE@Version?3?5?$CFd?4?$CF?42d?4?$CFu?6@ ; `string'
PUBLIC	??_C@_07GFKLHJNM@Found?0?5@			; `string'
PUBLIC	??_C@_0BD@DFJGNHGJ@Checking?5files?4?4?4?6@	; `string'
PUBLIC	??_C@_0CH@IJBDKEFB@Network?5game?5synchronization?5ab@ ; `string'
PUBLIC	??_C@_0L@GMMCNNJE@Ban?5List?3?6@		; `string'
PUBLIC	??_C@_07MKIPNJGI@?$CFu?3?5?$CFs?6@		; `string'
PUBLIC	??_C@_0L@FJKMLLEO@?$CFu?3?5?$CFs?1?$CFs?6@	; `string'
PUBLIC	??_C@_08CKKPIDFI@Why?3?5?$CFs?6@		; `string'
PUBLIC	??_C@_06OMBEPDOM@?5None?6@			; `string'
PUBLIC	??_C@_0CG@GFKHNJG@Could?5not?5save?5ban?5list?5into?5ba@ ; `string'
PUBLIC	??_C@_0CF@EMCNGKNN@Could?5not?5open?5ban?4txt?5for?5ban?5@ ; `string'
PUBLIC	??_C@_0IL@HHPLFBIA@Connect?5?$DMserveraddress?$DO?3?5connec@ ; `string'
PUBLIC	??_C@_0DI@EGCJPKPK@You?5cannot?5connect?5while?5in?5a?5g@ ; `string'
PUBLIC	??_C@_0DM@CLKOBHMJ@There?5is?5no?5server?5identificati@ ; `string'
PUBLIC	??_C@_0BM@BNOGFMDG@There?5is?5no?5network?5driver?6@ ; `string'
PUBLIC	??_C@_0BI@MOGEDHHF@?$ACnum?3?$CF2d?5?5node?3?$CF2d?5?5?$CFs?6@ ; `string'
PUBLIC	??_C@_0BH@MGDOBFBO@num?3?$CF2d?5?5node?3?$CF2d?5?5?$CFs?6@ ; `string'
PUBLIC	??_C@_0BP@LJABGBBO@There?5is?5no?5player?5named?5?$CC?$CFs?$CC?6@ ; `string'
PUBLIC	??_C@_09IFCHIHBK@?$CF?42d?3?5?$CF?$CKs@		; `string'
PUBLIC	??_C@_07KFNPPIIO@?5?9?5?$CF?42d@		; `string'
PUBLIC	??_C@_05OKGGLBNP@?5?9?5?$CFs@			; `string'
PUBLIC	??_C@_0BC@MONOBHBL@?5?$CIverified?5admin?$CJ@	; `string'
PUBLIC	??_C@_0N@CDHKCHBP@?5?$CIspectator?$CJ@		; `string'
PUBLIC	??_C@_0EB@GGEALNPM@Ban?5?$DMplayername?$DO?5or?5?$DMplayernum?$DO@ ; `string'
PUBLIC	??_C@_0EB@LFFGOMMH@Too?5many?5bans?$CB?5Geez?0?5that?8s?5a?5l@ ; `string'
PUBLIC	??_C@_0BJ@PCFFLIKK@You?5are?5not?5the?5server?4?6@ ; `string'
PUBLIC	??_C@_0DK@JOKALBFD@Kick?5?$DMplayername?$DO?5or?5?$DMplayernum@ ; `string'
PUBLIC	??_C@_0CO@MIOFJNF@Server?5is?5being?5shut?5down?5remot@ ; `string'
PUBLIC	??_C@_0DF@MOIHKMII@Illegal?5kick?5command?5received?5f@ ; `string'
PUBLIC	??_C@_04BHMCPGCF@?$AC?$CFs?5@			; `string'
PUBLIC	??_C@_0BL@DEIPNHEG@has?5been?5kicked?5?$CIGo?5away?$CJ?6@ ; `string'
PUBLIC	??_C@_0CH@OMALPNND@has?5been?5kicked?5?$CIConsistency?5fa@ ; `string'
PUBLIC	??_C@_0CE@IKHPMCGJ@has?5been?5kicked?5?$CIBroke?5ping?5lim@ ; `string'
PUBLIC	??_C@_0CE@BOACHLPM@left?5the?5game?5?$CIConnection?5timeo@ ; `string'
PUBLIC	??_C@_0P@KLOMPPBJ@left?5the?5game?6@		; `string'
PUBLIC	??_C@_0CD@DBMCMDHC@has?5been?5banned?5?$CIDon?8t?5come?5bac@ ; `string'
PUBLIC	??_C@_0BG@DFACONJA@has?5been?5kicked?5?$CI?$CFs?$CJ?6@ ; `string'
PUBLIC	??_C@_0BG@JJCGBHMF@has?5been?5banned?5?$CI?$CFs?$CJ?6@ ; `string'
PUBLIC	??_C@_0CN@MBPFLCN@Illegal?5add?5player?5command?5rece@ ; `string'
PUBLIC	??_C@_0CJ@DCCBPMMK@Player?5?$CFd?5has?5joined?5the?5game?5?$CI@ ; `string'
PUBLIC	??_C@_0BG@KNCHJHMC@Player?5Address?5is?5?$CFs?6@ ; `string'
PUBLIC	??_C@_0BF@LOKBHHME@Starting?5Server?4?4?4?4?6@	; `string'
PUBLIC	??_C@_0DB@JIPOKIIO@Join?5accepted?0?5waiting?5for?5next@ ; `string'
PUBLIC	??_C@_0DB@FKOHFADK@Consistency?5failure?5for?5player?5@ ; `string'
PUBLIC	??_C@_0BG@LGNHDNDM@Player?5kicked?5is?5?$CD?$CFd?6@ ; `string'
PUBLIC	??_C@_0BM@KCOIPJBK@Player?5?$CFd?5is?5at?5?$CFd?0?5?$CFd?0?5?$CFd?6@ ; `string'
PUBLIC	??_C@_0BJ@IDEDOFGJ@Player?5?$CFd?5has?5a?5null?5mo?6@ ; `string'
PUBLIC	??_C@_0BG@HMMBDIMC@I_StartupKeyboard?4?4?4?6@	; `string'
PUBLIC	??_C@_0BD@HBMCAPMG@I_StartupMouse?4?4?4?6@	; `string'
PUBLIC	??_C@_0BD@GMOAGNCH@I_StartupTimer?4?4?4?6@	; `string'
PUBLIC	??_C@_0BG@MBGLCCDE@I_StartupGraphics?4?4?4?6@	; `string'
PUBLIC	??_C@_0BE@FBIFMCCD@setvbuf?5didnt?5work?6@	; `string'
PUBLIC	??_C@_0BC@EGCLJOEA@Playing?5demo?5?$CFs?4?6@	; `string'
PUBLIC	??_C@_0BF@MJDAANIO@Set?5extratics?5to?5?$CFd?6@	; `string'
PUBLIC	??_C@_0BN@JIOELBGP@Network?5bandwidth?5set?5to?5?$CFd?6@ ; `string'
PUBLIC	??_C@_0BF@GDGMBDNI@debug?5output?5to?3?5?$CFs?6@ ; `string'
PUBLIC	??_C@_0CC@JDFLLOJK@?$ACcannot?5debug?5output?5to?5file?5?$CFs@ ; `string'
PUBLIC	??_C@_0BC@DEIONLMI@?$CF?42d?5?3?5?$CFs?6?5?$CFd?5ms?6@ ; `string'
PUBLIC	??_C@_0BC@KPIINKNG@?$CFs?5renamed?5to?5?$CFs?6@	; `string'
PUBLIC	??_C@_0CC@MELJIPFI@Player?5?$CFd?5sent?5a?5bad?5name?5chang@ ; `string'
PUBLIC	??_C@_0DP@JHBECLLI@Illegal?5color?5change?5received?5f@ ; `string'
PUBLIC	??_C@_0EN@OLIDEKEP@orderpizza?5?9size?5?$DMvalue?$DO?5?9addre@ ; `string'
PUBLIC	??_C@_0CD@IMJJHDIK@?$CFs?5has?5ordered?5a?5delicious?5pizz@ ; `string'
PUBLIC	??_C@_0EN@HNBHNPLB@rteleport?5?9x?5?$DMvalue?$DO?5?9y?5?$DMvalue?$DO@ ; `string'
PUBLIC	??_C@_0BG@OJOFNHBJ@Not?5a?5valid?5location?6@	; `string'
PUBLIC	??_C@_0BO@NCMEFBMC@Teleporting?5by?5?$CFd?0?5?$CFd?0?5?$CFd?4?4?4?6@ ; `string'
PUBLIC	??_C@_0BH@IAPIJLAB@X?5value?5not?5specified?6@	; `string'
PUBLIC	??_C@_0BH@BLILHBNF@Y?5value?5not?5specified?6@	; `string'
PUBLIC	??_C@_0BO@ECHOJPCK@Teleporting?5to?5?$CFd?0?5?$CFd?0?5?$CFd?4?4?4?6@ ; `string'
PUBLIC	??_C@_0CG@IJDOOMFG@Playdemo?5?$DMdemoname?$DO?3?5playback?5a@ ; `string'
PUBLIC	??_C@_0BJ@INIJIFDJ@Playing?5back?5demo?5?8?$CFs?8?4?6@ ; `string'
PUBLIC	??_C@_0CC@ICCOJDAE@Timedemo?5?$DMdemoname?$DO?3?5time?5a?5dem@ ; `string'
PUBLIC	??_C@_0BD@LPONKLKD@Timing?5demo?5?8?$CFs?8?4?6@	; `string'
PUBLIC	??_C@_0P@JFMMMOHN@Stopped?5demo?4?6@		; `string'
PUBLIC	??_C@_0FK@KJCADJLJ@Map?5change?3?5mapnum?$DN?$CFd?5gametype?$DN@ ; `string'
PUBLIC	??_C@_0DH@MLAPEGBB@map?5?$DMmapname?$DO?5?$FL?9gametype?5?$DMtype?$DO@ ; `string'
PUBLIC	??_C@_0CG@IHNALCMB@Only?5the?5server?5can?5change?5the?5@ ; `string'
PUBLIC	??_C@_0CF@INDGCHAI@?$ACInternal?5game?5level?5?8?$CFs?8?5not?5f@ ; `string'
PUBLIC	??_C@_0DA@CPEBLCM@Sorry?0?5level?5change?5disabled?5in@ ; `string'
PUBLIC	??_C@_0BH@PNPLPGIG@Invalid?5level?5name?5?$CFs?6@ ; `string'
PUBLIC	??_C@_0CO@BHKJBMOA@You?5can?8t?5switch?5gametypes?5in?5s@ ; `string'
PUBLIC	??_C@_0DO@DCLGKLBE@That?5level?5doesn?8t?5support?5?$CFs?5m@ ; `string'
PUBLIC	??_C@_0DA@MAODLC@That?5level?5doesn?8t?5support?5Sing@ ; `string'
PUBLIC	??_C@_0CF@JPPMDMKH@Illegal?5map?5change?5received?5fro@ ; `string'
PUBLIC	??_C@_0CI@HDAFNMEI@Illegal?5pause?5command?5received?5@ ; `string'
PUBLIC	??_C@_0BD@GHLLPFFN@Game?5paused?5by?5?$CFs?6@	; `string'
PUBLIC	??_C@_0BF@PFLMNIFN@Game?5unpaused?5by?5?$CFs?6@	; `string'
PUBLIC	??_C@_0CP@HAJGPEKA@Illegal?5clear?5scores?5command?5re@ ; `string'
PUBLIC	??_C@_0CH@FHCHDELO@Scores?5have?5been?5reset?5by?5the?5s@ ; `string'
PUBLIC	??_C@_0EA@NGKMNLMO@changeteam?5?$DMteam?$DO?3?5switch?5to?5a?5@ ; `string'
PUBLIC	??_C@_0EC@CLMHNGFK@changeteam?5?$DMteam?$DO?3?5switch?5to?5a?5@ ; `string'
PUBLIC	??_C@_0DL@EKOILIJG@This?5command?5cannot?5be?5used?5out@ ; `string'
PUBLIC	??_C@_0DL@IGCEPGFJ@This?5command?5cannot?5be?5used?5out@ ; `string'
PUBLIC	??_C@_0EB@ECMCGICB@changeteam2?5?$DMteam?$DO?3?5switch?5to?5a@ ; `string'
PUBLIC	??_C@_0ED@KAEJEPCB@changeteam2?5?$DMteam?$DO?3?5switch?5to?5a@ ; `string'
PUBLIC	??_C@_0DJ@HDCGGIBO@You?8re?5not?5the?5server?4?5You?5can?8@ ; `string'
PUBLIC	??_C@_0FJ@OKNMBAF@serverchangeteam?5?$DMplayernum?$DO?5?$DMt@ ; `string'
PUBLIC	??_C@_0GF@HOIHBHEE@serverchangeteam?5?$DMplayernum?$DO?5?$DMt@ ; `string'
PUBLIC	??_C@_0FL@POKLPJKE@serverchangeteam?5?$DMplayernum?$DO?5?$DMt@ ; `string'
PUBLIC	??_C@_0DI@GGHDJFFK@?$HOEggman?$HO?5Teams?5are?5going?5to?5be?5@ ; `string'
PUBLIC	??_C@_0CG@BHHNMGAM@That?5player?5is?5already?5on?5that?5@ ; `string'
PUBLIC	??_C@_0CH@MIBOPNCJ@No?5tag?5status?5changes?5after?5hid@ ; `string'
PUBLIC	??_C@_0CN@MAADBEFO@Illegal?5team?5change?5received?5fr@ ; `string'
PUBLIC	??_C@_0CP@HKMLKOCJ@Player?5?$CFs?5sent?5illegal?5team?5cha@ ; `string'
PUBLIC	??_C@_0P@EKJNKFPP@?$CFs?5is?5now?5IT?$CB?6@	; `string'
PUBLIC	??_C@_0BF@DELIHMEG@?$CFs?5is?5no?5longer?5IT?$CB?6@ ; `string'
PUBLIC	??_C@_0BN@DDHKIGCG@?$CFs?5switched?5to?5the?5red?5team?6@ ; `string'
PUBLIC	??_C@_0BO@ENCKLKAM@?$CFs?5switched?5to?5the?5blue?5team?6@ ; `string'
PUBLIC	??_C@_0BI@IBDAHDKJ@?$CFs?5became?5a?5spectator?4?6@ ; `string'
PUBLIC	??_C@_0BG@BJOCEMHL@?$CFs?5entered?5the?5game?4?6@ ; `string'
PUBLIC	??_C@_0CI@MIKFFPLJ@?$CFs?5was?5autobalanced?5to?5even?5the@ ; `string'
PUBLIC	??_C@_0CH@LLLOEJNC@?$CFs?5was?5scrambled?5to?5a?5different@ ; `string'
PUBLIC	??_C@_0CP@GMBPCFGD@You?8re?5not?5the?5server?4?5You?5can?8@ ; `string'
PUBLIC	??_C@_0CG@NFJMICPP@password?5?$DMpassword?$DO?3?5change?5pas@ ; `string'
PUBLIC	??_C@_0CH@DCIPLDFL@login?5?$DMpassword?$DO?3?5Administrator@ ; `string'
PUBLIC	??_C@_0EA@KGOHEOKF@Sending?5Login?4?4?4?$CFs?6?$CINotice?5only@ ; `string'
PUBLIC	??_C@_0CA@MBEEELBG@?$CFs?5passed?5authentication?4?5?$CI?$CFs?$CJ?6@ ; `string'
PUBLIC	??_C@_0BO@IPPGFIG@Password?5from?5?$CFd?5failed?5?$CI?$CFs?$CJ?6@ ; `string'
PUBLIC	??_C@_0DP@MABLNICB@You?8re?5not?5the?5server?4?4?4?5you?5ca@ ; `string'
PUBLIC	??_C@_0DA@FGDGNCBO@verify?5?$DMnode?$DO?3?5give?5admin?5privi@ ; `string'
PUBLIC	??_C@_0DM@LELCFAPP@Illegal?5verification?5received?5f@ ; `string'
PUBLIC	??_C@_0DH@FJMLGOOM@Password?5correct?4?5You?5are?5now?5a@ ; `string'
PUBLIC	??_C@_0DL@LGHBBCIC@motd?5?$DMmessage?$DO?3?5Set?5a?5message?5t@ ; `string'
PUBLIC	??_C@_0CG@FKOBENHJ@Illegal?5motd?5change?5received?5fr@ ; `string'
PUBLIC	??_C@_0BJ@KOIDJMJI@Message?5of?5the?5day?5set?4?6@ ; `string'
PUBLIC	??_C@_0CP@HEOMMPNE@runsoc?5?$DMsocfile?4soc?$DO?5or?5?$DMlumpna@ ; `string'
PUBLIC	??_C@_0CJ@NKDDEGOO@Illegal?5runsoc?5command?5received@ ; `string'
PUBLIC	??_C@_0DH@PHEALFGL@Unknown?5error?5finding?5soc?5file?5@ ; `string'
PUBLIC	??_C@_0DB@CFNNKNBI@Illegal?5consistency?5fix?5packet?5@ ; `string'
PUBLIC	??_C@_0CG@IJEGFMBM@addfile?5?$DMwadfile?4wad?$DO?3?5load?5wad@ ; `string'
PUBLIC	??_C@_0CJ@PFGLDFIM@You?5must?5NOT?5be?5in?5a?5level?5to?5u@ ; `string'
PUBLIC	??_C@_0CK@HBDJKIJA@Illegal?5addfile?5command?5receive@ ; `string'
PUBLIC	??_C@_0CK@BCFEBJNJ@Illegal?5delfile?5command?5receive@ ; `string'
PUBLIC	??_C@_0GD@GAMLOGPK@Checksum?5mismatch?5while?5loading@ ; `string'
PUBLIC	??_C@_0DH@KOGGEPPL@Unknown?5error?5finding?5wad?5file?5@ ; `string'
PUBLIC	??_C@_0BL@HDHBKACP@There?5are?5?$CFd?5wads?5loaded?3?6@ ; `string'
PUBLIC	??_C@_0N@NJJKGBLE@?5?5?5?$CF?42d?3?5?$CFs?6@	; `string'
PUBLIC	??_C@_0N@ODMFAHJC@?$CK?5?5?$CF?42d?3?5?$CFs?6@	; `string'
PUBLIC	??_C@_0M@GEPMJEDD@?5?5IWAD?3?5?$CFs?6@		; `string'
PUBLIC	??_C@_0BD@IIPKEDNH@SRB2?$CFs?5?$CI?$CFs?5?$CFs?5?$CFs?$CJ?6@ ; `string'
PUBLIC	??_C@_0CJ@KGEIDLFC@Mod?5ID?3?5?$CFd?6Mod?5Version?3?5?$CFd?6Code@ ; `string'
PUBLIC	??_C@_0BI@HNAHCPLJ@Current?5gametype?5is?5?$CFd?6@ ; `string'
PUBLIC	??_C@_0DJ@GIAFIEPN@jumptoaxis?5?$DMaxisnum?$DO?3?5Jump?5to?5a@ ; `string'
PUBLIC	??_C@_0CN@CGLFEIDE@Levels?5will?5end?5after?5?$CFs?5scores@ ; `string'
PUBLIC	??_C@_06NBBCJHCF@a?5team@			; `string'
PUBLIC	??_C@_07BJMCPAMN@someone@			; `string'
PUBLIC	??_C@_0BG@OBCCMMLP@Point?5limit?5disabled?6@	; `string'
PUBLIC	??_C@_0BK@FNEDNNIM@Number?5of?5laps?5set?5to?5?$CFd?6@ ; `string'
PUBLIC	??_C@_0CE@NKLMJGK@Levels?5will?5end?5after?5?$CFd?5minute@ ; `string'
PUBLIC	??_C@_0BF@ILNBABKD@Time?5limit?5disabled?6@	; `string'
PUBLIC	??_C@_0CE@DKMODLLI@Gametype?5was?5changed?5from?5?$CFs?5to@ ; `string'
PUBLIC	??_C@_0DI@KBCODAAC@HIDETIME?5cannot?5be?5greater?5or?5e@ ; `string'
PUBLIC	??_C@_0BA@CPILJJCM@?$CFs?5?$CI?$CFd?$CJ?3?5?$CFs?5?$CFd?6@ ; `string'
PUBLIC	??_C@_0N@EOGOKBMO@?$CFs?5?$CI?$CFd?$CJ?3?5?$CFs?6@ ; `string'
PUBLIC	??_C@_0CM@LJHLADFD@Illegal?5exitlevel?5command?5recei@ ; `string'
PUBLIC	??_C@_0BF@LEIGGEGN@Displayplayer?5is?5?$CFd?6@	; `string'
PUBLIC	??_C@_0GB@PDGGMFCN@If?5you?5want?5to?5change?5the?5sky?5i@ ; `string'
PUBLIC	??_C@_0BP@PKCBNJLD@skynum?5?$DMsky?$CD?$DO?3?5change?5the?5sky?6@ ; `string'
PUBLIC	??_C@_0BG@LGPPAGHP@Previewing?5sky?5?$CFs?4?4?4?6@ ; `string'
PUBLIC	??_C@_0GE@BMMHKBOC@Tunes?5?$DMslot?$CD?1default?$DO?5?$DMspeed?$DO?3?5@ ; `string'
PUBLIC	??_C@_0BJ@NGLKHDNF@The?5current?5tune?5is?3?5?$CFd?6@ ; `string'
PUBLIC	??_C@_0CN@BEDIDHEI@Valid?5slots?5are?51?5to?5?$CFd?0?5or?50?5t@ ; `string'
PUBLIC	??_C@_0EK@JPJBNIJN@modifiedgame?5is?5true?0?5but?5you?5c@ ; `string'
PUBLIC	??_C@_0DE@GFEBJMPD@modifiedgame?5is?5true?0?5secrets?5w@ ; `string'
PUBLIC	??_C@_0CP@KEAOMNPI@modifiedgame?5is?5false?0?5you?5can?5@ ; `string'
PUBLIC	??_C@_0CO@DGDOHNGB@Valid?5skin?5numbers?5are?50?5to?5?$CFd?5@ ; `string'
PUBLIC	??_C@_0DC@JNMKJHJN@You?5may?5not?5change?5your?5name?5wh@ ; `string'
PUBLIC	??_C@_0BG@EGIEFENM@Chat?5has?5been?5muted?4?6@	; `string'
PUBLIC	??_C@_0BK@DJEDHMHF@Chat?5is?5no?5longer?5muted?4?6@ ; `string'
PUBLIC	??_C@_0BD@MHEBFIOM@?$CFs?8s?5score?5is?5?$CFlu?6@ ; `string'
PUBLIC	??_C@_0BG@HLBJCNMD@The?5pointlimit?5is?5?$CFd?6@ ; `string'
PUBLIC	??_C@_0CN@IKCELJIG@The?5current?5time?5is?5?$CFf?4?6The?5tim@ ; `string'
PUBLIC	??_C@_0GE@CLAOMKL@Cheats?5cannot?5be?5disabled?5after@ ; `string'
PUBLIC	??_C@_0CF@KCOLAHPG@Cheats?5must?5be?5enabled?5to?5use?5t@ ; `string'
PUBLIC	??_C@_0FL@IIABANEN@Changing?5this?5variable?6requires@ ; `string'
PUBLIC	??_C@_0BN@DDBPFIHJ@Cheats?5have?5been?5activated?4?6@ ; `string'
PUBLIC	??_C@_0BK@HLENKMMF@?$ANDownloading?5?$CFs?4?4?4?$CIdone?$CJ?6@ ; `string'
PUBLIC	??_C@_0BH@DBBDBJDN@Thing?5?$CFd?5doesn?8t?5exist@ ; `string'
PUBLIC	??_C@_0BB@LEIMMBBF@Modification?5By?6@		; `string'
PUBLIC	??_C@_0BK@ECLGDCDB@Character?5?$CFd?5out?5of?5range@ ; `string'
PUBLIC	??_C@_0BN@GGGMAJLE@Level?5number?5?$CFd?5out?5of?5range@ ; `string'
PUBLIC	??_C@_0CA@KJJMOABJ@Cutscene?5number?5?$CFd?5out?5of?5range@ ; `string'
PUBLIC	??_C@_0CC@FLHCJIKE@Unlockable?5number?5?$CFd?5out?5of?5ran@ ; `string'
PUBLIC	??_C@_0BH@BNPMKLBE@Frame?5?$CFd?5doesn?8t?5exist@ ; `string'
PUBLIC	??_C@_0BH@PNMKCGFL@Sound?5?$CFd?5doesn?8t?5exist@ ; `string'
PUBLIC	??_C@_0CA@PFBHKNBO@HUD?5item?5number?5?$CFd?5out?5of?5range@ ; `string'
PUBLIC	??_C@_0BO@ONJFIGCJ@Emblem?5number?5?$CFd?5out?5of?5range@ ; `string'
PUBLIC	??_C@_0DE@GGILPFLO@Warning?3?5patch?5from?5a?5different@ ; `string'
PUBLIC	??_C@_0BP@IONBOPCJ@only?5version?52?40?5is?5supported?6@ ; `string'
PUBLIC	??_C@_0BB@HKOELEED@Unknown?5word?3?5?$CFs@	; `string'
PUBLIC	??_C@_0BK@KJLKOOND@missing?5argument?5for?5?8?$CFs?8@ ; `string'
PUBLIC	??_C@_0BJ@JGCOLFLP@No?5word?5in?5this?5line?3?5?$CFs@ ; `string'
PUBLIC	??_C@_0BO@PNOLFPJH@?$CFd?5warning?$CFs?5in?5the?5SOC?5lump?6@ ; `string'
PUBLIC	??_C@_0BJ@LAJPILBF@Unloading?5WAD?5SOC?5edits?6@ ; `string'
PUBLIC	??_C@_0BG@HJIDKBNP@Gamma?5correction?5OFF?6@	; `string'
PUBLIC	??_C@_0BK@CBAIANNJ@Gamma?5correction?5level?51?6@ ; `string'
PUBLIC	??_C@_0BK@CDEOLDIA@Gamma?5correction?5level?52?6@ ; `string'
PUBLIC	??_C@_0BK@CCIMNJLH@Gamma?5correction?5level?53?6@ ; `string'
PUBLIC	??_C@_0BK@CHMDMPDC@Gamma?5correction?5level?54?6@ ; `string'
PUBLIC	??_C@_0M@JDBJHHKB@empty?5slot?6@		; `string'
PUBLIC	??_C@_0N@FCDCLMLG@Game?5saved?4?6@		; `string'
PUBLIC	??_C@_0BC@DLJLKLKM@?$FLMessage?5unsent?$FN?6@	; `string'
PUBLIC	??_C@_0BH@ELIBDINI@Speeding?5off?5to?5?$CFs?4?4?4?6@ ; `string'
PUBLIC	??_C@_0BG@IEHPEAIK@The?5round?5has?5ended?4?6@	; `string'
PUBLIC	??_C@_0BG@NIMECJFB@Player?5is?5dead?0?5etc?4?6@	; `string'
PUBLIC	??_C@_0ED@HHGIEBGA@teleport?5?9x?5?$DMvalue?$DO?5?9y?5?$DMvalue?$DO?5@ ; `string'
PUBLIC	??_C@_0CC@COBMHIKO@Unable?5to?5teleport?5to?5that?5spot@ ; `string'
PUBLIC	??_C@_0CI@OMFPMKKI@You?5can?8t?5teleport?5while?5in?5a?5n@ ; `string'
PUBLIC	??_C@_0CM@GHMPEAKB@?6You?5can?8t?5play?5a?5demo?5while?5in@ ; `string'
PUBLIC	??_C@_0DC@LPKNBFKE@This?5command?5is?5only?5for?5captur@ ; `string'
PUBLIC	??_C@_0BO@DGPAMEI@You?8re?5already?5on?5that?5team?$CB?6@ ; `string'
PUBLIC	??_C@_0CI@BHHCGCPD@The?5server?5does?5not?5allow?5team?5@ ; `string'
PUBLIC	??_C@_0CN@EDMJJLL@You?5are?5not?5the?5server?4?5You?5can@ ; `string'
PUBLIC	??_C@_0DH@FLLHDAMP@WARNING?3?5Game?5must?5be?5restarted@ ; `string'
PUBLIC	??_C@_0BF@NADNAKHK@File?5doesn?8t?5exist?4?6@	; `string'
PUBLIC	??_C@_0GP@CGDGCAIA@The?5server?5tried?5to?5add?5?$CFs?0?6but@ ; `string'
PUBLIC	??_C@_0BK@HOGDOBME@DEVMODE?5must?5be?5enabled?4?6@ ; `string'
PUBLIC	??_C@_0BO@GBCBILFJ@You?5haven?8t?5earned?5this?5yet?4?6@ ; `string'
PUBLIC	??_C@_0CF@JOPFLLCM@You?5must?5be?5in?5a?5level?5to?5use?5t@ ; `string'
PUBLIC	??_C@_0CG@JOEAHHEL@You?5can?8t?5use?5this?5in?5single?5pl@ ; `string'
PUBLIC	??_C@_0CC@DPBFIFPI@You?5can?8t?5use?5this?5in?5a?5netgame@ ; `string'
PUBLIC	??_C@_0BP@OKLLDODM@This?5only?5works?5in?5a?5netgame?4?6@ ; `string'
PUBLIC	??_C@_0CD@GIFJKINH@This?5only?5works?5in?5single?5playe@ ; `string'
PUBLIC	??_C@_0CF@BDPPFEJP@Only?5the?5server?5can?5pause?5the?5g@ ; `string'
PUBLIC	??_C@_0BH@LJEIPBNI@You?5can?8t?5pause?5here?4?6@ ; `string'
PUBLIC	??_C@_0BH@MCLLMNLH@Couldn?8t?5read?5file?5?$CFs?6@ ; `string'
PUBLIC	??_C@_0NI@FAAJLBDN@Objectplace?5Controls?3?2?2Camera?5L@ ; `string'
PUBLIC	??_C@_0BP@IGCMAKCK@ERROR?3?5Powerup?5has?5no?5target?$CB?6@ ; `string'
PUBLIC	??_C@_0CD@LLCEKKIA@?$CFs?5returned?5the?5red?5flag?5to?5bas@ ; `string'
PUBLIC	??_C@_0BM@KJOGHLAP@?$CFs?5picked?5up?5the?5red?5flag?$CB?6@ ; `string'
PUBLIC	??_C@_0CE@JGMJDOFI@?$CFs?5returned?5the?5blue?5flag?5to?5ba@ ; `string'
PUBLIC	??_C@_0BN@LDPOLADN@?$CFs?5picked?5up?5the?5blue?5flag?$CB?6@ ; `string'
PUBLIC	??_C@_0BI@JEHGIMIF@?$CFs?5tossed?5the?5?$CFs?5flag?4?6@ ; `string'
PUBLIC	??_C@_0BJ@ICLFEDFA@?$CFs?5dropped?5the?5?$CFs?5flag?4?6@ ; `string'
PUBLIC	??_C@_0CM@PMHNCIEO@?$CFs?$CFs?$CFs?5crushed?5?$CFs?$CFs?$CFs?5with?5a?5he@ ; `string'
PUBLIC	??_C@_0BC@EDBMACNB@?$CFs?$CFs?$CFs?5suicided?4?6@ ; `string'
PUBLIC	??_C@_0O@GDGLGAGC@?$CFs?$CFs?$CFs?5died?4?6@	; `string'
PUBLIC	??_C@_03CMHMLDFC@hit@				; `string'
PUBLIC	??_C@_06KGGGBDJD@killed@			; `string'
PUBLIC	??_C@_0L@CANLDPBJ@reflected?5@			; `string'
PUBLIC	??_C@_0BN@FFJKCMID@?$CFs?$CFs?$CFs?5got?5nuked?5by?5?$CFs?$CFs?$CFs?$CB?6@ ; `string'
PUBLIC	??_C@_0CK@ICANKBEO@?$CFs?$CFs?$CFs?5was?5burnt?5by?5?$CFs?$CFs?$CFs?8s?5fi@ ; `string'
PUBLIC	??_C@_0CK@NAKJMMGD@?$CFs?$CFs?$CFs?5was?5fried?5by?5?$CFs?$CFs?$CFs?8s?5fi@ ; `string'
PUBLIC	??_C@_0CK@MIEMMEEG@?$CFs?$CFs?$CFs?5was?5?$CFs?5by?5?$CFs?$CFs?$CFs?8s?5?$CFsbou@ ; `string'
PUBLIC	??_C@_0CN@KDCFKGDO@?$CFs?$CFs?$CFs?5was?5?$CFs?5by?5?$CFs?$CFs?$CFs?8s?5?$CFsaut@ ; `string'
PUBLIC	??_C@_0CN@DGDGFLOE@?$CFs?$CFs?$CFs?5was?5?$CFs?5by?5?$CFs?$CFs?$CFs?8s?5?$CFsexp@ ; `string'
PUBLIC	??_C@_0CI@KIOCKJGP@?$CFs?$CFs?$CFs?5was?5?$CFs?5by?5?$CFs?$CFs?$CFs?8s?5?$CFsrai@ ; `string'
PUBLIC	??_C@_0CL@EAJLHDMF@?$CFs?$CFs?$CFs?5was?5?$CFs?5by?5?$CFs?$CFs?$CFs?8s?5?$CFssca@ ; `string'
PUBLIC	??_C@_0CL@KLGMBHPH@?$CFs?$CFs?$CFs?5was?5?$CFs?5by?5?$CFs?$CFs?$CFs?8s?5?$CFsgre@ ; `string'
PUBLIC	??_C@_0CD@GLKOFMNP@?$CFs?$CFs?$CFs?5was?5?$CFs?5by?5?$CFs?$CFs?$CFs?8s?5?$CFsrin@ ; `string'
PUBLIC	??_C@_0BK@FAMOIJHM@?$CFs?$CFs?$CFs?5was?5?$CFs?5by?5?$CFs?$CFs?$CFs?4?6@ ; `string'
PUBLIC	??_C@_0BB@HFOPIDKJ@?$CFs?$CFs?$CFs?5drowned?4?6@ ; `string'
PUBLIC	??_C@_0BF@MGMKIKCN@?$CFs?$CFs?$CFs?5was?5crushed?4?6@ ; `string'
PUBLIC	??_C@_0CB@GNMNMF@?$CFs?$CFs?$CFs?5was?5?$CFs?5by?5a?5blue?5crawla?$CB@ ; `string'
PUBLIC	??_C@_0CA@IEFKAAPP@?$CFs?$CFs?$CFs?5was?5?$CFs?5by?5a?5red?5crawla?$CB?6@ ; `string'
PUBLIC	??_C@_0CG@JDBFLAPB@?$CFs?$CFs?$CFs?5was?5?$CFs?5by?5a?5jetty?9syn?5gu@ ; `string'
PUBLIC	??_C@_0CG@HCNDACLL@?$CFs?$CFs?$CFs?5was?5?$CFs?5by?5a?5jetty?9syn?5bo@ ; `string'
PUBLIC	??_C@_0CG@GAKEGGJA@?$CFs?$CFs?$CFs?5was?5?$CFs?5by?5a?5crawla?5comma@ ; `string'
PUBLIC	??_C@_0CC@GHFFJILE@?$CFs?$CFs?$CFs?5was?5?$CFs?5by?5the?5Egg?5Mobile@ ; `string'
PUBLIC	??_C@_0CC@NEJABNAP@?$CFs?$CFs?$CFs?5was?5?$CFs?5by?5the?5Egg?5Slimer@ ; `string'
PUBLIC	??_C@_0CE@KKGBNJOL@?$CFs?$CFs?$CFs?5fell?5into?5a?5bottomless?5p@ ; `string'
PUBLIC	??_C@_0CB@BIKCCHCD@?$CFs?$CFs?$CFs?5fell?5in?5some?5nasty?5goop?$CB@ ; `string'
PUBLIC	??_C@_0BJ@NIINBEJL@?$CFs?$CFs?$CFs?5burned?5to?5death?$CB?6@ ; `string'
PUBLIC	??_C@_0BK@HANHBONB@?$CFs?$CFs?$CFs?5was?5electrocuted?$CB?6@ ; `string'
PUBLIC	??_C@_0BP@BFMMAIAC@?$CFs?$CFs?$CFs?5was?5impaled?5by?5spikes?$CB?6@ ; `string'
PUBLIC	??_C@_0BO@EJPNLKKA@?$CFs?$CFs?$CFs?5asphyxiated?5in?5space?$CB?6@ ; `string'
PUBLIC	??_C@_0BM@MNPAHFKK@?$CFs?5caused?5a?5world?5of?5pain?4?6@ ; `string'
PUBLIC	??_C@_0BF@IOBFJOLC@?$CFs?5got?5a?5game?5over?4?6@ ; `string'
PUBLIC	??_C@_0BM@CNBOMPIH@?$CFs?5has?5?$CFd?5lives?5remaining?4?6@ ; `string'
PUBLIC	??_C@_0L@FKKLEDAE@?$CFs?5is?5it?$CB?6@		; `string'
PUBLIC	??_C@_0BP@PPCPBPM@Warning?3?5State?5Cycle?5Detected?6@ ; `string'
PUBLIC	??_C@_0BL@LAEJCAFN@?$CFs?5has?5finished?5the?5race?4?6@ ; `string'
PUBLIC	??_C@_0BD@JPMJALBI@?$CFs?5started?5lap?5?$CFd?6@ ; `string'
PUBLIC	??_C@_0BN@CDODPKFM@?$CFs?5has?5completed?5the?5level?4?6@ ; `string'
PUBLIC	??_C@_0EN@EEMOFGFM@Sorry?0?5you?8re?5too?5high?5to?5place@ ; `string'
PUBLIC	??_C@_0EN@FDJBIONG@Sorry?0?5you?8re?5too?5high?5to?5place@ ; `string'
PUBLIC	??_C@_0BF@PDBNEHMN@?$CFs?5ran?5out?5of?5time?4?6@ ; `string'
PUBLIC	??_C@_02IGFKBHGM@?5?$CD@			; `string'
PUBLIC	??_C@_0GA@HFPDKLEK@Two?5months?5had?5passed?5since?5Dr?4@ ; `string'
PUBLIC	??_C@_0JP@DJKNOPLE@As?5it?5was?5about?5to?5drain?5the?5ri@ ; `string'
PUBLIC	??_C@_0HB@MPBAHLEC@?6What?5Sonic?0?5Tails?0?5and?5Knuckle@ ; `string'
PUBLIC	??_C@_0OL@EAMHPNGF@About?5once?5every?5year?0?5a?5strang@ ; `string'
PUBLIC	??_C@_0OJ@EPOLGDHI@?$CCCurses?$CB?$CC?5Eggman?5yelled?4?5?$CCThat?5@ ; `string'
PUBLIC	??_C@_0PE@NMJIGKBM@It?5was?5only?5later?6that?5he?5had?5a@ ; `string'
PUBLIC	??_C@_0FB@JBNFLONA@?6?6Before?5beginning?5his?5scheme?0?6@ ; `string'
PUBLIC	??_C@_0NN@CPDNEIMN@?$CCWe?8re?5ready?5to?5fire?5in?515?5seco@ ; `string'
PUBLIC	??_C@_0NC@EOJLJHKL@?$CC10?4?4?49?4?4?48?4?4?4?$CC?6Meanwhile?0?5Soni@ ; `string'
PUBLIC	??_C@_0JF@MENOFNBG@?$CC5?4?4?44?4?4?43?4?4?4?$CC?6Sonic?5knew?5he?5wa@ ; `string'
PUBLIC	??_C@_0JP@IGLHJKCL@GreenFlower?5City?5was?5gone?4?6Soni@ ; `string'
PUBLIC	??_C@_0PA@DNGOIOAA@?$CCYou?8re?5not?5quite?5as?5dead?5as?5we@ ; `string'
PUBLIC	??_C@_0MJ@PAOAPHEA@Eggman?5took?5this?6as?5his?5cue?5and@ ; `string'
PUBLIC	??_C@_0KJ@CCJOJNDC@?$CCEasy?$CB?5We?5go?6find?5Eggman?6and?5st@ ; `string'
PUBLIC	??_C@_0OA@CFEAOJJI@?$CCI?8m?5just?5finding?5what?5mission?5@ ; `string'
PUBLIC	??_C@_0HF@ODGNBPDF@Eggman?8s?5tied?5explosives?6to?5you@ ; `string'
PUBLIC	??_C@_0DG@MHEKBCNG@What?5would?5Tails?5say?5if?6he?5saw?5@ ; `string'
PUBLIC	??_C@_0CF@OFCDDMCH@Hey?$CB?6Where?5do?5ya?5think?5you?8re?5g@ ; `string'
PUBLIC	??_C@_0CF@HLLPEGLM@Forget?5your?5studies?$CB?6Play?5some?5@ ; `string'
PUBLIC	??_C@_0EB@FPHDLGIL@You?8re?5trying?5to?5say?5you?6like?5S@ ; `string'
PUBLIC	??_C@_0DP@IJAKCFGE@Don?8t?5leave?5yet?5?9?9?5there?8s?5a?6su@ ; `string'
PUBLIC	??_C@_0BN@NIIKPAFE@You?8d?5rather?5work?5than?5play?$DP@ ; `string'
PUBLIC	??_C@_0CP@KJNCGILN@Go?5ahead?5and?5leave?4?5See?5if?5I?5ca@ ; `string'
PUBLIC	??_C@_0DD@NEDIJLNA@If?5you?5leave?5now?0?6Eggman?5will?5t@ ; `string'
PUBLIC	??_C@_0CH@GOFOIEFJ@Don?8t?5quit?$CB?6There?5are?5animals?6t@ ; `string'
PUBLIC	??_C@_0CG@MHKDLEJA@Aw?5c?8mon?0?5just?5bop?6a?5few?5more?5r@ ; `string'
PUBLIC	??_C@_0CG@HBGAPFCE@Did?5you?5get?5all?5those?5Chaos?5Eme@ ; `string'
PUBLIC	??_C@_0CO@DDJCPBPN@If?5you?5leave?0?5I?8ll?5use?6my?5spin?5@ ; `string'
PUBLIC	??_C@_0CM@LGPMBCEA@Don?8t?5go?$CB?6You?5might?5find?5the?5hi@ ; `string'
PUBLIC	??_C@_0CF@GEAIOEKB@Hit?5the?5?8N?8?5key?0?5Sonic?$CB?6The?5?8N?8@ ; `string'
PUBLIC	??_C@_0EH@BMBEDOOF@Are?5you?5really?5going?5to?6give?5up@ ; `string'
PUBLIC	??_C@_0CA@DNHMGIHH@Come?5on?0?5just?5ONE?5more?5netgame?$CB@ ; `string'
PUBLIC	??_C@_0CI@BLMCFPOP@Press?5?8N?8?5to?5unlock?6the?5Ultimat@ ; `string'
PUBLIC	??_C@_0EJ@COCLFAOJ@Why?5don?8t?5you?5go?5back?5and?5try?6j@ ; `string'
PUBLIC	??_C@_0DF@ENDLICK@Every?5time?5you?5press?5?8Y?8?0?5an?6SR@ ; `string'
PUBLIC	??_C@_0DE@JJPJGJBG@You?8ll?5be?5back?5to?5play?5soon?0?5th@ ; `string'
PUBLIC	??_C@_0CN@DLEEPAOJ@Aww?0?5is?5Egg?5Rock?5Zone?5too?6diffi@ ; `string'
PUBLIC	??_C@_0BFO@LOPHFEGI@?$DN?$DN?$DN?$DN?$DN?$DN?$DN?$DN?$DN?$DN?$DN?$DN?$DN?$DN?$DN?$DN?$DN?$DN?$DN?$DN?$DN?$DN?$DN?$DN?$DN?$DN?$DN?$DN?$DN?$DN?$DN@ ; `string'
PUBLIC	??_C@_0BCC@GDAGJDEE@?$DN?$DN?$DN?$DN?$DN?$DN?$DN?$DN?$DN?$DN?$DN?$DN?$DN?$DN?$DN?$DN?$DN?$DN?$DN?$DN?$DN?$DN?$DN?$DN?$DN?$DN?$DN?$DN?$DN?$DN?$DN@ ; `string'
PUBLIC	??_C@_0CH@PNMNMFCJ@M_LoadDefaults?3?5Load?5system?5def@ ; `string'
PUBLIC	??_C@_0CO@INGFCKHA@Z_Init?3?5Init?5zone?5memory?5alloca@ ; `string'
PUBLIC	??_C@_0BI@LDPDJBCN@W_Init?3?5Init?5WADfiles?4?6@ ; `string'
PUBLIC	??_C@_0CC@GEOIGHAO@M_Init?3?5Init?5miscellaneous?5info@ ; `string'
PUBLIC	??_C@_0CE@PJBHKHGJ@R_Init?3?5Init?5SRB2?5refresh?5daemo@ ; `string'
PUBLIC	??_C@_0BP@MCODJGL@?6P_Init?3?5Init?5Playloop?5state?4?6@ ; `string'
PUBLIC	??_C@_0CD@JKPPBDMJ@I_Init?3?5Setting?5up?5machine?5stat@ ; `string'
PUBLIC	??_C@_0CP@JMAHAGPB@D_CheckNetGame?3?5Checking?5networ@ ; `string'
PUBLIC	??_C@_0BL@LCLDCHBO@S_Init?3?5Setting?5up?5sound?4?6@ ; `string'
PUBLIC	??_C@_0CH@BDIFHFBP@HU_Init?3?5Setting?5up?5heads?5up?5di@ ; `string'
PUBLIC	??_C@_0BL@JLPKJIK@ST_Init?3?5Init?5status?5bar?4?6@ ; `string'
PUBLIC	??_C@_08GMPDFCMK@srb2?4srb@			; `string'
PUBLIC	??_C@_08KLKLHPDC@srb2?4wad@			; `string'
PUBLIC	??_C@_09JOPEDJOF@sonic?4plr@			; `string'
PUBLIC	??_C@_09OPMBNNCL@tails?4plr@			; `string'
PUBLIC	??_C@_08BCIKCOEI@knux?4plr@			; `string'
PUBLIC	??_C@_09NFGCBHDJ@music?4dta@			; `string'
PUBLIC	??_C@_0BK@OFHKPOCI@c?3?2srb2data?2srb2sav?$CFu?4ssg@ ; `string'
PUBLIC	??_C@_0O@FHMONFHP@srb2sav?$CFu?4ssg@		; `string'
PUBLIC	??_C@_0BL@KHLADLMF@Sonic?5Robo?5Blast?52?3?5v2?40?47@ ; `string'
_DATA	SEGMENT
COMM	_ATTRPACK:DWORD
COMM	_savegamename:BYTE:0100H
_DATA	ENDS
;	COMDAT ??_C@_0BL@KHLADLMF@Sonic?5Robo?5Blast?52?3?5v2?40?47@
CONST	SEGMENT
??_C@_0BL@KHLADLMF@Sonic?5Robo?5Blast?52?3?5v2?40?47@ DB 'Sonic Robo Blas'
	DB	't 2: v2.0.7', 00H				; `string'
CONST	ENDS
;	COMDAT ??_C@_0O@FHMONFHP@srb2sav?$CFu?4ssg@
CONST	SEGMENT
??_C@_0O@FHMONFHP@srb2sav?$CFu?4ssg@ DB 'srb2sav%u.ssg', 00H ; `string'
CONST	ENDS
;	COMDAT ??_C@_0BK@OFHKPOCI@c?3?2srb2data?2srb2sav?$CFu?4ssg@
CONST	SEGMENT
??_C@_0BK@OFHKPOCI@c?3?2srb2data?2srb2sav?$CFu?4ssg@ DB 'c:\srb2data\srb2'
	DB	'sav%u.ssg', 00H				; `string'
CONST	ENDS
;	COMDAT ??_C@_09NFGCBHDJ@music?4dta@
CONST	SEGMENT
??_C@_09NFGCBHDJ@music?4dta@ DB 'music.dta', 00H	; `string'
CONST	ENDS
;	COMDAT ??_C@_08BCIKCOEI@knux?4plr@
CONST	SEGMENT
??_C@_08BCIKCOEI@knux?4plr@ DB 'knux.plr', 00H		; `string'
CONST	ENDS
;	COMDAT ??_C@_09OPMBNNCL@tails?4plr@
CONST	SEGMENT
??_C@_09OPMBNNCL@tails?4plr@ DB 'tails.plr', 00H	; `string'
CONST	ENDS
;	COMDAT ??_C@_09JOPEDJOF@sonic?4plr@
CONST	SEGMENT
??_C@_09JOPEDJOF@sonic?4plr@ DB 'sonic.plr', 00H	; `string'
CONST	ENDS
;	COMDAT ??_C@_08KLKLHPDC@srb2?4wad@
CONST	SEGMENT
??_C@_08KLKLHPDC@srb2?4wad@ DB 'srb2.wad', 00H		; `string'
CONST	ENDS
;	COMDAT ??_C@_08GMPDFCMK@srb2?4srb@
CONST	SEGMENT
??_C@_08GMPDFCMK@srb2?4srb@ DB 'srb2.srb', 00H		; `string'
CONST	ENDS
;	COMDAT ??_C@_0BL@JLPKJIK@ST_Init?3?5Init?5status?5bar?4?6@
CONST	SEGMENT
??_C@_0BL@JLPKJIK@ST_Init?3?5Init?5status?5bar?4?6@ DB 'ST_Init: Init sta'
	DB	'tus bar.', 0aH, 00H				; `string'
CONST	ENDS
;	COMDAT ??_C@_0CH@BDIFHFBP@HU_Init?3?5Setting?5up?5heads?5up?5di@
CONST	SEGMENT
??_C@_0CH@BDIFHFBP@HU_Init?3?5Setting?5up?5heads?5up?5di@ DB 'HU_Init: Se'
	DB	'tting up heads up display.', 0aH, 00H	; `string'
CONST	ENDS
;	COMDAT ??_C@_0BL@LCLDCHBO@S_Init?3?5Setting?5up?5sound?4?6@
CONST	SEGMENT
??_C@_0BL@LCLDCHBO@S_Init?3?5Setting?5up?5sound?4?6@ DB 'S_Init: Setting '
	DB	'up sound.', 0aH, 00H			; `string'
CONST	ENDS
;	COMDAT ??_C@_0CP@JMAHAGPB@D_CheckNetGame?3?5Checking?5networ@
CONST	SEGMENT
??_C@_0CP@JMAHAGPB@D_CheckNetGame?3?5Checking?5networ@ DB 'D_CheckNetGame'
	DB	': Checking network game status.', 0aH, 00H	; `string'
CONST	ENDS
;	COMDAT ??_C@_0CD@JKPPBDMJ@I_Init?3?5Setting?5up?5machine?5stat@
CONST	SEGMENT
??_C@_0CD@JKPPBDMJ@I_Init?3?5Setting?5up?5machine?5stat@ DB 'I_Init: Sett'
	DB	'ing up machine state.', 0aH, 00H		; `string'
CONST	ENDS
;	COMDAT ??_C@_0BP@MCODJGL@?6P_Init?3?5Init?5Playloop?5state?4?6@
CONST	SEGMENT
??_C@_0BP@MCODJGL@?6P_Init?3?5Init?5Playloop?5state?4?6@ DB 0aH, 'P_Init:'
	DB	' Init Playloop state.', 0aH, 00H		; `string'
CONST	ENDS
;	COMDAT ??_C@_0CE@PJBHKHGJ@R_Init?3?5Init?5SRB2?5refresh?5daemo@
CONST	SEGMENT
??_C@_0CE@PJBHKHGJ@R_Init?3?5Init?5SRB2?5refresh?5daemo@ DB 'R_Init: Init'
	DB	' SRB2 refresh daemon - ', 00H		; `string'
CONST	ENDS
;	COMDAT ??_C@_0CC@GEOIGHAO@M_Init?3?5Init?5miscellaneous?5info@
CONST	SEGMENT
??_C@_0CC@GEOIGHAO@M_Init?3?5Init?5miscellaneous?5info@ DB 'M_Init: Init '
	DB	'miscellaneous info.', 0aH, 00H		; `string'
CONST	ENDS
;	COMDAT ??_C@_0BI@LDPDJBCN@W_Init?3?5Init?5WADfiles?4?6@
CONST	SEGMENT
??_C@_0BI@LDPDJBCN@W_Init?3?5Init?5WADfiles?4?6@ DB 'W_Init: Init WADfile'
	DB	's.', 0aH, 00H				; `string'
CONST	ENDS
;	COMDAT ??_C@_0CO@INGFCKHA@Z_Init?3?5Init?5zone?5memory?5alloca@
CONST	SEGMENT
??_C@_0CO@INGFCKHA@Z_Init?3?5Init?5zone?5memory?5alloca@ DB 'Z_Init: Init'
	DB	' zone memory allocation daemon. ', 0aH, 00H	; `string'
CONST	ENDS
;	COMDAT ??_C@_0CH@PNMNMFCJ@M_LoadDefaults?3?5Load?5system?5def@
CONST	SEGMENT
??_C@_0CH@PNMNMFCJ@M_LoadDefaults?3?5Load?5system?5def@ DB 'M_LoadDefault'
	DB	's: Load system defaults.', 0aH, 00H		; `string'
CONST	ENDS
;	COMDAT ??_C@_0BCC@GDAGJDEE@?$DN?$DN?$DN?$DN?$DN?$DN?$DN?$DN?$DN?$DN?$DN?$DN?$DN?$DN?$DN?$DN?$DN?$DN?$DN?$DN?$DN?$DN?$DN?$DN?$DN?$DN?$DN?$DN?$DN?$DN?$DN@
CONST	SEGMENT
??_C@_0BCC@GDAGJDEE@?$DN?$DN?$DN?$DN?$DN?$DN?$DN?$DN?$DN?$DN?$DN?$DN?$DN?$DN?$DN?$DN?$DN?$DN?$DN?$DN?$DN?$DN?$DN?$DN?$DN?$DN?$DN?$DN?$DN?$DN?$DN@ DB '='
	DB	'============================================================='
	DB	'=============', 0aH, '                   We hope you enjoy th'
	DB	'is game as', 0aH, '                     much as we did making'
	DB	' it!', 0aH, '                            ...wait. =P', 0aH, '='
	DB	'============================================================='
	DB	'=============', 0aH, 00H			; `string'
CONST	ENDS
;	COMDAT ??_C@_0BFO@LOPHFEGI@?$DN?$DN?$DN?$DN?$DN?$DN?$DN?$DN?$DN?$DN?$DN?$DN?$DN?$DN?$DN?$DN?$DN?$DN?$DN?$DN?$DN?$DN?$DN?$DN?$DN?$DN?$DN?$DN?$DN?$DN?$DN@
CONST	SEGMENT
??_C@_0BFO@LOPHFEGI@?$DN?$DN?$DN?$DN?$DN?$DN?$DN?$DN?$DN?$DN?$DN?$DN?$DN?$DN?$DN?$DN?$DN?$DN?$DN?$DN?$DN?$DN?$DN?$DN?$DN?$DN?$DN?$DN?$DN?$DN?$DN@ DB '='
	DB	'============================================================='
	DB	'=============', 0aH, '                       Sonic Robo Blast'
	DB	' II!', 0aH, '                       by Sonic Team Junior', 0aH
	DB	'                      http://www.srb2.org', 0aH, '      This '
	DB	'is a modified version. Go to our site for the original.', 0aH
	DB	'============================================================='
	DB	'==============', 0aH, 00H			; `string'
CONST	ENDS
;	COMDAT ??_C@_0CN@DLEEPAOJ@Aww?0?5is?5Egg?5Rock?5Zone?5too?6diffi@
CONST	SEGMENT
??_C@_0CN@DLEEPAOJ@Aww?0?5is?5Egg?5Rock?5Zone?5too?6diffi@ DB 'Aww, is Eg'
	DB	'g Rock Zone too', 0aH, 'difficult for you?', 00H ; `string'
CONST	ENDS
;	COMDAT ??_C@_0DE@JJPJGJBG@You?8ll?5be?5back?5to?5play?5soon?0?5th@
CONST	SEGMENT
??_C@_0DE@JJPJGJBG@You?8ll?5be?5back?5to?5play?5soon?0?5th@ DB 'You''ll b'
	DB	'e back to play soon, though...', 0aH, '......right?', 00H ; `string'
CONST	ENDS
;	COMDAT ??_C@_0DF@ENDLICK@Every?5time?5you?5press?5?8Y?8?0?5an?6SR@
CONST	SEGMENT
??_C@_0DF@ENDLICK@Every?5time?5you?5press?5?8Y?8?0?5an?6SR@ DB 'Every tim'
	DB	'e you press ''Y'', an', 0aH, 'SRB2 Developer cries...', 00H ; `string'
CONST	ENDS
;	COMDAT ??_C@_0EJ@COCLFAOJ@Why?5don?8t?5you?5go?5back?5and?5try?6j@
CONST	SEGMENT
??_C@_0EJ@COCLFAOJ@Why?5don?8t?5you?5go?5back?5and?5try?6j@ DB 'Why don'''
	DB	't you go back and try', 0aH, 'jumping on that house to', 0aH, 's'
	DB	'ee what happens?', 00H			; `string'
CONST	ENDS
;	COMDAT ??_C@_0CI@BLMCFPOP@Press?5?8N?8?5to?5unlock?6the?5Ultimat@
CONST	SEGMENT
??_C@_0CI@BLMCFPOP@Press?5?8N?8?5to?5unlock?6the?5Ultimat@ DB 'Press ''N'''
	DB	' to unlock', 0aH, 'the Ultimate Cheat!', 00H ; `string'
CONST	ENDS
;	COMDAT ??_C@_0CA@DNHMGIHH@Come?5on?0?5just?5ONE?5more?5netgame?$CB@
CONST	SEGMENT
??_C@_0CA@DNHMGIHH@Come?5on?0?5just?5ONE?5more?5netgame?$CB@ DB 'Come on,'
	DB	' just ONE more netgame!', 00H		; `string'
CONST	ENDS
;	COMDAT ??_C@_0EH@BMBEDOOF@Are?5you?5really?5going?5to?6give?5up@
CONST	SEGMENT
??_C@_0EH@BMBEDOOF@Are?5you?5really?5going?5to?6give?5up@ DB 'Are you rea'
	DB	'lly going to', 0aH, 'give up?', 0aH, 'We certainly would neve'
	DB	'r give you up.', 00H			; `string'
CONST	ENDS
;	COMDAT ??_C@_0CF@GEAIOEKB@Hit?5the?5?8N?8?5key?0?5Sonic?$CB?6The?5?8N?8@
CONST	SEGMENT
??_C@_0CF@GEAIOEKB@Hit?5the?5?8N?8?5key?0?5Sonic?$CB?6The?5?8N?8@ DB 'Hit'
	DB	' the ''N'' key, Sonic!', 0aH, 'The ''N'' key!', 00H ; `string'
CONST	ENDS
;	COMDAT ??_C@_0CM@LGPMBCEA@Don?8t?5go?$CB?6You?5might?5find?5the?5hi@
CONST	SEGMENT
??_C@_0CM@LGPMBCEA@Don?8t?5go?$CB?6You?5might?5find?5the?5hi@ DB 'Don''t '
	DB	'go!', 0aH, 'You might find the hidden', 0aH, 'levels!', 00H ; `string'
CONST	ENDS
;	COMDAT ??_C@_0CO@DDJCPBPN@If?5you?5leave?0?5I?8ll?5use?6my?5spin?5@
CONST	SEGMENT
??_C@_0CO@DDJCPBPN@If?5you?5leave?0?5I?8ll?5use?6my?5spin?5@ DB 'If you l'
	DB	'eave, I''ll use', 0aH, 'my spin attack on you!', 00H ; `string'
CONST	ENDS
;	COMDAT ??_C@_0CG@HBGAPFCE@Did?5you?5get?5all?5those?5Chaos?5Eme@
CONST	SEGMENT
??_C@_0CG@HBGAPFCE@Did?5you?5get?5all?5those?5Chaos?5Eme@ DB 'Did you get'
	DB	' all those Chaos Emeralds?', 00H		; `string'
CONST	ENDS
;	COMDAT ??_C@_0CG@MHKDLEJA@Aw?5c?8mon?0?5just?5bop?6a?5few?5more?5r@
CONST	SEGMENT
??_C@_0CG@MHKDLEJA@Aw?5c?8mon?0?5just?5bop?6a?5few?5more?5r@ DB 'Aw c''mo'
	DB	'n, just bop', 0aH, 'a few more robots!', 00H ; `string'
CONST	ENDS
;	COMDAT ??_C@_0CH@GOFOIEFJ@Don?8t?5quit?$CB?6There?5are?5animals?6t@
CONST	SEGMENT
??_C@_0CH@GOFOIEFJ@Don?8t?5quit?$CB?6There?5are?5animals?6t@ DB 'Don''t q'
	DB	'uit!', 0aH, 'There are animals', 0aH, 'to save!', 00H ; `string'
CONST	ENDS
;	COMDAT ??_C@_0DD@NEDIJLNA@If?5you?5leave?5now?0?6Eggman?5will?5t@
CONST	SEGMENT
??_C@_0DD@NEDIJLNA@If?5you?5leave?5now?0?6Eggman?5will?5t@ DB 'If you lea'
	DB	've now,', 0aH, 'Eggman will take over the world!', 00H ; `string'
CONST	ENDS
;	COMDAT ??_C@_0CP@KJNCGILN@Go?5ahead?5and?5leave?4?5See?5if?5I?5ca@
CONST	SEGMENT
??_C@_0CP@KJNCGILN@Go?5ahead?5and?5leave?4?5See?5if?5I?5ca@ DB 'Go ahead '
	DB	'and leave. See if I care...', 0aH, '*sniffle*', 00H ; `string'
CONST	ENDS
;	COMDAT ??_C@_0BN@NIIKPAFE@You?8d?5rather?5work?5than?5play?$DP@
CONST	SEGMENT
??_C@_0BN@NIIKPAFE@You?8d?5rather?5work?5than?5play?$DP@ DB 'You''d rathe'
	DB	'r work than play?', 00H			; `string'
CONST	ENDS
;	COMDAT ??_C@_0DP@IJAKCFGE@Don?8t?5leave?5yet?5?9?9?5there?8s?5a?6su@
CONST	SEGMENT
??_C@_0DP@IJAKCFGE@Don?8t?5leave?5yet?5?9?9?5there?8s?5a?6su@ DB 'Don''t '
	DB	'leave yet -- there''s a', 0aH, 'super emerald around that cor'
	DB	'ner!', 00H					; `string'
CONST	ENDS
;	COMDAT ??_C@_0EB@FPHDLGIL@You?8re?5trying?5to?5say?5you?6like?5S@
CONST	SEGMENT
??_C@_0EB@FPHDLGIL@You?8re?5trying?5to?5say?5you?6like?5S@ DB 'You''re tr'
	DB	'ying to say you', 0aH, 'like Sonic 2K6 better than', 0aH, 'th'
	DB	'is, right?', 00H				; `string'
CONST	ENDS
;	COMDAT ??_C@_0CF@HLLPEGLM@Forget?5your?5studies?$CB?6Play?5some?5@
CONST	SEGMENT
??_C@_0CF@HLLPEGLM@Forget?5your?5studies?$CB?6Play?5some?5@ DB 'Forget yo'
	DB	'ur studies!', 0aH, 'Play some more!', 00H	; `string'
CONST	ENDS
;	COMDAT ??_C@_0CF@OFCDDMCH@Hey?$CB?6Where?5do?5ya?5think?5you?8re?5g@
CONST	SEGMENT
??_C@_0CF@OFCDDMCH@Hey?$CB?6Where?5do?5ya?5think?5you?8re?5g@ DB 'Hey!', 0aH
	DB	'Where do ya think you''re goin''?', 00H	; `string'
CONST	ENDS
;	COMDAT ??_C@_0DG@MHEKBCNG@What?5would?5Tails?5say?5if?6he?5saw?5@
CONST	SEGMENT
??_C@_0DG@MHEKBCNG@What?5would?5Tails?5say?5if?6he?5saw?5@ DB 'What would'
	DB	' Tails say if', 0aH, 'he saw you quitting the game?', 00H ; `string'
CONST	ENDS
;	COMDAT ??_C@_0HF@ODGNBPDF@Eggman?8s?5tied?5explosives?6to?5you@
CONST	SEGMENT
??_C@_0HF@ODGNBPDF@Eggman?8s?5tied?5explosives?6to?5you@ DB 'Eggman''s ti'
	DB	'ed explosives', 0aH, 'to your girlfriend, and', 0aH, 'will ac'
	DB	'tivate them if', 0aH, 'you press the ''Y'' key!', 0aH, 'Press'
	DB	' ''N'' to save her!', 00H			; `string'
CONST	ENDS
;	COMDAT ??_C@_0OA@CFEAOJJI@?$CCI?8m?5just?5finding?5what?5mission?5@
CONST	SEGMENT
??_C@_0OA@CFEAOJJI@?$CCI?8m?5just?5finding?5what?5mission?5@ DB '"I''m ju'
	DB	'st finding what mission obje...', 0aH, 'a-ha! Here it is! Thi'
	DB	's will only give', 0aH, 'the robot''s primary objective. It s'
	DB	'ays,', 0aH, '* LOCATE AND RETRIEVE CHAOS EMERALD.', 0aH, 'EST'
	DB	'IMATED LOCATION: GREENFLOWER ZONE *"', 0aH, '"All right, then'
	DB	' let''s go!"', 0aH, '#', 00H		; `string'
CONST	ENDS
;	COMDAT ??_C@_0KJ@CCJOJNDC@?$CCEasy?$CB?5We?5go?6find?5Eggman?6and?5st@
CONST	SEGMENT
??_C@_0KJ@CCJOJNDC@?$CCEasy?$CB?5We?5go?6find?5Eggman?6and?5st@ DB '"Easy'
	DB	'! We go', 0aH, 'find Eggman', 0aH, 'and stop his', 0aH, 'late'
	DB	'st', 0aH, 'insane plan.', 0aH, 'Just like', 0aH, 'we''ve alwa'
	DB	'ys', 0aH, 'done, right?                 ', 0aH, 0aH, '...    '
	DB	'                ', 0aH, 0aH, '"Tails,what', 0aH, '*ARE* you', 0aH
	DB	'doing?"', 0aH, '#', 00H			; `string'
CONST	ENDS
;	COMDAT ??_C@_0MJ@PAOAPHEA@Eggman?5took?5this?6as?5his?5cue?5and@
CONST	SEGMENT
??_C@_0MJ@PAOAPHEA@Eggman?5took?5this?6as?5his?5cue?5and@ DB 'Eggman took'
	DB	' this', 0aH, 'as his cue and', 0aH, 'blasted off,', 0aH, 'lea'
	DB	'ving Sonic', 0aH, 'and Tails behind.', 0aH, 'Tails looked at', 0aH
	DB	'the ruins of the', 0aH, 'Greenflower City', 0aH, 'with a grim'
	DB	' face', 0aH, 'and sighed.           ', 0aH, '"Now what do we', 0aH
	DB	'do?", he asked.', 0aH, '#', 00H		; `string'
CONST	ENDS
;	COMDAT ??_C@_0PA@DNGOIOAA@?$CCYou?8re?5not?5quite?5as?5dead?5as?5we@
CONST	SEGMENT
??_C@_0PA@DNGOIOAA@?$CCYou?8re?5not?5quite?5as?5dead?5as?5we@ DB '"You''r'
	DB	'e not quite as dead as we thought,', 0aH, 'huh? Are you going'
	DB	' to tell us your plan as', 0aH, 'usual or will I ''have to wo'
	DB	'rk it out'' or', 0aH, 'something?"                         ', 0aH
	DB	'"We''ll see... let''s give you a quick warm', 0aH, 'up, Sonic'
	DB	'! JETTYSYNS! Open fire!"', 0aH, '#', 00H	; `string'
CONST	ENDS
;	COMDAT ??_C@_0JP@IGLHJKCL@GreenFlower?5City?5was?5gone?4?6Soni@
CONST	SEGMENT
??_C@_0JP@IGLHJKCL@GreenFlower?5City?5was?5gone?4?6Soni@ DB 'GreenFlower '
	DB	'City was gone.', 0aH, 'Sonic arrived just in time to see what'
	DB	0aH, 'little of the ''ruins'' were left. Everyone', 0aH, 'and '
	DB	'everything in the city had been', 0aH, 'obliterated.', 0aH, '#'
	DB	00H						; `string'
CONST	ENDS
;	COMDAT ??_C@_0JF@MENOFNBG@?$CC5?4?4?44?4?4?43?4?4?4?$CC?6Sonic?5knew?5he?5wa@
CONST	SEGMENT
??_C@_0JF@MENOFNBG@?$CC5?4?4?44?4?4?43?4?4?4?$CC?6Sonic?5knew?5he?5wa@ DB '"'
	DB	'5...4...3..."', 0aH, 'Sonic knew he was getting closer to the'
	DB	0aH, 'City, and pushed himself harder. Finally,', 0aH, 'the ci'
	DB	'ty appeared in the horizon.', 0aH, '"2...1...Zero."', 0aH, '#'
	DB	00H						; `string'
CONST	ENDS
;	COMDAT ??_C@_0NC@EOJLJHKL@?$CC10?4?4?49?4?4?48?4?4?4?$CC?6Meanwhile?0?5Soni@
CONST	SEGMENT
??_C@_0NC@EOJLJHKL@?$CC10?4?4?49?4?4?48?4?4?4?$CC?6Meanwhile?0?5Soni@ DB '"'
	DB	'10...9...8..."', 0aH, 'Meanwhile, Sonic was tearing across th'
	DB	'e', 0aH, 'zones, and everything became nothing but', 0aH, 'a '
	DB	'blur as he ran around loops, skimmed', 0aH, 'over water, and '
	DB	'catapulted himself off', 0aH, 'rocks with his phenomenal spee'
	DB	'd.', 0aH, '#', 00H				; `string'
CONST	ENDS
;	COMDAT ??_C@_0NN@CPDNEIMN@?$CCWe?8re?5ready?5to?5fire?5in?515?5seco@
CONST	SEGMENT
??_C@_0NN@CPDNEIMN@?$CCWe?8re?5ready?5to?5fire?5in?515?5seco@ DB '"We''re'
	DB	' ready to fire in 15 seconds!"', 0aH, 'The robot said, his vo'
	DB	'ice crackling a', 0aH, 'little down the com-link. "Good!"', 0aH
	DB	'Eggman sat back in his Egg-Mobile and', 0aH, 'began to count '
	DB	'down as he saw the', 0aH, 'GreenFlower city on the main monit'
	DB	'or.', 0aH, '#', 00H				; `string'
CONST	ENDS
;	COMDAT ??_C@_0FB@JBNFLONA@?6?6Before?5beginning?5his?5scheme?0?6@
CONST	SEGMENT
??_C@_0FB@JBNFLONA@?6?6Before?5beginning?5his?5scheme?0?6@ DB 0aH, 0aH, 'B'
	DB	'efore beginning his scheme,', 0aH, 'Eggman decided to give So'
	DB	'nic', 0aH, 'a reunion party...', 0aH, '#', 00H ; `string'
CONST	ENDS
;	COMDAT ??_C@_0PE@NMJIGKBM@It?5was?5only?5later?6that?5he?5had?5a@
CONST	SEGMENT
??_C@_0PE@NMJIGKBM@It?5was?5only?5later?6that?5he?5had?5a@ DB 'It was onl'
	DB	'y later', 0aH, 'that he had an', 0aH, 'idea. "The Black', 0aH
	DB	'Rock usually has a', 0aH, 'lot of energy', 0aH, 'within it...'
	DB	' if I', 0aH, 'can somehow', 0aH, 'harness this, I', 0aH, 'can'
	DB	' turn it into', 0aH, 'the ultimate', 0aH, 'battle station,', 0aH
	DB	'and every last', 0aH, 'person will be', 0aH, 'begging for mer'
	DB	'cy,', 0aH, 'including Sonic!"', 0aH, '#', 00H ; `string'
CONST	ENDS
;	COMDAT ??_C@_0OJ@EPOLGDHI@?$CCCurses?$CB?$CC?5Eggman?5yelled?4?5?$CCThat?5@
CONST	SEGMENT
??_C@_0OJ@EPOLGDHI@?$CCCurses?$CB?$CC?5Eggman?5yelled?4?5?$CCThat?5@ DB '"'
	DB	'Curses!" Eggman yelled. "That hedgehog', 0aH, 'and his ridicu'
	DB	'lous friends will pay', 0aH, 'dearly for this!" Just then his'
	DB	' scanner', 0aH, 'blipped as the Black Rock made its', 0aH, 'a'
	DB	'ppearance from nowhere. Eggman looked at', 0aH, 'the screen, '
	DB	'and just shrugged it off.', 0aH, '#', 00H	; `string'
CONST	ENDS
;	COMDAT ??_C@_0OL@EAMHPNGF@About?5once?5every?5year?0?5a?5strang@
CONST	SEGMENT
??_C@_0OL@EAMHPNGF@About?5once?5every?5year?0?5a?5strang@ DB 'About once '
	DB	'every year, a strange asteroid', 0aH, 'hovers around the plan'
	DB	'et. it suddenly', 0aH, 'appears from nowhere, circles around,'
	DB	' and', 0aH, '- just as mysteriously as it arrives, it', 0aH, 'v'
	DB	'anishes after about two months.', 0aH, 'No one knows why it a'
	DB	'ppears, or how.', 0aH, '#', 00H		; `string'
CONST	ENDS
;	COMDAT ??_C@_0HB@MPBAHLEC@?6What?5Sonic?0?5Tails?0?5and?5Knuckle@
CONST	SEGMENT
??_C@_0HB@MPBAHLEC@?6What?5Sonic?0?5Tails?0?5and?5Knuckle@ DB 0aH, 'What '
	DB	'Sonic, Tails, and Knuckles had', 0aH, 'not anticipated was th'
	DB	'at Eggman would', 0aH, 'return, bringing an all new threat.', 0aH
	DB	'#', 00H					; `string'
CONST	ENDS
;	COMDAT ??_C@_0JP@DJKNOPLE@As?5it?5was?5about?5to?5drain?5the?5ri@
CONST	SEGMENT
??_C@_0JP@DJKNOPLE@As?5it?5was?5about?5to?5drain?5the?5ri@ DB 'As it was '
	DB	'about to drain the rings', 0aH, 'away from the planet, Sonic '
	DB	'burst into', 0aH, 'the Satellite and for what he thought', 0aH
	DB	'would be the last time, defeated', 0aH, 'Dr. Eggman.', 0aH, '#'
	DB	00H						; `string'
CONST	ENDS
;	COMDAT ??_C@_0GA@HFPDKLEK@Two?5months?5had?5passed?5since?5Dr?4@
CONST	SEGMENT
??_C@_0GA@HFPDKLEK@Two?5months?5had?5passed?5since?5Dr?4@ DB 'Two months '
	DB	'had passed since Dr. Eggman', 0aH, 'tried to take over the wo'
	DB	'rld using his', 0aH, 'Ring Satellite.', 0aH, '#', 00H ; `string'
CONST	ENDS
;	COMDAT ??_C@_02IGFKBHGM@?5?$CD@
CONST	SEGMENT
??_C@_02IGFKBHGM@?5?$CD@ DB ' #', 00H			; `string'
CONST	ENDS
;	COMDAT ??_C@_0BF@PDBNEHMN@?$CFs?5ran?5out?5of?5time?4?6@
CONST	SEGMENT
??_C@_0BF@PDBNEHMN@?$CFs?5ran?5out?5of?5time?4?6@ DB '%s ran out of time.'
	DB	0aH, 00H					; `string'
CONST	ENDS
;	COMDAT ??_C@_0EN@FDJBIONG@Sorry?0?5you?8re?5too?5high?5to?5place@
CONST	SEGMENT
??_C@_0EN@FDJBIONG@Sorry?0?5you?8re?5too?5high?5to?5place@ DB 'Sorry, you'
	DB	'''re too high to place this object (max: 2047 above bottom fl'
	DB	'oor).', 0aH, 00H				; `string'
CONST	ENDS
;	COMDAT ??_C@_0EN@EEMOFGFM@Sorry?0?5you?8re?5too?5high?5to?5place@
CONST	SEGMENT
??_C@_0EN@EEMOFGFM@Sorry?0?5you?8re?5too?5high?5to?5place@ DB 'Sorry, you'
	DB	'''re too high to place this object (max: 4095 above bottom fl'
	DB	'oor).', 0aH, 00H				; `string'
CONST	ENDS
;	COMDAT ??_C@_0BN@CDODPKFM@?$CFs?5has?5completed?5the?5level?4?6@
CONST	SEGMENT
??_C@_0BN@CDODPKFM@?$CFs?5has?5completed?5the?5level?4?6@ DB '%s has comp'
	DB	'leted the level.', 0aH, 00H			; `string'
CONST	ENDS
;	COMDAT ??_C@_0BD@JPMJALBI@?$CFs?5started?5lap?5?$CFd?6@
CONST	SEGMENT
??_C@_0BD@JPMJALBI@?$CFs?5started?5lap?5?$CFd?6@ DB '%s started lap %d', 0aH
	DB	00H						; `string'
CONST	ENDS
;	COMDAT ??_C@_0BL@LAEJCAFN@?$CFs?5has?5finished?5the?5race?4?6@
CONST	SEGMENT
??_C@_0BL@LAEJCAFN@?$CFs?5has?5finished?5the?5race?4?6@ DB '%s has finish'
	DB	'ed the race.', 0aH, 00H			; `string'
CONST	ENDS
;	COMDAT ??_C@_0BP@PPCPBPM@Warning?3?5State?5Cycle?5Detected?6@
CONST	SEGMENT
??_C@_0BP@PPCPBPM@Warning?3?5State?5Cycle?5Detected?6@ DB 'Warning: State'
	DB	' Cycle Detected', 0aH, 00H			; `string'
CONST	ENDS
;	COMDAT ??_C@_0L@FKKLEDAE@?$CFs?5is?5it?$CB?6@
CONST	SEGMENT
??_C@_0L@FKKLEDAE@?$CFs?5is?5it?$CB?6@ DB '%s is it!', 0aH, 00H ; `string'
CONST	ENDS
;	COMDAT ??_C@_0BM@CNBOMPIH@?$CFs?5has?5?$CFd?5lives?5remaining?4?6@
CONST	SEGMENT
??_C@_0BM@CNBOMPIH@?$CFs?5has?5?$CFd?5lives?5remaining?4?6@ DB '%s has %d'
	DB	' lives remaining.', 0aH, 00H		; `string'
CONST	ENDS
;	COMDAT ??_C@_0BF@IOBFJOLC@?$CFs?5got?5a?5game?5over?4?6@
CONST	SEGMENT
??_C@_0BF@IOBFJOLC@?$CFs?5got?5a?5game?5over?4?6@ DB '%s got a game over.'
	DB	0aH, 00H					; `string'
CONST	ENDS
;	COMDAT ??_C@_0BM@MNPAHFKK@?$CFs?5caused?5a?5world?5of?5pain?4?6@
CONST	SEGMENT
??_C@_0BM@MNPAHFKK@?$CFs?5caused?5a?5world?5of?5pain?4?6@ DB '%s caused a'
	DB	' world of pain.', 0aH, 00H			; `string'
CONST	ENDS
;	COMDAT ??_C@_0BO@EJPNLKKA@?$CFs?$CFs?$CFs?5asphyxiated?5in?5space?$CB?6@
CONST	SEGMENT
??_C@_0BO@EJPNLKKA@?$CFs?$CFs?$CFs?5asphyxiated?5in?5space?$CB?6@ DB '%s%'
	DB	's%s asphyxiated in space!', 0aH, 00H	; `string'
CONST	ENDS
;	COMDAT ??_C@_0BP@BFMMAIAC@?$CFs?$CFs?$CFs?5was?5impaled?5by?5spikes?$CB?6@
CONST	SEGMENT
??_C@_0BP@BFMMAIAC@?$CFs?$CFs?$CFs?5was?5impaled?5by?5spikes?$CB?6@ DB '%'
	DB	's%s%s was impaled by spikes!', 0aH, 00H	; `string'
CONST	ENDS
;	COMDAT ??_C@_0BK@HANHBONB@?$CFs?$CFs?$CFs?5was?5electrocuted?$CB?6@
CONST	SEGMENT
??_C@_0BK@HANHBONB@?$CFs?$CFs?$CFs?5was?5electrocuted?$CB?6@ DB '%s%s%s w'
	DB	'as electrocuted!', 0aH, 00H			; `string'
CONST	ENDS
;	COMDAT ??_C@_0BJ@NIINBEJL@?$CFs?$CFs?$CFs?5burned?5to?5death?$CB?6@
CONST	SEGMENT
??_C@_0BJ@NIINBEJL@?$CFs?$CFs?$CFs?5burned?5to?5death?$CB?6@ DB '%s%s%s b'
	DB	'urned to death!', 0aH, 00H			; `string'
CONST	ENDS
;	COMDAT ??_C@_0CB@BIKCCHCD@?$CFs?$CFs?$CFs?5fell?5in?5some?5nasty?5goop?$CB@
CONST	SEGMENT
??_C@_0CB@BIKCCHCD@?$CFs?$CFs?$CFs?5fell?5in?5some?5nasty?5goop?$CB@ DB '%'
	DB	's%s%s fell in some nasty goop!', 0aH, 00H	; `string'
CONST	ENDS
;	COMDAT ??_C@_0CE@KKGBNJOL@?$CFs?$CFs?$CFs?5fell?5into?5a?5bottomless?5p@
CONST	SEGMENT
??_C@_0CE@KKGBNJOL@?$CFs?$CFs?$CFs?5fell?5into?5a?5bottomless?5p@ DB '%s%'
	DB	's%s fell into a bottomless pit.', 0aH, 00H	; `string'
CONST	ENDS
;	COMDAT ??_C@_0CC@NEJABNAP@?$CFs?$CFs?$CFs?5was?5?$CFs?5by?5the?5Egg?5Slimer@
CONST	SEGMENT
??_C@_0CC@NEJABNAP@?$CFs?$CFs?$CFs?5was?5?$CFs?5by?5the?5Egg?5Slimer@ DB '%'
	DB	's%s%s was %s by the Egg Slimer!', 0aH, 00H	; `string'
CONST	ENDS
;	COMDAT ??_C@_0CC@GHFFJILE@?$CFs?$CFs?$CFs?5was?5?$CFs?5by?5the?5Egg?5Mobile@
CONST	SEGMENT
??_C@_0CC@GHFFJILE@?$CFs?$CFs?$CFs?5was?5?$CFs?5by?5the?5Egg?5Mobile@ DB '%'
	DB	's%s%s was %s by the Egg Mobile!', 0aH, 00H	; `string'
CONST	ENDS
;	COMDAT ??_C@_0CG@GAKEGGJA@?$CFs?$CFs?$CFs?5was?5?$CFs?5by?5a?5crawla?5comma@
CONST	SEGMENT
??_C@_0CG@GAKEGGJA@?$CFs?$CFs?$CFs?5was?5?$CFs?5by?5a?5crawla?5comma@ DB '%'
	DB	's%s%s was %s by a crawla commander!', 0aH, 00H ; `string'
CONST	ENDS
;	COMDAT ??_C@_0CG@HCNDACLL@?$CFs?$CFs?$CFs?5was?5?$CFs?5by?5a?5jetty?9syn?5bo@
CONST	SEGMENT
??_C@_0CG@HCNDACLL@?$CFs?$CFs?$CFs?5was?5?$CFs?5by?5a?5jetty?9syn?5bo@ DB '%'
	DB	's%s%s was %s by a jetty-syn bomber!', 0aH, 00H ; `string'
CONST	ENDS
;	COMDAT ??_C@_0CG@JDBFLAPB@?$CFs?$CFs?$CFs?5was?5?$CFs?5by?5a?5jetty?9syn?5gu@
CONST	SEGMENT
??_C@_0CG@JDBFLAPB@?$CFs?$CFs?$CFs?5was?5?$CFs?5by?5a?5jetty?9syn?5gu@ DB '%'
	DB	's%s%s was %s by a jetty-syn gunner!', 0aH, 00H ; `string'
CONST	ENDS
;	COMDAT ??_C@_0CA@IEFKAAPP@?$CFs?$CFs?$CFs?5was?5?$CFs?5by?5a?5red?5crawla?$CB?6@
CONST	SEGMENT
??_C@_0CA@IEFKAAPP@?$CFs?$CFs?$CFs?5was?5?$CFs?5by?5a?5red?5crawla?$CB?6@ DB '%'
	DB	's%s%s was %s by a red crawla!', 0aH, 00H	; `string'
CONST	ENDS
;	COMDAT ??_C@_0CB@GNMNMF@?$CFs?$CFs?$CFs?5was?5?$CFs?5by?5a?5blue?5crawla?$CB@
CONST	SEGMENT
??_C@_0CB@GNMNMF@?$CFs?$CFs?$CFs?5was?5?$CFs?5by?5a?5blue?5crawla?$CB@ DB '%'
	DB	's%s%s was %s by a blue crawla!', 0aH, 00H	; `string'
CONST	ENDS
;	COMDAT ??_C@_0BF@MGMKIKCN@?$CFs?$CFs?$CFs?5was?5crushed?4?6@
CONST	SEGMENT
??_C@_0BF@MGMKIKCN@?$CFs?$CFs?$CFs?5was?5crushed?4?6@ DB '%s%s%s was crus'
	DB	'hed.', 0aH, 00H				; `string'
CONST	ENDS
;	COMDAT ??_C@_0BB@HFOPIDKJ@?$CFs?$CFs?$CFs?5drowned?4?6@
CONST	SEGMENT
??_C@_0BB@HFOPIDKJ@?$CFs?$CFs?$CFs?5drowned?4?6@ DB '%s%s%s drowned.', 0aH
	DB	00H						; `string'
CONST	ENDS
;	COMDAT ??_C@_0BK@FAMOIJHM@?$CFs?$CFs?$CFs?5was?5?$CFs?5by?5?$CFs?$CFs?$CFs?4?6@
CONST	SEGMENT
??_C@_0BK@FAMOIJHM@?$CFs?$CFs?$CFs?5was?5?$CFs?5by?5?$CFs?$CFs?$CFs?4?6@ DB '%'
	DB	's%s%s was %s by %s%s%s.', 0aH, 00H		; `string'
CONST	ENDS
;	COMDAT ??_C@_0CD@GLKOFMNP@?$CFs?$CFs?$CFs?5was?5?$CFs?5by?5?$CFs?$CFs?$CFs?8s?5?$CFsrin@
CONST	SEGMENT
??_C@_0CD@GLKOFMNP@?$CFs?$CFs?$CFs?5was?5?$CFs?5by?5?$CFs?$CFs?$CFs?8s?5?$CFsrin@ DB '%'
	DB	's%s%s was %s by %s%s%s''s %sring.', 0aH, 00H ; `string'
CONST	ENDS
;	COMDAT ??_C@_0CL@KLGMBHPH@?$CFs?$CFs?$CFs?5was?5?$CFs?5by?5?$CFs?$CFs?$CFs?8s?5?$CFsgre@
CONST	SEGMENT
??_C@_0CL@KLGMBHPH@?$CFs?$CFs?$CFs?5was?5?$CFs?5by?5?$CFs?$CFs?$CFs?8s?5?$CFsgre@ DB '%'
	DB	's%s%s was %s by %s%s%s''s %sgrenade ring.', 0aH, 00H ; `string'
CONST	ENDS
;	COMDAT ??_C@_0CL@EAJLHDMF@?$CFs?$CFs?$CFs?5was?5?$CFs?5by?5?$CFs?$CFs?$CFs?8s?5?$CFssca@
CONST	SEGMENT
??_C@_0CL@EAJLHDMF@?$CFs?$CFs?$CFs?5was?5?$CFs?5by?5?$CFs?$CFs?$CFs?8s?5?$CFssca@ DB '%'
	DB	's%s%s was %s by %s%s%s''s %sscatter ring.', 0aH, 00H ; `string'
CONST	ENDS
;	COMDAT ??_C@_0CI@KIOCKJGP@?$CFs?$CFs?$CFs?5was?5?$CFs?5by?5?$CFs?$CFs?$CFs?8s?5?$CFsrai@
CONST	SEGMENT
??_C@_0CI@KIOCKJGP@?$CFs?$CFs?$CFs?5was?5?$CFs?5by?5?$CFs?$CFs?$CFs?8s?5?$CFsrai@ DB '%'
	DB	's%s%s was %s by %s%s%s''s %srail ring.', 0aH, 00H ; `string'
CONST	ENDS
;	COMDAT ??_C@_0CN@DGDGFLOE@?$CFs?$CFs?$CFs?5was?5?$CFs?5by?5?$CFs?$CFs?$CFs?8s?5?$CFsexp@
CONST	SEGMENT
??_C@_0CN@DGDGFLOE@?$CFs?$CFs?$CFs?5was?5?$CFs?5by?5?$CFs?$CFs?$CFs?8s?5?$CFsexp@ DB '%'
	DB	's%s%s was %s by %s%s%s''s %sexplosion ring.', 0aH, 00H ; `string'
CONST	ENDS
;	COMDAT ??_C@_0CN@KDCFKGDO@?$CFs?$CFs?$CFs?5was?5?$CFs?5by?5?$CFs?$CFs?$CFs?8s?5?$CFsaut@
CONST	SEGMENT
??_C@_0CN@KDCFKGDO@?$CFs?$CFs?$CFs?5was?5?$CFs?5by?5?$CFs?$CFs?$CFs?8s?5?$CFsaut@ DB '%'
	DB	's%s%s was %s by %s%s%s''s %sautomatic ring.', 0aH, 00H ; `string'
CONST	ENDS
;	COMDAT ??_C@_0CK@MIEMMEEG@?$CFs?$CFs?$CFs?5was?5?$CFs?5by?5?$CFs?$CFs?$CFs?8s?5?$CFsbou@
CONST	SEGMENT
??_C@_0CK@MIEMMEEG@?$CFs?$CFs?$CFs?5was?5?$CFs?5by?5?$CFs?$CFs?$CFs?8s?5?$CFsbou@ DB '%'
	DB	's%s%s was %s by %s%s%s''s %sbounce ring.', 0aH, 00H ; `string'
CONST	ENDS
;	COMDAT ??_C@_0CK@NAKJMMGD@?$CFs?$CFs?$CFs?5was?5fried?5by?5?$CFs?$CFs?$CFs?8s?5fi@
CONST	SEGMENT
??_C@_0CK@NAKJMMGD@?$CFs?$CFs?$CFs?5was?5fried?5by?5?$CFs?$CFs?$CFs?8s?5fi@ DB '%'
	DB	's%s%s was fried by %s%s%s''s fire trail.', 0aH, 00H ; `string'
CONST	ENDS
;	COMDAT ??_C@_0CK@ICANKBEO@?$CFs?$CFs?$CFs?5was?5burnt?5by?5?$CFs?$CFs?$CFs?8s?5fi@
CONST	SEGMENT
??_C@_0CK@ICANKBEO@?$CFs?$CFs?$CFs?5was?5burnt?5by?5?$CFs?$CFs?$CFs?8s?5fi@ DB '%'
	DB	's%s%s was burnt by %s%s%s''s fire trail.', 0aH, 00H ; `string'
CONST	ENDS
;	COMDAT ??_C@_0BN@FFJKCMID@?$CFs?$CFs?$CFs?5got?5nuked?5by?5?$CFs?$CFs?$CFs?$CB?6@
CONST	SEGMENT
??_C@_0BN@FFJKCMID@?$CFs?$CFs?$CFs?5got?5nuked?5by?5?$CFs?$CFs?$CFs?$CB?6@ DB '%'
	DB	's%s%s got nuked by %s%s%s!', 0aH, 00H	; `string'
CONST	ENDS
;	COMDAT ??_C@_0L@CANLDPBJ@reflected?5@
CONST	SEGMENT
??_C@_0L@CANLDPBJ@reflected?5@ DB 'reflected ', 00H	; `string'
CONST	ENDS
;	COMDAT ??_C@_06KGGGBDJD@killed@
CONST	SEGMENT
??_C@_06KGGGBDJD@killed@ DB 'killed', 00H		; `string'
CONST	ENDS
;	COMDAT ??_C@_03CMHMLDFC@hit@
CONST	SEGMENT
??_C@_03CMHMLDFC@hit@ DB 'hit', 00H			; `string'
CONST	ENDS
;	COMDAT ??_C@_0O@GDGLGAGC@?$CFs?$CFs?$CFs?5died?4?6@
CONST	SEGMENT
??_C@_0O@GDGLGAGC@?$CFs?$CFs?$CFs?5died?4?6@ DB '%s%s%s died.', 0aH, 00H ; `string'
CONST	ENDS
;	COMDAT ??_C@_0BC@EDBMACNB@?$CFs?$CFs?$CFs?5suicided?4?6@
CONST	SEGMENT
??_C@_0BC@EDBMACNB@?$CFs?$CFs?$CFs?5suicided?4?6@ DB '%s%s%s suicided.', 0aH
	DB	00H						; `string'
CONST	ENDS
;	COMDAT ??_C@_0CM@PMHNCIEO@?$CFs?$CFs?$CFs?5crushed?5?$CFs?$CFs?$CFs?5with?5a?5he@
CONST	SEGMENT
??_C@_0CM@PMHNCIEO@?$CFs?$CFs?$CFs?5crushed?5?$CFs?$CFs?$CFs?5with?5a?5he@ DB '%'
	DB	's%s%s crushed %s%s%s with a heavy object!', 0aH, 00H ; `string'
CONST	ENDS
;	COMDAT ??_C@_0BJ@ICLFEDFA@?$CFs?5dropped?5the?5?$CFs?5flag?4?6@
CONST	SEGMENT
??_C@_0BJ@ICLFEDFA@?$CFs?5dropped?5the?5?$CFs?5flag?4?6@ DB '%s dropped t'
	DB	'he %s flag.', 0aH, 00H			; `string'
CONST	ENDS
;	COMDAT ??_C@_0BI@JEHGIMIF@?$CFs?5tossed?5the?5?$CFs?5flag?4?6@
CONST	SEGMENT
??_C@_0BI@JEHGIMIF@?$CFs?5tossed?5the?5?$CFs?5flag?4?6@ DB '%s tossed the'
	DB	' %s flag.', 0aH, 00H			; `string'
CONST	ENDS
;	COMDAT ??_C@_0BN@LDPOLADN@?$CFs?5picked?5up?5the?5blue?5flag?$CB?6@
CONST	SEGMENT
??_C@_0BN@LDPOLADN@?$CFs?5picked?5up?5the?5blue?5flag?$CB?6@ DB '%s picke'
	DB	'd up the blue flag!', 0aH, 00H		; `string'
CONST	ENDS
;	COMDAT ??_C@_0CE@JGMJDOFI@?$CFs?5returned?5the?5blue?5flag?5to?5ba@
CONST	SEGMENT
??_C@_0CE@JGMJDOFI@?$CFs?5returned?5the?5blue?5flag?5to?5ba@ DB '%s retur'
	DB	'ned the blue flag to base.', 0aH, 00H	; `string'
CONST	ENDS
;	COMDAT ??_C@_0BM@KJOGHLAP@?$CFs?5picked?5up?5the?5red?5flag?$CB?6@
CONST	SEGMENT
??_C@_0BM@KJOGHLAP@?$CFs?5picked?5up?5the?5red?5flag?$CB?6@ DB '%s picked'
	DB	' up the red flag!', 0aH, 00H		; `string'
CONST	ENDS
;	COMDAT ??_C@_0CD@LLCEKKIA@?$CFs?5returned?5the?5red?5flag?5to?5bas@
CONST	SEGMENT
??_C@_0CD@LLCEKKIA@?$CFs?5returned?5the?5red?5flag?5to?5bas@ DB '%s retur'
	DB	'ned the red flag to base.', 0aH, 00H	; `string'
CONST	ENDS
;	COMDAT ??_C@_0BP@IGCMAKCK@ERROR?3?5Powerup?5has?5no?5target?$CB?6@
CONST	SEGMENT
??_C@_0BP@IGCMAKCK@ERROR?3?5Powerup?5has?5no?5target?$CB?6@ DB 'ERROR: Po'
	DB	'werup has no target!', 0aH, 00H		; `string'
CONST	ENDS
;	COMDAT ??_C@_0NI@FAAJLBDN@Objectplace?5Controls?3?2?2Camera?5L@
CONST	SEGMENT
??_C@_0NI@FAAJLBDN@Objectplace?5Controls?3?2?2Camera?5L@ DB 'Objectplace '
	DB	'Controls:\\Camera L: Cycle backwards      \Camera R: Cycle fo'
	DB	'rwards       \    Jump: Float up             \    Spin: Float'
	DB	' down           \   Throw: Place object         \   Taunt: Re'
	DB	'move object (buggy)\', 00H			; `string'
CONST	ENDS
;	COMDAT ??_C@_0BH@MCLLMNLH@Couldn?8t?5read?5file?5?$CFs?6@
CONST	SEGMENT
??_C@_0BH@MCLLMNLH@Couldn?8t?5read?5file?5?$CFs?6@ DB 'Couldn''t read fil'
	DB	'e %s', 0aH, 00H				; `string'
CONST	ENDS
;	COMDAT ??_C@_0BH@LJEIPBNI@You?5can?8t?5pause?5here?4?6@
CONST	SEGMENT
??_C@_0BH@LJEIPBNI@You?5can?8t?5pause?5here?4?6@ DB 'You can''t pause her'
	DB	'e.', 0aH, 00H				; `string'
CONST	ENDS
;	COMDAT ??_C@_0CF@BDPPFEJP@Only?5the?5server?5can?5pause?5the?5g@
CONST	SEGMENT
??_C@_0CF@BDPPFEJP@Only?5the?5server?5can?5pause?5the?5g@ DB 'Only the se'
	DB	'rver can pause the game.', 0aH, 00H		; `string'
CONST	ENDS
;	COMDAT ??_C@_0CD@GIFJKINH@This?5only?5works?5in?5single?5playe@
CONST	SEGMENT
??_C@_0CD@GIFJKINH@This?5only?5works?5in?5single?5playe@ DB 'This only wo'
	DB	'rks in single player.', 0aH, 00H		; `string'
CONST	ENDS
;	COMDAT ??_C@_0BP@OKLLDODM@This?5only?5works?5in?5a?5netgame?4?6@
CONST	SEGMENT
??_C@_0BP@OKLLDODM@This?5only?5works?5in?5a?5netgame?4?6@ DB 'This only w'
	DB	'orks in a netgame.', 0aH, 00H		; `string'
CONST	ENDS
;	COMDAT ??_C@_0CC@DPBFIFPI@You?5can?8t?5use?5this?5in?5a?5netgame@
CONST	SEGMENT
??_C@_0CC@DPBFIFPI@You?5can?8t?5use?5this?5in?5a?5netgame@ DB 'You can''t'
	DB	' use this in a netgame.', 0aH, 00H		; `string'
CONST	ENDS
;	COMDAT ??_C@_0CG@JOEAHHEL@You?5can?8t?5use?5this?5in?5single?5pl@
CONST	SEGMENT
??_C@_0CG@JOEAHHEL@You?5can?8t?5use?5this?5in?5single?5pl@ DB 'You can''t'
	DB	' use this in single player.', 0aH, 00H	; `string'
CONST	ENDS
;	COMDAT ??_C@_0CF@JOPFLLCM@You?5must?5be?5in?5a?5level?5to?5use?5t@
CONST	SEGMENT
??_C@_0CF@JOPFLLCM@You?5must?5be?5in?5a?5level?5to?5use?5t@ DB 'You must '
	DB	'be in a level to use this.', 0aH, 00H	; `string'
CONST	ENDS
;	COMDAT ??_C@_0BO@GBCBILFJ@You?5haven?8t?5earned?5this?5yet?4?6@
CONST	SEGMENT
??_C@_0BO@GBCBILFJ@You?5haven?8t?5earned?5this?5yet?4?6@ DB 'You haven''t'
	DB	' earned this yet.', 0aH, 00H		; `string'
CONST	ENDS
;	COMDAT ??_C@_0BK@HOGDOBME@DEVMODE?5must?5be?5enabled?4?6@
CONST	SEGMENT
??_C@_0BK@HOGDOBME@DEVMODE?5must?5be?5enabled?4?6@ DB 'DEVMODE must be en'
	DB	'abled.', 0aH, 00H				; `string'
CONST	ENDS
;	COMDAT ??_C@_0GP@CGDGCAIA@The?5server?5tried?5to?5add?5?$CFs?0?6but@
CONST	SEGMENT
??_C@_0GP@CGDGCAIA@The?5server?5tried?5to?5add?5?$CFs?0?6but@ DB 'The ser'
	DB	'ver tried to add %s,', 0aH, 'but you don''t have this file.', 0aH
	DB	'You need to find it in order', 0aH, 'to play on this server.', 00H ; `string'
CONST	ENDS
;	COMDAT ??_C@_0BF@NADNAKHK@File?5doesn?8t?5exist?4?6@
CONST	SEGMENT
??_C@_0BF@NADNAKHK@File?5doesn?8t?5exist?4?6@ DB 'File doesn''t exist.', 0aH
	DB	00H						; `string'
CONST	ENDS
;	COMDAT ??_C@_0DH@FLLHDAMP@WARNING?3?5Game?5must?5be?5restarted@
CONST	SEGMENT
??_C@_0DH@FLLHDAMP@WARNING?3?5Game?5must?5be?5restarted@ DB 'WARNING: Gam'
	DB	'e must be restarted to record statistics.', 0aH, 00H ; `string'
CONST	ENDS
;	COMDAT ??_C@_0CN@EDMJJLL@You?5are?5not?5the?5server?4?5You?5can@
CONST	SEGMENT
??_C@_0CN@EDMJJLL@You?5are?5not?5the?5server?4?5You?5can@ DB 'You are not'
	DB	' the server. You cannot do this.', 0aH, 00H	; `string'
CONST	ENDS
;	COMDAT ??_C@_0CI@BHHCGCPD@The?5server?5does?5not?5allow?5team?5@
CONST	SEGMENT
??_C@_0CI@BHHCGCPD@The?5server?5does?5not?5allow?5team?5@ DB 'The server '
	DB	'does not allow team change.', 0aH, 00H	; `string'
CONST	ENDS
;	COMDAT ??_C@_0BO@DGPAMEI@You?8re?5already?5on?5that?5team?$CB?6@
CONST	SEGMENT
??_C@_0BO@DGPAMEI@You?8re?5already?5on?5that?5team?$CB?6@ DB 'You''re alr'
	DB	'eady on that team!', 0aH, 00H		; `string'
CONST	ENDS
;	COMDAT ??_C@_0DC@LPKNBFKE@This?5command?5is?5only?5for?5captur@
CONST	SEGMENT
??_C@_0DC@LPKNBFKE@This?5command?5is?5only?5for?5captur@ DB 'This command'
	DB	' is only for capture the flag games.', 0aH, 00H ; `string'
CONST	ENDS
;	COMDAT ??_C@_0CM@GHMPEAKB@?6You?5can?8t?5play?5a?5demo?5while?5in@
CONST	SEGMENT
??_C@_0CM@GHMPEAKB@?6You?5can?8t?5play?5a?5demo?5while?5in@ DB 0aH, 'You '
	DB	'can''t play a demo while in a netgame.', 0aH, 00H ; `string'
CONST	ENDS
;	COMDAT ??_C@_0CI@OMFPMKKI@You?5can?8t?5teleport?5while?5in?5a?5n@
CONST	SEGMENT
??_C@_0CI@OMFPMKKI@You?5can?8t?5teleport?5while?5in?5a?5n@ DB 'You can''t'
	DB	' teleport while in a netgame!', 0aH, 00H	; `string'
CONST	ENDS
;	COMDAT ??_C@_0CC@COBMHIKO@Unable?5to?5teleport?5to?5that?5spot@
CONST	SEGMENT
??_C@_0CC@COBMHIKO@Unable?5to?5teleport?5to?5that?5spot@ DB 'Unable to te'
	DB	'leport to that spot!', 0aH, 00H		; `string'
CONST	ENDS
;	COMDAT ??_C@_0ED@HHGIEBGA@teleport?5?9x?5?$DMvalue?$DO?5?9y?5?$DMvalue?$DO?5@
CONST	SEGMENT
??_C@_0ED@HHGIEBGA@teleport?5?9x?5?$DMvalue?$DO?5?9y?5?$DMvalue?$DO?5@ DB 't'
	DB	'eleport -x <value> -y <value> -z <value>: teleport to a locat'
	DB	'ion', 0aH, 00H				; `string'
CONST	ENDS
;	COMDAT ??_C@_0BG@NIMECJFB@Player?5is?5dead?0?5etc?4?6@
CONST	SEGMENT
??_C@_0BG@NIMECJFB@Player?5is?5dead?0?5etc?4?6@ DB 'Player is dead, etc.', 0aH
	DB	00H						; `string'
CONST	ENDS
;	COMDAT ??_C@_0BG@IEHPEAIK@The?5round?5has?5ended?4?6@
CONST	SEGMENT
??_C@_0BG@IEHPEAIK@The?5round?5has?5ended?4?6@ DB 'The round has ended.', 0aH
	DB	00H						; `string'
CONST	ENDS
;	COMDAT ??_C@_0BH@ELIBDINI@Speeding?5off?5to?5?$CFs?4?4?4?6@
CONST	SEGMENT
??_C@_0BH@ELIBDINI@Speeding?5off?5to?5?$CFs?4?4?4?6@ DB 'Speeding off to '
	DB	'%s...', 0aH, 00H				; `string'
CONST	ENDS
;	COMDAT ??_C@_0BC@DLJLKLKM@?$FLMessage?5unsent?$FN?6@
CONST	SEGMENT
??_C@_0BC@DLJLKLKM@?$FLMessage?5unsent?$FN?6@ DB '[Message unsent]', 0aH, 00H ; `string'
CONST	ENDS
;	COMDAT ??_C@_0N@FCDCLMLG@Game?5saved?4?6@
CONST	SEGMENT
??_C@_0N@FCDCLMLG@Game?5saved?4?6@ DB 'Game saved.', 0aH, 00H ; `string'
CONST	ENDS
;	COMDAT ??_C@_0M@JDBJHHKB@empty?5slot?6@
CONST	SEGMENT
??_C@_0M@JDBJHHKB@empty?5slot?6@ DB 'empty slot', 0aH, 00H ; `string'
CONST	ENDS
;	COMDAT ??_C@_0BK@CHMDMPDC@Gamma?5correction?5level?54?6@
CONST	SEGMENT
??_C@_0BK@CHMDMPDC@Gamma?5correction?5level?54?6@ DB 'Gamma correction le'
	DB	'vel 4', 0aH, 00H				; `string'
CONST	ENDS
;	COMDAT ??_C@_0BK@CCIMNJLH@Gamma?5correction?5level?53?6@
CONST	SEGMENT
??_C@_0BK@CCIMNJLH@Gamma?5correction?5level?53?6@ DB 'Gamma correction le'
	DB	'vel 3', 0aH, 00H				; `string'
CONST	ENDS
;	COMDAT ??_C@_0BK@CDEOLDIA@Gamma?5correction?5level?52?6@
CONST	SEGMENT
??_C@_0BK@CDEOLDIA@Gamma?5correction?5level?52?6@ DB 'Gamma correction le'
	DB	'vel 2', 0aH, 00H				; `string'
CONST	ENDS
;	COMDAT ??_C@_0BK@CBAIANNJ@Gamma?5correction?5level?51?6@
CONST	SEGMENT
??_C@_0BK@CBAIANNJ@Gamma?5correction?5level?51?6@ DB 'Gamma correction le'
	DB	'vel 1', 0aH, 00H				; `string'
CONST	ENDS
;	COMDAT ??_C@_0BG@HJIDKBNP@Gamma?5correction?5OFF?6@
CONST	SEGMENT
??_C@_0BG@HJIDKBNP@Gamma?5correction?5OFF?6@ DB 'Gamma correction OFF', 0aH
	DB	00H						; `string'
CONST	ENDS
;	COMDAT ??_C@_0BJ@LAJPILBF@Unloading?5WAD?5SOC?5edits?6@
CONST	SEGMENT
??_C@_0BJ@LAJPILBF@Unloading?5WAD?5SOC?5edits?6@ DB 'Unloading WAD SOC ed'
	DB	'its', 0aH, 00H				; `string'
CONST	ENDS
;	COMDAT ??_C@_0BO@PNOLFPJH@?$CFd?5warning?$CFs?5in?5the?5SOC?5lump?6@
CONST	SEGMENT
??_C@_0BO@PNOLFPJH@?$CFd?5warning?$CFs?5in?5the?5SOC?5lump?6@ DB '%d warn'
	DB	'ing%s in the SOC lump', 0aH, 00H		; `string'
CONST	ENDS
;	COMDAT ??_C@_0BJ@JGCOLFLP@No?5word?5in?5this?5line?3?5?$CFs@
CONST	SEGMENT
??_C@_0BJ@JGCOLFLP@No?5word?5in?5this?5line?3?5?$CFs@ DB 'No word in this'
	DB	' line: %s', 00H				; `string'
CONST	ENDS
;	COMDAT ??_C@_0BK@KJLKOOND@missing?5argument?5for?5?8?$CFs?8@
CONST	SEGMENT
??_C@_0BK@KJLKOOND@missing?5argument?5for?5?8?$CFs?8@ DB 'missing argumen'
	DB	't for ''%s''', 00H				; `string'
CONST	ENDS
;	COMDAT ??_C@_0BB@HKOELEED@Unknown?5word?3?5?$CFs@
CONST	SEGMENT
??_C@_0BB@HKOELEED@Unknown?5word?3?5?$CFs@ DB 'Unknown word: %s', 00H ; `string'
CONST	ENDS
;	COMDAT ??_C@_0BP@IONBOPCJ@only?5version?52?40?5is?5supported?6@
CONST	SEGMENT
??_C@_0BP@IONBOPCJ@only?5version?52?40?5is?5supported?6@ DB 'only version'
	DB	' 2.0 is supported', 0aH, 00H		; `string'
CONST	ENDS
;	COMDAT ??_C@_0DE@GGILPFLO@Warning?3?5patch?5from?5a?5different@
CONST	SEGMENT
??_C@_0DE@GGILPFLO@Warning?3?5patch?5from?5a?5different@ DB 'Warning: pat'
	DB	'ch from a different SRB2 version (%d), ', 00H ; `string'
CONST	ENDS
;	COMDAT ??_C@_0BO@ONJFIGCJ@Emblem?5number?5?$CFd?5out?5of?5range@
CONST	SEGMENT
??_C@_0BO@ONJFIGCJ@Emblem?5number?5?$CFd?5out?5of?5range@ DB 'Emblem numb'
	DB	'er %d out of range', 00H			; `string'
CONST	ENDS
;	COMDAT ??_C@_0CA@PFBHKNBO@HUD?5item?5number?5?$CFd?5out?5of?5range@
CONST	SEGMENT
??_C@_0CA@PFBHKNBO@HUD?5item?5number?5?$CFd?5out?5of?5range@ DB 'HUD item'
	DB	' number %d out of range', 00H		; `string'
CONST	ENDS
;	COMDAT ??_C@_0BH@PNMKCGFL@Sound?5?$CFd?5doesn?8t?5exist@
CONST	SEGMENT
??_C@_0BH@PNMKCGFL@Sound?5?$CFd?5doesn?8t?5exist@ DB 'Sound %d doesn''t e'
	DB	'xist', 00H					; `string'
CONST	ENDS
;	COMDAT ??_C@_0BH@BNPMKLBE@Frame?5?$CFd?5doesn?8t?5exist@
CONST	SEGMENT
??_C@_0BH@BNPMKLBE@Frame?5?$CFd?5doesn?8t?5exist@ DB 'Frame %d doesn''t e'
	DB	'xist', 00H					; `string'
CONST	ENDS
;	COMDAT ??_C@_0CC@FLHCJIKE@Unlockable?5number?5?$CFd?5out?5of?5ran@
CONST	SEGMENT
??_C@_0CC@FLHCJIKE@Unlockable?5number?5?$CFd?5out?5of?5ran@ DB 'Unlockabl'
	DB	'e number %d out of range', 00H		; `string'
CONST	ENDS
;	COMDAT ??_C@_0CA@KJJMOABJ@Cutscene?5number?5?$CFd?5out?5of?5range@
CONST	SEGMENT
??_C@_0CA@KJJMOABJ@Cutscene?5number?5?$CFd?5out?5of?5range@ DB 'Cutscene '
	DB	'number %d out of range', 00H		; `string'
CONST	ENDS
;	COMDAT ??_C@_0BN@GGGMAJLE@Level?5number?5?$CFd?5out?5of?5range@
CONST	SEGMENT
??_C@_0BN@GGGMAJLE@Level?5number?5?$CFd?5out?5of?5range@ DB 'Level number'
	DB	' %d out of range', 00H			; `string'
CONST	ENDS
;	COMDAT ??_C@_0BK@ECLGDCDB@Character?5?$CFd?5out?5of?5range@
CONST	SEGMENT
??_C@_0BK@ECLGDCDB@Character?5?$CFd?5out?5of?5range@ DB 'Character %d out'
	DB	' of range', 00H				; `string'
CONST	ENDS
;	COMDAT ??_C@_0BB@LEIMMBBF@Modification?5By?6@
CONST	SEGMENT
??_C@_0BB@LEIMMBBF@Modification?5By?6@ DB 'Modification By', 0aH, 00H ; `string'
CONST	ENDS
;	COMDAT ??_C@_0BH@DBBDBJDN@Thing?5?$CFd?5doesn?8t?5exist@
CONST	SEGMENT
??_C@_0BH@DBBDBJDN@Thing?5?$CFd?5doesn?8t?5exist@ DB 'Thing %d doesn''t e'
	DB	'xist', 00H					; `string'
CONST	ENDS
;	COMDAT ??_C@_0BK@HLENKMMF@?$ANDownloading?5?$CFs?4?4?4?$CIdone?$CJ?6@
CONST	SEGMENT
??_C@_0BK@HLENKMMF@?$ANDownloading?5?$CFs?4?4?4?$CIdone?$CJ?6@ DB 0dH, 'D'
	DB	'ownloading %s...(done)', 0aH, 00H		; `string'
CONST	ENDS
;	COMDAT ??_C@_0BN@DDBPFIHJ@Cheats?5have?5been?5activated?4?6@
CONST	SEGMENT
??_C@_0BN@DDBPFIHJ@Cheats?5have?5been?5activated?4?6@ DB 'Cheats have bee'
	DB	'n activated.', 0aH, 00H			; `string'
CONST	ENDS
;	COMDAT ??_C@_0FL@IIABANEN@Changing?5this?5variable?6requires@
CONST	SEGMENT
??_C@_0FL@IIABANEN@Changing?5this?5variable?6requires@ DB 'Changing this '
	DB	'variable', 0aH, 'requires cheats to be enabled.', 0aH, 'Do yo'
	DB	'u wish to enable cheats? (Y/N)', 0aH, 00H	; `string'
CONST	ENDS
;	COMDAT ??_C@_0CF@KCOLAHPG@Cheats?5must?5be?5enabled?5to?5use?5t@
CONST	SEGMENT
??_C@_0CF@KCOLAHPG@Cheats?5must?5be?5enabled?5to?5use?5t@ DB 'Cheats must'
	DB	' be enabled to use this.', 0aH, 00H		; `string'
CONST	ENDS
;	COMDAT ??_C@_0GE@CLAOMKL@Cheats?5cannot?5be?5disabled?5after@
CONST	SEGMENT
??_C@_0GE@CLAOMKL@Cheats?5cannot?5be?5disabled?5after@ DB 'Cheats cannot '
	DB	'be disabled after they are activated. You must restart the se'
	DB	'rver to disable cheats.', 0aH, 00H		; `string'
CONST	ENDS
;	COMDAT ??_C@_0CN@IKCELJIG@The?5current?5time?5is?5?$CFf?4?6The?5tim@
CONST	SEGMENT
??_C@_0CN@IKCELJIG@The?5current?5time?5is?5?$CFf?4?6The?5tim@ DB 'The cur'
	DB	'rent time is %f.', 0aH, 'The timelimit is %f', 0aH, 00H ; `string'
CONST	ENDS
;	COMDAT ??_C@_0BG@HLBJCNMD@The?5pointlimit?5is?5?$CFd?6@
CONST	SEGMENT
??_C@_0BG@HLBJCNMD@The?5pointlimit?5is?5?$CFd?6@ DB 'The pointlimit is %d'
	DB	0aH, 00H					; `string'
CONST	ENDS
;	COMDAT ??_C@_0BD@MHEBFIOM@?$CFs?8s?5score?5is?5?$CFlu?6@
CONST	SEGMENT
??_C@_0BD@MHEBFIOM@?$CFs?8s?5score?5is?5?$CFlu?6@ DB '%s''s score is %lu', 0aH
	DB	00H						; `string'
CONST	ENDS
;	COMDAT ??_C@_0BK@DJEDHMHF@Chat?5is?5no?5longer?5muted?4?6@
CONST	SEGMENT
??_C@_0BK@DJEDHMHF@Chat?5is?5no?5longer?5muted?4?6@ DB 'Chat is no longer'
	DB	' muted.', 0aH, 00H				; `string'
CONST	ENDS
;	COMDAT ??_C@_0BG@EGIEFENM@Chat?5has?5been?5muted?4?6@
CONST	SEGMENT
??_C@_0BG@EGIEFENM@Chat?5has?5been?5muted?4?6@ DB 'Chat has been muted.', 0aH
	DB	00H						; `string'
CONST	ENDS
;	COMDAT ??_C@_0DC@JNMKJHJN@You?5may?5not?5change?5your?5name?5wh@
CONST	SEGMENT
??_C@_0DC@JNMKJHJN@You?5may?5not?5change?5your?5name?5wh@ DB 'You may not'
	DB	' change your name when chat is muted.', 0aH, 00H ; `string'
CONST	ENDS
;	COMDAT ??_C@_0CO@DGDOHNGB@Valid?5skin?5numbers?5are?50?5to?5?$CFd?5@
CONST	SEGMENT
??_C@_0CO@DGDOHNGB@Valid?5skin?5numbers?5are?50?5to?5?$CFd?5@ DB 'Valid s'
	DB	'kin numbers are 0 to %d (-1 disables)', 0aH, 00H ; `string'
CONST	ENDS
;	COMDAT ??_C@_0CP@KEAOMNPI@modifiedgame?5is?5false?0?5you?5can?5@
CONST	SEGMENT
??_C@_0CP@KEAOMNPI@modifiedgame?5is?5false?0?5you?5can?5@ DB 'modifiedgam'
	DB	'e is false, you can unlock secrets', 0aH, 00H ; `string'
CONST	ENDS
;	COMDAT ??_C@_0DE@GFEBJMPD@modifiedgame?5is?5true?0?5secrets?5w@
CONST	SEGMENT
??_C@_0DE@GFEBJMPD@modifiedgame?5is?5true?0?5secrets?5w@ DB 'modifiedgame'
	DB	' is true, secrets will not be unlocked', 0aH, 00H ; `string'
CONST	ENDS
;	COMDAT ??_C@_0EK@JPJBNIJN@modifiedgame?5is?5true?0?5but?5you?5c@
CONST	SEGMENT
??_C@_0EK@JPJBNIJN@modifiedgame?5is?5true?0?5but?5you?5c@ DB 'modifiedgam'
	DB	'e is true, but you can save emblem and time data in this mod.'
	DB	0aH, 00H					; `string'
CONST	ENDS
;	COMDAT ??_C@_0CN@BEDIDHEI@Valid?5slots?5are?51?5to?5?$CFd?0?5or?50?5t@
CONST	SEGMENT
??_C@_0CN@BEDIDHEI@Valid?5slots?5are?51?5to?5?$CFd?0?5or?50?5t@ DB 'Valid'
	DB	' slots are 1 to %d, or 0 to stop music', 0aH, 00H ; `string'
CONST	ENDS
;	COMDAT ??_C@_0BJ@NGLKHDNF@The?5current?5tune?5is?3?5?$CFd?6@
CONST	SEGMENT
??_C@_0BJ@NGLKHDNF@The?5current?5tune?5is?3?5?$CFd?6@ DB 'The current tun'
	DB	'e is: %d', 0aH, 00H				; `string'
CONST	ENDS
;	COMDAT ??_C@_0GE@BMMHKBOC@Tunes?5?$DMslot?$CD?1default?$DO?5?$DMspeed?$DO?3?5@
CONST	SEGMENT
??_C@_0GE@BMMHKBOC@Tunes?5?$DMslot?$CD?1default?$DO?5?$DMspeed?$DO?3?5@ DB 'T'
	DB	'unes <slot#/default> <speed>: play a slot or the default stag'
	DB	'e tune at the specified speed(100%%)', 0aH, 00H ; `string'
CONST	ENDS
;	COMDAT ??_C@_0BG@LGPPAGHP@Previewing?5sky?5?$CFs?4?4?4?6@
CONST	SEGMENT
??_C@_0BG@LGPPAGHP@Previewing?5sky?5?$CFs?4?4?4?6@ DB 'Previewing sky %s.'
	DB	'..', 0aH, 00H				; `string'
CONST	ENDS
;	COMDAT ??_C@_0BP@PKCBNJLD@skynum?5?$DMsky?$CD?$DO?3?5change?5the?5sky?6@
CONST	SEGMENT
??_C@_0BP@PKCBNJLD@skynum?5?$DMsky?$CD?$DO?3?5change?5the?5sky?6@ DB 'sky'
	DB	'num <sky#>: change the sky', 0aH, 00H	; `string'
CONST	ENDS
;	COMDAT ??_C@_0GB@PDGGMFCN@If?5you?5want?5to?5change?5the?5sky?5i@
CONST	SEGMENT
??_C@_0GB@PDGGMFCN@If?5you?5want?5to?5change?5the?5sky?5i@ DB 'If you wan'
	DB	't to change the sky interactively on a map, use the linedef e'
	DB	'xecutor feature instead.', 0aH, 00H		; `string'
CONST	ENDS
;	COMDAT ??_C@_0BF@LEIGGEGN@Displayplayer?5is?5?$CFd?6@
CONST	SEGMENT
??_C@_0BF@LEIGGEGN@Displayplayer?5is?5?$CFd?6@ DB 'Displayplayer is %d', 0aH
	DB	00H						; `string'
CONST	ENDS
;	COMDAT ??_C@_0CM@LJHLADFD@Illegal?5exitlevel?5command?5recei@
CONST	SEGMENT
??_C@_0CM@LJHLADFD@Illegal?5exitlevel?5command?5recei@ DB 'Illegal exitle'
	DB	'vel command received from %s', 0aH, 00H	; `string'
CONST	ENDS
;	COMDAT ??_C@_0N@EOGOKBMO@?$CFs?5?$CI?$CFd?$CJ?3?5?$CFs?6@
CONST	SEGMENT
??_C@_0N@EOGOKBMO@?$CFs?5?$CI?$CFd?$CJ?3?5?$CFs?6@ DB '%s (%d): %s', 0aH, 00H ; `string'
CONST	ENDS
;	COMDAT ??_C@_0BA@CPILJJCM@?$CFs?5?$CI?$CFd?$CJ?3?5?$CFs?5?$CFd?6@
CONST	SEGMENT
??_C@_0BA@CPILJJCM@?$CFs?5?$CI?$CFd?$CJ?3?5?$CFs?5?$CFd?6@ DB '%s (%d): %'
	DB	's %d', 0aH, 00H				; `string'
CONST	ENDS
;	COMDAT ??_C@_0DI@KBCODAAC@HIDETIME?5cannot?5be?5greater?5or?5e@
CONST	SEGMENT
??_C@_0DI@KBCODAAC@HIDETIME?5cannot?5be?5greater?5or?5e@ DB 'HIDETIME can'
	DB	'not be greater or equal to the time limit!', 0aH, 00H ; `string'
CONST	ENDS
;	COMDAT ??_C@_0CE@DKMODLLI@Gametype?5was?5changed?5from?5?$CFs?5to@
CONST	SEGMENT
??_C@_0CE@DKMODLLI@Gametype?5was?5changed?5from?5?$CFs?5to@ DB 'Gametype '
	DB	'was changed from %s to %s', 0aH, 00H	; `string'
CONST	ENDS
;	COMDAT ??_C@_0BF@ILNBABKD@Time?5limit?5disabled?6@
CONST	SEGMENT
??_C@_0BF@ILNBABKD@Time?5limit?5disabled?6@ DB 'Time limit disabled', 0aH
	DB	00H						; `string'
CONST	ENDS
;	COMDAT ??_C@_0CE@NKLMJGK@Levels?5will?5end?5after?5?$CFd?5minute@
CONST	SEGMENT
??_C@_0CE@NKLMJGK@Levels?5will?5end?5after?5?$CFd?5minute@ DB 'Levels wil'
	DB	'l end after %d minute%s.', 0aH, 00H		; `string'
CONST	ENDS
;	COMDAT ??_C@_0BK@FNEDNNIM@Number?5of?5laps?5set?5to?5?$CFd?6@
CONST	SEGMENT
??_C@_0BK@FNEDNNIM@Number?5of?5laps?5set?5to?5?$CFd?6@ DB 'Number of laps'
	DB	' set to %d', 0aH, 00H			; `string'
CONST	ENDS
;	COMDAT ??_C@_0BG@OBCCMMLP@Point?5limit?5disabled?6@
CONST	SEGMENT
??_C@_0BG@OBCCMMLP@Point?5limit?5disabled?6@ DB 'Point limit disabled', 0aH
	DB	00H						; `string'
CONST	ENDS
;	COMDAT ??_C@_07BJMCPAMN@someone@
CONST	SEGMENT
??_C@_07BJMCPAMN@someone@ DB 'someone', 00H		; `string'
CONST	ENDS
;	COMDAT ??_C@_06NBBCJHCF@a?5team@
CONST	SEGMENT
??_C@_06NBBCJHCF@a?5team@ DB 'a team', 00H		; `string'
CONST	ENDS
;	COMDAT ??_C@_0CN@CGLFEIDE@Levels?5will?5end?5after?5?$CFs?5scores@
CONST	SEGMENT
??_C@_0CN@CGLFEIDE@Levels?5will?5end?5after?5?$CFs?5scores@ DB 'Levels wi'
	DB	'll end after %s scores %d point%s.', 0aH, 00H ; `string'
CONST	ENDS
;	COMDAT ??_C@_0DJ@GIAFIEPN@jumptoaxis?5?$DMaxisnum?$DO?3?5Jump?5to?5a@
CONST	SEGMENT
??_C@_0DJ@GIAFIEPN@jumptoaxis?5?$DMaxisnum?$DO?3?5Jump?5to?5a@ DB 'jumpto'
	DB	'axis <axisnum>: Jump to axis within current mare.', 0aH, 00H ; `string'
CONST	ENDS
;	COMDAT ??_C@_0BI@HNAHCPLJ@Current?5gametype?5is?5?$CFd?6@
CONST	SEGMENT
??_C@_0BI@HNAHCPLJ@Current?5gametype?5is?5?$CFd?6@ DB 'Current gametype i'
	DB	's %d', 0aH, 00H				; `string'
CONST	ENDS
;	COMDAT ??_C@_0CJ@KGEIDLFC@Mod?5ID?3?5?$CFd?6Mod?5Version?3?5?$CFd?6Code@
CONST	SEGMENT
??_C@_0CJ@KGEIDLFC@Mod?5ID?3?5?$CFd?6Mod?5Version?3?5?$CFd?6Code@ DB 'Mod'
	DB	' ID: %d', 0aH, 'Mod Version: %d', 0aH, 'Code Base:%d', 0aH, 00H ; `string'
CONST	ENDS
;	COMDAT ??_C@_0BD@IIPKEDNH@SRB2?$CFs?5?$CI?$CFs?5?$CFs?5?$CFs?$CJ?6@
CONST	SEGMENT
??_C@_0BD@IIPKEDNH@SRB2?$CFs?5?$CI?$CFs?5?$CFs?5?$CFs?$CJ?6@ DB 'SRB2%s ('
	DB	'%s %s %s)', 0aH, 00H			; `string'
CONST	ENDS
;	COMDAT ??_C@_0M@GEPMJEDD@?5?5IWAD?3?5?$CFs?6@
CONST	SEGMENT
??_C@_0M@GEPMJEDD@?5?5IWAD?3?5?$CFs?6@ DB '  IWAD: %s', 0aH, 00H ; `string'
CONST	ENDS
;	COMDAT ??_C@_0N@ODMFAHJC@?$CK?5?5?$CF?42d?3?5?$CFs?6@
CONST	SEGMENT
??_C@_0N@ODMFAHJC@?$CK?5?5?$CF?42d?3?5?$CFs?6@ DB '*  %.2d: %s', 0aH, 00H ; `string'
CONST	ENDS
;	COMDAT ??_C@_0N@NJJKGBLE@?5?5?5?$CF?42d?3?5?$CFs?6@
CONST	SEGMENT
??_C@_0N@NJJKGBLE@?5?5?5?$CF?42d?3?5?$CFs?6@ DB '   %.2d: %s', 0aH, 00H ; `string'
CONST	ENDS
;	COMDAT ??_C@_0BL@HDHBKACP@There?5are?5?$CFd?5wads?5loaded?3?6@
CONST	SEGMENT
??_C@_0BL@HDHBKACP@There?5are?5?$CFd?5wads?5loaded?3?6@ DB 'There are %d '
	DB	'wads loaded:', 0aH, 00H			; `string'
CONST	ENDS
;	COMDAT ??_C@_0DH@KOGGEPPL@Unknown?5error?5finding?5wad?5file?5@
CONST	SEGMENT
??_C@_0DH@KOGGEPPL@Unknown?5error?5finding?5wad?5file?5@ DB 'Unknown erro'
	DB	'r finding wad file (%s) the server added.', 0aH, 00H ; `string'
CONST	ENDS
;	COMDAT ??_C@_0GD@GAMLOGPK@Checksum?5mismatch?5while?5loading@
CONST	SEGMENT
??_C@_0GD@GAMLOGPK@Checksum?5mismatch?5while?5loading@ DB 'Checksum misma'
	DB	'tch while loading %s.', 0aH, 'Make sure you have the copy of', 0aH
	DB	'this file that the server has.', 0aH, 00H	; `string'
CONST	ENDS
;	COMDAT ??_C@_0CK@BCFEBJNJ@Illegal?5delfile?5command?5receive@
CONST	SEGMENT
??_C@_0CK@BCFEBJNJ@Illegal?5delfile?5command?5receive@ DB 'Illegal delfil'
	DB	'e command received from %s', 0aH, 00H	; `string'
CONST	ENDS
;	COMDAT ??_C@_0CK@HBDJKIJA@Illegal?5addfile?5command?5receive@
CONST	SEGMENT
??_C@_0CK@HBDJKIJA@Illegal?5addfile?5command?5receive@ DB 'Illegal addfil'
	DB	'e command received from %s', 0aH, 00H	; `string'
CONST	ENDS
;	COMDAT ??_C@_0CJ@PFGLDFIM@You?5must?5NOT?5be?5in?5a?5level?5to?5u@
CONST	SEGMENT
??_C@_0CJ@PFGLDFIM@You?5must?5NOT?5be?5in?5a?5level?5to?5u@ DB 'You must '
	DB	'NOT be in a level to use this.', 0aH, 00H	; `string'
CONST	ENDS
;	COMDAT ??_C@_0CG@IJEGFMBM@addfile?5?$DMwadfile?4wad?$DO?3?5load?5wad@
CONST	SEGMENT
??_C@_0CG@IJEGFMBM@addfile?5?$DMwadfile?4wad?$DO?3?5load?5wad@ DB 'addfil'
	DB	'e <wadfile.wad>: load wad file', 0aH, 00H	; `string'
CONST	ENDS
;	COMDAT ??_C@_0DB@CFNNKNBI@Illegal?5consistency?5fix?5packet?5@
CONST	SEGMENT
??_C@_0DB@CFNNKNBI@Illegal?5consistency?5fix?5packet?5@ DB 'Illegal consi'
	DB	'stency fix packet received from %s', 0aH, 00H ; `string'
CONST	ENDS
;	COMDAT ??_C@_0DH@PHEALFGL@Unknown?5error?5finding?5soc?5file?5@
CONST	SEGMENT
??_C@_0DH@PHEALFGL@Unknown?5error?5finding?5soc?5file?5@ DB 'Unknown erro'
	DB	'r finding soc file (%s) the server added.', 0aH, 00H ; `string'
CONST	ENDS
;	COMDAT ??_C@_0CJ@NKDDEGOO@Illegal?5runsoc?5command?5received@
CONST	SEGMENT
??_C@_0CJ@NKDDEGOO@Illegal?5runsoc?5command?5received@ DB 'Illegal runsoc'
	DB	' command received from %s', 0aH, 00H	; `string'
CONST	ENDS
;	COMDAT ??_C@_0CP@HEOMMPNE@runsoc?5?$DMsocfile?4soc?$DO?5or?5?$DMlumpna@
CONST	SEGMENT
??_C@_0CP@HEOMMPNE@runsoc?5?$DMsocfile?4soc?$DO?5or?5?$DMlumpna@ DB 'runs'
	DB	'oc <socfile.soc> or <lumpname>: run a soc', 0aH, 00H ; `string'
CONST	ENDS
;	COMDAT ??_C@_0BJ@KOIDJMJI@Message?5of?5the?5day?5set?4?6@
CONST	SEGMENT
??_C@_0BJ@KOIDJMJI@Message?5of?5the?5day?5set?4?6@ DB 'Message of the day'
	DB	' set.', 0aH, 00H				; `string'
CONST	ENDS
;	COMDAT ??_C@_0CG@FKOBENHJ@Illegal?5motd?5change?5received?5fr@
CONST	SEGMENT
??_C@_0CG@FKOBENHJ@Illegal?5motd?5change?5received?5fr@ DB 'Illegal motd '
	DB	'change received from %s', 0aH, 00H		; `string'
CONST	ENDS
;	COMDAT ??_C@_0DL@LGHBBCIC@motd?5?$DMmessage?$DO?3?5Set?5a?5message?5t@
CONST	SEGMENT
??_C@_0DL@LGHBBCIC@motd?5?$DMmessage?$DO?3?5Set?5a?5message?5t@ DB 'motd '
	DB	'<message>: Set a message that clients see upon join.', 0aH, 00H ; `string'
CONST	ENDS
;	COMDAT ??_C@_0DH@FJMLGOOM@Password?5correct?4?5You?5are?5now?5a@
CONST	SEGMENT
??_C@_0DH@FJMLGOOM@Password?5correct?4?5You?5are?5now?5a@ DB 'Password co'
	DB	'rrect. You are now a server administrator.', 0aH, 00H ; `string'
CONST	ENDS
;	COMDAT ??_C@_0DM@LELCFAPP@Illegal?5verification?5received?5f@
CONST	SEGMENT
??_C@_0DM@LELCFAPP@Illegal?5verification?5received?5f@ DB 'Illegal verifi'
	DB	'cation received from %s (serverplayer is %s)', 0aH, 00H ; `string'
CONST	ENDS
;	COMDAT ??_C@_0DA@FGDGNCBO@verify?5?$DMnode?$DO?3?5give?5admin?5privi@
CONST	SEGMENT
??_C@_0DA@FGDGNCBO@verify?5?$DMnode?$DO?3?5give?5admin?5privi@ DB 'verify'
	DB	' <node>: give admin privileges to a node', 0aH, 00H ; `string'
CONST	ENDS
;	COMDAT ??_C@_0DP@MABLNICB@You?8re?5not?5the?5server?4?4?4?5you?5ca@
CONST	SEGMENT
??_C@_0DP@MABLNICB@You?8re?5not?5the?5server?4?4?4?5you?5ca@ DB 'You''re '
	DB	'not the server... you can''t give out admin privileges!', 0aH
	DB	00H						; `string'
CONST	ENDS
;	COMDAT ??_C@_0BO@IPPGFIG@Password?5from?5?$CFd?5failed?5?$CI?$CFs?$CJ?6@
CONST	SEGMENT
??_C@_0BO@IPPGFIG@Password?5from?5?$CFd?5failed?5?$CI?$CFs?$CJ?6@ DB 'Pas'
	DB	'sword from %d failed (%s)', 0aH, 00H	; `string'
CONST	ENDS
;	COMDAT ??_C@_0CA@MBEEELBG@?$CFs?5passed?5authentication?4?5?$CI?$CFs?$CJ?6@
CONST	SEGMENT
??_C@_0CA@MBEEELBG@?$CFs?5passed?5authentication?4?5?$CI?$CFs?$CJ?6@ DB '%'
	DB	's passed authentication. (%s)', 0aH, 00H	; `string'
CONST	ENDS
;	COMDAT ??_C@_0EA@KGOHEOKF@Sending?5Login?4?4?4?$CFs?6?$CINotice?5only@
CONST	SEGMENT
??_C@_0EA@KGOHEOKF@Sending?5Login?4?4?4?$CFs?6?$CINotice?5only@ DB 'Sendi'
	DB	'ng Login...%s', 0aH, '(Notice only given if password is corre'
	DB	'ct.)', 0aH, 00H				; `string'
CONST	ENDS
;	COMDAT ??_C@_0CH@DCIPLDFL@login?5?$DMpassword?$DO?3?5Administrator@
CONST	SEGMENT
??_C@_0CH@DCIPLDFL@login?5?$DMpassword?$DO?3?5Administrator@ DB 'login <p'
	DB	'assword>: Administrator login', 0aH, 00H	; `string'
CONST	ENDS
;	COMDAT ??_C@_0CG@NFJMICPP@password?5?$DMpassword?$DO?3?5change?5pas@
CONST	SEGMENT
??_C@_0CG@NFJMICPP@password?5?$DMpassword?$DO?3?5change?5pas@ DB 'passwor'
	DB	'd <password>: change password', 0aH, 00H	; `string'
CONST	ENDS
;	COMDAT ??_C@_0CP@GMBPCFGD@You?8re?5not?5the?5server?4?5You?5can?8@
CONST	SEGMENT
??_C@_0CP@GMBPCFGD@You?8re?5not?5the?5server?4?5You?5can?8@ DB 'You''re n'
	DB	'ot the server. You can''t change this.', 0aH, 00H ; `string'
CONST	ENDS
;	COMDAT ??_C@_0CH@LLLOEJNC@?$CFs?5was?5scrambled?5to?5a?5different@
CONST	SEGMENT
??_C@_0CH@LLLOEJNC@?$CFs?5was?5scrambled?5to?5a?5different@ DB '%s was sc'
	DB	'rambled to a different team.', 0aH, 00H	; `string'
CONST	ENDS
;	COMDAT ??_C@_0CI@MIKFFPLJ@?$CFs?5was?5autobalanced?5to?5even?5the@
CONST	SEGMENT
??_C@_0CI@MIKFFPLJ@?$CFs?5was?5autobalanced?5to?5even?5the@ DB '%s was au'
	DB	'tobalanced to even the teams.', 0aH, 00H	; `string'
CONST	ENDS
;	COMDAT ??_C@_0BG@BJOCEMHL@?$CFs?5entered?5the?5game?4?6@
CONST	SEGMENT
??_C@_0BG@BJOCEMHL@?$CFs?5entered?5the?5game?4?6@ DB '%s entered the game'
	DB	'.', 0aH, 00H				; `string'
CONST	ENDS
;	COMDAT ??_C@_0BI@IBDAHDKJ@?$CFs?5became?5a?5spectator?4?6@
CONST	SEGMENT
??_C@_0BI@IBDAHDKJ@?$CFs?5became?5a?5spectator?4?6@ DB '%s became a spect'
	DB	'ator.', 0aH, 00H				; `string'
CONST	ENDS
;	COMDAT ??_C@_0BO@ENCKLKAM@?$CFs?5switched?5to?5the?5blue?5team?6@
CONST	SEGMENT
??_C@_0BO@ENCKLKAM@?$CFs?5switched?5to?5the?5blue?5team?6@ DB '%s switche'
	DB	'd to the blue team', 0aH, 00H		; `string'
CONST	ENDS
;	COMDAT ??_C@_0BN@DDHKIGCG@?$CFs?5switched?5to?5the?5red?5team?6@
CONST	SEGMENT
??_C@_0BN@DDHKIGCG@?$CFs?5switched?5to?5the?5red?5team?6@ DB '%s switched'
	DB	' to the red team', 0aH, 00H			; `string'
CONST	ENDS
;	COMDAT ??_C@_0BF@DELIHMEG@?$CFs?5is?5no?5longer?5IT?$CB?6@
CONST	SEGMENT
??_C@_0BF@DELIHMEG@?$CFs?5is?5no?5longer?5IT?$CB?6@ DB '%s is no longer I'
	DB	'T!', 0aH, 00H				; `string'
CONST	ENDS
;	COMDAT ??_C@_0P@EKJNKFPP@?$CFs?5is?5now?5IT?$CB?6@
CONST	SEGMENT
??_C@_0P@EKJNKFPP@?$CFs?5is?5now?5IT?$CB?6@ DB '%s is now IT!', 0aH, 00H ; `string'
CONST	ENDS
;	COMDAT ??_C@_0CP@HKMLKOCJ@Player?5?$CFs?5sent?5illegal?5team?5cha@
CONST	SEGMENT
??_C@_0CP@HKMLKOCJ@Player?5?$CFs?5sent?5illegal?5team?5cha@ DB 'Player %s'
	DB	' sent illegal team change to team %d', 0aH, 00H ; `string'
CONST	ENDS
;	COMDAT ??_C@_0CN@MAADBEFO@Illegal?5team?5change?5received?5fr@
CONST	SEGMENT
??_C@_0CN@MAADBEFO@Illegal?5team?5change?5received?5fr@ DB 'Illegal team '
	DB	'change received from player %s', 0aH, 00H	; `string'
CONST	ENDS
;	COMDAT ??_C@_0CH@MIBOPNCJ@No?5tag?5status?5changes?5after?5hid@
CONST	SEGMENT
??_C@_0CH@MIBOPNCJ@No?5tag?5status?5changes?5after?5hid@ DB 'No tag statu'
	DB	's changes after hidetime!', 0aH, 00H	; `string'
CONST	ENDS
;	COMDAT ??_C@_0CG@BHHNMGAM@That?5player?5is?5already?5on?5that?5@
CONST	SEGMENT
??_C@_0CG@BHHNMGAM@That?5player?5is?5already?5on?5that?5@ DB 'That player'
	DB	' is already on that team!', 0aH, 00H	; `string'
CONST	ENDS
;	COMDAT ??_C@_0DI@GGHDJFFK@?$HOEggman?$HO?5Teams?5are?5going?5to?5be?5@
CONST	SEGMENT
??_C@_0DI@GGHDJFFK@?$HOEggman?$HO?5Teams?5are?5going?5to?5be?5@ DB '~Eggm'
	DB	'an~ Teams are going to be scrambled! MUAHAHAHAHA!', 0aH, 00H ; `string'
CONST	ENDS
;	COMDAT ??_C@_0FL@POKLPJKE@serverchangeteam?5?$DMplayernum?$DO?5?$DMt@
CONST	SEGMENT
??_C@_0FL@POKLPJKE@serverchangeteam?5?$DMplayernum?$DO?5?$DMt@ DB 'server'
	DB	'changeteam <playernum> <team>: switch player to a new team (r'
	DB	'ed, blue or spectator)', 0aH, 00H		; `string'
CONST	ENDS
;	COMDAT ??_C@_0GF@HOIHBHEE@serverchangeteam?5?$DMplayernum?$DO?5?$DMt@
CONST	SEGMENT
??_C@_0GF@HOIHBHEE@serverchangeteam?5?$DMplayernum?$DO?5?$DMt@ DB 'server'
	DB	'changeteam <playernum> <team>: switch player to a new team (i'
	DB	't, notit, playing, or spectator)', 0aH, 00H	; `string'
CONST	ENDS
;	COMDAT ??_C@_0FJ@OKNMBAF@serverchangeteam?5?$DMplayernum?$DO?5?$DMt@
CONST	SEGMENT
??_C@_0FJ@OKNMBAF@serverchangeteam?5?$DMplayernum?$DO?5?$DMt@ DB 'serverc'
	DB	'hangeteam <playernum> <team>: switch player to a new team (sp'
	DB	'ectator or playing)', 0aH, 00H		; `string'
CONST	ENDS
;	COMDAT ??_C@_0DJ@HDCGGIBO@You?8re?5not?5the?5server?4?5You?5can?8@
CONST	SEGMENT
??_C@_0DJ@HDCGGIBO@You?8re?5not?5the?5server?4?5You?5can?8@ DB 'You''re n'
	DB	'ot the server. You can''t change players'' teams.', 0aH, 00H ; `string'
CONST	ENDS
;	COMDAT ??_C@_0ED@KAEJEPCB@changeteam2?5?$DMteam?$DO?3?5switch?5to?5a@
CONST	SEGMENT
??_C@_0ED@KAEJEPCB@changeteam2?5?$DMteam?$DO?3?5switch?5to?5a@ DB 'change'
	DB	'team2 <team>: switch to a new team (red, blue or spectator)', 0aH
	DB	00H						; `string'
CONST	ENDS
;	COMDAT ??_C@_0EB@ECMCGICB@changeteam2?5?$DMteam?$DO?3?5switch?5to?5a@
CONST	SEGMENT
??_C@_0EB@ECMCGICB@changeteam2?5?$DMteam?$DO?3?5switch?5to?5a@ DB 'change'
	DB	'team2 <team>: switch to a new team (spectator or playing)', 0aH
	DB	00H						; `string'
CONST	ENDS
;	COMDAT ??_C@_0DL@IGCEPGFJ@This?5command?5cannot?5be?5used?5out@
CONST	SEGMENT
??_C@_0DL@IGCEPGFJ@This?5command?5cannot?5be?5used?5out@ DB 'This command'
	DB	' cannot be used outside of Team Match or CTF.', 0aH, 00H ; `string'
CONST	ENDS
;	COMDAT ??_C@_0DL@EKOILIJG@This?5command?5cannot?5be?5used?5out@
CONST	SEGMENT
??_C@_0DL@EKOILIJG@This?5command?5cannot?5be?5used?5out@ DB 'This command'
	DB	' cannot be used outside of Match, Tag or CTF.', 0aH, 00H ; `string'
CONST	ENDS
;	COMDAT ??_C@_0EC@CLMHNGFK@changeteam?5?$DMteam?$DO?3?5switch?5to?5a?5@
CONST	SEGMENT
??_C@_0EC@CLMHNGFK@changeteam?5?$DMteam?$DO?3?5switch?5to?5a?5@ DB 'chang'
	DB	'eteam <team>: switch to a new team (red, blue or spectator)', 0aH
	DB	00H						; `string'
CONST	ENDS
;	COMDAT ??_C@_0EA@NGKMNLMO@changeteam?5?$DMteam?$DO?3?5switch?5to?5a?5@
CONST	SEGMENT
??_C@_0EA@NGKMNLMO@changeteam?5?$DMteam?$DO?3?5switch?5to?5a?5@ DB 'chang'
	DB	'eteam <team>: switch to a new team (spectator or playing)', 0aH
	DB	00H						; `string'
CONST	ENDS
;	COMDAT ??_C@_0CH@FHCHDELO@Scores?5have?5been?5reset?5by?5the?5s@
CONST	SEGMENT
??_C@_0CH@FHCHDELO@Scores?5have?5been?5reset?5by?5the?5s@ DB 'Scores have'
	DB	' been reset by the server.', 0aH, 00H	; `string'
CONST	ENDS
;	COMDAT ??_C@_0CP@HAJGPEKA@Illegal?5clear?5scores?5command?5re@
CONST	SEGMENT
??_C@_0CP@HAJGPEKA@Illegal?5clear?5scores?5command?5re@ DB 'Illegal clear'
	DB	' scores command received from %s', 0aH, 00H	; `string'
CONST	ENDS
;	COMDAT ??_C@_0BF@PFLMNIFN@Game?5unpaused?5by?5?$CFs?6@
CONST	SEGMENT
??_C@_0BF@PFLMNIFN@Game?5unpaused?5by?5?$CFs?6@ DB 'Game unpaused by %s', 0aH
	DB	00H						; `string'
CONST	ENDS
;	COMDAT ??_C@_0BD@GHLLPFFN@Game?5paused?5by?5?$CFs?6@
CONST	SEGMENT
??_C@_0BD@GHLLPFFN@Game?5paused?5by?5?$CFs?6@ DB 'Game paused by %s', 0aH
	DB	00H						; `string'
CONST	ENDS
;	COMDAT ??_C@_0CI@HDAFNMEI@Illegal?5pause?5command?5received?5@
CONST	SEGMENT
??_C@_0CI@HDAFNMEI@Illegal?5pause?5command?5received?5@ DB 'Illegal pause'
	DB	' command received from %s', 0aH, 00H	; `string'
CONST	ENDS
;	COMDAT ??_C@_0CF@JPPMDMKH@Illegal?5map?5change?5received?5fro@
CONST	SEGMENT
??_C@_0CF@JPPMDMKH@Illegal?5map?5change?5received?5fro@ DB 'Illegal map c'
	DB	'hange received from %s', 0aH, 00H		; `string'
CONST	ENDS
;	COMDAT ??_C@_0DA@MAODLC@That?5level?5doesn?8t?5support?5Sing@
CONST	SEGMENT
??_C@_0DA@MAODLC@That?5level?5doesn?8t?5support?5Sing@ DB 'That level doe'
	DB	'sn''t support Single Player mode!', 0aH, 00H ; `string'
CONST	ENDS
;	COMDAT ??_C@_0DO@DCLGKLBE@That?5level?5doesn?8t?5support?5?$CFs?5m@
CONST	SEGMENT
??_C@_0DO@DCLGKLBE@That?5level?5doesn?8t?5support?5?$CFs?5m@ DB 'That lev'
	DB	'el doesn''t support %s mode!', 0aH, '(Use -force to override)'
	DB	0aH, 00H					; `string'
CONST	ENDS
;	COMDAT ??_C@_0CO@BHKJBMOA@You?5can?8t?5switch?5gametypes?5in?5s@
CONST	SEGMENT
??_C@_0CO@BHKJBMOA@You?5can?8t?5switch?5gametypes?5in?5s@ DB 'You can''t '
	DB	'switch gametypes in single player!', 0aH, 00H ; `string'
CONST	ENDS
;	COMDAT ??_C@_0BH@PNPLPGIG@Invalid?5level?5name?5?$CFs?6@
CONST	SEGMENT
??_C@_0BH@PNPLPGIG@Invalid?5level?5name?5?$CFs?6@ DB 'Invalid level name '
	DB	'%s', 0aH, 00H				; `string'
CONST	ENDS
;	COMDAT ??_C@_0DA@CPEBLCM@Sorry?0?5level?5change?5disabled?5in@
CONST	SEGMENT
??_C@_0DA@CPEBLCM@Sorry?0?5level?5change?5disabled?5in@ DB 'Sorry, level '
	DB	'change disabled in single player.', 0aH, 00H ; `string'
CONST	ENDS
;	COMDAT ??_C@_0CF@INDGCHAI@?$ACInternal?5game?5level?5?8?$CFs?8?5not?5f@
CONST	SEGMENT
??_C@_0CF@INDGCHAI@?$ACInternal?5game?5level?5?8?$CFs?8?5not?5f@ DB 02H, 'I'
	DB	'nternal game level ''%s'' not found', 0aH, 00H ; `string'
CONST	ENDS
;	COMDAT ??_C@_0CG@IHNALCMB@Only?5the?5server?5can?5change?5the?5@
CONST	SEGMENT
??_C@_0CG@IHNALCMB@Only?5the?5server?5can?5change?5the?5@ DB 'Only the se'
	DB	'rver can change the level', 0aH, 00H	; `string'
CONST	ENDS
;	COMDAT ??_C@_0DH@MLAPEGBB@map?5?$DMmapname?$DO?5?$FL?9gametype?5?$DMtype?$DO@
CONST	SEGMENT
??_C@_0DH@MLAPEGBB@map?5?$DMmapname?$DO?5?$FL?9gametype?5?$DMtype?$DO@ DB 'm'
	DB	'ap <mapname> [-gametype <type> [-force]: warp to map', 0aH, 00H ; `string'
CONST	ENDS
;	COMDAT ??_C@_0FK@KJCADJLJ@Map?5change?3?5mapnum?$DN?$CFd?5gametype?$DN@
CONST	SEGMENT
??_C@_0FK@KJCADJLJ@Map?5change?3?5mapnum?$DN?$CFd?5gametype?$DN@ DB 'Map '
	DB	'change: mapnum=%d gametype=%d ultmode=%d resetplayers=%d dela'
	DB	'y=%d skipprecutscene=%d', 0aH, 00H		; `string'
CONST	ENDS
;	COMDAT ??_C@_0P@JFMMMOHN@Stopped?5demo?4?6@
CONST	SEGMENT
??_C@_0P@JFMMMOHN@Stopped?5demo?4?6@ DB 'Stopped demo.', 0aH, 00H ; `string'
CONST	ENDS
;	COMDAT ??_C@_0BD@LPONKLKD@Timing?5demo?5?8?$CFs?8?4?6@
CONST	SEGMENT
??_C@_0BD@LPONKLKD@Timing?5demo?5?8?$CFs?8?4?6@ DB 'Timing demo ''%s''.', 0aH
	DB	00H						; `string'
CONST	ENDS
;	COMDAT ??_C@_0CC@ICCOJDAE@Timedemo?5?$DMdemoname?$DO?3?5time?5a?5dem@
CONST	SEGMENT
??_C@_0CC@ICCOJDAE@Timedemo?5?$DMdemoname?$DO?3?5time?5a?5dem@ DB 'Timede'
	DB	'mo <demoname>: time a demo', 0aH, 00H	; `string'
CONST	ENDS
;	COMDAT ??_C@_0BJ@INIJIFDJ@Playing?5back?5demo?5?8?$CFs?8?4?6@
CONST	SEGMENT
??_C@_0BJ@INIJIFDJ@Playing?5back?5demo?5?8?$CFs?8?4?6@ DB 'Playing back d'
	DB	'emo ''%s''.', 0aH, 00H			; `string'
CONST	ENDS
;	COMDAT ??_C@_0CG@IJDOOMFG@Playdemo?5?$DMdemoname?$DO?3?5playback?5a@
CONST	SEGMENT
??_C@_0CG@IJDOOMFG@Playdemo?5?$DMdemoname?$DO?3?5playback?5a@ DB 'Playdem'
	DB	'o <demoname>: playback a demo', 0aH, 00H	; `string'
CONST	ENDS
;	COMDAT ??_C@_0BO@ECHOJPCK@Teleporting?5to?5?$CFd?0?5?$CFd?0?5?$CFd?4?4?4?6@
CONST	SEGMENT
??_C@_0BO@ECHOJPCK@Teleporting?5to?5?$CFd?0?5?$CFd?0?5?$CFd?4?4?4?6@ DB 'T'
	DB	'eleporting to %d, %d, %d...', 0aH, 00H	; `string'
CONST	ENDS
;	COMDAT ??_C@_0BH@BLILHBNF@Y?5value?5not?5specified?6@
CONST	SEGMENT
??_C@_0BH@BLILHBNF@Y?5value?5not?5specified?6@ DB 'Y value not specified', 0aH
	DB	00H						; `string'
CONST	ENDS
;	COMDAT ??_C@_0BH@IAPIJLAB@X?5value?5not?5specified?6@
CONST	SEGMENT
??_C@_0BH@IAPIJLAB@X?5value?5not?5specified?6@ DB 'X value not specified', 0aH
	DB	00H						; `string'
CONST	ENDS
;	COMDAT ??_C@_0BO@NCMEFBMC@Teleporting?5by?5?$CFd?0?5?$CFd?0?5?$CFd?4?4?4?6@
CONST	SEGMENT
??_C@_0BO@NCMEFBMC@Teleporting?5by?5?$CFd?0?5?$CFd?0?5?$CFd?4?4?4?6@ DB 'T'
	DB	'eleporting by %d, %d, %d...', 0aH, 00H	; `string'
CONST	ENDS
;	COMDAT ??_C@_0BG@OJOFNHBJ@Not?5a?5valid?5location?6@
CONST	SEGMENT
??_C@_0BG@OJOFNHBJ@Not?5a?5valid?5location?6@ DB 'Not a valid location', 0aH
	DB	00H						; `string'
CONST	ENDS
;	COMDAT ??_C@_0EN@HNBHNPLB@rteleport?5?9x?5?$DMvalue?$DO?5?9y?5?$DMvalue?$DO@
CONST	SEGMENT
??_C@_0EN@HNBHNPLB@rteleport?5?9x?5?$DMvalue?$DO?5?9y?5?$DMvalue?$DO@ DB 'r'
	DB	'teleport -x <value> -y <value> -z <value>: relative teleport '
	DB	'to a location', 0aH, 00H			; `string'
CONST	ENDS
;	COMDAT ??_C@_0CD@IMJJHDIK@?$CFs?5has?5ordered?5a?5delicious?5pizz@
CONST	SEGMENT
??_C@_0CD@IMJJHDIK@?$CFs?5has?5ordered?5a?5delicious?5pizz@ DB '%s has or'
	DB	'dered a delicious pizza.', 0aH, 00H		; `string'
CONST	ENDS
;	COMDAT ??_C@_0EN@OLIDEKEP@orderpizza?5?9size?5?$DMvalue?$DO?5?9addre@
CONST	SEGMENT
??_C@_0EN@OLIDEKEP@orderpizza?5?9size?5?$DMvalue?$DO?5?9addre@ DB 'orderp'
	DB	'izza -size <value> -address <value> -toppings <value>: order '
	DB	'a pizza!', 0aH, 00H				; `string'
CONST	ENDS
;	COMDAT ??_C@_0DP@JHBECLLI@Illegal?5color?5change?5received?5f@
CONST	SEGMENT
??_C@_0DP@JHBECLLI@Illegal?5color?5change?5received?5f@ DB 'Illegal color'
	DB	' change received from %s (team: %ld, color: %ld)', 0aH, 00H ; `string'
CONST	ENDS
;	COMDAT ??_C@_0CC@MELJIPFI@Player?5?$CFd?5sent?5a?5bad?5name?5chang@
CONST	SEGMENT
??_C@_0CC@MELJIPFI@Player?5?$CFd?5sent?5a?5bad?5name?5chang@ DB 'Player %'
	DB	'd sent a bad name change', 0aH, 00H		; `string'
CONST	ENDS
;	COMDAT ??_C@_0BC@KPIINKNG@?$CFs?5renamed?5to?5?$CFs?6@
CONST	SEGMENT
??_C@_0BC@KPIINKNG@?$CFs?5renamed?5to?5?$CFs?6@ DB '%s renamed to %s', 0aH
	DB	00H						; `string'
CONST	ENDS
;	COMDAT ??_C@_0BC@DEIONLMI@?$CF?42d?5?3?5?$CFs?6?5?$CFd?5ms?6@
CONST	SEGMENT
??_C@_0BC@DEIONLMI@?$CF?42d?5?3?5?$CFs?6?5?$CFd?5ms?6@ DB '%.2d : %s', 0aH
	DB	' %d ms', 0aH, 00H				; `string'
CONST	ENDS
;	COMDAT ??_C@_0CC@JDFLLOJK@?$ACcannot?5debug?5output?5to?5file?5?$CFs@
CONST	SEGMENT
??_C@_0CC@JDFLLOJK@?$ACcannot?5debug?5output?5to?5file?5?$CFs@ DB 02H, 'c'
	DB	'annot debug output to file %s!', 0aH, 00H	; `string'
CONST	ENDS
;	COMDAT ??_C@_0BF@GDGMBDNI@debug?5output?5to?3?5?$CFs?6@
CONST	SEGMENT
??_C@_0BF@GDGMBDNI@debug?5output?5to?3?5?$CFs?6@ DB 'debug output to: %s', 0aH
	DB	00H						; `string'
CONST	ENDS
;	COMDAT ??_C@_0BN@JIOELBGP@Network?5bandwidth?5set?5to?5?$CFd?6@
CONST	SEGMENT
??_C@_0BN@JIOELBGP@Network?5bandwidth?5set?5to?5?$CFd?6@ DB 'Network band'
	DB	'width set to %d', 0aH, 00H			; `string'
CONST	ENDS
;	COMDAT ??_C@_0BF@MJDAANIO@Set?5extratics?5to?5?$CFd?6@
CONST	SEGMENT
??_C@_0BF@MJDAANIO@Set?5extratics?5to?5?$CFd?6@ DB 'Set extratics to %d', 0aH
	DB	00H						; `string'
CONST	ENDS
;	COMDAT ??_C@_0BC@EGCLJOEA@Playing?5demo?5?$CFs?4?6@
CONST	SEGMENT
??_C@_0BC@EGCLJOEA@Playing?5demo?5?$CFs?4?6@ DB 'Playing demo %s.', 0aH, 00H ; `string'
CONST	ENDS
;	COMDAT ??_C@_0BE@FBIFMCCD@setvbuf?5didnt?5work?6@
CONST	SEGMENT
??_C@_0BE@FBIFMCCD@setvbuf?5didnt?5work?6@ DB 'setvbuf didnt work', 0aH, 00H ; `string'
CONST	ENDS
;	COMDAT ??_C@_0BG@MBGLCCDE@I_StartupGraphics?4?4?4?6@
CONST	SEGMENT
??_C@_0BG@MBGLCCDE@I_StartupGraphics?4?4?4?6@ DB 'I_StartupGraphics...', 0aH
	DB	00H						; `string'
CONST	ENDS
;	COMDAT ??_C@_0BD@GMOAGNCH@I_StartupTimer?4?4?4?6@
CONST	SEGMENT
??_C@_0BD@GMOAGNCH@I_StartupTimer?4?4?4?6@ DB 'I_StartupTimer...', 0aH, 00H ; `string'
CONST	ENDS
;	COMDAT ??_C@_0BD@HBMCAPMG@I_StartupMouse?4?4?4?6@
CONST	SEGMENT
??_C@_0BD@HBMCAPMG@I_StartupMouse?4?4?4?6@ DB 'I_StartupMouse...', 0aH, 00H ; `string'
CONST	ENDS
;	COMDAT ??_C@_0BG@HMMBDIMC@I_StartupKeyboard?4?4?4?6@
CONST	SEGMENT
??_C@_0BG@HMMBDIMC@I_StartupKeyboard?4?4?4?6@ DB 'I_StartupKeyboard...', 0aH
	DB	00H						; `string'
CONST	ENDS
;	COMDAT ??_C@_0BJ@IDEDOFGJ@Player?5?$CFd?5has?5a?5null?5mo?6@
CONST	SEGMENT
??_C@_0BJ@IDEDOFGJ@Player?5?$CFd?5has?5a?5null?5mo?6@ DB 'Player %d has a'
	DB	' null mo', 0aH, 00H				; `string'
CONST	ENDS
;	COMDAT ??_C@_0BM@KCOIPJBK@Player?5?$CFd?5is?5at?5?$CFd?0?5?$CFd?0?5?$CFd?6@
CONST	SEGMENT
??_C@_0BM@KCOIPJBK@Player?5?$CFd?5is?5at?5?$CFd?0?5?$CFd?0?5?$CFd?6@ DB 'P'
	DB	'layer %d is at %d, %d, %d', 0aH, 00H	; `string'
CONST	ENDS
;	COMDAT ??_C@_0BG@LGNHDNDM@Player?5kicked?5is?5?$CD?$CFd?6@
CONST	SEGMENT
??_C@_0BG@LGNHDNDM@Player?5kicked?5is?5?$CD?$CFd?6@ DB 'Player kicked is '
	DB	'#%d', 0aH, 00H				; `string'
CONST	ENDS
;	COMDAT ??_C@_0DB@FKOHFADK@Consistency?5failure?5for?5player?5@
CONST	SEGMENT
??_C@_0DB@FKOHFADK@Consistency?5failure?5for?5player?5@ DB 'Consistency f'
	DB	'ailure for player %d, restoring...', 0aH, 00H ; `string'
CONST	ENDS
;	COMDAT ??_C@_0DB@JIPOKIIO@Join?5accepted?0?5waiting?5for?5next@
CONST	SEGMENT
??_C@_0DB@JIPOKIIO@Join?5accepted?0?5waiting?5for?5next@ DB 'Join accepte'
	DB	'd, waiting for next level change...', 0aH, 00H ; `string'
CONST	ENDS
;	COMDAT ??_C@_0BF@LOKBHHME@Starting?5Server?4?4?4?4?6@
CONST	SEGMENT
??_C@_0BF@LOKBHHME@Starting?5Server?4?4?4?4?6@ DB 'Starting Server....', 0aH
	DB	00H						; `string'
CONST	ENDS
;	COMDAT ??_C@_0BG@KNCHJHMC@Player?5Address?5is?5?$CFs?6@
CONST	SEGMENT
??_C@_0BG@KNCHJHMC@Player?5Address?5is?5?$CFs?6@ DB 'Player Address is %s'
	DB	0aH, 00H					; `string'
CONST	ENDS
;	COMDAT ??_C@_0CJ@DCCBPMMK@Player?5?$CFd?5has?5joined?5the?5game?5?$CI@
CONST	SEGMENT
??_C@_0CJ@DCCBPMMK@Player?5?$CFd?5has?5joined?5the?5game?5?$CI@ DB 'Playe'
	DB	'r %d has joined the game (node %d)', 0aH, 00H ; `string'
CONST	ENDS
;	COMDAT ??_C@_0CN@MBPFLCN@Illegal?5add?5player?5command?5rece@
CONST	SEGMENT
??_C@_0CN@MBPFLCN@Illegal?5add?5player?5command?5rece@ DB 'Illegal add pl'
	DB	'ayer command received from %s', 0aH, 00H	; `string'
CONST	ENDS
;	COMDAT ??_C@_0BG@JJCGBHMF@has?5been?5banned?5?$CI?$CFs?$CJ?6@
CONST	SEGMENT
??_C@_0BG@JJCGBHMF@has?5been?5banned?5?$CI?$CFs?$CJ?6@ DB 'has been banne'
	DB	'd (%s)', 0aH, 00H				; `string'
CONST	ENDS
;	COMDAT ??_C@_0BG@DFACONJA@has?5been?5kicked?5?$CI?$CFs?$CJ?6@
CONST	SEGMENT
??_C@_0BG@DFACONJA@has?5been?5kicked?5?$CI?$CFs?$CJ?6@ DB 'has been kicke'
	DB	'd (%s)', 0aH, 00H				; `string'
CONST	ENDS
;	COMDAT ??_C@_0CD@DBMCMDHC@has?5been?5banned?5?$CIDon?8t?5come?5bac@
CONST	SEGMENT
??_C@_0CD@DBMCMDHC@has?5been?5banned?5?$CIDon?8t?5come?5bac@ DB 'has been'
	DB	' banned (Don''t come back)', 0aH, 00H	; `string'
CONST	ENDS
;	COMDAT ??_C@_0P@KLOMPPBJ@left?5the?5game?6@
CONST	SEGMENT
??_C@_0P@KLOMPPBJ@left?5the?5game?6@ DB 'left the game', 0aH, 00H ; `string'
CONST	ENDS
;	COMDAT ??_C@_0CE@BOACHLPM@left?5the?5game?5?$CIConnection?5timeo@
CONST	SEGMENT
??_C@_0CE@BOACHLPM@left?5the?5game?5?$CIConnection?5timeo@ DB 'left the g'
	DB	'ame (Connection timeout)', 0aH, 00H		; `string'
CONST	ENDS
;	COMDAT ??_C@_0CE@IKHPMCGJ@has?5been?5kicked?5?$CIBroke?5ping?5lim@
CONST	SEGMENT
??_C@_0CE@IKHPMCGJ@has?5been?5kicked?5?$CIBroke?5ping?5lim@ DB 'has been '
	DB	'kicked (Broke ping limit)', 0aH, 00H	; `string'
CONST	ENDS
;	COMDAT ??_C@_0CH@OMALPNND@has?5been?5kicked?5?$CIConsistency?5fa@
CONST	SEGMENT
??_C@_0CH@OMALPNND@has?5been?5kicked?5?$CIConsistency?5fa@ DB 'has been k'
	DB	'icked (Consistency failure)', 0aH, 00H	; `string'
CONST	ENDS
;	COMDAT ??_C@_0BL@DEIPNHEG@has?5been?5kicked?5?$CIGo?5away?$CJ?6@
CONST	SEGMENT
??_C@_0BL@DEIPNHEG@has?5been?5kicked?5?$CIGo?5away?$CJ?6@ DB 'has been ki'
	DB	'cked (Go away)', 0aH, 00H			; `string'
CONST	ENDS
;	COMDAT ??_C@_04BHMCPGCF@?$AC?$CFs?5@
CONST	SEGMENT
??_C@_04BHMCPGCF@?$AC?$CFs?5@ DB 02H, '%s ', 00H	; `string'
CONST	ENDS
;	COMDAT ??_C@_0DF@MOIHKMII@Illegal?5kick?5command?5received?5f@
CONST	SEGMENT
??_C@_0DF@MOIHKMII@Illegal?5kick?5command?5received?5f@ DB 'Illegal kick '
	DB	'command received from %s for player %d', 0aH, 00H ; `string'
CONST	ENDS
;	COMDAT ??_C@_0CO@MIOFJNF@Server?5is?5being?5shut?5down?5remot@
CONST	SEGMENT
??_C@_0CO@MIOFJNF@Server?5is?5being?5shut?5down?5remot@ DB 'Server is bei'
	DB	'ng shut down remotely. Goodbye!', 0aH, 00H	; `string'
CONST	ENDS
;	COMDAT ??_C@_0DK@JOKALBFD@Kick?5?$DMplayername?$DO?5or?5?$DMplayernum@
CONST	SEGMENT
??_C@_0DK@JOKALBFD@Kick?5?$DMplayername?$DO?5or?5?$DMplayernum@ DB 'Kick '
	DB	'<playername> or <playernum> <reason>: kick a player', 0aH, 00H ; `string'
CONST	ENDS
;	COMDAT ??_C@_0BJ@PCFFLIKK@You?5are?5not?5the?5server?4?6@
CONST	SEGMENT
??_C@_0BJ@PCFFLIKK@You?5are?5not?5the?5server?4?6@ DB 'You are not the se'
	DB	'rver.', 0aH, 00H				; `string'
CONST	ENDS
;	COMDAT ??_C@_0EB@LFFGOMMH@Too?5many?5bans?$CB?5Geez?0?5that?8s?5a?5l@
CONST	SEGMENT
??_C@_0EB@LFFGOMMH@Too?5many?5bans?$CB?5Geez?0?5that?8s?5a?5l@ DB 'Too ma'
	DB	'ny bans! Geez, that''s a lot of people you''re excluding...', 0aH
	DB	00H						; `string'
CONST	ENDS
;	COMDAT ??_C@_0EB@GGEALNPM@Ban?5?$DMplayername?$DO?5or?5?$DMplayernum?$DO@
CONST	SEGMENT
??_C@_0EB@GGEALNPM@Ban?5?$DMplayername?$DO?5or?5?$DMplayernum?$DO@ DB 'Ba'
	DB	'n <playername> or <playernum> <reason>: ban and kick a player'
	DB	0aH, 00H					; `string'
CONST	ENDS
;	COMDAT ??_C@_0N@CDHKCHBP@?5?$CIspectator?$CJ@
CONST	SEGMENT
??_C@_0N@CDHKCHBP@?5?$CIspectator?$CJ@ DB ' (spectator)', 00H ; `string'
CONST	ENDS
;	COMDAT ??_C@_0BC@MONOBHBL@?5?$CIverified?5admin?$CJ@
CONST	SEGMENT
??_C@_0BC@MONOBHBL@?5?$CIverified?5admin?$CJ@ DB ' (verified admin)', 00H ; `string'
CONST	ENDS
;	COMDAT ??_C@_05OKGGLBNP@?5?9?5?$CFs@
CONST	SEGMENT
??_C@_05OKGGLBNP@?5?9?5?$CFs@ DB ' - %s', 00H		; `string'
CONST	ENDS
;	COMDAT ??_C@_07KFNPPIIO@?5?9?5?$CF?42d@
CONST	SEGMENT
??_C@_07KFNPPIIO@?5?9?5?$CF?42d@ DB ' - %.2d', 00H	; `string'
CONST	ENDS
;	COMDAT ??_C@_09IFCHIHBK@?$CF?42d?3?5?$CF?$CKs@
CONST	SEGMENT
??_C@_09IFCHIHBK@?$CF?42d?3?5?$CF?$CKs@ DB '%.2d: %*s', 00H ; `string'
CONST	ENDS
;	COMDAT ??_C@_0BP@LJABGBBO@There?5is?5no?5player?5named?5?$CC?$CFs?$CC?6@
CONST	SEGMENT
??_C@_0BP@LJABGBBO@There?5is?5no?5player?5named?5?$CC?$CFs?$CC?6@ DB 'The'
	DB	're is no player named "%s"', 0aH, 00H	; `string'
CONST	ENDS
;	COMDAT ??_C@_0BH@MGDOBFBO@num?3?$CF2d?5?5node?3?$CF2d?5?5?$CFs?6@
CONST	SEGMENT
??_C@_0BH@MGDOBFBO@num?3?$CF2d?5?5node?3?$CF2d?5?5?$CFs?6@ DB 'num:%2d  n'
	DB	'ode:%2d  %s', 0aH, 00H			; `string'
CONST	ENDS
;	COMDAT ??_C@_0BI@MOGEDHHF@?$ACnum?3?$CF2d?5?5node?3?$CF2d?5?5?$CFs?6@
CONST	SEGMENT
??_C@_0BI@MOGEDHHF@?$ACnum?3?$CF2d?5?5node?3?$CF2d?5?5?$CFs?6@ DB 02H, 'n'
	DB	'um:%2d  node:%2d  %s', 0aH, 00H		; `string'
CONST	ENDS
;	COMDAT ??_C@_0BM@BNOGFMDG@There?5is?5no?5network?5driver?6@
CONST	SEGMENT
??_C@_0BM@BNOGFMDG@There?5is?5no?5network?5driver?6@ DB 'There is no netw'
	DB	'ork driver', 0aH, 00H			; `string'
CONST	ENDS
;	COMDAT ??_C@_0DM@CLKOBHMJ@There?5is?5no?5server?5identificati@
CONST	SEGMENT
??_C@_0DM@CLKOBHMJ@There?5is?5no?5server?5identificati@ DB 'There is no s'
	DB	'erver identification with this network driver', 0aH, 00H ; `string'
CONST	ENDS
;	COMDAT ??_C@_0DI@EGCJPKPK@You?5cannot?5connect?5while?5in?5a?5g@
CONST	SEGMENT
??_C@_0DI@EGCJPKPK@You?5cannot?5connect?5while?5in?5a?5g@ DB 'You cannot '
	DB	'connect while in a game', 0aH, 'End this game first', 0aH, 00H ; `string'
CONST	ENDS
;	COMDAT ??_C@_0IL@HHPLFBIA@Connect?5?$DMserveraddress?$DO?3?5connec@
CONST	SEGMENT
??_C@_0IL@HHPLFBIA@Connect?5?$DMserveraddress?$DO?3?5connec@ DB 'Connect '
	DB	'<serveraddress>: connect to a server', 0aH, 'Connect ANY: con'
	DB	'nect to the first lan server found', 0aH, 'Connect SELF: conn'
	DB	'ect to your own server.', 0aH, 00H		; `string'
CONST	ENDS
;	COMDAT ??_C@_0CF@EMCNGKNN@Could?5not?5open?5ban?4txt?5for?5ban?5@
CONST	SEGMENT
??_C@_0CF@EMCNGKNN@Could?5not?5open?5ban?4txt?5for?5ban?5@ DB 'Could not '
	DB	'open ban.txt for ban list', 0aH, 00H	; `string'
CONST	ENDS
;	COMDAT ??_C@_0CG@GFKHNJG@Could?5not?5save?5ban?5list?5into?5ba@
CONST	SEGMENT
??_C@_0CG@GFKHNJG@Could?5not?5save?5ban?5list?5into?5ba@ DB 'Could not sa'
	DB	've ban list into ban.txt', 0aH, 00H		; `string'
CONST	ENDS
;	COMDAT ??_C@_06OMBEPDOM@?5None?6@
CONST	SEGMENT
??_C@_06OMBEPDOM@?5None?6@ DB ' None', 0aH, 00H		; `string'
CONST	ENDS
;	COMDAT ??_C@_08CKKPIDFI@Why?3?5?$CFs?6@
CONST	SEGMENT
??_C@_08CKKPIDFI@Why?3?5?$CFs?6@ DB 'Why: %s', 0aH, 00H	; `string'
CONST	ENDS
;	COMDAT ??_C@_0L@FJKMLLEO@?$CFu?3?5?$CFs?1?$CFs?6@
CONST	SEGMENT
??_C@_0L@FJKMLLEO@?$CFu?3?5?$CFs?1?$CFs?6@ DB '%u: %s/%s', 0aH, 00H ; `string'
CONST	ENDS
;	COMDAT ??_C@_07MKIPNJGI@?$CFu?3?5?$CFs?6@
CONST	SEGMENT
??_C@_07MKIPNJGI@?$CFu?3?5?$CFs?6@ DB '%u: %s', 0aH, 00H ; `string'
CONST	ENDS
;	COMDAT ??_C@_0L@GMMCNNJE@Ban?5List?3?6@
CONST	SEGMENT
??_C@_0L@GMMCNNJE@Ban?5List?3?6@ DB 'Ban List:', 0aH, 00H ; `string'
CONST	ENDS
;	COMDAT ??_C@_0CH@IJBDKEFB@Network?5game?5synchronization?5ab@
CONST	SEGMENT
??_C@_0CH@IJBDKEFB@Network?5game?5synchronization?5ab@ DB 'Network game s'
	DB	'ynchronization aborted.', 0aH, 00H		; `string'
CONST	ENDS
;	COMDAT ??_C@_0BD@DFJGNHGJ@Checking?5files?4?4?4?6@
CONST	SEGMENT
??_C@_0BD@DFJGNHGJ@Checking?5files?4?4?4?6@ DB 'Checking files...', 0aH, 00H ; `string'
CONST	ENDS
;	COMDAT ??_C@_07GFKLHJNM@Found?0?5@
CONST	SEGMENT
??_C@_07GFKLHJNM@Found?0?5@ DB 'Found, ', 00H		; `string'
CONST	ENDS
;	COMDAT ??_C@_0BF@OEDDKHLE@Version?3?5?$CFd?4?$CF?42d?4?$CFu?6@
CONST	SEGMENT
??_C@_0BF@OEDDKHLE@Version?3?5?$CFd?4?$CF?42d?4?$CFu?6@ DB 'Version: %d.%'
	DB	'.2d.%u', 0aH, 00H				; `string'
CONST	ENDS
;	COMDAT ??_C@_0O@MHMDEHLA@Gametype?3?5?$CFs?6@
CONST	SEGMENT
??_C@_0O@MHMDEHLA@Gametype?3?5?$CFs?6@ DB 'Gametype: %s', 0aH, 00H ; `string'
CONST	ENDS
;	COMDAT ??_C@_0BD@GLEBMDO@Connecting?5to?3?5?$CFs?6@
CONST	SEGMENT
??_C@_0BD@GLEBMDO@Connecting?5to?3?5?$CFs?6@ DB 'Connecting to: %s', 0aH, 00H ; `string'
CONST	ENDS
;	COMDAT ??_C@_0BK@EFBEDKHC@Contacting?5the?5server?4?4?4?6@
CONST	SEGMENT
??_C@_0BK@EFBEDKHC@Contacting?5the?5server?4?4?4?6@ DB 'Contacting the se'
	DB	'rver...', 0aH, 00H				; `string'
CONST	ENDS
;	COMDAT ??_C@_0BJ@LJAEJJLI@Searching?5the?5server?4?4?4?6@
CONST	SEGMENT
??_C@_0BJ@LJAEJJLI@Searching?5the?5server?4?4?4?6@ DB 'Searching the serv'
	DB	'er...', 0aH, 00H				; `string'
CONST	ENDS
;	COMDAT ??_C@_0BE@ENJBKFAL@Press?5ESC?5to?5abort?6@
CONST	SEGMENT
??_C@_0BE@ENJBKFAL@Press?5ESC?5to?5abort?6@ DB 'Press ESC to abort', 0aH, 00H ; `string'
CONST	ENDS
;	COMDAT ??_C@_0BJ@EBFABLLP@WARNING?3?5Can?8t?5delete?5?$CFs@
CONST	SEGMENT
??_C@_0BJ@EBFABLLP@WARNING?3?5Can?8t?5delete?5?$CFs@ DB 'WARNING: Can''t '
	DB	'delete %s', 00H				; `string'
CONST	ENDS
;	COMDAT ??_C@_0BH@LIDMGEGJ@Can?8t?5load?5the?5level?$CB?6@
CONST	SEGMENT
??_C@_0BH@LIDMGEGJ@Can?8t?5load?5the?5level?$CB?6@ DB 'Can''t load the le'
	DB	'vel!', 0aH, 00H				; `string'
CONST	ENDS
;	COMDAT ??_C@_04HPADIMGJ@ZONE@
CONST	SEGMENT
??_C@_04HPADIMGJ@ZONE@ DB 'ZONE', 00H			; `string'
CONST	ENDS
;	COMDAT ??_C@_0P@EGAOHNLM@Map?5is?5now?5?$CC?$CFs@
CONST	SEGMENT
??_C@_0P@EGAOHNLM@Map?5is?5now?5?$CC?$CFs@ DB 'Map is now "%s', 00H ; `string'
CONST	ENDS
;	COMDAT ??_C@_0BM@DFHJAAFF@Loading?5savegame?5length?5?$CFd?6@
CONST	SEGMENT
??_C@_0BM@DFHJAAFF@Loading?5savegame?5length?5?$CFd?6@ DB 'Loading savega'
	DB	'me length %d', 0aH, 00H			; `string'
CONST	ENDS
;	COMDAT ??_C@_0CC@EMECLDHI@No?5more?5free?5memory?5for?5savegam@
CONST	SEGMENT
??_C@_0CC@EMECLDHI@No?5more?5free?5memory?5for?5savegam@ DB 'No more free'
	DB	' memory for savegame', 0aH, 00H		; `string'
CONST	ENDS
;	COMDAT ??_C@_0BJ@MIKIPPKO@Sending?5join?5request?4?4?4?6@
CONST	SEGMENT
??_C@_0BJ@MIKIPPKO@Sending?5join?5request?4?4?4?6@ DB 'Sending join reque'
	DB	'st...', 0aH, 00H				; `string'
CONST	ENDS
;	COMDAT ??_C@_0CK@JIKHBFNF@Got?5unknown?5net?5command?5?$FL?$CFd?$FN?$DN?$CFd@
CONST	SEGMENT
??_C@_0CK@JIKHBFNF@Got?5unknown?5net?5command?5?$FL?$CFd?$FN?$DN?$CFd@ DB 'G'
	DB	'ot unknown net command [%d]=%d (max %d)', 0aH, 00H ; `string'
CONST	ENDS
;	COMDAT ??_C@_0EL@FMOAPOEA@No?5more?5place?5in?5the?5buffer?5for@
CONST	SEGMENT
??_C@_0EL@FMOAPOEA@No?5more?5place?5in?5the?5buffer?5for@ DB 'No more pla'
	DB	'ce in the buffer for netcmd %d', 0aH, 'localtextcmd is %d', 0aH
	DB	'nparam is %u', 0aH, 00H			; `string'
CONST	ENDS
;	COMDAT ??_C@_0BI@JGOHFMGI@?$CFs?6?6?$CIPress?5?8Y?8?5to?5quit?$CJ@
CONST	SEGMENT
??_C@_0BI@JGOHFMGI@?$CFs?6?6?$CIPress?5?8Y?8?5to?5quit?$CJ@ DB '%s', 0aH, 0aH
	DB	'(Press ''Y'' to quit)', 00H			; `string'
CONST	ENDS
;	COMDAT ??_C@_0DG@HPBOLHAP@Are?5you?5sure?5you?5want?5to?5end?5th@
CONST	SEGMENT
??_C@_0DG@HPBOLHAP@Are?5you?5sure?5you?5want?5to?5end?5th@ DB 'Are you su'
	DB	're you want to end the game?', 0aH, 0aH, 'press Y or N.', 00H ; `string'
CONST	ENDS
;	COMDAT ??_C@_0CH@KPANMBHF@You?5can?8t?5end?5a?5netgame?$CB?6?6Press@
CONST	SEGMENT
??_C@_0CH@KPANMBHF@You?5can?8t?5end?5a?5netgame?$CB?6?6Press@ DB 'You can'
	DB	'''t end a netgame!', 0aH, 0aH, 'Press a key.', 00H ; `string'
CONST	ENDS
;	COMDAT ??_C@_0BA@JGIAJIPF@Messages?5are?5ON@
CONST	SEGMENT
??_C@_0BA@JGIAJIPF@Messages?5are?5ON@ DB 'Messages are ON', 00H ; `string'
CONST	ENDS
;	COMDAT ??_C@_0BB@GFHBDPDA@Messages?5are?5OFF@
CONST	SEGMENT
??_C@_0BB@GFHBDPDA@Messages?5are?5OFF@ DB 'Messages are OFF', 00H ; `string'
CONST	ENDS
;	COMDAT ??_C@_0EI@FFPDOJOB@Are?5you?5sure?$DP?5this?5skill?5level?6@
CONST	SEGMENT
??_C@_0EI@FFPDOJOB@Are?5you?5sure?$DP?5this?5skill?5level?6@ DB 'Are you '
	DB	'sure? this skill level', 0aH, 'isn''t even remotely fair.', 0aH
	DB	0aH, 'press y or n.', 00H			; `string'
CONST	ENDS
;	COMDAT ??_C@_0CL@HKDHJGIE@You?5are?5in?5a?5network?5game?4?6End?5@
CONST	SEGMENT
??_C@_0CL@HKDHJGIE@You?5are?5in?5a?5network?5game?4?6End?5@ DB 'You are i'
	DB	'n a network game.', 0aH, 'End it?', 0aH, '(Y/N).', 0aH, 00H ; `string'
CONST	ENDS
;	COMDAT ??_C@_0DO@KKMLEKJG@Do?5you?5want?5to?5quickload?5the?5ga@
CONST	SEGMENT
??_C@_0DO@KKMLEKJG@Do?5you?5want?5to?5quickload?5the?5ga@ DB 'Do you want'
	DB	' to quickload the game named', 0aH, 0aH, '''%s''?', 0aH, 0aH, 'p'
	DB	'ress y or n.', 00H				; `string'
CONST	ENDS
;	COMDAT ??_C@_0DF@HFLOBCFN@Quicksave?5over?5your?5game?5named?6@
CONST	SEGMENT
??_C@_0DF@HFLOBCFN@Quicksave?5over?5your?5game?5named?6@ DB 'Quicksave ov'
	DB	'er your game named', 0aH, 0aH, '''%s''?', 0aH, 0aH, 'press y '
	DB	'or n.', 00H					; `string'
CONST	ENDS
;	COMDAT ??_C@_0DE@JEMBCFHB@You?5can?8t?5save?5if?5you?5aren?8t?5pl@
CONST	SEGMENT
??_C@_0DE@JEMBCFHB@You?5can?8t?5save?5if?5you?5aren?8t?5pl@ DB 'You can'''
	DB	't save if you aren''t playing!', 0aH, 0aH, 'press a key.', 00H ; `string'
CONST	ENDS
;	COMDAT ??_C@_0DH@IOGHLPBB@You?5haven?8t?5picked?5a?5quicksave?5@
CONST	SEGMENT
??_C@_0DH@IOGHLPBB@You?5haven?8t?5picked?5a?5quicksave?5@ DB 'You haven'''
	DB	't picked a quicksave slot yet!', 0aH, 0aH, 'press a key.', 00H ; `string'
CONST	ENDS
;	COMDAT ??_C@_0DE@MPLFCCMK@You?5can?8t?5quickload?5during?5a?5ne@
CONST	SEGMENT
??_C@_0DE@MPLFCCMK@You?5can?8t?5quickload?5during?5a?5ne@ DB 'You can''t '
	DB	'quickload during a netgame!', 0aH, 0aH, 'press a key.', 00H ; `string'
CONST	ENDS
;	COMDAT ??_C@_0DG@FKCCEMKL@Only?5the?5server?5can?5do?5a?5load?5n@
CONST	SEGMENT
??_C@_0DG@FKCCEMKL@Only?5the?5server?5can?5do?5a?5load?5n@ DB 'Only the s'
	DB	'erver can do a load net game!', 0aH, 0aH, 'press a key.', 00H ; `string'
CONST	ENDS
;	COMDAT ??_C@_0O@HEDHOKIH@Press?5y?5or?5n?4@
CONST	SEGMENT
??_C@_0O@HEDHOKIH@Press?5y?5or?5n?4@ DB 'Press y or n.', 00H ; `string'
CONST	ENDS
;	COMDAT ??_C@_0N@KFIFFBDJ@Press?5a?5key?4@
CONST	SEGMENT
??_C@_0N@KFIFFBDJ@Press?5a?5key?4@ DB 'Press a key.', 00H ; `string'
CONST	ENDS
;	COMDAT ??_C@_0CO@BHANFEBH@CD?9ROM?5Version?3?5default?4cfg?5fro@
CONST	SEGMENT
??_C@_0CO@BHANFEBH@CD?9ROM?5Version?3?5default?4cfg?5fro@ DB 'CD-ROM Vers'
	DB	'ion: default.cfg from c:\srb2data', 0aH, 00H ; `string'
CONST	ENDS
;	COMDAT ??_C@_0BG@HHIPJEI@Development?5mode?5ON?4?6@
CONST	SEGMENT
??_C@_0BG@HHIPJEI@Development?5mode?5ON?4?6@ DB 'Development mode ON.', 0aH
	DB	00H						; `string'
CONST	ENDS
_DATA	SEGMENT
_text	DD	FLAT:??_C@_0BG@HHIPJEI@Development?5mode?5ON?4?6@
	DD	FLAT:??_C@_0CO@BHANFEBH@CD?9ROM?5Version?3?5default?4cfg?5fro@
	DD	FLAT:??_C@_0N@KFIFFBDJ@Press?5a?5key?4@
	DD	FLAT:??_C@_0O@HEDHOKIH@Press?5y?5or?5n?4@
	DD	FLAT:??_C@_0DG@FKCCEMKL@Only?5the?5server?5can?5do?5a?5load?5n@
	DD	FLAT:??_C@_0DE@MPLFCCMK@You?5can?8t?5quickload?5during?5a?5ne@
	DD	FLAT:??_C@_0DH@IOGHLPBB@You?5haven?8t?5picked?5a?5quicksave?5@
	DD	FLAT:??_C@_0DE@JEMBCFHB@You?5can?8t?5save?5if?5you?5aren?8t?5pl@
	DD	FLAT:??_C@_0DF@HFLOBCFN@Quicksave?5over?5your?5game?5named?6@
	DD	FLAT:??_C@_0DO@KKMLEKJG@Do?5you?5want?5to?5quickload?5the?5ga@
	DD	FLAT:??_C@_0CL@HKDHJGIE@You?5are?5in?5a?5network?5game?4?6End?5@
	DD	FLAT:??_C@_0EI@FFPDOJOB@Are?5you?5sure?$DP?5this?5skill?5level?6@
	DD	FLAT:??_C@_0BB@GFHBDPDA@Messages?5are?5OFF@
	DD	FLAT:??_C@_0BA@JGIAJIPF@Messages?5are?5ON@
	DD	FLAT:??_C@_0CH@KPANMBHF@You?5can?8t?5end?5a?5netgame?$CB?6?6Press@
	DD	FLAT:??_C@_0DG@HPBOLHAP@Are?5you?5sure?5you?5want?5to?5end?5th@
	DD	FLAT:??_C@_0BI@JGOHFMGI@?$CFs?6?6?$CIPress?5?8Y?8?5to?5quit?$CJ@
	DD	FLAT:??_C@_0EL@FMOAPOEA@No?5more?5place?5in?5the?5buffer?5for@
	DD	FLAT:??_C@_0CK@JIKHBFNF@Got?5unknown?5net?5command?5?$FL?$CFd?$FN?$DN?$CFd@
	DD	FLAT:??_C@_0BJ@MIKIPPKO@Sending?5join?5request?4?4?4?6@
	DD	FLAT:??_C@_0CC@EMECLDHI@No?5more?5free?5memory?5for?5savegam@
	DD	FLAT:??_C@_0BM@DFHJAAFF@Loading?5savegame?5length?5?$CFd?6@
	DD	FLAT:??_C@_0P@EGAOHNLM@Map?5is?5now?5?$CC?$CFs@
	DD	FLAT:??_C@_04HPADIMGJ@ZONE@
	DD	FLAT:??_C@_0BH@LIDMGEGJ@Can?8t?5load?5the?5level?$CB?6@
	DD	FLAT:??_C@_0BJ@EBFABLLP@WARNING?3?5Can?8t?5delete?5?$CFs@
	DD	FLAT:??_C@_0BE@ENJBKFAL@Press?5ESC?5to?5abort?6@
	DD	FLAT:??_C@_0BJ@LJAEJJLI@Searching?5the?5server?4?4?4?6@
	DD	FLAT:??_C@_0BK@EFBEDKHC@Contacting?5the?5server?4?4?4?6@
	DD	FLAT:??_C@_0BD@GLEBMDO@Connecting?5to?3?5?$CFs?6@
	DD	FLAT:??_C@_0O@MHMDEHLA@Gametype?3?5?$CFs?6@
	DD	FLAT:??_C@_0BF@OEDDKHLE@Version?3?5?$CFd?4?$CF?42d?4?$CFu?6@
	DD	FLAT:??_C@_07GFKLHJNM@Found?0?5@
	DD	FLAT:??_C@_0BD@DFJGNHGJ@Checking?5files?4?4?4?6@
	DD	FLAT:??_C@_0CH@IJBDKEFB@Network?5game?5synchronization?5ab@
	DD	FLAT:??_C@_0L@GMMCNNJE@Ban?5List?3?6@
	DD	FLAT:??_C@_07MKIPNJGI@?$CFu?3?5?$CFs?6@
	DD	FLAT:??_C@_0L@FJKMLLEO@?$CFu?3?5?$CFs?1?$CFs?6@
	DD	FLAT:??_C@_08CKKPIDFI@Why?3?5?$CFs?6@
	DD	FLAT:??_C@_06OMBEPDOM@?5None?6@
	DD	FLAT:??_C@_0CG@GFKHNJG@Could?5not?5save?5ban?5list?5into?5ba@
	DD	FLAT:??_C@_0CF@EMCNGKNN@Could?5not?5open?5ban?4txt?5for?5ban?5@
	DD	FLAT:??_C@_0IL@HHPLFBIA@Connect?5?$DMserveraddress?$DO?3?5connec@
	DD	FLAT:??_C@_0DI@EGCJPKPK@You?5cannot?5connect?5while?5in?5a?5g@
	DD	FLAT:??_C@_0DM@CLKOBHMJ@There?5is?5no?5server?5identificati@
	DD	FLAT:??_C@_0BM@BNOGFMDG@There?5is?5no?5network?5driver?6@
	DD	FLAT:??_C@_0BI@MOGEDHHF@?$ACnum?3?$CF2d?5?5node?3?$CF2d?5?5?$CFs?6@
	DD	FLAT:??_C@_0BH@MGDOBFBO@num?3?$CF2d?5?5node?3?$CF2d?5?5?$CFs?6@
	DD	FLAT:??_C@_0BP@LJABGBBO@There?5is?5no?5player?5named?5?$CC?$CFs?$CC?6@
	DD	FLAT:??_C@_09IFCHIHBK@?$CF?42d?3?5?$CF?$CKs@
	DD	FLAT:??_C@_07KFNPPIIO@?5?9?5?$CF?42d@
	DD	FLAT:??_C@_05OKGGLBNP@?5?9?5?$CFs@
	DD	FLAT:??_C@_0BC@MONOBHBL@?5?$CIverified?5admin?$CJ@
	DD	FLAT:??_C@_0N@CDHKCHBP@?5?$CIspectator?$CJ@
	DD	FLAT:??_C@_0EB@GGEALNPM@Ban?5?$DMplayername?$DO?5or?5?$DMplayernum?$DO@
	DD	FLAT:??_C@_0EB@LFFGOMMH@Too?5many?5bans?$CB?5Geez?0?5that?8s?5a?5l@
	DD	FLAT:??_C@_0BJ@PCFFLIKK@You?5are?5not?5the?5server?4?6@
	DD	FLAT:??_C@_0DK@JOKALBFD@Kick?5?$DMplayername?$DO?5or?5?$DMplayernum@
	DD	FLAT:??_C@_0CO@MIOFJNF@Server?5is?5being?5shut?5down?5remot@
	DD	FLAT:??_C@_0DF@MOIHKMII@Illegal?5kick?5command?5received?5f@
	DD	FLAT:??_C@_04BHMCPGCF@?$AC?$CFs?5@
	DD	FLAT:??_C@_0BL@DEIPNHEG@has?5been?5kicked?5?$CIGo?5away?$CJ?6@
	DD	FLAT:??_C@_0CH@OMALPNND@has?5been?5kicked?5?$CIConsistency?5fa@
	DD	FLAT:??_C@_0CE@IKHPMCGJ@has?5been?5kicked?5?$CIBroke?5ping?5lim@
	DD	FLAT:??_C@_0CE@BOACHLPM@left?5the?5game?5?$CIConnection?5timeo@
	DD	FLAT:??_C@_0P@KLOMPPBJ@left?5the?5game?6@
	DD	FLAT:??_C@_0CD@DBMCMDHC@has?5been?5banned?5?$CIDon?8t?5come?5bac@
	DD	FLAT:??_C@_0BG@DFACONJA@has?5been?5kicked?5?$CI?$CFs?$CJ?6@
	DD	FLAT:??_C@_0BG@JJCGBHMF@has?5been?5banned?5?$CI?$CFs?$CJ?6@
	DD	FLAT:??_C@_0CN@MBPFLCN@Illegal?5add?5player?5command?5rece@
	DD	FLAT:??_C@_0CJ@DCCBPMMK@Player?5?$CFd?5has?5joined?5the?5game?5?$CI@
	DD	FLAT:??_C@_0BG@KNCHJHMC@Player?5Address?5is?5?$CFs?6@
	DD	FLAT:??_C@_0BF@LOKBHHME@Starting?5Server?4?4?4?4?6@
	DD	FLAT:??_C@_0DB@JIPOKIIO@Join?5accepted?0?5waiting?5for?5next@
	DD	FLAT:??_C@_0DB@FKOHFADK@Consistency?5failure?5for?5player?5@
	DD	FLAT:??_C@_0BG@LGNHDNDM@Player?5kicked?5is?5?$CD?$CFd?6@
	DD	FLAT:??_C@_0BM@KCOIPJBK@Player?5?$CFd?5is?5at?5?$CFd?0?5?$CFd?0?5?$CFd?6@
	DD	FLAT:??_C@_0BJ@IDEDOFGJ@Player?5?$CFd?5has?5a?5null?5mo?6@
	DD	FLAT:??_C@_0BG@HMMBDIMC@I_StartupKeyboard?4?4?4?6@
	DD	FLAT:??_C@_0BD@HBMCAPMG@I_StartupMouse?4?4?4?6@
	DD	FLAT:??_C@_0BD@GMOAGNCH@I_StartupTimer?4?4?4?6@
	DD	FLAT:??_C@_0BG@MBGLCCDE@I_StartupGraphics?4?4?4?6@
	DD	FLAT:??_C@_0BE@FBIFMCCD@setvbuf?5didnt?5work?6@
	DD	FLAT:??_C@_0BC@EGCLJOEA@Playing?5demo?5?$CFs?4?6@
	DD	FLAT:??_C@_0BF@MJDAANIO@Set?5extratics?5to?5?$CFd?6@
	DD	FLAT:??_C@_0BN@JIOELBGP@Network?5bandwidth?5set?5to?5?$CFd?6@
	DD	FLAT:??_C@_0BF@GDGMBDNI@debug?5output?5to?3?5?$CFs?6@
	DD	FLAT:??_C@_0CC@JDFLLOJK@?$ACcannot?5debug?5output?5to?5file?5?$CFs@
	DD	FLAT:??_C@_0BC@DEIONLMI@?$CF?42d?5?3?5?$CFs?6?5?$CFd?5ms?6@
	DD	FLAT:??_C@_0BC@KPIINKNG@?$CFs?5renamed?5to?5?$CFs?6@
	DD	FLAT:??_C@_0CC@MELJIPFI@Player?5?$CFd?5sent?5a?5bad?5name?5chang@
	DD	FLAT:??_C@_0DP@JHBECLLI@Illegal?5color?5change?5received?5f@
	DD	FLAT:??_C@_0EN@OLIDEKEP@orderpizza?5?9size?5?$DMvalue?$DO?5?9addre@
	DD	FLAT:??_C@_0CD@IMJJHDIK@?$CFs?5has?5ordered?5a?5delicious?5pizz@
	DD	FLAT:??_C@_0EN@HNBHNPLB@rteleport?5?9x?5?$DMvalue?$DO?5?9y?5?$DMvalue?$DO@
	DD	FLAT:??_C@_0BG@OJOFNHBJ@Not?5a?5valid?5location?6@
	DD	FLAT:??_C@_0BO@NCMEFBMC@Teleporting?5by?5?$CFd?0?5?$CFd?0?5?$CFd?4?4?4?6@
	DD	FLAT:??_C@_0BH@IAPIJLAB@X?5value?5not?5specified?6@
	DD	FLAT:??_C@_0BH@BLILHBNF@Y?5value?5not?5specified?6@
	DD	FLAT:??_C@_0BO@ECHOJPCK@Teleporting?5to?5?$CFd?0?5?$CFd?0?5?$CFd?4?4?4?6@
	DD	FLAT:??_C@_0CG@IJDOOMFG@Playdemo?5?$DMdemoname?$DO?3?5playback?5a@
	DD	FLAT:??_C@_0BJ@INIJIFDJ@Playing?5back?5demo?5?8?$CFs?8?4?6@
	DD	FLAT:??_C@_0CC@ICCOJDAE@Timedemo?5?$DMdemoname?$DO?3?5time?5a?5dem@
	DD	FLAT:??_C@_0BD@LPONKLKD@Timing?5demo?5?8?$CFs?8?4?6@
	DD	FLAT:??_C@_0P@JFMMMOHN@Stopped?5demo?4?6@
	DD	FLAT:??_C@_0FK@KJCADJLJ@Map?5change?3?5mapnum?$DN?$CFd?5gametype?$DN@
	DD	FLAT:??_C@_0DH@MLAPEGBB@map?5?$DMmapname?$DO?5?$FL?9gametype?5?$DMtype?$DO@
	DD	FLAT:??_C@_0CG@IHNALCMB@Only?5the?5server?5can?5change?5the?5@
	DD	FLAT:??_C@_0CF@INDGCHAI@?$ACInternal?5game?5level?5?8?$CFs?8?5not?5f@
	DD	FLAT:??_C@_0DA@CPEBLCM@Sorry?0?5level?5change?5disabled?5in@
	DD	FLAT:??_C@_0BH@PNPLPGIG@Invalid?5level?5name?5?$CFs?6@
	DD	FLAT:??_C@_0CO@BHKJBMOA@You?5can?8t?5switch?5gametypes?5in?5s@
	DD	FLAT:??_C@_0DO@DCLGKLBE@That?5level?5doesn?8t?5support?5?$CFs?5m@
	DD	FLAT:??_C@_0DA@MAODLC@That?5level?5doesn?8t?5support?5Sing@
	DD	FLAT:??_C@_0CF@JPPMDMKH@Illegal?5map?5change?5received?5fro@
	DD	FLAT:??_C@_0CI@HDAFNMEI@Illegal?5pause?5command?5received?5@
	DD	FLAT:??_C@_0BD@GHLLPFFN@Game?5paused?5by?5?$CFs?6@
	DD	FLAT:??_C@_0BF@PFLMNIFN@Game?5unpaused?5by?5?$CFs?6@
	DD	FLAT:??_C@_0CP@HAJGPEKA@Illegal?5clear?5scores?5command?5re@
	DD	FLAT:??_C@_0CH@FHCHDELO@Scores?5have?5been?5reset?5by?5the?5s@
	DD	FLAT:??_C@_0EA@NGKMNLMO@changeteam?5?$DMteam?$DO?3?5switch?5to?5a?5@
	DD	FLAT:??_C@_0EC@CLMHNGFK@changeteam?5?$DMteam?$DO?3?5switch?5to?5a?5@
	DD	FLAT:??_C@_0DL@EKOILIJG@This?5command?5cannot?5be?5used?5out@
	DD	FLAT:??_C@_0DL@IGCEPGFJ@This?5command?5cannot?5be?5used?5out@
	DD	FLAT:??_C@_0EB@ECMCGICB@changeteam2?5?$DMteam?$DO?3?5switch?5to?5a@
	DD	FLAT:??_C@_0ED@KAEJEPCB@changeteam2?5?$DMteam?$DO?3?5switch?5to?5a@
	DD	FLAT:??_C@_0DJ@HDCGGIBO@You?8re?5not?5the?5server?4?5You?5can?8@
	DD	FLAT:??_C@_0FJ@OKNMBAF@serverchangeteam?5?$DMplayernum?$DO?5?$DMt@
	DD	FLAT:??_C@_0GF@HOIHBHEE@serverchangeteam?5?$DMplayernum?$DO?5?$DMt@
	DD	FLAT:??_C@_0FL@POKLPJKE@serverchangeteam?5?$DMplayernum?$DO?5?$DMt@
	DD	FLAT:??_C@_0DI@GGHDJFFK@?$HOEggman?$HO?5Teams?5are?5going?5to?5be?5@
	DD	FLAT:??_C@_0CG@BHHNMGAM@That?5player?5is?5already?5on?5that?5@
	DD	FLAT:??_C@_0CH@MIBOPNCJ@No?5tag?5status?5changes?5after?5hid@
	DD	FLAT:??_C@_0CN@MAADBEFO@Illegal?5team?5change?5received?5fr@
	DD	FLAT:??_C@_0CP@HKMLKOCJ@Player?5?$CFs?5sent?5illegal?5team?5cha@
	DD	FLAT:??_C@_0P@EKJNKFPP@?$CFs?5is?5now?5IT?$CB?6@
	DD	FLAT:??_C@_0BF@DELIHMEG@?$CFs?5is?5no?5longer?5IT?$CB?6@
	DD	FLAT:??_C@_0BN@DDHKIGCG@?$CFs?5switched?5to?5the?5red?5team?6@
	DD	FLAT:??_C@_0BO@ENCKLKAM@?$CFs?5switched?5to?5the?5blue?5team?6@
	DD	FLAT:??_C@_0BI@IBDAHDKJ@?$CFs?5became?5a?5spectator?4?6@
	DD	FLAT:??_C@_0BG@BJOCEMHL@?$CFs?5entered?5the?5game?4?6@
	DD	FLAT:??_C@_0CI@MIKFFPLJ@?$CFs?5was?5autobalanced?5to?5even?5the@
	DD	FLAT:??_C@_0CH@LLLOEJNC@?$CFs?5was?5scrambled?5to?5a?5different@
	DD	FLAT:??_C@_0CP@GMBPCFGD@You?8re?5not?5the?5server?4?5You?5can?8@
	DD	FLAT:??_C@_0CG@NFJMICPP@password?5?$DMpassword?$DO?3?5change?5pas@
	DD	FLAT:??_C@_0CH@DCIPLDFL@login?5?$DMpassword?$DO?3?5Administrator@
	DD	FLAT:??_C@_0EA@KGOHEOKF@Sending?5Login?4?4?4?$CFs?6?$CINotice?5only@
	DD	FLAT:??_C@_0CA@MBEEELBG@?$CFs?5passed?5authentication?4?5?$CI?$CFs?$CJ?6@
	DD	FLAT:??_C@_0BO@IPPGFIG@Password?5from?5?$CFd?5failed?5?$CI?$CFs?$CJ?6@
	DD	FLAT:??_C@_0DP@MABLNICB@You?8re?5not?5the?5server?4?4?4?5you?5ca@
	DD	FLAT:??_C@_0DA@FGDGNCBO@verify?5?$DMnode?$DO?3?5give?5admin?5privi@
	DD	FLAT:??_C@_0DM@LELCFAPP@Illegal?5verification?5received?5f@
	DD	FLAT:??_C@_0DH@FJMLGOOM@Password?5correct?4?5You?5are?5now?5a@
	DD	FLAT:??_C@_0DL@LGHBBCIC@motd?5?$DMmessage?$DO?3?5Set?5a?5message?5t@
	DD	FLAT:??_C@_0CG@FKOBENHJ@Illegal?5motd?5change?5received?5fr@
	DD	FLAT:??_C@_0BJ@KOIDJMJI@Message?5of?5the?5day?5set?4?6@
	DD	FLAT:??_C@_0CP@HEOMMPNE@runsoc?5?$DMsocfile?4soc?$DO?5or?5?$DMlumpna@
	DD	FLAT:??_C@_0CJ@NKDDEGOO@Illegal?5runsoc?5command?5received@
	DD	FLAT:??_C@_0DH@PHEALFGL@Unknown?5error?5finding?5soc?5file?5@
	DD	FLAT:??_C@_0DB@CFNNKNBI@Illegal?5consistency?5fix?5packet?5@
	DD	FLAT:??_C@_0CG@IJEGFMBM@addfile?5?$DMwadfile?4wad?$DO?3?5load?5wad@
	DD	FLAT:??_C@_0CJ@PFGLDFIM@You?5must?5NOT?5be?5in?5a?5level?5to?5u@
	DD	FLAT:??_C@_0CK@HBDJKIJA@Illegal?5addfile?5command?5receive@
	DD	FLAT:??_C@_0CK@BCFEBJNJ@Illegal?5delfile?5command?5receive@
	DD	FLAT:??_C@_0GD@GAMLOGPK@Checksum?5mismatch?5while?5loading@
	DD	FLAT:??_C@_0DH@KOGGEPPL@Unknown?5error?5finding?5wad?5file?5@
	DD	FLAT:??_C@_0BL@HDHBKACP@There?5are?5?$CFd?5wads?5loaded?3?6@
	DD	FLAT:??_C@_0N@NJJKGBLE@?5?5?5?$CF?42d?3?5?$CFs?6@
	DD	FLAT:??_C@_0N@ODMFAHJC@?$CK?5?5?$CF?42d?3?5?$CFs?6@
	DD	FLAT:??_C@_0M@GEPMJEDD@?5?5IWAD?3?5?$CFs?6@
	DD	FLAT:??_C@_0BD@IIPKEDNH@SRB2?$CFs?5?$CI?$CFs?5?$CFs?5?$CFs?$CJ?6@
	DD	FLAT:??_C@_0CJ@KGEIDLFC@Mod?5ID?3?5?$CFd?6Mod?5Version?3?5?$CFd?6Code@
	DD	FLAT:??_C@_0BI@HNAHCPLJ@Current?5gametype?5is?5?$CFd?6@
	DD	FLAT:??_C@_0DJ@GIAFIEPN@jumptoaxis?5?$DMaxisnum?$DO?3?5Jump?5to?5a@
	DD	FLAT:??_C@_0CN@CGLFEIDE@Levels?5will?5end?5after?5?$CFs?5scores@
	DD	FLAT:??_C@_06NBBCJHCF@a?5team@
	DD	FLAT:??_C@_07BJMCPAMN@someone@
	DD	FLAT:??_C@_0BG@OBCCMMLP@Point?5limit?5disabled?6@
	DD	FLAT:??_C@_0BK@FNEDNNIM@Number?5of?5laps?5set?5to?5?$CFd?6@
	DD	FLAT:??_C@_0CE@NKLMJGK@Levels?5will?5end?5after?5?$CFd?5minute@
	DD	FLAT:??_C@_0BF@ILNBABKD@Time?5limit?5disabled?6@
	DD	FLAT:??_C@_0CE@DKMODLLI@Gametype?5was?5changed?5from?5?$CFs?5to@
	DD	FLAT:??_C@_0DI@KBCODAAC@HIDETIME?5cannot?5be?5greater?5or?5e@
	DD	FLAT:??_C@_0BA@CPILJJCM@?$CFs?5?$CI?$CFd?$CJ?3?5?$CFs?5?$CFd?6@
	DD	FLAT:??_C@_0N@EOGOKBMO@?$CFs?5?$CI?$CFd?$CJ?3?5?$CFs?6@
	DD	FLAT:??_C@_0CM@LJHLADFD@Illegal?5exitlevel?5command?5recei@
	DD	FLAT:??_C@_0BF@LEIGGEGN@Displayplayer?5is?5?$CFd?6@
	DD	FLAT:??_C@_0GB@PDGGMFCN@If?5you?5want?5to?5change?5the?5sky?5i@
	DD	FLAT:??_C@_0BP@PKCBNJLD@skynum?5?$DMsky?$CD?$DO?3?5change?5the?5sky?6@
	DD	FLAT:??_C@_0BG@LGPPAGHP@Previewing?5sky?5?$CFs?4?4?4?6@
	DD	FLAT:??_C@_0GE@BMMHKBOC@Tunes?5?$DMslot?$CD?1default?$DO?5?$DMspeed?$DO?3?5@
	DD	FLAT:??_C@_0BJ@NGLKHDNF@The?5current?5tune?5is?3?5?$CFd?6@
	DD	FLAT:??_C@_0CN@BEDIDHEI@Valid?5slots?5are?51?5to?5?$CFd?0?5or?50?5t@
	DD	FLAT:??_C@_0EK@JPJBNIJN@modifiedgame?5is?5true?0?5but?5you?5c@
	DD	FLAT:??_C@_0DE@GFEBJMPD@modifiedgame?5is?5true?0?5secrets?5w@
	DD	FLAT:??_C@_0CP@KEAOMNPI@modifiedgame?5is?5false?0?5you?5can?5@
	DD	FLAT:??_C@_0CO@DGDOHNGB@Valid?5skin?5numbers?5are?50?5to?5?$CFd?5@
	DD	FLAT:??_C@_0DC@JNMKJHJN@You?5may?5not?5change?5your?5name?5wh@
	DD	FLAT:??_C@_0BG@EGIEFENM@Chat?5has?5been?5muted?4?6@
	DD	FLAT:??_C@_0BK@DJEDHMHF@Chat?5is?5no?5longer?5muted?4?6@
	DD	FLAT:??_C@_0BD@MHEBFIOM@?$CFs?8s?5score?5is?5?$CFlu?6@
	DD	FLAT:??_C@_0BG@HLBJCNMD@The?5pointlimit?5is?5?$CFd?6@
	DD	FLAT:??_C@_0CN@IKCELJIG@The?5current?5time?5is?5?$CFf?4?6The?5tim@
	DD	FLAT:??_C@_0GE@CLAOMKL@Cheats?5cannot?5be?5disabled?5after@
	DD	FLAT:??_C@_0CF@KCOLAHPG@Cheats?5must?5be?5enabled?5to?5use?5t@
	DD	FLAT:??_C@_0FL@IIABANEN@Changing?5this?5variable?6requires@
	DD	FLAT:??_C@_0BN@DDBPFIHJ@Cheats?5have?5been?5activated?4?6@
	DD	FLAT:??_C@_0BK@HLENKMMF@?$ANDownloading?5?$CFs?4?4?4?$CIdone?$CJ?6@
	DD	FLAT:??_C@_0BH@DBBDBJDN@Thing?5?$CFd?5doesn?8t?5exist@
	DD	FLAT:??_C@_0BB@LEIMMBBF@Modification?5By?6@
	DD	FLAT:??_C@_0BK@ECLGDCDB@Character?5?$CFd?5out?5of?5range@
	DD	FLAT:??_C@_0BN@GGGMAJLE@Level?5number?5?$CFd?5out?5of?5range@
	DD	FLAT:??_C@_0CA@KJJMOABJ@Cutscene?5number?5?$CFd?5out?5of?5range@
	DD	FLAT:??_C@_0CC@FLHCJIKE@Unlockable?5number?5?$CFd?5out?5of?5ran@
	DD	FLAT:??_C@_0BH@BNPMKLBE@Frame?5?$CFd?5doesn?8t?5exist@
	DD	FLAT:??_C@_0BH@PNMKCGFL@Sound?5?$CFd?5doesn?8t?5exist@
	DD	FLAT:??_C@_0CA@PFBHKNBO@HUD?5item?5number?5?$CFd?5out?5of?5range@
	DD	FLAT:??_C@_0BO@ONJFIGCJ@Emblem?5number?5?$CFd?5out?5of?5range@
	DD	FLAT:??_C@_0DE@GGILPFLO@Warning?3?5patch?5from?5a?5different@
	DD	FLAT:??_C@_0BP@IONBOPCJ@only?5version?52?40?5is?5supported?6@
	DD	FLAT:??_C@_0BB@HKOELEED@Unknown?5word?3?5?$CFs@
	DD	FLAT:??_C@_0BK@KJLKOOND@missing?5argument?5for?5?8?$CFs?8@
	DD	FLAT:??_C@_0BJ@JGCOLFLP@No?5word?5in?5this?5line?3?5?$CFs@
	DD	FLAT:??_C@_0BO@PNOLFPJH@?$CFd?5warning?$CFs?5in?5the?5SOC?5lump?6@
	DD	FLAT:??_C@_0BJ@LAJPILBF@Unloading?5WAD?5SOC?5edits?6@
	DD	FLAT:??_C@_0BG@HJIDKBNP@Gamma?5correction?5OFF?6@
	DD	FLAT:??_C@_0BK@CBAIANNJ@Gamma?5correction?5level?51?6@
	DD	FLAT:??_C@_0BK@CDEOLDIA@Gamma?5correction?5level?52?6@
	DD	FLAT:??_C@_0BK@CCIMNJLH@Gamma?5correction?5level?53?6@
	DD	FLAT:??_C@_0BK@CHMDMPDC@Gamma?5correction?5level?54?6@
	DD	FLAT:??_C@_0M@JDBJHHKB@empty?5slot?6@
	DD	FLAT:??_C@_0N@FCDCLMLG@Game?5saved?4?6@
	DD	FLAT:??_C@_0BC@DLJLKLKM@?$FLMessage?5unsent?$FN?6@
	DD	FLAT:??_C@_0BH@ELIBDINI@Speeding?5off?5to?5?$CFs?4?4?4?6@
	DD	FLAT:??_C@_0BG@IEHPEAIK@The?5round?5has?5ended?4?6@
	DD	FLAT:??_C@_0BG@NIMECJFB@Player?5is?5dead?0?5etc?4?6@
	DD	FLAT:??_C@_0ED@HHGIEBGA@teleport?5?9x?5?$DMvalue?$DO?5?9y?5?$DMvalue?$DO?5@
	DD	FLAT:??_C@_0CC@COBMHIKO@Unable?5to?5teleport?5to?5that?5spot@
	DD	FLAT:??_C@_0CI@OMFPMKKI@You?5can?8t?5teleport?5while?5in?5a?5n@
	DD	FLAT:??_C@_0BG@OJOFNHBJ@Not?5a?5valid?5location?6@
	DD	FLAT:??_C@_0CM@GHMPEAKB@?6You?5can?8t?5play?5a?5demo?5while?5in@
	DD	FLAT:??_C@_0DC@LPKNBFKE@This?5command?5is?5only?5for?5captur@
	DD	FLAT:??_C@_0BO@DGPAMEI@You?8re?5already?5on?5that?5team?$CB?6@
	DD	FLAT:??_C@_0CI@BHHCGCPD@The?5server?5does?5not?5allow?5team?5@
	DD	FLAT:??_C@_0CN@EDMJJLL@You?5are?5not?5the?5server?4?5You?5can@
	DD	FLAT:??_C@_0DH@FLLHDAMP@WARNING?3?5Game?5must?5be?5restarted@
	DD	FLAT:??_C@_0BF@NADNAKHK@File?5doesn?8t?5exist?4?6@
	DD	FLAT:??_C@_0GP@CGDGCAIA@The?5server?5tried?5to?5add?5?$CFs?0?6but@
	DD	FLAT:??_C@_0BK@HOGDOBME@DEVMODE?5must?5be?5enabled?4?6@
	DD	FLAT:??_C@_0BO@GBCBILFJ@You?5haven?8t?5earned?5this?5yet?4?6@
	DD	FLAT:??_C@_0CF@JOPFLLCM@You?5must?5be?5in?5a?5level?5to?5use?5t@
	DD	FLAT:??_C@_0CG@JOEAHHEL@You?5can?8t?5use?5this?5in?5single?5pl@
	DD	FLAT:??_C@_0CC@DPBFIFPI@You?5can?8t?5use?5this?5in?5a?5netgame@
	DD	FLAT:??_C@_0BP@OKLLDODM@This?5only?5works?5in?5a?5netgame?4?6@
	DD	FLAT:??_C@_0CD@GIFJKINH@This?5only?5works?5in?5single?5playe@
	DD	FLAT:??_C@_0CF@BDPPFEJP@Only?5the?5server?5can?5pause?5the?5g@
	DD	FLAT:??_C@_0BH@LJEIPBNI@You?5can?8t?5pause?5here?4?6@
	DD	FLAT:??_C@_0BH@MCLLMNLH@Couldn?8t?5read?5file?5?$CFs?6@
	DD	FLAT:??_C@_0NI@FAAJLBDN@Objectplace?5Controls?3?2?2Camera?5L@
	DD	FLAT:??_C@_0BP@IGCMAKCK@ERROR?3?5Powerup?5has?5no?5target?$CB?6@
	DD	FLAT:??_C@_0CD@LLCEKKIA@?$CFs?5returned?5the?5red?5flag?5to?5bas@
	DD	FLAT:??_C@_0BM@KJOGHLAP@?$CFs?5picked?5up?5the?5red?5flag?$CB?6@
	DD	FLAT:??_C@_0CE@JGMJDOFI@?$CFs?5returned?5the?5blue?5flag?5to?5ba@
	DD	FLAT:??_C@_0BN@LDPOLADN@?$CFs?5picked?5up?5the?5blue?5flag?$CB?6@
	DD	FLAT:??_C@_0BI@JEHGIMIF@?$CFs?5tossed?5the?5?$CFs?5flag?4?6@
	DD	FLAT:??_C@_0BJ@ICLFEDFA@?$CFs?5dropped?5the?5?$CFs?5flag?4?6@
	DD	FLAT:??_C@_0CM@PMHNCIEO@?$CFs?$CFs?$CFs?5crushed?5?$CFs?$CFs?$CFs?5with?5a?5he@
	DD	FLAT:??_C@_0BC@EDBMACNB@?$CFs?$CFs?$CFs?5suicided?4?6@
	DD	FLAT:??_C@_0O@GDGLGAGC@?$CFs?$CFs?$CFs?5died?4?6@
	DD	FLAT:??_C@_03CMHMLDFC@hit@
	DD	FLAT:??_C@_06KGGGBDJD@killed@
	DD	FLAT:??_C@_0L@CANLDPBJ@reflected?5@
	DD	FLAT:??_C@_0BN@FFJKCMID@?$CFs?$CFs?$CFs?5got?5nuked?5by?5?$CFs?$CFs?$CFs?$CB?6@
	DD	FLAT:??_C@_0CK@ICANKBEO@?$CFs?$CFs?$CFs?5was?5burnt?5by?5?$CFs?$CFs?$CFs?8s?5fi@
	DD	FLAT:??_C@_0CK@NAKJMMGD@?$CFs?$CFs?$CFs?5was?5fried?5by?5?$CFs?$CFs?$CFs?8s?5fi@
	DD	FLAT:??_C@_0CK@MIEMMEEG@?$CFs?$CFs?$CFs?5was?5?$CFs?5by?5?$CFs?$CFs?$CFs?8s?5?$CFsbou@
	DD	FLAT:??_C@_0CN@KDCFKGDO@?$CFs?$CFs?$CFs?5was?5?$CFs?5by?5?$CFs?$CFs?$CFs?8s?5?$CFsaut@
	DD	FLAT:??_C@_0CN@DGDGFLOE@?$CFs?$CFs?$CFs?5was?5?$CFs?5by?5?$CFs?$CFs?$CFs?8s?5?$CFsexp@
	DD	FLAT:??_C@_0CI@KIOCKJGP@?$CFs?$CFs?$CFs?5was?5?$CFs?5by?5?$CFs?$CFs?$CFs?8s?5?$CFsrai@
	DD	FLAT:??_C@_0CL@EAJLHDMF@?$CFs?$CFs?$CFs?5was?5?$CFs?5by?5?$CFs?$CFs?$CFs?8s?5?$CFssca@
	DD	FLAT:??_C@_0CL@KLGMBHPH@?$CFs?$CFs?$CFs?5was?5?$CFs?5by?5?$CFs?$CFs?$CFs?8s?5?$CFsgre@
	DD	FLAT:??_C@_0CD@GLKOFMNP@?$CFs?$CFs?$CFs?5was?5?$CFs?5by?5?$CFs?$CFs?$CFs?8s?5?$CFsrin@
	DD	FLAT:??_C@_0BK@FAMOIJHM@?$CFs?$CFs?$CFs?5was?5?$CFs?5by?5?$CFs?$CFs?$CFs?4?6@
	DD	FLAT:??_C@_0BB@HFOPIDKJ@?$CFs?$CFs?$CFs?5drowned?4?6@
	DD	FLAT:??_C@_0BF@MGMKIKCN@?$CFs?$CFs?$CFs?5was?5crushed?4?6@
	DD	FLAT:??_C@_0CB@GNMNMF@?$CFs?$CFs?$CFs?5was?5?$CFs?5by?5a?5blue?5crawla?$CB@
	DD	FLAT:??_C@_0CA@IEFKAAPP@?$CFs?$CFs?$CFs?5was?5?$CFs?5by?5a?5red?5crawla?$CB?6@
	DD	FLAT:??_C@_0CG@JDBFLAPB@?$CFs?$CFs?$CFs?5was?5?$CFs?5by?5a?5jetty?9syn?5gu@
	DD	FLAT:??_C@_0CG@HCNDACLL@?$CFs?$CFs?$CFs?5was?5?$CFs?5by?5a?5jetty?9syn?5bo@
	DD	FLAT:??_C@_0CG@GAKEGGJA@?$CFs?$CFs?$CFs?5was?5?$CFs?5by?5a?5crawla?5comma@
	DD	FLAT:??_C@_0CC@GHFFJILE@?$CFs?$CFs?$CFs?5was?5?$CFs?5by?5the?5Egg?5Mobile@
	DD	FLAT:??_C@_0CC@NEJABNAP@?$CFs?$CFs?$CFs?5was?5?$CFs?5by?5the?5Egg?5Slimer@
	DD	FLAT:??_C@_0CE@KKGBNJOL@?$CFs?$CFs?$CFs?5fell?5into?5a?5bottomless?5p@
	DD	FLAT:??_C@_0CB@BIKCCHCD@?$CFs?$CFs?$CFs?5fell?5in?5some?5nasty?5goop?$CB@
	DD	FLAT:??_C@_0BJ@NIINBEJL@?$CFs?$CFs?$CFs?5burned?5to?5death?$CB?6@
	DD	FLAT:??_C@_0BK@HANHBONB@?$CFs?$CFs?$CFs?5was?5electrocuted?$CB?6@
	DD	FLAT:??_C@_0BP@BFMMAIAC@?$CFs?$CFs?$CFs?5was?5impaled?5by?5spikes?$CB?6@
	DD	FLAT:??_C@_0BO@EJPNLKKA@?$CFs?$CFs?$CFs?5asphyxiated?5in?5space?$CB?6@
	DD	FLAT:??_C@_0BK@FAMOIJHM@?$CFs?$CFs?$CFs?5was?5?$CFs?5by?5?$CFs?$CFs?$CFs?4?6@
	DD	FLAT:??_C@_0BM@MNPAHFKK@?$CFs?5caused?5a?5world?5of?5pain?4?6@
	DD	FLAT:??_C@_0BF@IOBFJOLC@?$CFs?5got?5a?5game?5over?4?6@
	DD	FLAT:??_C@_0BM@CNBOMPIH@?$CFs?5has?5?$CFd?5lives?5remaining?4?6@
	DD	FLAT:??_C@_0L@FKKLEDAE@?$CFs?5is?5it?$CB?6@
	DD	FLAT:??_C@_0BP@PPCPBPM@Warning?3?5State?5Cycle?5Detected?6@
	DD	FLAT:??_C@_0BL@LAEJCAFN@?$CFs?5has?5finished?5the?5race?4?6@
	DD	FLAT:??_C@_0BD@JPMJALBI@?$CFs?5started?5lap?5?$CFd?6@
	DD	FLAT:??_C@_0BN@CDODPKFM@?$CFs?5has?5completed?5the?5level?4?6@
	DD	FLAT:??_C@_0EN@EEMOFGFM@Sorry?0?5you?8re?5too?5high?5to?5place@
	DD	FLAT:??_C@_0EN@FDJBIONG@Sorry?0?5you?8re?5too?5high?5to?5place@
	DD	FLAT:??_C@_0BF@PDBNEHMN@?$CFs?5ran?5out?5of?5time?4?6@
	DD	FLAT:??_C@_02IGFKBHGM@?5?$CD@
	DD	FLAT:??_C@_0GA@HFPDKLEK@Two?5months?5had?5passed?5since?5Dr?4@
	DD	FLAT:??_C@_0JP@DJKNOPLE@As?5it?5was?5about?5to?5drain?5the?5ri@
	DD	FLAT:??_C@_0HB@MPBAHLEC@?6What?5Sonic?0?5Tails?0?5and?5Knuckle@
	DD	FLAT:??_C@_0OL@EAMHPNGF@About?5once?5every?5year?0?5a?5strang@
	DD	FLAT:??_C@_0OJ@EPOLGDHI@?$CCCurses?$CB?$CC?5Eggman?5yelled?4?5?$CCThat?5@
	DD	FLAT:??_C@_0PE@NMJIGKBM@It?5was?5only?5later?6that?5he?5had?5a@
	DD	FLAT:??_C@_0FB@JBNFLONA@?6?6Before?5beginning?5his?5scheme?0?6@
	DD	FLAT:??_C@_0NN@CPDNEIMN@?$CCWe?8re?5ready?5to?5fire?5in?515?5seco@
	DD	FLAT:??_C@_0NC@EOJLJHKL@?$CC10?4?4?49?4?4?48?4?4?4?$CC?6Meanwhile?0?5Soni@
	DD	FLAT:??_C@_0JF@MENOFNBG@?$CC5?4?4?44?4?4?43?4?4?4?$CC?6Sonic?5knew?5he?5wa@
	DD	FLAT:??_C@_0JP@IGLHJKCL@GreenFlower?5City?5was?5gone?4?6Soni@
	DD	FLAT:??_C@_0PA@DNGOIOAA@?$CCYou?8re?5not?5quite?5as?5dead?5as?5we@
	DD	FLAT:??_C@_0MJ@PAOAPHEA@Eggman?5took?5this?6as?5his?5cue?5and@
	DD	FLAT:??_C@_0KJ@CCJOJNDC@?$CCEasy?$CB?5We?5go?6find?5Eggman?6and?5st@
	DD	FLAT:??_C@_0OA@CFEAOJJI@?$CCI?8m?5just?5finding?5what?5mission?5@
	DD	FLAT:??_C@_0HF@ODGNBPDF@Eggman?8s?5tied?5explosives?6to?5you@
	DD	FLAT:??_C@_0DG@MHEKBCNG@What?5would?5Tails?5say?5if?6he?5saw?5@
	DD	FLAT:??_C@_0CF@OFCDDMCH@Hey?$CB?6Where?5do?5ya?5think?5you?8re?5g@
	DD	FLAT:??_C@_0CF@HLLPEGLM@Forget?5your?5studies?$CB?6Play?5some?5@
	DD	FLAT:??_C@_0EB@FPHDLGIL@You?8re?5trying?5to?5say?5you?6like?5S@
	DD	FLAT:??_C@_0DP@IJAKCFGE@Don?8t?5leave?5yet?5?9?9?5there?8s?5a?6su@
	DD	FLAT:??_C@_0BN@NIIKPAFE@You?8d?5rather?5work?5than?5play?$DP@
	DD	FLAT:??_C@_0CP@KJNCGILN@Go?5ahead?5and?5leave?4?5See?5if?5I?5ca@
	DD	FLAT:??_C@_0DD@NEDIJLNA@If?5you?5leave?5now?0?6Eggman?5will?5t@
	DD	FLAT:??_C@_0CH@GOFOIEFJ@Don?8t?5quit?$CB?6There?5are?5animals?6t@
	DD	FLAT:??_C@_0CG@MHKDLEJA@Aw?5c?8mon?0?5just?5bop?6a?5few?5more?5r@
	DD	FLAT:??_C@_0CG@HBGAPFCE@Did?5you?5get?5all?5those?5Chaos?5Eme@
	DD	FLAT:??_C@_0CO@DDJCPBPN@If?5you?5leave?0?5I?8ll?5use?6my?5spin?5@
	DD	FLAT:??_C@_0CM@LGPMBCEA@Don?8t?5go?$CB?6You?5might?5find?5the?5hi@
	DD	FLAT:??_C@_0CF@GEAIOEKB@Hit?5the?5?8N?8?5key?0?5Sonic?$CB?6The?5?8N?8@
	DD	FLAT:??_C@_0EH@BMBEDOOF@Are?5you?5really?5going?5to?6give?5up@
	DD	FLAT:??_C@_0CA@DNHMGIHH@Come?5on?0?5just?5ONE?5more?5netgame?$CB@
	DD	FLAT:??_C@_0CI@BLMCFPOP@Press?5?8N?8?5to?5unlock?6the?5Ultimat@
	DD	FLAT:??_C@_0EJ@COCLFAOJ@Why?5don?8t?5you?5go?5back?5and?5try?6j@
	DD	FLAT:??_C@_0DF@ENDLICK@Every?5time?5you?5press?5?8Y?8?0?5an?6SR@
	DD	FLAT:??_C@_0DE@JJPJGJBG@You?8ll?5be?5back?5to?5play?5soon?0?5th@
	DD	FLAT:??_C@_0CN@DLEEPAOJ@Aww?0?5is?5Egg?5Rock?5Zone?5too?6diffi@
	DD	FLAT:??_C@_0BFO@LOPHFEGI@?$DN?$DN?$DN?$DN?$DN?$DN?$DN?$DN?$DN?$DN?$DN?$DN?$DN?$DN?$DN?$DN?$DN?$DN?$DN?$DN?$DN?$DN?$DN?$DN?$DN?$DN?$DN?$DN?$DN?$DN?$DN@
	DD	FLAT:??_C@_0BCC@GDAGJDEE@?$DN?$DN?$DN?$DN?$DN?$DN?$DN?$DN?$DN?$DN?$DN?$DN?$DN?$DN?$DN?$DN?$DN?$DN?$DN?$DN?$DN?$DN?$DN?$DN?$DN?$DN?$DN?$DN?$DN?$DN?$DN@
	DD	FLAT:??_C@_0CH@PNMNMFCJ@M_LoadDefaults?3?5Load?5system?5def@
	DD	FLAT:??_C@_0CO@INGFCKHA@Z_Init?3?5Init?5zone?5memory?5alloca@
	DD	FLAT:??_C@_0BI@LDPDJBCN@W_Init?3?5Init?5WADfiles?4?6@
	DD	FLAT:??_C@_0CC@GEOIGHAO@M_Init?3?5Init?5miscellaneous?5info@
	DD	FLAT:??_C@_0CE@PJBHKHGJ@R_Init?3?5Init?5SRB2?5refresh?5daemo@
	DD	FLAT:??_C@_0BP@MCODJGL@?6P_Init?3?5Init?5Playloop?5state?4?6@
	DD	FLAT:??_C@_0CD@JKPPBDMJ@I_Init?3?5Setting?5up?5machine?5stat@
	DD	FLAT:??_C@_0CP@JMAHAGPB@D_CheckNetGame?3?5Checking?5networ@
	DD	FLAT:??_C@_0BL@LCLDCHBO@S_Init?3?5Setting?5up?5sound?4?6@
	DD	FLAT:??_C@_0CH@BDIFHFBP@HU_Init?3?5Setting?5up?5heads?5up?5di@
	DD	FLAT:??_C@_0BL@JLPKJIK@ST_Init?3?5Init?5status?5bar?4?6@
	DD	FLAT:??_C@_08GMPDFCMK@srb2?4srb@
	DD	FLAT:??_C@_08KLKLHPDC@srb2?4wad@
	DD	FLAT:??_C@_09JOPEDJOF@sonic?4plr@
	DD	FLAT:??_C@_09OPMBNNCL@tails?4plr@
	DD	FLAT:??_C@_08BCIKCOEI@knux?4plr@
	DD	FLAT:??_C@_09NFGCBHDJ@music?4dta@
	DD	FLAT:??_C@_0BK@OFHKPOCI@c?3?2srb2data?2srb2sav?$CFu?4ssg@
	DD	FLAT:??_C@_0O@FHMONFHP@srb2sav?$CFu?4ssg@
	DD	FLAT:??_C@_0BL@KHLADLMF@Sonic?5Robo?5Blast?52?3?5v2?40?47@
_DATA	ENDS
END
