; Listing generated by Microsoft (R) Optimizing Compiler Version 19.41.34123.0 

	TITLE	C:\Users\RafaTheFox\Desktop\SRB2-Public-master (1)\SRB2-Public-master\objs\VC10\Win32\Debug\hw_main.obj
	.686P
	.XMM
	include listing.inc
	.model	flat

INCLUDELIB LIBCMTD
INCLUDELIB OLDNAMES

PUBLIC	_granisotropicmode_cons_t
PUBLIC	_cv_grfov
PUBLIC	_cv_grmd2
PUBLIC	_cv_grfogdensity
PUBLIC	_cv_grfiltermode
PUBLIC	_cv_granisotropicmode
PUBLIC	_cv_grcorrecttricks
PUBLIC	_cv_grsolvetjoin
PUBLIC	??_C@_03KGHEHEMH@MIN@				; `string'
PUBLIC	??_C@_03LEPPJAKI@MAX@				; `string'
PUBLIC	??_C@_07COOCJBJB@Nearest@			; `string'
PUBLIC	??_C@_08DLDNHHDN@Bilinear@			; `string'
PUBLIC	??_C@_09KAHAONAF@Trilinear@			; `string'
PUBLIC	??_C@_0P@LLHPLAOD@Linear_Nearest@		; `string'
PUBLIC	??_C@_0P@NDMMCAFH@Nearest_Linear@		; `string'
PUBLIC	??_C@_0P@FNOJEIGN@Nearest_Mipmap@		; `string'
PUBLIC	_drawsky
PUBLIC	??_C@_0N@IFCNMGME@gr_clipwalls@			; `string'
PUBLIC	??_C@_03GCDBBDDL@Off@				; `string'
PUBLIC	??_C@_07GMIELGC@gr_beta@			; `string'
PUBLIC	??_C@_01GBGANLPD@0@				; `string'
PUBLIC	??_C@_06PEIIFMII@gr_fov@			; `string'
PUBLIC	??_C@_02PEECMOAB@90@				; `string'
PUBLIC	??_C@_0O@BJBEMDAE@gr_fogdensity@		; `string'
PUBLIC	??_C@_03GLMKKOKP@150@				; `string'
PUBLIC	??_C@_0O@JOBKFGEH@gr_filtermode@		; `string'
PUBLIC	??_C@_0BD@FFELLCOO@gr_anisotropicmode@		; `string'
PUBLIC	??_C@_01HIHLOKLC@1@				; `string'
PUBLIC	??_C@_0BB@IJGGDDPK@gr_correcttricks@		; `string'
PUBLIC	??_C@_02IAAGKKDJ@On@				; `string'
PUBLIC	??_C@_0O@IBNFDMGB@gr_solvetjoin@		; `string'
PUBLIC	??_C@_03FNJAPEGP@Old@				; `string'
PUBLIC	??_C@_06LLMJLOGJ@gr_md2@			; `string'
EXTRN	_CV_OnOff:BYTE
EXTRN	_CV_Unsigned:BYTE
_DATA	SEGMENT
COMM	_ATTRPACK:DWORD
COMM	_gr_viewwidth:DWORD
COMM	_gr_viewheight:DWORD
COMM	_gr_baseviewwindowy:DWORD
COMM	_gr_viewwindowx:DWORD
COMM	_gr_basewindowcentery:DWORD
COMM	_hwbbox:DWORD
COMM	_atransform:BYTE:02cH
COMM	_hwdriver:BYTE:064H
_DATA	ENDS
CONST	SEGMENT
_lighttable DD	000000000r			; 0
	DD	000000000r			; 0
	DD	000000000r			; 0
	DD	000000000r			; 0
	DD	000000000r			; 0
	DD	03727c5acr			; 1e-05
	DD	03727c5acr			; 1e-05
	DD	037a7c5acr			; 2e-05
	DD	037fba882r			; 3e-05
	DD	03827c5acr			; 4e-05
	DD	0387ba882r			; 6e-05
	DD	038a7c5acr			; 8e-05
	DD	038d1b717r			; 0.0001
	DD	03908509cr			; 0.00013
	DD	039324207r			; 0.00017
	DD	03951b717r			; 0.0002
	DD	03983126fr			; 0.00025
	DD	0399d4952r			; 0.0003
	DD	039b78034r			; 0.00035
	DD	039d6f545r			; 0.00041
	DD	039fba882r			; 0.00048
	DD	03a12ccf7r			; 0.00056
	DD	03a27c5acr			; 0.00064
	DD	03a3f5d79r			; 0.00073
	DD	03a59945br			; 0.00083
	DD	03a766a55r			; 0.00094
	DD	03a8aefb3r			; 0.00106
	DD	03a9bf9c6r			; 0.00119
	DD	03aad03dar			; 0.00132
	DD	03ac0ad04r			; 0.00147
	DD	03ad5a5b9r			; 0.00163
	DD	03aebedfar			; 0.0018
	DD	03b01c2e3r			; 0.00198
	DD	03b0e368fr			; 0.00217
	DD	03b1b5200r			; 0.00237
	DD	03b29bcfdr			; 0.00259
	DD	03b3827far			; 0.00281
	DD	03b47e282r			; 0.00305
	DD	03b58ec96r			; 0.00331
	DD	03b6a9e6fr			; 0.00358
	DD	03b7cf80er			; 0.00386
	DD	03b88509cr			; 0.00416
	DD	03b927914r			; 0.00447
	DD	03b9cf56fr			; 0.00479
	DD	03ba86d72r			; 0.00514
	DD	03bb43958r			; 0.0055
	DD	03bc05921r			; 0.00587
	DD	03bcd20b0r			; 0.00626
	DD	03bda9004r			; 0.00667
	DD	03be8a71er			; 0.0071
	DD	03bf7121br			; 0.00754
	DD	03c03126fr			; 0.008
	DD	03c0aefb3r			; 0.00848
	DD	03c1320dar			; 0.00898
	DD	03c1ba5e3r			; 0.0095
	DD	03c2454der			; 0.01003
	DD	03c2d81aer			; 0.01059
	DD	03c370260r			; 0.01117
	DD	03c40d6f5r			; 0.01177
	DD	03c4aff6dr			; 0.01239
	DD	03c557bc8r			; 0.01303
	DD	03c604c06r			; 0.01369
	DD	03c6b7026r			; 0.01437
	DD	03c77121br			; 0.01508
	DD	03c8183f9r			; 0.01581
	DD	03c87a8d6r			; 0.01656
	DD	03c8e0c9er			; 0.01734
	DD	03c949a56r			; 0.01814
	DD	03c9b5200r			; 0.01896
	DD	03ca24895r			; 0.01981
	DD	03ca97e13r			; 0.02069
	DD	03cb0dd83r			; 0.02159
	DD	03cb866e4r			; 0.02251
	DD	03cc02f30r			; 0.02346
	DD	03cc83665r			; 0.02444
	DD	03cd0678cr			; 0.02544
	DD	03cd8d79dr			; 0.02647
	DD	03ce18698r			; 0.02753
	DD	03cea747er			; 0.02862
	DD	03cf38c54r			; 0.02973
	DD	03cfcf80er			; 0.03088
	DD	03d0346dcr			; 0.03205
	DD	03d083127r			; 0.03325
	DD	03d0d3ae7r			; 0.03448
	DD	03d126e98r			; 0.03575
	DD	03d17b741r			; 0.03704
	DD	03d1d1f60r			; 0.03836
	DD	03d22a6f4r			; 0.03971
	DD	03d285879r			; 0.0411
	DD	03d2e2974r			; 0.04252
	DD	03d340f67r			; 0.04396
	DD	03d3a29c7r			; 0.04545
	DD	03d405921r			; 0.04696
	DD	03d46b26cr			; 0.04851
	DD	03d4d2b2cr			; 0.05009
	DD	03d53cdddr			; 0.05171
	DD	03d5a9004r			; 0.05336
	DD	03d61719fr			; 0.05504
	DD	03d687d2cr			; 0.05676
	DD	03d6fb2abr			; 0.05852
	DD	03d77079er			; 0.06031
	DD	03d7e8683r			; 0.06214
	DD	03d83126fr			; 0.064
	DD	03d86f694r			; 0.0659
	DD	03d8aefb3r			; 0.06784
	DD	03d8ef88cr			; 0.06981
	DD	03d931b9br			; 0.07183
	DD	03d974e66r			; 0.07388
	DD	03d9b9629r			; 0.07597
	DD	03d9ff2e5r			; 0.0781
	DD	03da46499r			; 0.08027
	DD	03da8eb46r			; 0.08248
	DD	03dad86ecr			; 0.08473
	DD	03db2378br			; 0.08702
	DD	03db6fd22r			; 0.08935
	DD	03dbbd7b2r			; 0.09172
	DD	03dc0cc79r			; 0.09414
	DD	03dc5d0far			; 0.09659
	DD	03dcaefb3r			; 0.09909
	DD	03dd02364r			; 0.10163
	DD	03dd56c0dr			; 0.10421
	DD	03ddaceeer			; 0.10684
	DD	03de046c7r			; 0.10951
	DD	03de5d8d8r			; 0.11223
	DD	03deb7fe1r			; 0.11499
	DD	03df13be2r			; 0.11779
	DD	03df7121br			; 0.12064
	DD	03dfd028ar			; 0.12354
	DD	03e0183f9r			; 0.12648
	DD	03e04912ar			; 0.12946
	DD	03e07ae14r			; 0.1325
	DD	03e0ad57cr			; 0.13558
	DD	03e0e09ffr			; 0.13871
	DD	03e1148fer			; 0.14188
	DD	03e1497b7r			; 0.14511
	DD	03e17f0edr			; 0.14838
	DD	03e1b573fr			; 0.1517
	DD	03e1ecaacr			; 0.15507
	DD	03e224dd3r			; 0.1585
	DD	03e25db77r			; 0.16197
	DD	03e297636r			; 0.16549
	DD	03e2d1e11r			; 0.16906
	DD	03e30d307r			; 0.17268
	DD	03e349518r			; 0.17635
	DD	03e3866e4r			; 0.18008
	DD	03e3c45ccr			; 0.18386
	DD	03e4031cfr			; 0.18769
	DD	03e442aedr			; 0.19157
	DD	03e4833c6r			; 0.19551
	DD	03e4c49bar			; 0.1995
	DD	03e506ccar			; 0.20354
	DD	03e549f95r			; 0.20764
	DD	03e58df7ar			; 0.21179
	DD	03e5d2f1br			; 0.216
	DD	03e618bd6r			; 0.22026
	DD	03e65f84dr			; 0.22458
	DD	03e6a747er			; 0.22896
	DD	03e6efdcar			; 0.23339
	DD	03e7396d1r			; 0.23788
	DD	03e783cf3r			; 0.24242
	DD	03e7cf2d0r			; 0.24702
	DD	03e80dc33r			; 0.25168
	DD	03e8346dcr			; 0.2564
	DD	03e85b963r			; 0.26118
	DD	03e8833c6r			; 0.26602
	DD	03e8ab4b7r			; 0.27091
	DD	03e8d3ed5r			; 0.27587
	DD	03e8fd0d0r			; 0.28089
	DD	03e926959r			; 0.28596
	DD	03e950b0fr			; 0.2911
	DD	03e97b4a2r			; 0.2963
	DD	03e9a6613r			; 0.30156
	DD	03e9d1f60r			; 0.30688
	DD	03e9fe08br			; 0.31226
	DD	03ea2aae3r			; 0.31771
	DD	03ea57d18r			; 0.32322
	DD	03ea8572ar			; 0.32879
	DD	03eab3a69r			; 0.33443
	DD	03eae2585r			; 0.34013
	DD	03eb1187er			; 0.34589
	DD	03eb414a5r			; 0.35172
	DD	03eb718a8r			; 0.35761
	DD	03eba25d9r			; 0.36357
	DD	03ebd3c36r			; 0.3696
	DD	03ec05a71r			; 0.37569
	DD	03ec381d8r			; 0.38185
	DD	03ec6b26cr			; 0.38808
	DD	03ec9eaddr			; 0.39437
	DD	03ecd2c7cr			; 0.40073
	DD	03ed07747r			; 0.40716
	DD	03ed3cb3er			; 0.41366
	DD	03ed72713r			; 0.42022
	DD	03eda8d65r			; 0.42686
	DD	03eddfb94r			; 0.43356
	DD	03ee1743fr			; 0.44034
	DD	03ee4f4c7r			; 0.44718
	DD	03ee87fccr			; 0.4541
	DD	03eec12aer			; 0.46108
	DD	03eefb00cr			; 0.46814
	DD	03ef35697r			; 0.47527
	DD	03ef7064fr			; 0.48247
	DD	03efabf34r			; 0.48974
	DD	03efe8295r			; 0.49709
	DD	03f012791r			; 0.50451
	DD	03f03126fr			; 0.512
	DD	03f05028ar			; 0.51957
	DD	03f06f73cr			; 0.52721
	DD	03f08f084r			; 0.53492
	DD	03f0aef0br			; 0.54271
	DD	03f0cf2d0r			; 0.55058
	DD	03f0efb2br			; 0.55852
	DD	03f1108c4r			; 0.56654
	DD	03f131af4r			; 0.57463
	DD	03f153261r			; 0.5828
	DD	03f174f0er			; 0.59105
	DD	03f197050r			; 0.59937
	DD	03f1b96d1r			; 0.60777
	DD	03f1dc28fr			; 0.61625
	DD	03f1ff38cr			; 0.62481
	DD	03f2229c7r			; 0.63345
	DD	03f246541r			; 0.64217
	DD	03f26a551r			; 0.65096
	DD	03f28eb46r			; 0.65984
	DD	03f2b367ar			; 0.6688
	DD	03f2d8644r			; 0.67783
	DD	03f2fdbf5r			; 0.68695
	DD	03f3236e3r			; 0.69615
	DD	03f3497b7r			; 0.70544
	DD	03f36fd22r			; 0.7148
	DD	03f396873r			; 0.72425
	DD	03f3bd902r			; 0.73378
	DD	03f3e4ecfr			; 0.74339
	DD	03f40c9dar			; 0.75308
	DD	03f434acbr			; 0.76286
	DD	03f45d1a2r			; 0.77273
	DD	03f485db7r			; 0.78268
	DD	03f4aef0br			; 0.79271
	DD	03f4d8644r			; 0.80283
	DD	03f502364r			; 0.81304
	DD	03f52c5c1r			; 0.82333
	DD	03f556e05r			; 0.83371
	DD	03f581b86r			; 0.84417
	DD	03f5aceeer			; 0.85472
	DD	03f5d883cr			; 0.86536
	DD	03f60476fr			; 0.87609
	DD	03f630c89r			; 0.88691
	DD	03f65d6e0r			; 0.89781
	DD	03f68a71er			; 0.9088
	DD	03f6b7de9r			; 0.91989
	DD	03f6e59f3r			; 0.93106
	DD	03f713be2r			; 0.94232
	DD	03f74245fr			; 0.95368
	DD	03f77121br			; 0.96512
	DD	03f7a05bcr			; 0.97665
	DD	03f7cffebr			; 0.98828
	DD	03f800000r			; 1
	DD	000000000r			; 0
	DD	000000000r			; 0
	DD	000000000r			; 0
	DD	000000000r			; 0
	DD	03727c5acr			; 1e-05
	DD	037a7c5acr			; 2e-05
	DD	037fba882r			; 3e-05
	DD	03851b717r			; 5e-05
	DD	03892ccf7r			; 7e-05
	DD	038d1b717r			; 0.0001
	DD	03912ccf7r			; 0.00014
	DD	039473abdr			; 0.00019
	DD	0397ba882r			; 0.00024
	DD	039a2877fr			; 0.00031
	DD	039c73abdr			; 0.00038
	DD	039f66a55r			; 0.00047
	DD	03a156c0dr			; 0.00057
	DD	03a34e11er			; 0.00069
	DD	03a54562er			; 0.00081
	DD	03a7ba882r			; 0.00096
	DD	03a92ccf7r			; 0.00112
	DD	03aa91538r			; 0.00129
	DD	03ac1fc8fr			; 0.00148
	DD	03aded289r			; 0.0017
	DD	03afcf80er			; 0.00193
	DD	03b0ede55r			; 0.00218
	DD	03b20902er			; 0.00245
	DD	03b339192r			; 0.00274
	DD	03b488a48r			; 0.00306
	DD	03b5ed289r			; 0.0034
	DD	03b766a55r			; 0.00376
	DD	03b87fcb9r			; 0.00415
	DD	03b956c0dr			; 0.00456
	DD	03ba3d70ar			; 0.005
	DD	03bb33db0r			; 0.00547
	DD	03bc39ffdr			; 0.00597
	DD	03bd4aa11r			; 0.00649
	DD	03be6afcdr			; 0.00704
	DD	03bfa0514r			; 0.00763
	DD	03c072b02r			; 0.00825
	DD	03c11a75dr			; 0.00889
	DD	03c1ccb7dr			; 0.00957
	DD	03c289763r			; 0.01029
	DD	03c34e11er			; 0.01104
	DD	03c41a8acr			; 0.01182
	DD	03c4f1801r			; 0.01264
	DD	03c5d2f1br			; 0.0135
	DD	03c6bc409r			; 0.01439
	DD	03c7b00bdr			; 0.01532
	DD	03c858794r			; 0.0163
	DD	03c8dcdb3r			; 0.01731
	DD	03c9667b6r			; 0.01836
	DD	03c9f559br			; 0.01945
	DD	03ca89763r			; 0.02058
	DD	03cb24207r			; 0.02176
	DD	03cbc408er			; 0.02298
	DD	03cc692f7r			; 0.02424
	DD	03cd14e3cr			; 0.02555
	DD	03cdc5d64r			; 0.0269
	DD	03ce7d567r			; 0.0283
	DD	03cf3a14dr			; 0.02974
	DD	03cffd60fr			; 0.03123
	DD	03d0639d6r			; 0.03277
	DD	03d0cbd12r			; 0.03436
	DD	03d1374bcr			; 0.036
	DD	03d1a5658r			; 0.03768
	DD	03d2176der			; 0.03942
	DD	03d28c155r			; 0.0412
	DD	03d304ab6r			; 0.04304
	DD	03d380885r			; 0.04493
	DD	03d3ffac2r			; 0.04687
	DD	03d48216cr			; 0.04886
	DD	03d508701r			; 0.05091
	DD	03d592104r			; 0.05301
	DD	03d61f9f0r			; 0.05517
	DD	03d6b074ar			; 0.05738
	DD	03d744913r			; 0.05964
	DD	03d7dc9c5r			; 0.06196
	DD	03d83c4b1r			; 0.06434
	DD	03d88beb6r			; 0.06677
	DD	03d8dd830r			; 0.06926
	DD	03d93111fr			; 0.07181
	DD	03d986445r			; 0.07441
	DD	03d9dd6e0r			; 0.07707
	DD	03da368f1r			; 0.07979
	DD	03da91a76r			; 0.08257
	DD	03daeeb70r			; 0.08541
	DD	03db4dbe0r			; 0.08831
	DD	03dbae686r			; 0.09126
	DD	03dc115dfr			; 0.09428
	DD	03dc75f70r			; 0.09735
	DD	03dcdc875r			; 0.10048
	DD	03dd4562er			; 0.10368
	DD	03ddafe1er			; 0.10693
	DD	03de1cac1r			; 0.11025
	DD	03de8b19ar			; 0.11362
	DD	03defbd27r			; 0.11706
	DD	03df6e829r			; 0.12056
	DD	03dfe2d62r			; 0.12411
	DD	03e02cba7r			; 0.12773
	DD	03e069058r			; 0.13141
	DD	03e0a64c3r			; 0.13515
	DD	03e0e48e9r			; 0.13895
	DD	03e123cc9r			; 0.14281
	DD	03e164064r			; 0.14673
	DD	03e1a5658r			; 0.15072
	DD	03e1e7968r			; 0.15476
	DD	03e22ac32r			; 0.15886
	DD	03e26f156r			; 0.16303
	DD	03e2b4396r			; 0.16725
	DD	03e2fa58fr			; 0.17153
	DD	03e341744r			; 0.17587
	DD	03e389b52r			; 0.18028
	DD	03e3d2c7cr			; 0.18474
	DD	03e41cd60r			; 0.18926
	DD	03e467b5fr			; 0.19383
	DD	03e4b3bb8r			; 0.19847
	DD	03e50092dr			; 0.20316
	DD	03e54e65cr			; 0.20791
	DD	03e59d346r			; 0.21272
	DD	03e5ecfear			; 0.21759
	DD	03e63d9a9r			; 0.22251
	DD	03e68f084r			; 0.22748
	DD	03e6e171ar			; 0.23251
	DD	03e734d6ar			; 0.2376
	DD	03e7890d6r			; 0.24274
	DD	03e7de15dr			; 0.24793
	DD	03e81a0cfr			; 0.25318
	DD	03e84577er			; 0.25848
	DD	03e8714bar			; 0.26383
	DD	03e89d884r			; 0.26923
	DD	03e8ca2dbr			; 0.27468
	DD	03e8f73c1r			; 0.28018
	DD	03e924b34r			; 0.28573
	DD	03e952935r			; 0.29133
	DD	03e980c74r			; 0.29697
	DD	03e9af640r			; 0.30266
	DD	03e9de69br			; 0.3084
	DD	03ea0dc33r			; 0.31418
	DD	03ea3d85ar			; 0.32001
	DD	03ea6d9ber			; 0.32588
	DD	03ea9e061r			; 0.33179
	DD	03eacec42r			; 0.33774
	DD	03eaffeb0r			; 0.34374
	DD	03eb3150er			; 0.34977
	DD	03eb631f9r			; 0.35585
	DD	03eb952d2r			; 0.36196
	DD	03ebc779ar			; 0.3681
	DD	03ebfa1a1r			; 0.37428
	DD	03ec2d0e5r			; 0.3805
	DD	03ec60419r			; 0.38675
	DD	03ec93c8ar			; 0.39304
	DD	03ecc779ar			; 0.39935
	DD	03ecfb7e9r			; 0.4057
	DD	03ed2fad7r			; 0.41207
	DD	03ed641b3r			; 0.41847
	DD	03ed98c7er			; 0.4249
	DD	03edcdb38r			; 0.43136
	DD	03ee02c91r			; 0.43784
	DD	03ee38088r			; 0.44434
	DD	03ee6d86fr			; 0.45087
	DD	03eea31a5r			; 0.45741
	DD	03eed8ec9r			; 0.46398
	DD	03ef0ee8dr			; 0.47057
	DD	03ef44fa0r			; 0.47717
	DD	03ef7b353r			; 0.48379
	DD	03efb1855r			; 0.49042
	DD	03efe7ff6r			; 0.49707
	DD	03f00f473r			; 0.50373
	DD	03f02aa3br			; 0.51041
	DD	03f046003r			; 0.51709
	DD	03f061672r			; 0.52378
	DD	03f07cd8ar			; 0.53048
	DD	03f0984a1r			; 0.53718
	DD	03f0b3c60r			; 0.54389
	DD	03f0cf4c7r			; 0.55061
	DD	03f0eac86r			; 0.55732
	DD	03f1064edr			; 0.56404
	DD	03f121cacr			; 0.57075
	DD	03f13d513r			; 0.57747
	DD	03f158cd2r			; 0.58418
	DD	03f174491r			; 0.59089
	DD	03f18fba9r			; 0.59759
	DD	03f1ab2c0r			; 0.60429
	DD	03f1c6888r			; 0.61097
	DD	03f1e1e4fr			; 0.61765
	DD	03f1fd36fr			; 0.62432
	DD	03f2187e8r			; 0.63098
	DD	03f233b10r			; 0.63762
	DD	03f24ed91r			; 0.64425
	DD	03f269ec3r			; 0.65086
	DD	03f284f4cr			; 0.65746
	DD	03f29fe87r			; 0.66404
	DD	03f2bac71r			; 0.6706
	DD	03f2d590cr			; 0.67714
	DD	03f2f03b0r			; 0.68365
	DD	03f30adacr			; 0.69015
	DD	03f3255b0r			; 0.69662
	DD	03f33fc65r			; 0.70307
	DD	03f35a07br			; 0.70948
	DD	03f3743e9r			; 0.71588
	DD	03f38e4b8r			; 0.72224
	DD	03f3a8390r			; 0.72857
	DD	03f3c2118r			; 0.73488
	DD	03f3dbc02r			; 0.74115
	DD	03f3f54f3r			; 0.74739
	DD	03f40eb46r			; 0.75359
	DD	03f427fa2r			; 0.75976
	DD	03f44115er			; 0.76589
	DD	03f45a123r			; 0.77199
	DD	03f472e49r			; 0.77805
	DD	03f48b8d0r			; 0.78407
	DD	03f4a40b8r			; 0.79005
	DD	03f4bc600r			; 0.79599
	DD	03f4d48aar			; 0.80189
	DD	03f4ec80cr			; 0.80774
	DD	03f5044d0r			; 0.81355
	DD	03f51bef5r			; 0.81932
	DD	03f5335d2r			; 0.82504
	DD	03f54aa11r			; 0.83072
	DD	03f561b09r			; 0.83635
	DD	03f578961r			; 0.84194
	DD	03f58f3cbr			; 0.84747
	DD	03f5a5b96r			; 0.85296
	DD	03f5bc01ar			; 0.8584
	DD	03f5d20b0r			; 0.86378
	DD	03f5e7ea6r			; 0.86912
	DD	03f5fd955r			; 0.87441
	DD	03f613016r			; 0.87964
	DD	03f628390r			; 0.88482
	DD	03f63d3c3r			; 0.88995
	DD	03f6520b0r			; 0.89503
	DD	03f6669adr			; 0.90005
	DD	03f67af64r			; 0.90502
	DD	03f68f12cr			; 0.90993
	DD	03f6a2fadr			; 0.91479
	DD	03f6b6a40r			; 0.91959
	DD	03f6ca18cr			; 0.92434
	DD	03f6dd4e9r			; 0.92903
	DD	03f6f0457r			; 0.93366
	DD	03f70307fr			; 0.93824
	DD	03f7158b8r			; 0.94276
	DD	03f727daar			; 0.94723
	DD	03f739e06r			; 0.95163
	DD	03f74bb1br			; 0.95598
	DD	03f75d441r			; 0.96027
	DD	03f76ea21r			; 0.96451
	DD	03f77fb6ar			; 0.96868
	DD	03f79096cr			; 0.9728
	DD	03f7a137fr			; 0.97686
	DD	03f7b19a4r			; 0.98086
	DD	03f7c1c82r			; 0.98481
	DD	03f7d1acar			; 0.98869
	DD	03f7e15car			; 0.99252
	DD	03f7f0cddr			; 0.99629
	DD	03f800000r			; 1
	DD	000000000r			; 0
	DD	000000000r			; 0
	DD	000000000r			; 0
	DD	03727c5acr			; 1e-05
	DD	037a7c5acr			; 2e-05
	DD	037fba882r			; 3e-05
	DD	03851b717r			; 5e-05
	DD	038a7c5acr			; 8e-05
	DD	03908509cr			; 0.00013
	DD	0393cbe62r			; 0.00018
	DD	03983126fr			; 0.00025
	DD	039ad03dar			; 0.00033
	DD	039dc3372r			; 0.00042
	DD	03a0d8ec9r			; 0.00054
	DD	03a2fa2f0r			; 0.00067
	DD	03a59945br			; 0.00083
	DD	03a8461far			; 0.00101
	DD	03a9e98ddr			; 0.00121
	DD	03abb6ed6r			; 0.00143
	DD	03adc3372r			; 0.00168
	DD	03b007358r			; 0.00196
	DD	03b14c448r			; 0.00227
	DD	03b2b0c89r			; 0.00261
	DD	03b43f3e0r			; 0.00299
	DD	03b5e2ac3r			; 0.00339
	DD	03b7b00bdr			; 0.00383
	DD	03b8d3ae7r			; 0.00431
	DD	03b9e44far			; 0.00483
	DD	03bb04ab6r			; 0.00538
	DD	03bc3f3e0r			; 0.00598
	DD	03bd898b3r			; 0.00661
	DD	03beee0f4r			; 0.00729
	DD	03c036651r			; 0.00802
	DD	03c1003efr			; 0.00879
	DD	03c1d7343r			; 0.00961
	DD	03c2bb44er			; 0.01048
	DD	03c3ac711r			; 0.0114
	DD	03c4aab8ar			; 0.01237
	DD	03c5b8bacr			; 0.0134
	DD	03c6d1394r			; 0.01447
	DD	03c7fc116r			; 0.01561
	DD	03c89a027r			; 0.0168
	DD	03c93c89fr			; 0.01804
	DD	03c9e83e4r			; 0.01935
	DD	03ca9bcfdr			; 0.02072
	DD	03cb573ebr			; 0.02215
	DD	03cc1a8acr			; 0.02364
	DD	03cce703br			; 0.0252
	DD	03cdbb59er			; 0.02682
	DD	03ce978d5r			; 0.0285
	DD	03cf7e3d2r			; 0.03026
	DD	03d036651r			; 0.03208
	DD	03d0b2420r			; 0.03397
	DD	03d1335d2r			; 0.03594
	DD	03d1b866er			; 0.03797
	DD	03d242071r			; 0.04007
	DD	03d2d0e56r			; 0.04225
	DD	03d36501er			; 0.04451
	DD	03d3fdb4dr			; 0.04684
	DD	03d49afe2r			; 0.04924
	DD	03d53d85ar			; 0.05172
	DD	03d5e54b5r			; 0.05428
	DD	03d691a76r			; 0.05691
	DD	03d743e96r			; 0.05963
	DD	03d7fac1dr			; 0.06242
	DD	03d85bc02r			; 0.0653
	DD	03d8bc6a8r			; 0.06825
	DD	03d92007er			; 0.07129
	DD	03d986445r			; 0.07441
	DD	03d9ef1fer			; 0.07761
	DD	03da5a9a8r			; 0.08089
	DD	03dac9082r			; 0.08426
	DD	03db3a14dr			; 0.08771
	DD	03dbae148r			; 0.09125
	DD	03dc24b34r			; 0.09487
	DD	03dc9df11r			; 0.09857
	DD	03dd1a21fr			; 0.10236
	DD	03dd98f1dr			; 0.10623
	DD	03de1ab4br			; 0.11019
	DD	03de9f16br			; 0.11423
	DD	03df266bar			; 0.11836
	DD	03dfb05fbr			; 0.12257
	DD	03e01ea36r			; 0.12687
	DD	03e066666r			; 0.13125
	DD	03e0af790r			; 0.13571
	DD	03e0fa2f0r			; 0.14027
	DD	03e1460aar			; 0.1449
	DD	03e1935fcr			; 0.14962
	DD	03e1e2047r			; 0.15442
	DD	03e232229r			; 0.15931
	DD	03e283665r			; 0.16427
	DD	03e2d6239r			; 0.16932
	DD	03e32a305r			; 0.17445
	DD	03e37f8cbr			; 0.17966
	DD	03e3d6627r			; 0.18496
	DD	03e42e5der			; 0.19033
	DD	03e487a8dr			; 0.19578
	DD	03e4e2196r			; 0.2013
	DD	03e53e037r			; 0.20691
	DD	03e59b131r			; 0.21259
	DD	03e5f9485r			; 0.21834
	DD	03e658cd2r			; 0.22417
	DD	03e6b9778r			; 0.23007
	DD	03e71b717r			; 0.23605
	DD	03e77e671r			; 0.24209
	DD	03e7e2824r			; 0.2482
	DD	03e823e18r			; 0.25438
	DD	03e85714cr			; 0.26063
	DD	03e88ac5cr			; 0.26694
	DD	03e8bf099r			; 0.27332
	DD	03e8f3cb4r			; 0.27976
	DD	03e9290acr			; 0.28626
	DD	03e95ec81r			; 0.29282
	DD	03e995033r			; 0.29944
	DD	03e9cba73r			; 0.30611
	DD	03ea02c91r			; 0.31284
	DD	03ea3a53cr			; 0.31962
	DD	03ea725c4r			; 0.32646
	DD	03eaaab8ar			; 0.33334
	DD	03eae37dfr			; 0.34027
	DD	03eb1c971r			; 0.34724
	DD	03eb56191r			; 0.35426
	DD	03eb8feefr			; 0.36132
	DD	03ebca18cr			; 0.36842
	DD	03ec04966r			; 0.37556
	DD	03ec3f530r			; 0.38273
	DD	03ec7a637r			; 0.38994
	DD	03ecb5b2dr			; 0.39718
	DD	03ecf1412r			; 0.40445
	DD	03ed2cf96r			; 0.41174
	DD	03ed69058r			; 0.41907
	DD	03eda5269r			; 0.42641
	DD	03ede186ar			; 0.43378
	DD	03ee1dfb9r			; 0.44116
	DD	03ee5a9a8r			; 0.44856
	DD	03ee97636r			; 0.45598
	DD	03eed42c4r			; 0.4634
	DD	03ef111f1r			; 0.47084
	DD	03ef4e11er			; 0.47828
	DD	03ef8b19ar			; 0.48573
	DD	03efc8366r			; 0.49319
	DD	03f0029f1r			; 0.50064
	DD	03f021230r			; 0.50809
	DD	03f03fa6er			; 0.51554
	DD	03f05e204r			; 0.52298
	DD	03f07c99br			; 0.53042
	DD	03f09afe2r			; 0.53784
	DD	03f0b9581r			; 0.54525
	DD	03f0d7a78r			; 0.55265
	DD	03f0f5d79r			; 0.56002
	DD	03f113fd1r			; 0.56738
	DD	03f1320dar			; 0.57472
	DD	03f14ffebr			; 0.58203
	DD	03f16ddadr			; 0.58932
	DD	03f18b978r			; 0.59658
	DD	03f1a934br			; 0.60381
	DD	03f1c6b27r			; 0.61101
	DD	03f1e4064r			; 0.61817
	DD	03f201301r			; 0.62529
	DD	03f21e3a8r			; 0.63238
	DD	03f23b1afr			; 0.63943
	DD	03f257c70r			; 0.64643
	DD	03f274491r			; 0.65339
	DD	03f290a13r			; 0.66031
	DD	03f2acba7r			; 0.66717
	DD	03f2c8a9cr			; 0.67399
	DD	03f2e45a2r			; 0.68075
	DD	03f2ffd61r			; 0.68746
	DD	03f31b1d9r			; 0.69412
	DD	03f336263r			; 0.70072
	DD	03f350efer			; 0.70726
	DD	03f36b852r			; 0.71375
	DD	03f385d10r			; 0.72017
	DD	03f39fddfr			; 0.72653
	DD	03f3b9a17r			; 0.73282
	DD	03f3d3261r			; 0.73905
	DD	03f3ec6bdr			; 0.74522
	DD	03f4055dar			; 0.75131
	DD	03f41e109r			; 0.75734
	DD	03f4367a1r			; 0.7633
	DD	03f44e8fbr			; 0.76918
	DD	03f466666r			; 0.775
	DD	03f47de94r			; 0.78074
	DD	03f495183r			; 0.7864
	DD	03f4abfdbr			; 0.79199
	DD	03f4c299er			; 0.79751
	DD	03f4d8e22r			; 0.80295
	DD	03f4eed67r			; 0.80831
	DD	03f50476fr			; 0.81359
	DD	03f519ce0r			; 0.8188
	DD	03f52ed14r			; 0.82393
	DD	03f543809r			; 0.82898
	DD	03f557d18r			; 0.83394
	DD	03f56bd90r			; 0.83883
	DD	03f57f8cbr			; 0.84364
	DD	03f592e1fr			; 0.84836
	DD	03f5a5eddr			; 0.85301
	DD	03f5b8a5dr			; 0.85758
	DD	03f5caff7r			; 0.86206
	DD	03f5dd053r			; 0.86646
	DD	03f5eeb70r			; 0.87078
	DD	03f600150r			; 0.87502
	DD	03f6111f1r			; 0.87918
	DD	03f621d54r			; 0.88326
	DD	03f632379r			; 0.88726
	DD	03f64245fr			; 0.89118
	DD	03f651f60r			; 0.89501
	DD	03f6615car			; 0.89877
	DD	03f6706f7r			; 0.90245
	DD	03f67f2e5r			; 0.90605
	DD	03f68d994r			; 0.90957
	DD	03f69bb06r			; 0.91301
	DD	03f6a97e1r			; 0.91638
	DD	03f6b6ed6r			; 0.91966
	DD	03f6c41ddr			; 0.92288
	DD	03f6d0efer			; 0.92601
	DD	03f6dd830r			; 0.92908
	DD	03f6e9b7cr			; 0.93206
	DD	03f6f5ad9r			; 0.93498
	DD	03f7014f9r			; 0.93782
	DD	03f70ca82r			; 0.94059
	DD	03f717b74r			; 0.94329
	DD	03f7227d0r			; 0.94592
	DD	03f72cf96r			; 0.94848
	DD	03f7372c5r			; 0.95097
	DD	03f74115er			; 0.95339
	DD	03f74ac08r			; 0.95575
	DD	03f75421cr			; 0.95804
	DD	03f75d441r			; 0.96027
	DD	03f766278r			; 0.96244
	DD	03f76ec18r			; 0.96454
	DD	03f7771c9r			; 0.96658
	DD	03f77f38cr			; 0.96856
	DD	03f787208r			; 0.97049
	DD	03f78ebeer			; 0.97235
	DD	03f79628dr			; 0.97416
	DD	03f79d53dr			; 0.97591
	DD	03f7a43fer			; 0.9776
	DD	03f7aaf79r			; 0.97924
	DD	03f7b17adr			; 0.98083
	DD	03f7b7c9ar			; 0.98237
	DD	03f7bde40r			; 0.98386
	DD	03f7c3c9fr			; 0.9853
	DD	03f7c97b7r			; 0.98669
	DD	03f7cef89r			; 0.98803
	DD	03f7d44bbr			; 0.98933
	DD	03f7d96a7r			; 0.99058
	DD	03f7de5f3r			; 0.99179
	DD	03f7e31f9r			; 0.99295
	DD	03f7e7c07r			; 0.99408
	DD	03f7ec2cer			; 0.99516
	DD	03f7f06f7r			; 0.9962
	DD	03f7f4928r			; 0.99721
	DD	03f7f8812r			; 0.99817
	DD	03f7fc505r			; 0.9991
	DD	03f800000r			; 1
	DD	000000000r			; 0
	DD	000000000r			; 0
	DD	000000000r			; 0
	DD	03727c5acr			; 1e-05
	DD	037a7c5acr			; 2e-05
	DD	03851b717r			; 5e-05
	DD	038a7c5acr			; 8e-05
	DD	038fba882r			; 0.00012
	DD	039473abdr			; 0.00019
	DD	03988509cr			; 0.00026
	DD	039bcbe62r			; 0.00036
	DD	039fba882r			; 0.00048
	DD	03a252696r			; 0.00063
	DD	03a51b717r			; 0.0008
	DD	03a81c2e3r			; 0.00099
	DD	03a9fe868r			; 0.00122
	DD	03ac1fc8fr			; 0.00148
	DD	03ae94ee4r			; 0.00178
	DD	03b0a47edr			; 0.00211
	DD	03b232f45r			; 0.00249
	DD	03b3e0dedr			; 0.0029
	DD	03b5b8bacr			; 0.00335
	DD	03b7cf80er			; 0.00386
	DD	03b902de0r			; 0.0044
	DD	03ba3d70ar			; 0.005
	DD	03bb923a3r			; 0.00565
	DD	03bd0678cr			; 0.00636
	DD	03be8fb01r			; 0.00711
	DD	03c01ecd5r			; 0.00793
	DD	03c1057d1r			; 0.00881
	DD	03c1fbe77r			; 0.00975
	DD	03c3020c5r			; 0.01075
	DD	03c41a8acr			; 0.01182
	DD	03c542c3dr			; 0.01295
	DD	03c67ff58r			; 0.01416
	DD	03c7cce1cr			; 0.01543
	DD	03c897636r			; 0.01678
	DD	03c952d23r			; 0.01821
	DD	03ca176der			; 0.01971
	DD	03cae685er			; 0.02129
	DD	03cbc01a3r			; 0.02295
	DD	03cca42afr			; 0.02469
	DD	03cd94079r			; 0.02652
	DD	03ce8e608r			; 0.02843
	DD	03cf94856r			; 0.03043
	DD	03d0533b1r			; 0.03252
	DD	03d0e171ar			; 0.03469
	DD	03d17635er			; 0.03696
	DD	03d21187er			; 0.03933
	DD	03d2b2181r			; 0.04178
	DD	03d359360r			; 0.04433
	DD	03d406e1ar			; 0.04698
	DD	03d4bb1afr			; 0.04973
	DD	03d575e20r			; 0.05258
	DD	03d6368f1r			; 0.05552
	DD	03d6fe719r			; 0.05857
	DD	03d7cce1cr			; 0.06172
	DD	03d85143cr			; 0.06498
	DD	03d8bf5d8r			; 0.06834
	DD	03d930be1r			; 0.0718
	DD	03d9a5b96r			; 0.07537
	DD	03da1e4f7r			; 0.07905
	DD	03da9a2c6r			; 0.08283
	DD	03db19a41r			; 0.08672
	DD	03db9cb68r			; 0.09072
	DD	03dc2363br			; 0.09483
	DD	03dcadabar			; 0.09905
	DD	03dd3b3a7r			; 0.10337
	DD	03ddccb7dr			; 0.10781
	DD	03de61d00r			; 0.11236
	DD	03defa2f0r			; 0.11701
	DD	03df967cbr			; 0.12178
	DD	03e01b08ar			; 0.12665
	DD	03e06ca04r			; 0.13163
	DD	03e0c02f3r			; 0.13673
	DD	03e115619r			; 0.14193
	DD	03e16c615r			; 0.14724
	DD	03e1c5048r			; 0.15265
	DD	03e21f751r			; 0.15817
	DD	03e27bb30r			; 0.1638
	DD	03e2d9be5r			; 0.16954
	DD	03e3396d1r			; 0.17538
	DD	03e39abf3r			; 0.18132
	DD	03e3fddecr			; 0.18737
	DD	03e46277cr			; 0.19351
	DD	03e4c8de3r			; 0.19976
	DD	03e530be1r			; 0.2061
	DD	03e59a6b5r			; 0.21255
	DD	03e605682r			; 0.21908
	DD	03e672325r			; 0.22572
	DD	03e6e04c0r			; 0.23244
	DD	03e750093r			; 0.23926
	DD	03e7c115er			; 0.24616
	DD	03e819e30r			; 0.25316
	DD	03e853cder			; 0.26023
	DD	03e88e758r			; 0.26739
	DD	03e8c9d9dr			; 0.27464
	DD	03e905d10r			; 0.28196
	DD	03e9425afr			; 0.28935
	DD	03e97fa1ar			; 0.29683
	DD	03e9bd662r			; 0.30437
	DD	03e9fbbd8r			; 0.31198
	DD	03ea3aa7ar			; 0.31966
	DD	03ea7a0f9r			; 0.3274
	DD	03eaba0a5r			; 0.33521
	DD	03eafa6dfr			; 0.34307
	DD	03eb3b4f6r			; 0.35099
	DD	03eb7c99br			; 0.35896
	DD	03ebbe61dr			; 0.36699
	DD	03ec007ddr			; 0.37506
	DD	03ec42edcr			; 0.38317
	DD	03ec85c68r			; 0.39133
	DD	03ecc8de3r			; 0.39952
	DD	03ed0c49cr			; 0.40775
	DD	03ed4ff43r			; 0.41601
	DD	03ed93c8ar			; 0.42429
	DD	03edd7f0fr			; 0.43261
	DD	03ee1c2e3r			; 0.44094
	DD	03ee60957r			; 0.44929
	DD	03eea5269r			; 0.45766
	DD	03eee9ccbr			; 0.46604
	DD	03ef2e87dr			; 0.47443
	DD	03ef7357er			; 0.48283
	DD	03efb8130r			; 0.49122
	DD	03effce31r			; 0.49962
	DD	03f020cf2r			; 0.50801
	DD	03f043223r			; 0.51639
	DD	03f0656acr			; 0.52476
	DD	03f087a8dr			; 0.53312
	DD	03f0a9d1fr			; 0.54146
	DD	03f0cbe62r			; 0.54978
	DD	03f0eddadr			; 0.55807
	DD	03f10fb01r			; 0.56633
	DD	03f131705r			; 0.57457
	DD	03f15306ar			; 0.58277
	DD	03f174730r			; 0.59093
	DD	03f195b57r			; 0.59905
	DD	03f1b6cdfr			; 0.60713
	DD	03f1d7b20r			; 0.61516
	DD	03f1f861ar			; 0.62314
	DD	03f218dcer			; 0.63107
	DD	03f23923ar			; 0.63895
	DD	03f259210r			; 0.64676
	DD	03f278e9fr			; 0.65452
	DD	03f298698r			; 0.66221
	DD	03f2b7aa2r			; 0.66984
	DD	03f2d696er			; 0.67739
	DD	03f2f544cr			; 0.68488
	DD	03f3139ebr			; 0.69229
	DD	03f331af4r			; 0.69963
	DD	03f34f6ber			; 0.70689
	DD	03f36cd4br			; 0.71407
	DD	03f389e99r			; 0.72117
	DD	03f3a6a01r			; 0.72818
	DD	03f3c302br			; 0.73511
	DD	03f3df06fr			; 0.74195
	DD	03f3faacer			; 0.7487
	DD	03f415f46r			; 0.75536
	DD	03f430d30r			; 0.76192
	DD	03f44b535r			; 0.76839
	DD	03f465754r			; 0.77477
	DD	03f47f2e5r			; 0.78105
	DD	03f4987e8r			; 0.78723
	DD	03f4b165dr			; 0.79331
	DD	03f4c9eedr			; 0.7993
	DD	03f4e2047r			; 0.80518
	DD	03f4f9b13r			; 0.81096
	DD	03f510f52r			; 0.81664
	DD	03f527c5br			; 0.82221
	DD	03f53e2d6r			; 0.82768
	DD	03f5542c4r			; 0.83305
	DD	03f569c24r			; 0.83832
	DD	03f57eda6r			; 0.84347
	DD	03f593943r			; 0.84853
	DD	03f5a7daar			; 0.85348
	DD	03f5bbadcr			; 0.85832
	DD	03f5cf180r			; 0.86306
	DD	03f5e2196r			; 0.8677
	DD	03f5f4a77r			; 0.87223
	DD	03f606ccar			; 0.87666
	DD	03f6187e8r			; 0.88098
	DD	03f629d1fr			; 0.88521
	DD	03f63ab22r			; 0.88933
	DD	03f64b1eer			; 0.89334
	DD	03f65b2d5r			; 0.89726
	DD	03f66ad2er			; 0.90108
	DD	03f67a0f9r			; 0.9048
	DD	03f688e37r			; 0.90842
	DD	03f6974e6r			; 0.91194
	DD	03f6a55b0r			; 0.91537
	DD	03f6b2fecr			; 0.9187
	DD	03f6c039br			; 0.92193
	DD	03f6cd20br			; 0.92508
	DD	03f6d99edr			; 0.92813
	DD	03f6e5bear			; 0.93109
	DD	03f6f1801r			; 0.93396
	DD	03f6fced9r			; 0.93675
	DD	03f707fccr			; 0.93945
	DD	03f712ad8r			; 0.94206
	DD	03f71d0a6r			; 0.94459
	DD	03f727137r			; 0.94704
	DD	03f730c89r			; 0.94941
	DD	03f73a1f5r			; 0.95169
	DD	03f743372r			; 0.95391
	DD	03f74bf0ar			; 0.95604
	DD	03f75460br			; 0.9581
	DD	03f75c875r			; 0.96009
	DD	03f76464ar			; 0.96201
	DD	03f76bf87r			; 0.96386
	DD	03f77342fr			; 0.96564
	DD	03f77a440r			; 0.96735
	DD	03f781062r			; 0.969
	DD	03f787896r			; 0.97059
	DD	03f78dcdbr			; 0.97212
	DD	03f793c8ar			; 0.97358
	DD	03f7998f2r			; 0.97499
	DD	03f79f16br			; 0.97634
	DD	03f7a469dr			; 0.97764
	DD	03f7a97e1r			; 0.97888
	DD	03f7ae5der			; 0.98007
	DD	03f7b313cr			; 0.98122
	DD	03f7b78abr			; 0.98231
	DD	03f7bbd7br			; 0.98336
	DD	03f7bff04r			; 0.98436
	DD	03f7c3d47r			; 0.98531
	DD	03f7c7992r			; 0.98623
	DD	03f7cb296r			; 0.9871
	DD	03f7ce8fbr			; 0.98793
	DD	03f7d1d69r			; 0.98873
	DD	03f7d4f37r			; 0.98949
	DD	03f7d7e67r			; 0.99021
	DD	03f7dab9fr			; 0.9909
	DD	03f7dd639r			; 0.99155
	DD	03f7dff82r			; 0.99218
	DD	03f7e262dr			; 0.99277
	DD	03f7e4ae0r			; 0.99333
	DD	03f7e6e44r			; 0.99387
	DD	03f7e8f08r			; 0.99437
	DD	03f7eaf25r			; 0.99486
	DD	03f7ecca3r			; 0.99531
	DD	03f7ee979r			; 0.99575
	DD	03f7f0457r			; 0.99616
	DD	03f7f1d3fr			; 0.99654
	DD	03f7f357er			; 0.99691
	DD	03f7f4c6er			; 0.99726
	DD	03f7f620fr			; 0.99759
	DD	03f7f7660r			; 0.9979
	DD	03f7f8961r			; 0.99819
	DD	03f7f9bbbr			; 0.99847
	DD	03f7facc5r			; 0.99873
	DD	03f7fbc7fr			; 0.99897
	DD	03f7fcb92r			; 0.9992
	DD	03f7fd9fdr			; 0.99942
	DD	03f7fe7c0r			; 0.99963
	DD	03f7ff434r			; 0.99982
	DD	03f800000r			; 1
	DD	000000000r			; 0
	DD	000000000r			; 0
	DD	000000000r			; 0
	DD	03727c5acr			; 1e-05
	DD	037fba882r			; 3e-05
	DD	0387ba882r			; 6e-05
	DD	038d1b717r			; 0.0001
	DD	039324207r			; 0.00017
	DD	03983126fr			; 0.00025
	DD	039b78034r			; 0.00035
	DD	039fba882r			; 0.00048
	DD	03a27c5acr			; 0.00064
	DD	03a59945br			; 0.00083
	DD	03a8aefb3r			; 0.00106
	DD	03aad03dar			; 0.00132
	DD	03ad5a5b9r			; 0.00163
	DD	03b011b1er			; 0.00197
	DD	03b1b5200r			; 0.00237
	DD	03b3827far			; 0.00281
	DD	03b5844d0r			; 0.0033
	DD	03b7c5048r			; 0.00385
	DD	03b922531r			; 0.00446
	DD	03ba8198fr			; 0.00513
	DD	03bbfb15br			; 0.00585
	DD	03bd9e83er			; 0.00665
	DD	03bf61672r			; 0.00751
	DD	03c0a71der			; 0.00845
	DD	03c1ad42cr			; 0.00945
	DD	03c2caff7r			; 0.01054
	DD	03c3fb15br			; 0.0117
	DD	03c542c3dr			; 0.01295
	DD	03c69f6a9r			; 0.01428
	DD	03c808851r			; 0.01569
	DD	03c8cd20br			; 0.01719
	DD	03c99ed7cr			; 0.01879
	DD	03ca7c5acr			; 0.02048
	DD	03cb66f93r			; 0.02227
	DD	03cc5d639r			; 0.02415
	DD	03cd6238er			; 0.02614
	DD	03ce72da1r			; 0.02822
	DD	03cf9335dr			; 0.03042
	DD	03d060568r			; 0.03272
	DD	03d0fe47ar			; 0.03513
	DD	03d1a36e3r			; 0.03765
	DD	03d24fca4r			; 0.04028
	DD	03d30403ar			; 0.04303
	DD	03d3bf727r			; 0.04589
	DD	03d482be9r			; 0.04887
	DD	03d54e8fbr			; 0.05198
	DD	03d621965r			; 0.0552
	DD	03d6fd220r			; 0.05855
	DD	03d7e08afr			; 0.06202
	DD	03d865e89r			; 0.06561
	DD	03d8dfce3r			; 0.06933
	DD	03d95df65r			; 0.07318
	DD	03d9e0610r			; 0.07716
	DD	03da670e3r			; 0.08127
	DD	03daf1aa0r			; 0.0855
	DD	03db80dc3r			; 0.08987
	DD	03dc1450fr			; 0.09437
	DD	03dcac083r			; 0.099
	DD	03dd4801fr			; 0.10376
	DD	03dde8922r			; 0.10866
	DD	03de8d64dr			; 0.11369
	DD	03df36263r			; 0.11884
	DD	03dfe3d1dr			; 0.12414
	DD	03e04ab60r			; 0.12956
	DD	03e0a5ce6r			; 0.13512
	DD	03e102de0r			; 0.1408
	DD	03e16238er			; 0.14662
	DD	03e1c3b4fr			; 0.15257
	DD	03e227525r			; 0.15865
	DD	03e28ce70r			; 0.16485
	DD	03e2f49cfr			; 0.17118
	DD	03e35e743r			; 0.17764
	DD	03e3ca6car			; 0.18423
	DD	03e438327r			; 0.19093
	DD	03e4a8199r			; 0.19776
	DD	03e519f80r			; 0.20471
	DD	03e58da3cr			; 0.21177
	DD	03e60346er			; 0.21895
	DD	03e67ae14r			; 0.22625
	DD	03e6f41f2r			; 0.23365
	DD	03e76f545r			; 0.24117
	DD	03e7ec2cer			; 0.24879
	DD	03e835697r			; 0.25652
	DD	03e8758e2r			; 0.26435
	DD	03e8b6849r			; 0.27228
	DD	03e8f837br			; 0.2803
	DD	03e93abc9r			; 0.28842
	DD	03e97de94r			; 0.29662
	DD	03e9c1e79r			; 0.30492
	DD	03ea0678cr			; 0.31329
	DD	03ea4bc6ar			; 0.32175
	DD	03ea91a76r			; 0.33028
	DD	03ead82fdr			; 0.33889
	DD	03eb1f362r			; 0.34756
	DD	03eb66cf4r			; 0.3563
	DD	03ebaee63r			; 0.3651
	DD	03ebf77afr			; 0.37396
	DD	03ec40789r			; 0.38287
	DD	03ec89df1r			; 0.39183
	DD	03ecd3ae7r			; 0.40084
	DD	03ed1dd1ar			; 0.40989
	DD	03ed6833cr			; 0.41897
	DD	03edb2e9dr			; 0.42809
	DD	03edfdc9cr			; 0.43723
	DD	03ee48e8ar			; 0.4464
	DD	03ee94318r			; 0.45559
	DD	03eedf8f4r			; 0.46479
	DD	03ef2b170r			; 0.47401
	DD	03ef769ecr			; 0.48323
	DD	03efc2268r			; 0.49245
	DD	03f006d72r			; 0.50167
	DD	03f02c908r			; 0.51088
	DD	03f0523f6r			; 0.52008
	DD	03f077e3dr			; 0.52927
	DD	03f09d68cr			; 0.53843
	DD	03f0c2d8cr			; 0.54757
	DD	03f0e8295r			; 0.55668
	DD	03f10d4fer			; 0.56575
	DD	03f132570r			; 0.57479
	DD	03f157343r			; 0.58379
	DD	03f17bdcfr			; 0.59274
	DD	03f1a0514r			; 0.60164
	DD	03f1c486br			; 0.61048
	DD	03f1e887br			; 0.61927
	DD	03f20c3f4r			; 0.62799
	DD	03f22fb7fr			; 0.63665
	DD	03f252e73r			; 0.64524
	DD	03f275cd1r			; 0.65376
	DD	03f2985f0r			; 0.6622
	DD	03f2ba9d2r			; 0.67056
	DD	03f2dc7cer			; 0.67883
	DD	03f2fe08br			; 0.68702
	DD	03f31f2bbr			; 0.69511
	DD	03f33ffacr			; 0.70312
	DD	03f360610r			; 0.71103
	DD	03f3805e6r			; 0.71884
	DD	03f39ff2er			; 0.72655
	DD	03f3bf141r			; 0.73415
	DD	03f3ddcc6r			; 0.74165
	DD	03f3fc116r			; 0.74904
	DD	03f419e30r			; 0.75632
	DD	03f43736dr			; 0.76348
	DD	03f454174r			; 0.77053
	DD	03f470846r			; 0.77747
	DD	03f48c693r			; 0.78428
	DD	03f4a7daar			; 0.79098
	DD	03f4c2ce4r			; 0.79756
	DD	03f4dd399r			; 0.80401
	DD	03f4f7319r			; 0.81035
	DD	03f51096cr			; 0.81655
	DD	03f529889r			; 0.82264
	DD	03f541e79r			; 0.82859
	DD	03f559d34r			; 0.83443
	DD	03f5712c2r			; 0.84013
	DD	03f588073r			; 0.84571
	DD	03f59e647r			; 0.85117
	DD	03f5b42eer			; 0.85649
	DD	03f5c97b7r			; 0.86169
	DD	03f5de4a4r			; 0.86677
	DD	03f5f290br			; 0.87172
	DD	03f6064edr			; 0.87654
	DD	03f6198f2r			; 0.88124
	DD	03f62c472r			; 0.88581
	DD	03f63e814r			; 0.89026
	DD	03f6503dar			; 0.89459
	DD	03f6617c2r			; 0.8988
	DD	03f6723cdr			; 0.90289
	DD	03f6827far			; 0.90686
	DD	03f69244ar			; 0.91071
	DD	03f6a1965r			; 0.91445
	DD	03f6b06a3r			; 0.91807
	DD	03f6bec03r			; 0.92157
	DD	03f6ccad5r			; 0.92497
	DD	03f6da273r			; 0.92826
	DD	03f6e7232r			; 0.93143
	DD	03f6f3b64r			; 0.9345
	DD	03f6ffe09r			; 0.93747
	DD	03f70ba1fr			; 0.94034
	DD	03f716f00r			; 0.9431
	DD	03f721dfcr			; 0.94577
	DD	03f72c5c1r			; 0.94833
	DD	03f736849r			; 0.95081
	DD	03f740443r			; 0.95319
	DD	03f749a56r			; 0.95548
	DD	03f752a84r			; 0.95768
	DD	03f75b574r			; 0.9598
	DD	03f763a7er			; 0.96183
	DD	03f76ba49r			; 0.96378
	DD	03f7734d7r			; 0.96565
	DD	03f77aa26r			; 0.96744
	DD	03f781adfr			; 0.96916
	DD	03f788701r			; 0.97081
	DD	03f78ede5r			; 0.97238
	DD	03f795033r			; 0.97388
	DD	03f79ae92r			; 0.97532
	DD	03f7a085br			; 0.97669
	DD	03f7a5eddr			; 0.97801
	DD	03f7ab0c9r			; 0.97926
	DD	03f7afec5r			; 0.98045
	DD	03f7b48d4r			; 0.98158
	DD	03f7b8f9br			; 0.98266
	DD	03f7bd31cr			; 0.98369
	DD	03f7c1355r			; 0.98467
	DD	03f7c5048r			; 0.9856
	DD	03f7c89f4r			; 0.98648
	DD	03f7cc101r			; 0.98732
	DD	03f7cf4c7r			; 0.98811
	DD	03f7d25eer			; 0.98886
	DD	03f7d551dr			; 0.98958
	DD	03f7d8106r			; 0.99025
	DD	03f7daaf8r			; 0.99089
	DD	03f7dd24ar			; 0.99149
	DD	03f7df7a5r			; 0.99206
	DD	03f7e1b09r			; 0.9926
	DD	03f7e3c75r			; 0.99311
	DD	03f7e5bear			; 0.99359
	DD	03f7e7968r			; 0.99404
	DD	03f7e94eer			; 0.99446
	DD	03f7eaf25r			; 0.99486
	DD	03f7ec765r			; 0.99523
	DD	03f7edefcr			; 0.99559
	DD	03f7ef49dr			; 0.99592
	DD	03f7f08eer			; 0.99623
	DD	03f7f1befr			; 0.99652
	DD	03f7f2da1r			; 0.99679
	DD	03f7f3eabr			; 0.99705
	DD	03f7f4e66r			; 0.99729
	DD	03f7f5cd1r			; 0.99751
	DD	03f7f6a94r			; 0.99772
	DD	03f7f77afr			; 0.99792
	DD	03f7f837br			; 0.9981
	DD	03f7f8e9fr			; 0.99827
	DD	03f7f991cr			; 0.99843
	DD	03f7fa249r			; 0.99857
	DD	03f7fab75r			; 0.99871
	DD	03f7fb3far			; 0.99884
	DD	03f7fbbd8r			; 0.99896
	DD	03f7fc30dr			; 0.99907
	DD	03f7fc99br			; 0.99917
	DD	03f7fcf81r			; 0.99926
	DD	03f7fd567r			; 0.99935
	DD	03f7fdaa5r			; 0.99943
	DD	03f7fdfe3r			; 0.99951
	DD	03f7fe47ar			; 0.99958
	DD	03f7fe868r			; 0.99964
	DD	03f7fec57r			; 0.9997
	DD	03f7fef9er			; 0.99975
	DD	03f7ff2e5r			; 0.9998
	DD	03f7ff62br			; 0.99985
	DD	03f7ff8cbr			; 0.99989
	DD	03f7ffb6ar			; 0.99993
	DD	03f7ffe09r			; 0.99997
	DD	03f800000r			; 1
CONST	ENDS
;	COMDAT ??_C@_06LLMJLOGJ@gr_md2@
CONST	SEGMENT
??_C@_06LLMJLOGJ@gr_md2@ DB 'gr_md2', 00H		; `string'
CONST	ENDS
;	COMDAT ??_C@_03FNJAPEGP@Old@
CONST	SEGMENT
??_C@_03FNJAPEGP@Old@ DB 'Old', 00H			; `string'
CONST	ENDS
;	COMDAT ??_C@_0O@IBNFDMGB@gr_solvetjoin@
CONST	SEGMENT
??_C@_0O@IBNFDMGB@gr_solvetjoin@ DB 'gr_solvetjoin', 00H ; `string'
CONST	ENDS
;	COMDAT ??_C@_02IAAGKKDJ@On@
CONST	SEGMENT
??_C@_02IAAGKKDJ@On@ DB 'On', 00H			; `string'
CONST	ENDS
;	COMDAT ??_C@_0BB@IJGGDDPK@gr_correcttricks@
CONST	SEGMENT
??_C@_0BB@IJGGDDPK@gr_correcttricks@ DB 'gr_correcttricks', 00H ; `string'
CONST	ENDS
;	COMDAT ??_C@_01HIHLOKLC@1@
CONST	SEGMENT
??_C@_01HIHLOKLC@1@ DB '1', 00H				; `string'
CONST	ENDS
;	COMDAT ??_C@_0BD@FFELLCOO@gr_anisotropicmode@
CONST	SEGMENT
??_C@_0BD@FFELLCOO@gr_anisotropicmode@ DB 'gr_anisotropicmode', 00H ; `string'
CONST	ENDS
;	COMDAT ??_C@_0O@JOBKFGEH@gr_filtermode@
CONST	SEGMENT
??_C@_0O@JOBKFGEH@gr_filtermode@ DB 'gr_filtermode', 00H ; `string'
CONST	ENDS
;	COMDAT ??_C@_03GLMKKOKP@150@
CONST	SEGMENT
??_C@_03GLMKKOKP@150@ DB '150', 00H			; `string'
CONST	ENDS
;	COMDAT ??_C@_0O@BJBEMDAE@gr_fogdensity@
CONST	SEGMENT
??_C@_0O@BJBEMDAE@gr_fogdensity@ DB 'gr_fogdensity', 00H ; `string'
CONST	ENDS
;	COMDAT ??_C@_02PEECMOAB@90@
CONST	SEGMENT
??_C@_02PEECMOAB@90@ DB '90', 00H			; `string'
CONST	ENDS
;	COMDAT ??_C@_06PEIIFMII@gr_fov@
CONST	SEGMENT
??_C@_06PEIIFMII@gr_fov@ DB 'gr_fov', 00H		; `string'
CONST	ENDS
;	COMDAT ??_C@_01GBGANLPD@0@
CONST	SEGMENT
??_C@_01GBGANLPD@0@ DB '0', 00H				; `string'
CONST	ENDS
;	COMDAT ??_C@_07GMIELGC@gr_beta@
CONST	SEGMENT
??_C@_07GMIELGC@gr_beta@ DB 'gr_beta', 00H		; `string'
CONST	ENDS
;	COMDAT ??_C@_03GCDBBDDL@Off@
CONST	SEGMENT
??_C@_03GCDBBDDL@Off@ DB 'Off', 00H			; `string'
CONST	ENDS
;	COMDAT ??_C@_0N@IFCNMGME@gr_clipwalls@
CONST	SEGMENT
??_C@_0N@IFCNMGME@gr_clipwalls@ DB 'gr_clipwalls', 00H	; `string'
CONST	ENDS
;	COMDAT ??_C@_0P@FNOJEIGN@Nearest_Mipmap@
CONST	SEGMENT
??_C@_0P@FNOJEIGN@Nearest_Mipmap@ DB 'Nearest_Mipmap', 00H ; `string'
CONST	ENDS
;	COMDAT ??_C@_0P@NDMMCAFH@Nearest_Linear@
CONST	SEGMENT
??_C@_0P@NDMMCAFH@Nearest_Linear@ DB 'Nearest_Linear', 00H ; `string'
CONST	ENDS
;	COMDAT ??_C@_0P@LLHPLAOD@Linear_Nearest@
CONST	SEGMENT
??_C@_0P@LLHPLAOD@Linear_Nearest@ DB 'Linear_Nearest', 00H ; `string'
CONST	ENDS
;	COMDAT ??_C@_09KAHAONAF@Trilinear@
CONST	SEGMENT
??_C@_09KAHAONAF@Trilinear@ DB 'Trilinear', 00H		; `string'
CONST	ENDS
;	COMDAT ??_C@_08DLDNHHDN@Bilinear@
CONST	SEGMENT
??_C@_08DLDNHHDN@Bilinear@ DB 'Bilinear', 00H		; `string'
CONST	ENDS
;	COMDAT ??_C@_07COOCJBJB@Nearest@
CONST	SEGMENT
??_C@_07COOCJBJB@Nearest@ DB 'Nearest', 00H		; `string'
CONST	ENDS
;	COMDAT ??_C@_03LEPPJAKI@MAX@
CONST	SEGMENT
??_C@_03LEPPJAKI@MAX@ DB 'MAX', 00H			; `string'
CONST	ENDS
;	COMDAT ??_C@_03KGHEHEMH@MIN@
CONST	SEGMENT
??_C@_03KGHEHEMH@MIN@ DB 'MIN', 00H			; `string'
CONST	ENDS
_DATA	SEGMENT
_granisotropicmode_cons_t DD 01H
	DD	FLAT:??_C@_03KGHEHEMH@MIN@
	DD	010H
	DD	FLAT:??_C@_03LEPPJAKI@MAX@
	DD	00H
	DD	00H
_cv_grfov DD	FLAT:??_C@_06PEIIFMII@gr_fov@
	DD	FLAT:??_C@_02PEECMOAB@90@
	DD	012H
	DD	FLAT:_grfov_cons_t
	DD	FLAT:_CV_grFov_OnChange
	DD	00H
	DD	00H
	DD	00H
	DW	00H
	DB	00H
	ORG $+1
	DD	00H
_cv_grmd2 DD	FLAT:??_C@_06LLMJLOGJ@gr_md2@
	DD	FLAT:??_C@_03GCDBBDDL@Off@
	DD	00H
	DD	FLAT:_CV_MD2
	DD	00H
	DD	00H
	DD	00H
	DD	00H
	DW	00H
	DB	00H
	ORG $+1
	DD	00H
_cv_grfogdensity DD FLAT:??_C@_0O@BJBEMDAE@gr_fogdensity@
	DD	FLAT:??_C@_03GLMKKOKP@150@
	DD	00H
	DD	FLAT:_CV_Unsigned
	DD	FLAT:_CV_FogDensity_ONChange
	DD	00H
	DD	00H
	DD	00H
	DW	00H
	DB	00H
	ORG $+1
	DD	00H
_cv_grfiltermode DD FLAT:??_C@_0O@JOBKFGEH@gr_filtermode@
	DD	FLAT:??_C@_07COOCJBJB@Nearest@
	DD	02H
	DD	FLAT:_grfiltermode_cons_t
	DD	FLAT:_CV_filtermode_ONChange
	DD	00H
	DD	00H
	DD	00H
	DW	00H
	DB	00H
	ORG $+1
	DD	00H
_cv_granisotropicmode DD FLAT:??_C@_0BD@FFELLCOO@gr_anisotropicmode@
	DD	FLAT:??_C@_01HIHLOKLC@1@
	DD	02H
	DD	FLAT:_granisotropicmode_cons_t
	DD	FLAT:_CV_anisotropic_ONChange
	DD	00H
	DD	00H
	DD	00H
	DW	00H
	DB	00H
	ORG $+1
	DD	00H
_cv_grcorrecttricks DD FLAT:??_C@_0BB@IJGGDDPK@gr_correcttricks@
	DD	FLAT:??_C@_02IAAGKKDJ@On@
	DD	00H
	DD	FLAT:_CV_OnOff
	DD	00H
	DD	00H
	DD	00H
	DD	00H
	DW	00H
	DB	00H
	ORG $+1
	DD	00H
_cv_grsolvetjoin DD FLAT:??_C@_0O@IBNFDMGB@gr_solvetjoin@
	DD	FLAT:??_C@_02IAAGKKDJ@On@
	DD	00H
	DD	FLAT:_CV_OnOff
	DD	00H
	DD	00H
	DD	00H
	DD	00H
	DW	00H
	DB	00H
	ORG $+1
	DD	00H
_grfov_cons_t DD 00H
	DD	FLAT:??_C@_03KGHEHEMH@MIN@
	DD	0b30000H
	DD	FLAT:??_C@_03LEPPJAKI@MAX@
	DD	00H
	DD	00H
_grfiltermode_cons_t DD 00H
	DD	FLAT:??_C@_07COOCJBJB@Nearest@
	DD	01H
	DD	FLAT:??_C@_08DLDNHHDN@Bilinear@
	DD	02H
	DD	FLAT:??_C@_09KAHAONAF@Trilinear@
	DD	03H
	DD	FLAT:??_C@_0P@LLHPLAOD@Linear_Nearest@
	DD	04H
	DD	FLAT:??_C@_0P@NDMMCAFH@Nearest_Linear@
	DD	05H
	DD	FLAT:??_C@_0P@FNOJEIGN@Nearest_Mipmap@
	DD	00H
	DD	00H
_drawsky DD	01H
_CV_MD2	DD	00H
	DD	FLAT:??_C@_03GCDBBDDL@Off@
	DD	01H
	DD	FLAT:??_C@_02IAAGKKDJ@On@
	DD	02H
	DD	FLAT:??_C@_03FNJAPEGP@Old@
	DD	00H
	DD	00H
_DATA	ENDS
PUBLIC	_HWR_Startup
PUBLIC	_HWR_Shutdown
PUBLIC	_HWR_RenderPlayerView
PUBLIC	_HWR_InitTextureMapping
PUBLIC	_HWR_SetViewSize
PUBLIC	_HWR_AddCommands
PUBLIC	_transform
PUBLIC	_HWR_TranstableToAlpha
PUBLIC	_HWR_SetPaletteColor
PUBLIC	_HWR_GetTextureUsed
PUBLIC	_HWR_DoPostProcessor
PUBLIC	_HWR_StartScreenWipe
PUBLIC	_HWR_EndScreenWipe
PUBLIC	_HWR_DoScreenWipe
PUBLIC	_HWR_PrepFadeToBlack
PUBLIC	_HWR_DrawIntermissionBG
PUBLIC	_HWR_Lighting
PUBLIC	_LightLevelToLum
PUBLIC	_HWR_AddTransparentFloor
PUBLIC	??_C@_0DF@NEHIKJG@polygon?5size?5of?5?$CFd?5exceeds?5max?5@ ; `string'
PUBLIC	??_C@_06OJKJKEJ@?$CFd?9?$CFd?$HM@		; `string'
PUBLIC	??_C@_02PHMGELLB@?6?6@				; `string'
PUBLIC	??_C@_0EO@KAIJHMKB@Warning?3?5Mobj?5of?5type?5?$CFi?5with?5i@ ; `string'
PUBLIC	??_C@_0FJ@NMFIBIGD@Warning?3?5Mobj?5of?5type?5?$CFd?5with?5i@ ; `string'
PUBLIC	??_C@_0BN@JHLLNGNP@Patch?5info?5headers?3?5?$CF7Iu?5kb?6@ ; `string'
PUBLIC	??_C@_0BN@OJPDBFNN@3D?5Texture?5cache?5?5?3?5?$CF7Iu?5kb?6@ ; `string'
PUBLIC	??_C@_0BN@HKDLFOAP@Plane?5polygon?5?5?5?5?5?3?5?$CF7Iu?5kb?6@ ; `string'
PUBLIC	??_C@_08EPIIELDA@gr_stats@			; `string'
PUBLIC	??_C@_0P@OBNNGKIE@HWR_Startup?$CI?$CJ?6@	; `string'
PUBLIC	??_C@_07JPGFNJGE@FWATER1@			; `string'
PUBLIC	??_C@_06JBMCCDFI@WATER0@			; `string'
PUBLIC	??_C@_0BA@BOHMIMOL@HWR_Shutdown?$CI?$CJ?6@	; `string'
PUBLIC	__real@00000000
PUBLIC	__real@0000000000000000
PUBLIC	__real@3d0f5c29
PUBLIC	__real@3d340000
PUBLIC	__real@3e6147ae
PUBLIC	__real@3f666666
PUBLIC	__real@3f800000
PUBLIC	__real@3fcccccd
PUBLIC	__real@3ff0000000000000
PUBLIC	__real@40000000
PUBLIC	__real@400921fb54442d18
PUBLIC	__real@40400000
PUBLIC	__real@4076800000000000
PUBLIC	__real@407f5c29
PUBLIC	__real@40800000
PUBLIC	__real@40900000
PUBLIC	__real@40b00000
PUBLIC	__real@41300000
PUBLIC	__real@42000000
PUBLIC	__real@42240000
PUBLIC	__real@42480000
PUBLIC	__real@42800000
PUBLIC	__real@42c80000
PUBLIC	__real@42fe0000
PUBLIC	__real@43000000
PUBLIC	__real@43480000
PUBLIC	__real@437f0000
PUBLIC	__real@43800000
PUBLIC	__real@43a00000
PUBLIC	__real@44000000
PUBLIC	__real@4434c299
PUBLIC	__real@44800000
PUBLIC	__real@44cff0b8
PUBLIC	__real@45000000
PUBLIC	__real@45a32000
PUBLIC	__real@471d2300
PUBLIC	__real@47800000
PUBLIC	__real@bf800000
PUBLIC	__real@c0800000
PUBLIC	__real@c2480000
PUBLIC	__xmm@41f00000000000000000000000000000
EXTRN	_abs:PROC
EXTRN	_sin:PROC
EXTRN	_tan:PROC
EXTRN	_CONS_Printf:PROC
EXTRN	_FixedMul:PROC
EXTRN	_FixedDiv2:PROC
EXTRN	_FixedAngle:PROC
EXTRN	_COM_AddCommand:PROC
EXTRN	_CV_RegisterVar:PROC
EXTRN	_CV_Set:PROC
EXTRN	_NetUpdate:PROC
EXTRN	_HWR_InitPolyPool:PROC
EXTRN	_HWR_FreePolyPool:PROC
EXTRN	_HWR_InitTextureCache:PROC
EXTRN	_HWR_FreeTextureCache:PROC
EXTRN	_HWR_FreeExtraSubsectors:PROC
EXTRN	_HWR_GetFlat:PROC
EXTRN	_HWR_GetTexture:PROC
EXTRN	_HWR_GetMappedPatch:PROC
EXTRN	_HWR_InitMD2:PROC
EXTRN	_HWR_DrawMD2:PROC
EXTRN	_I_FinishUpdate:PROC
EXTRN	_P_ReturnThrustX:PROC
EXTRN	_P_ReturnThrustY:PROC
EXTRN	_P_SetPlayerMobjState:PROC
EXTRN	_P_SetMobjState:PROC
EXTRN	_R_PointOnSide:PROC
EXTRN	_R_PointToAngle:PROC
EXTRN	_R_PointInSubsector:PROC
EXTRN	_R_SetupFrame:PROC
EXTRN	_R_SortPolyObjects:PROC
EXTRN	_R_FakeFlat:PROC
EXTRN	_R_GetPlaneLight:PROC
EXTRN	_R_Prep3DFloors:PROC
EXTRN	_W_CheckNumForName:PROC
EXTRN	_W_GetNumForName:PROC
EXTRN	_W_LumpLength:PROC
EXTRN	_W_CachePatchNum:PROC
EXTRN	_Z_CheckHeap:PROC
EXTRN	_Z_Free:PROC
EXTRN	_Z_CallocAlign:PROC
EXTRN	_Z_ReallocAlign:PROC
EXTRN	_Z_TagUsage:PROC
EXTRN	_ST_doPaletteStuff:PROC
EXTRN	_I_OsPolling:PROC
EXTRN	@__security_check_cookie@4:PROC
EXTRN	__ftol3:PROC
EXTRN	_gamestate:DWORD
EXTRN	_M_Memcpy:DWORD
EXTRN	_finesine:BYTE
EXTRN	_finecosine:DWORD
EXTRN	_finetangent:BYTE
EXTRN	_sprnames:BYTE
EXTRN	_maptol:WORD
EXTRN	_netgame:DWORD
EXTRN	_multiplayer:DWORD
EXTRN	_splitscreen:DWORD
EXTRN	_cv_debug:DWORD
EXTRN	_postimgtype:DWORD
EXTRN	_consoleplayer:DWORD
EXTRN	_displayplayer:DWORD
EXTRN	_secondarydisplayplayer:DWORD
EXTRN	_cv_objectplace:BYTE
EXTRN	_vid:BYTE
EXTRN	_cv_grrenderquality:BYTE
EXTRN	_cv_grfog:BYTE
EXTRN	_cv_grsoftwarefog:BYTE
EXTRN	_extrasubsectors:DWORD
EXTRN	_gr_patch_scalex:DWORD
EXTRN	_gr_patch_scaley:DWORD
EXTRN	_patchformat:DWORD
EXTRN	_textureformat:DWORD
EXTRN	_md2_models:BYTE
EXTRN	_md2_playermodels:BYTE
EXTRN	_rendermode:DWORD
EXTRN	_leveltime:DWORD
EXTRN	_cv_cam_rotate:BYTE
EXTRN	_cv_cam2_rotate:BYTE
EXTRN	_stplyr:DWORD
EXTRN	_levelflats:DWORD
EXTRN	_textureheight:DWORD
EXTRN	_spritecachedinfo:DWORD
EXTRN	_colormaps:DWORD
EXTRN	_texturetranslation:DWORD
EXTRN	_numsprites:DWORD
EXTRN	_sprites:DWORD
EXTRN	_segs:DWORD
EXTRN	_sectors:DWORD
EXTRN	_numsubsectors:DWORD
EXTRN	_subsectors:DWORD
EXTRN	_numnodes:DWORD
EXTRN	_nodes:DWORD
EXTRN	_sides:DWORD
EXTRN	_viewx:DWORD
EXTRN	_viewy:DWORD
EXTRN	_viewz:DWORD
EXTRN	_viewangle:DWORD
EXTRN	_aimingangle:DWORD
EXTRN	_sscount:DWORD
EXTRN	_textures:DWORD
EXTRN	_viewcos:DWORD
EXTRN	_viewsin:DWORD
EXTRN	_validcount:DWORD
EXTRN	_cv_limitdraw:BYTE
EXTRN	_cv_shadow:BYTE
EXTRN	_cv_shadowoffs:BYTE
EXTRN	_checkcoord:BYTE
EXTRN	_numpolys:DWORD
EXTRN	_po_ptrs:DWORD
EXTRN	_skytexture:DWORD
EXTRN	_skyflatnum:DWORD
EXTRN	_skins:BYTE
EXTRN	_translationtables:BYTE
EXTRN	_defaulttranslationtables:DWORD
EXTRN	_bosstranslationtables:DWORD
EXTRN	_players:BYTE
EXTRN	_localangle:DWORD
EXTRN	_localangle2:DWORD
EXTRN	_localaiming:DWORD
EXTRN	_localaiming2:DWORD
EXTRN	_objectsdrawn:WORD
EXTRN	___security_cookie:DWORD
EXTRN	__fltused:DWORD
_BSS	SEGMENT
_gr_clipangle DD 01H DUP (?)
_gr_viewangletox DD 01000H DUP (?)
_gr_xtoviewangle DD 0781H DUP (?)
_gr_basecentery DD 01H DUP (?)
_gr_centerx DD	01H DUP (?)
_gr_centery DD	01H DUP (?)
_gr_viewwindowy DD 01H DUP (?)
_gr_windowcenterx DD 01H DUP (?)
_gr_windowcentery DD 01H DUP (?)
_gr_pspritexscale DD 01H DUP (?)
_gr_pspriteyscale DD 01H DUP (?)
_gr_curline DD	01H DUP (?)
_gr_sidedef DD	01H DUP (?)
_gr_linedef DD	01H DUP (?)
_gr_frontsector DD 01H DUP (?)
_gr_backsector DD 01H DUP (?)
_dup_viewx DD	01H DUP (?)
_dup_viewy DD	01H DUP (?)
_dup_viewz DD	01H DUP (?)
_dup_viewangle DD 01H DUP (?)
_gr_viewx DD	01H DUP (?)
_gr_viewy DD	01H DUP (?)
_gr_viewz DD	01H DUP (?)
_gr_viewsin DD	01H DUP (?)
_gr_viewcos DD	01H DUP (?)
_gr_viewludsin DD 01H DUP (?)
_gr_viewludcos DD 01H DUP (?)
_gr_fovlud DD	01H DUP (?)
_lightleveltonumlut DB 0100H DUP (?)
_planeVerts DB	0c000H DUP (?)
_hw_newend DD	01H DUP (?)
_gr_solidsegs DQ 03c1H DUP (?)
_doomwaterflat DD 01H DUP (?)
_gr_vissprites DB 01a000H DUP (?)
_gr_vissprite_p DD 01H DUP (?)
_gr_overflowsprite DB 034H DUP (?)
_gr_vsprsortedhead DB 034H DUP (?)
_wallinfo DD	01H DUP (?)
_numwalls DD	01H DUP (?)
_numplanes DD	01H DUP (?)
_planeinfo DD	01H DUP (?)
_drawcount DD	01H DUP (?)
_sectorlight DB	01H DUP (?)
	ALIGN	4

?startupdone@?1??HWR_Startup@@9@9 DD 01H DUP (?)	; `HWR_Startup'::`2'::startupdone
	ALIGN	8

?disStart@?2??HWR_DoPostProcessor@@9@9 DQ 01H DUP (?)	; `HWR_DoPostProcessor'::`3'::disStart
_BSS	ENDS
;	COMDAT __xmm@41f00000000000000000000000000000
CONST	SEGMENT
__xmm@41f00000000000000000000000000000 DB 00H, 00H, 00H, 00H, 00H, 00H, 00H
	DB	00H, 00H, 00H, 00H, 00H, 00H, 00H, 0f0H, 'A'
CONST	ENDS
;	COMDAT __real@c2480000
CONST	SEGMENT
__real@c2480000 DD 0c2480000r			; -50
CONST	ENDS
;	COMDAT __real@c0800000
CONST	SEGMENT
__real@c0800000 DD 0c0800000r			; -4
CONST	ENDS
;	COMDAT __real@bf800000
CONST	SEGMENT
__real@bf800000 DD 0bf800000r			; -1
CONST	ENDS
;	COMDAT __real@47800000
CONST	SEGMENT
__real@47800000 DD 047800000r			; 65536
CONST	ENDS
;	COMDAT __real@471d2300
CONST	SEGMENT
__real@471d2300 DD 0471d2300r			; 40227
CONST	ENDS
;	COMDAT __real@45a32000
CONST	SEGMENT
__real@45a32000 DD 045a32000r			; 5220
CONST	ENDS
;	COMDAT __real@45000000
CONST	SEGMENT
__real@45000000 DD 045000000r			; 2048
CONST	ENDS
;	COMDAT __real@44cff0b8
CONST	SEGMENT
__real@44cff0b8 DD 044cff0b8r			; 1663.52
CONST	ENDS
;	COMDAT __real@44800000
CONST	SEGMENT
__real@44800000 DD 044800000r			; 1024
CONST	ENDS
;	COMDAT __real@4434c299
CONST	SEGMENT
__real@4434c299 DD 04434c299r			; 723.041
CONST	ENDS
;	COMDAT __real@44000000
CONST	SEGMENT
__real@44000000 DD 044000000r			; 512
CONST	ENDS
;	COMDAT __real@43a00000
CONST	SEGMENT
__real@43a00000 DD 043a00000r			; 320
CONST	ENDS
;	COMDAT __real@43800000
CONST	SEGMENT
__real@43800000 DD 043800000r			; 256
CONST	ENDS
;	COMDAT __real@437f0000
CONST	SEGMENT
__real@437f0000 DD 0437f0000r			; 255
CONST	ENDS
;	COMDAT __real@43480000
CONST	SEGMENT
__real@43480000 DD 043480000r			; 200
CONST	ENDS
;	COMDAT __real@43000000
CONST	SEGMENT
__real@43000000 DD 043000000r			; 128
CONST	ENDS
;	COMDAT __real@42fe0000
CONST	SEGMENT
__real@42fe0000 DD 042fe0000r			; 127
CONST	ENDS
;	COMDAT __real@42c80000
CONST	SEGMENT
__real@42c80000 DD 042c80000r			; 100
CONST	ENDS
;	COMDAT __real@42800000
CONST	SEGMENT
__real@42800000 DD 042800000r			; 64
CONST	ENDS
;	COMDAT __real@42480000
CONST	SEGMENT
__real@42480000 DD 042480000r			; 50
CONST	ENDS
;	COMDAT __real@42240000
CONST	SEGMENT
__real@42240000 DD 042240000r			; 41
CONST	ENDS
;	COMDAT __real@42000000
CONST	SEGMENT
__real@42000000 DD 042000000r			; 32
CONST	ENDS
;	COMDAT __real@41300000
CONST	SEGMENT
__real@41300000 DD 041300000r			; 11
CONST	ENDS
;	COMDAT __real@40b00000
CONST	SEGMENT
__real@40b00000 DD 040b00000r			; 5.5
CONST	ENDS
;	COMDAT __real@40900000
CONST	SEGMENT
__real@40900000 DD 040900000r			; 4.5
CONST	ENDS
;	COMDAT __real@40800000
CONST	SEGMENT
__real@40800000 DD 040800000r			; 4
CONST	ENDS
;	COMDAT __real@407f5c29
CONST	SEGMENT
__real@407f5c29 DD 0407f5c29r			; 3.99
CONST	ENDS
;	COMDAT __real@4076800000000000
CONST	SEGMENT
__real@4076800000000000 DQ 04076800000000000r	; 360
CONST	ENDS
;	COMDAT __real@40400000
CONST	SEGMENT
__real@40400000 DD 040400000r			; 3
CONST	ENDS
;	COMDAT __real@400921fb54442d18
CONST	SEGMENT
__real@400921fb54442d18 DQ 0400921fb54442d18r	; 3.14159
CONST	ENDS
;	COMDAT __real@40000000
CONST	SEGMENT
__real@40000000 DD 040000000r			; 2
CONST	ENDS
;	COMDAT __real@3ff0000000000000
CONST	SEGMENT
__real@3ff0000000000000 DQ 03ff0000000000000r	; 1
CONST	ENDS
;	COMDAT __real@3fcccccd
CONST	SEGMENT
__real@3fcccccd DD 03fcccccdr			; 1.6
CONST	ENDS
;	COMDAT __real@3f800000
CONST	SEGMENT
__real@3f800000 DD 03f800000r			; 1
CONST	ENDS
;	COMDAT __real@3f666666
CONST	SEGMENT
__real@3f666666 DD 03f666666r			; 0.9
CONST	ENDS
;	COMDAT __real@3e6147ae
CONST	SEGMENT
__real@3e6147ae DD 03e6147aer			; 0.22
CONST	ENDS
;	COMDAT __real@3d340000
CONST	SEGMENT
__real@3d340000 DD 03d340000r			; 0.0439453
CONST	ENDS
;	COMDAT __real@3d0f5c29
CONST	SEGMENT
__real@3d0f5c29 DD 03d0f5c29r			; 0.035
CONST	ENDS
;	COMDAT __real@0000000000000000
CONST	SEGMENT
__real@0000000000000000 DQ 00000000000000000r	; 0
CONST	ENDS
;	COMDAT __real@00000000
CONST	SEGMENT
__real@00000000 DD 000000000r			; 0
CONST	ENDS
;	COMDAT ??_C@_0BA@BOHMIMOL@HWR_Shutdown?$CI?$CJ?6@
CONST	SEGMENT
??_C@_0BA@BOHMIMOL@HWR_Shutdown?$CI?$CJ?6@ DB 'HWR_Shutdown()', 0aH, 00H ; `string'
CONST	ENDS
;	COMDAT ??_C@_06JBMCCDFI@WATER0@
CONST	SEGMENT
??_C@_06JBMCCDFI@WATER0@ DB 'WATER0', 00H		; `string'
CONST	ENDS
;	COMDAT ??_C@_07JPGFNJGE@FWATER1@
CONST	SEGMENT
??_C@_07JPGFNJGE@FWATER1@ DB 'FWATER1', 00H		; `string'
CONST	ENDS
;	COMDAT ??_C@_0P@OBNNGKIE@HWR_Startup?$CI?$CJ?6@
CONST	SEGMENT
??_C@_0P@OBNNGKIE@HWR_Startup?$CI?$CJ?6@ DB 'HWR_Startup()', 0aH, 00H ; `string'
CONST	ENDS
;	COMDAT ??_C@_08EPIIELDA@gr_stats@
CONST	SEGMENT
??_C@_08EPIIELDA@gr_stats@ DB 'gr_stats', 00H		; `string'
CONST	ENDS
;	COMDAT ??_C@_0BN@HKDLFOAP@Plane?5polygon?5?5?5?5?5?3?5?$CF7Iu?5kb?6@
CONST	SEGMENT
??_C@_0BN@HKDLFOAP@Plane?5polygon?5?5?5?5?5?3?5?$CF7Iu?5kb?6@ DB 'Plane p'
	DB	'olygon     : %7Iu kb', 0aH, 00H		; `string'
CONST	ENDS
;	COMDAT ??_C@_0BN@OJPDBFNN@3D?5Texture?5cache?5?5?3?5?$CF7Iu?5kb?6@
CONST	SEGMENT
??_C@_0BN@OJPDBFNN@3D?5Texture?5cache?5?5?3?5?$CF7Iu?5kb?6@ DB '3D Textur'
	DB	'e cache  : %7Iu kb', 0aH, 00H		; `string'
CONST	ENDS
;	COMDAT ??_C@_0BN@JHLLNGNP@Patch?5info?5headers?3?5?$CF7Iu?5kb?6@
CONST	SEGMENT
??_C@_0BN@JHLLNGNP@Patch?5info?5headers?3?5?$CF7Iu?5kb?6@ DB 'Patch info '
	DB	'headers: %7Iu kb', 0aH, 00H			; `string'
CONST	ENDS
;	COMDAT ??_C@_0FJ@NMFIBIGD@Warning?3?5Mobj?5of?5type?5?$CFd?5with?5i@
CONST	SEGMENT
??_C@_0FJ@NMFIBIGD@Warning?3?5Mobj?5of?5type?5?$CFd?5with?5i@ DB 'Warning'
	DB	': Mobj of type %d with invalid sprite frame (%u/%Iu) of %s de'
	DB	'tected and removed.', 0aH, 00H		; `string'
CONST	ENDS
;	COMDAT ??_C@_0EO@KAIJHMKB@Warning?3?5Mobj?5of?5type?5?$CFi?5with?5i@
CONST	SEGMENT
??_C@_0EO@KAIJHMKB@Warning?3?5Mobj?5of?5type?5?$CFi?5with?5i@ DB 'Warning'
	DB	': Mobj of type %i with invalid sprite data (%d) detected and '
	DB	'removed.', 0aH, 00H				; `string'
CONST	ENDS
;	COMDAT ??_C@_02PHMGELLB@?6?6@
CONST	SEGMENT
??_C@_02PHMGELLB@?6?6@ DB 0aH, 0aH, 00H			; `string'
CONST	ENDS
;	COMDAT ??_C@_06OJKJKEJ@?$CFd?9?$CFd?$HM@
CONST	SEGMENT
??_C@_06OJKJKEJ@?$CFd?9?$CFd?$HM@ DB '%d-%d|', 00H	; `string'
CONST	ENDS
;	COMDAT ??_C@_0DF@NEHIKJG@polygon?5size?5of?5?$CFd?5exceeds?5max?5@
CONST	SEGMENT
??_C@_0DF@NEHIKJG@polygon?5size?5of?5?$CFd?5exceeds?5max?5@ DB 'polygon s'
	DB	'ize of %d exceeds max value of %d vertices', 0aH, 00H ; `string'
CONST	ENDS
_DATA	SEGMENT
_cv_grclipwalls DD FLAT:??_C@_0N@IFCNMGME@gr_clipwalls@
	DD	FLAT:??_C@_03GCDBBDDL@Off@
	DD	00H
	DD	FLAT:_CV_OnOff
	DD	00H
	DD	00H
	DD	00H
	DD	00H
	DW	00H
	DB	00H
	ORG $+1
	DD	00H
_cv_grbeta DD	FLAT:??_C@_07GMIELGC@gr_beta@
	DD	FLAT:??_C@_01GBGANLPD@0@
	DD	00H
	DD	FLAT:_CV_Unsigned
	DD	00H
	DD	00H
	DD	00H
	DD	00H
	DW	00H
	DB	00H
	ORG $+1
	DD	00H
_HWRWipeCounter DD 03f800000r			; 1
_DATA	ENDS
;	COMDAT voltbl
voltbl	SEGMENT
_volmd	DW	010H
	DW	0426H
voltbl	ENDS
;	COMDAT voltbl
voltbl	SEGMENT
_volmd	DW	010H
	DW	01adH
voltbl	ENDS
;	COMDAT voltbl
voltbl	SEGMENT
_volmd	DW	010H
	DW	01c3dH
voltbl	ENDS
;	COMDAT voltbl
voltbl	SEGMENT
_volmd	DW	010H
	DW	02274H
voltbl	ENDS
;	COMDAT voltbl
voltbl	SEGMENT
_volmd	DW	010H
	DW	01c2H
voltbl	ENDS
;	COMDAT voltbl
voltbl	SEGMENT
_volmd	DW	010H
	DW	014fH
voltbl	ENDS
;	COMDAT voltbl
voltbl	SEGMENT
_volmd	DW	010H
	DW	0496H
voltbl	ENDS
; Function compile flags: /Odtp /ZI
; File C:\Users\RafaTheFox\Desktop\SRB2-Public-master (1)\SRB2-Public-master\src\hardware\hw_main.c
;	COMDAT _HWR_AddEngineCommands
_TEXT	SEGMENT
_HWR_AddEngineCommands PROC				; COMDAT

; 4906 : {

  00000	55		 push	 ebp
  00001	8b ec		 mov	 ebp, esp
  00003	83 ec 40	 sub	 esp, 64			; 00000040H
  00006	53		 push	 ebx
  00007	56		 push	 esi
  00008	57		 push	 edi

; 4907 : 	// engine state variables
; 4908 : 	CV_RegisterVar(&cv_grclipwalls);

  00009	68 00 00 00 00	 push	 OFFSET _cv_grclipwalls
  0000e	e8 00 00 00 00	 call	 _CV_RegisterVar
  00013	83 c4 04	 add	 esp, 4

; 4909 : 
; 4910 : 	// engine development mode variables
; 4911 : 	// - usage may vary from version to version..
; 4912 : 	CV_RegisterVar(&cv_grbeta);

  00016	68 00 00 00 00	 push	 OFFSET _cv_grbeta
  0001b	e8 00 00 00 00	 call	 _CV_RegisterVar
  00020	83 c4 04	 add	 esp, 4

; 4913 : 
; 4914 : 	// engine commands
; 4915 : 	COM_AddCommand("gr_stats", Command_GrStats_f);

  00023	68 00 00 00 00	 push	 OFFSET _Command_GrStats_f
  00028	68 00 00 00 00	 push	 OFFSET ??_C@_08EPIIELDA@gr_stats@
  0002d	e8 00 00 00 00	 call	 _COM_AddCommand
  00032	83 c4 08	 add	 esp, 8

; 4916 : }

  00035	5f		 pop	 edi
  00036	5e		 pop	 esi
  00037	5b		 pop	 ebx
  00038	8b e5		 mov	 esp, ebp
  0003a	5d		 pop	 ebp
  0003b	c3		 ret	 0
_HWR_AddEngineCommands ENDP
_TEXT	ENDS
; Function compile flags: /Odtp /ZI
; File C:\Users\RafaTheFox\Desktop\SRB2-Public-master (1)\SRB2-Public-master\src\hardware\hw_main.c
;	COMDAT _Command_GrStats_f
_TEXT	SEGMENT
_Command_GrStats_f PROC					; COMDAT

; 4877 : {

  00000	55		 push	 ebp
  00001	8b ec		 mov	 ebp, esp
  00003	83 ec 40	 sub	 esp, 64			; 00000040H
  00006	53		 push	 ebx
  00007	56		 push	 esi
  00008	57		 push	 edi

; 4878 : 	Z_CheckHeap(9875); // debug

  00009	68 93 26 00 00	 push	 9875			; 00002693H
  0000e	e8 00 00 00 00	 call	 _Z_CheckHeap
  00013	83 c4 04	 add	 esp, 4

; 4879 : 
; 4880 : 	CONS_Printf("Patch info headers: %7"PRIdS" kb\n", Z_TagUsage(PU_HWRPATCHINFO)>>10);

  00016	6a 05		 push	 5
  00018	e8 00 00 00 00	 call	 _Z_TagUsage
  0001d	83 c4 04	 add	 esp, 4
  00020	c1 e8 0a	 shr	 eax, 10			; 0000000aH
  00023	50		 push	 eax
  00024	68 00 00 00 00	 push	 OFFSET ??_C@_0BN@JHLLNGNP@Patch?5info?5headers?3?5?$CF7Iu?5kb?6@
  00029	e8 00 00 00 00	 call	 _CONS_Printf
  0002e	83 c4 08	 add	 esp, 8

; 4881 : 	CONS_Printf("3D Texture cache  : %7"PRIdS" kb\n", Z_TagUsage(PU_HWRCACHE)>>10);

  00031	6a 66		 push	 102			; 00000066H
  00033	e8 00 00 00 00	 call	 _Z_TagUsage
  00038	83 c4 04	 add	 esp, 4
  0003b	c1 e8 0a	 shr	 eax, 10			; 0000000aH
  0003e	50		 push	 eax
  0003f	68 00 00 00 00	 push	 OFFSET ??_C@_0BN@OJPDBFNN@3D?5Texture?5cache?5?5?3?5?$CF7Iu?5kb?6@
  00044	e8 00 00 00 00	 call	 _CONS_Printf
  00049	83 c4 08	 add	 esp, 8

; 4882 : 	CONS_Printf("Plane polygon     : %7"PRIdS" kb\n", Z_TagUsage(PU_HWRPLANE)>>10);

  0004c	6a 34		 push	 52			; 00000034H
  0004e	e8 00 00 00 00	 call	 _Z_TagUsage
  00053	83 c4 04	 add	 esp, 4
  00056	c1 e8 0a	 shr	 eax, 10			; 0000000aH
  00059	50		 push	 eax
  0005a	68 00 00 00 00	 push	 OFFSET ??_C@_0BN@HKDLFOAP@Plane?5polygon?5?5?5?5?5?3?5?$CF7Iu?5kb?6@
  0005f	e8 00 00 00 00	 call	 _CONS_Printf
  00064	83 c4 08	 add	 esp, 8

; 4883 : }

  00067	5f		 pop	 edi
  00068	5e		 pop	 esi
  00069	5b		 pop	 ebx
  0006a	8b e5		 mov	 esp, ebp
  0006c	5d		 pop	 ebp
  0006d	c3		 ret	 0
_Command_GrStats_f ENDP
_TEXT	ENDS
; Function compile flags: /Odtp /ZI
; File C:\Users\RafaTheFox\Desktop\SRB2-Public-master (1)\SRB2-Public-master\src\hardware\hw_main.c
;	COMDAT _HWR_ClearView
_TEXT	SEGMENT
_HWR_ClearView PROC					; COMDAT

; 4541 : {

  00000	55		 push	 ebp
  00001	8b ec		 mov	 ebp, esp
  00003	83 ec 40	 sub	 esp, 64			; 00000040H
  00006	53		 push	 ebx
  00007	56		 push	 esi
  00008	57		 push	 edi

; 4542 : 	//  3--2
; 4543 : 	//  | /|
; 4544 : 	//  |/ |
; 4545 : 	//  0--1
; 4546 : 
; 4547 : 	/// \bug faB - enable depth mask, disable color mask
; 4548 : 
; 4549 : 	HWD.pfnGClipRect((INT32)gr_viewwindowx,

  00009	51		 push	 ecx
  0000a	f3 0f 10 05 00
	00 00 00	 movss	 xmm0, DWORD PTR __real@407f5c29
  00012	f3 0f 11 04 24	 movss	 DWORD PTR [esp], xmm0
  00017	f3 0f 10 05 00
	00 00 00	 movss	 xmm0, DWORD PTR _gr_viewwindowy
  0001f	f3 0f 58 05 00
	00 00 00	 addss	 xmm0, DWORD PTR _gr_viewheight
  00027	f3 0f 2c c0	 cvttss2si eax, xmm0
  0002b	50		 push	 eax
  0002c	f3 0f 10 05 00
	00 00 00	 movss	 xmm0, DWORD PTR _gr_viewwindowx
  00034	f3 0f 58 05 00
	00 00 00	 addss	 xmm0, DWORD PTR _gr_viewwidth
  0003c	f3 0f 2c c8	 cvttss2si ecx, xmm0
  00040	51		 push	 ecx
  00041	f3 0f 2c 15 00
	00 00 00	 cvttss2si edx, DWORD PTR _gr_viewwindowy
  00049	52		 push	 edx
  0004a	f3 0f 2c 05 00
	00 00 00	 cvttss2si eax, DWORD PTR _gr_viewwindowx
  00052	50		 push	 eax
  00053	ff 15 24 00 00
	00		 call	 DWORD PTR _hwdriver+36
  00059	90		 npad	 1

; 4550 : 	                 (INT32)gr_viewwindowy,
; 4551 : 	                 (INT32)(gr_viewwindowx + gr_viewwidth),
; 4552 : 	                 (INT32)(gr_viewwindowy + gr_viewheight),
; 4553 : 	                 3.99f);
; 4554 : 	HWD.pfnClearBuffer(false, true, 0);

  0005a	6a 00		 push	 0
  0005c	6a 01		 push	 1
  0005e	6a 00		 push	 0
  00060	ff 15 18 00 00
	00		 call	 DWORD PTR _hwdriver+24
  00066	90		 npad	 1

; 4555 : 
; 4556 : 	//disable clip window - set to full size
; 4557 : 	// rem by Hurdler
; 4558 : 	// HWD.pfnGClipRect(0, 0, vid.width, vid.height);
; 4559 : }

  00067	5f		 pop	 edi
  00068	5e		 pop	 esi
  00069	5b		 pop	 ebx
  0006a	8b e5		 mov	 esp, ebp
  0006c	5d		 pop	 ebp
  0006d	c3		 ret	 0
_HWR_ClearView ENDP
_TEXT	ENDS
; Function compile flags: /Odtp /ZI
; File C:\Users\RafaTheFox\Desktop\SRB2-Public-master (1)\SRB2-Public-master\src\hardware\hw_main.c
;	COMDAT _HWR_DrawSkyBackground
_TEXT	SEGMENT
tv301 = -184						; size = 8
tv187 = -176						; size = 4
tv203 = -176						; size = 4
tv234 = -176						; size = 4
tv250 = -176						; size = 4
tv298 = -176						; size = 4
_f$ = -108						; size = 4
_angle$ = -104						; size = 4
_v$ = -100						; size = 96
__$ArrayPad$ = -4					; size = 4
_player$ = 8						; size = 4
_HWR_DrawSkyBackground PROC				; COMDAT

; 4489 : {

  00000	55		 push	 ebp
  00001	8b ec		 mov	 ebp, esp
  00003	81 ec b8 00 00
	00		 sub	 esp, 184		; 000000b8H
  00009	a1 00 00 00 00	 mov	 eax, DWORD PTR ___security_cookie
  0000e	33 c5		 xor	 eax, ebp
  00010	89 45 fc	 mov	 DWORD PTR __$ArrayPad$[ebp], eax
  00013	53		 push	 ebx
  00014	56		 push	 esi
  00015	57		 push	 edi

; 4490 : 	FOutVector v[4];
; 4491 : 	angle_t angle;
; 4492 : 	float f;
; 4493 : 
; 4494 : //  3--2
; 4495 : //  | /|
; 4496 : //  |/ |
; 4497 : //  0--1
; 4498 : 
; 4499 : 	player = NULL;

  00016	c7 45 08 00 00
	00 00		 mov	 DWORD PTR _player$[ebp], 0

; 4500 : 	HWR_GetTexture(skytexture);

  0001d	a1 00 00 00 00	 mov	 eax, DWORD PTR _skytexture
  00022	50		 push	 eax
  00023	e8 00 00 00 00	 call	 _HWR_GetTexture
  00028	83 c4 04	 add	 esp, 4

; 4501 : 
; 4502 : 	//Hurdler: the sky is the only texture who need 4.0f instead of 1.0
; 4503 : 	//         because it's called just after clearing the screen
; 4504 : 	//         and thus, the near clipping plane is set to 3.99
; 4505 : 	v[0].x = v[3].x = -4.0f;

  0002b	b8 18 00 00 00	 mov	 eax, 24			; 00000018H
  00030	6b c8 03	 imul	 ecx, eax, 3
  00033	f3 0f 10 05 00
	00 00 00	 movss	 xmm0, DWORD PTR __real@c0800000
  0003b	f3 0f 11 44 0d
	9c		 movss	 DWORD PTR _v$[ebp+ecx], xmm0
  00041	ba 18 00 00 00	 mov	 edx, 24			; 00000018H
  00046	6b c2 00	 imul	 eax, edx, 0
  00049	f3 0f 10 05 00
	00 00 00	 movss	 xmm0, DWORD PTR __real@c0800000
  00051	f3 0f 11 44 05
	9c		 movss	 DWORD PTR _v$[ebp+eax], xmm0

; 4506 : 	v[1].x = v[2].x =  4.0f;

  00057	b8 18 00 00 00	 mov	 eax, 24			; 00000018H
  0005c	d1 e0		 shl	 eax, 1
  0005e	f3 0f 10 05 00
	00 00 00	 movss	 xmm0, DWORD PTR __real@40800000
  00066	f3 0f 11 44 05
	9c		 movss	 DWORD PTR _v$[ebp+eax], xmm0
  0006c	b9 18 00 00 00	 mov	 ecx, 24			; 00000018H
  00071	c1 e1 00	 shl	 ecx, 0
  00074	f3 0f 10 05 00
	00 00 00	 movss	 xmm0, DWORD PTR __real@40800000
  0007c	f3 0f 11 44 0d
	9c		 movss	 DWORD PTR _v$[ebp+ecx], xmm0

; 4507 : 	v[0].y = v[1].y = -4.0f;

  00082	b8 18 00 00 00	 mov	 eax, 24			; 00000018H
  00087	c1 e0 00	 shl	 eax, 0
  0008a	f3 0f 10 05 00
	00 00 00	 movss	 xmm0, DWORD PTR __real@c0800000
  00092	f3 0f 11 44 05
	a0		 movss	 DWORD PTR _v$[ebp+eax+4], xmm0
  00098	b9 18 00 00 00	 mov	 ecx, 24			; 00000018H
  0009d	6b d1 00	 imul	 edx, ecx, 0
  000a0	f3 0f 10 05 00
	00 00 00	 movss	 xmm0, DWORD PTR __real@c0800000
  000a8	f3 0f 11 44 15
	a0		 movss	 DWORD PTR _v$[ebp+edx+4], xmm0

; 4508 : 	v[2].y = v[3].y =  4.0f;

  000ae	b8 18 00 00 00	 mov	 eax, 24			; 00000018H
  000b3	6b c8 03	 imul	 ecx, eax, 3
  000b6	f3 0f 10 05 00
	00 00 00	 movss	 xmm0, DWORD PTR __real@40800000
  000be	f3 0f 11 44 0d
	a0		 movss	 DWORD PTR _v$[ebp+ecx+4], xmm0
  000c4	ba 18 00 00 00	 mov	 edx, 24			; 00000018H
  000c9	d1 e2		 shl	 edx, 1
  000cb	f3 0f 10 05 00
	00 00 00	 movss	 xmm0, DWORD PTR __real@40800000
  000d3	f3 0f 11 44 15
	a0		 movss	 DWORD PTR _v$[ebp+edx+4], xmm0

; 4509 : 
; 4510 : 	v[0].z = v[1].z = v[2].z = v[3].z = 4.0f;

  000d9	b8 18 00 00 00	 mov	 eax, 24			; 00000018H
  000de	6b c8 03	 imul	 ecx, eax, 3
  000e1	f3 0f 10 05 00
	00 00 00	 movss	 xmm0, DWORD PTR __real@40800000
  000e9	f3 0f 11 44 0d
	a4		 movss	 DWORD PTR _v$[ebp+ecx+8], xmm0
  000ef	ba 18 00 00 00	 mov	 edx, 24			; 00000018H
  000f4	d1 e2		 shl	 edx, 1
  000f6	f3 0f 10 05 00
	00 00 00	 movss	 xmm0, DWORD PTR __real@40800000
  000fe	f3 0f 11 44 15
	a4		 movss	 DWORD PTR _v$[ebp+edx+8], xmm0
  00104	b8 18 00 00 00	 mov	 eax, 24			; 00000018H
  00109	c1 e0 00	 shl	 eax, 0
  0010c	f3 0f 10 05 00
	00 00 00	 movss	 xmm0, DWORD PTR __real@40800000
  00114	f3 0f 11 44 05
	a4		 movss	 DWORD PTR _v$[ebp+eax+8], xmm0
  0011a	b9 18 00 00 00	 mov	 ecx, 24			; 00000018H
  0011f	6b d1 00	 imul	 edx, ecx, 0
  00122	f3 0f 10 05 00
	00 00 00	 movss	 xmm0, DWORD PTR __real@40800000
  0012a	f3 0f 11 44 15
	a4		 movss	 DWORD PTR _v$[ebp+edx+8], xmm0

; 4511 : 
; 4512 : 	if (textures[skytexture]->width > 256)

  00130	a1 00 00 00 00	 mov	 eax, DWORD PTR _skytexture
  00135	8b 0d 00 00 00
	00		 mov	 ecx, DWORD PTR _textures
  0013b	8b 14 81	 mov	 edx, DWORD PTR [ecx+eax*4]
  0013e	0f bf 42 08	 movsx	 eax, WORD PTR [edx+8]
  00142	3d 00 01 00 00	 cmp	 eax, 256		; 00000100H
  00147	7e 7a		 jle	 SHORT $LN2@HWR_DrawSk

; 4513 : 		angle = (angle_t)((float)(dup_viewangle + gr_xtoviewangle[0])

  00149	b8 04 00 00 00	 mov	 eax, 4
  0014e	6b c8 00	 imul	 ecx, eax, 0
  00151	8b 15 00 00 00
	00		 mov	 edx, DWORD PTR _dup_viewangle
  00157	03 91 00 00 00
	00		 add	 edx, DWORD PTR _gr_xtoviewangle[ecx]
  0015d	89 95 50 ff ff
	ff		 mov	 DWORD PTR tv298[ebp], edx
  00163	f2 0f 2a 85 50
	ff ff ff	 cvtsi2sd xmm0, DWORD PTR tv298[ebp]
  0016b	8b 85 50 ff ff
	ff		 mov	 eax, DWORD PTR tv298[ebp]
  00171	c1 e8 1f	 shr	 eax, 31			; 0000001fH
  00174	f2 0f 58 04 c5
	00 00 00 00	 addsd	 xmm0, QWORD PTR __xmm@41f00000000000000000000000000000[eax*8]
  0017d	f2 0f 11 85 48
	ff ff ff	 movsd	 QWORD PTR tv301[ebp], xmm0
  00185	f2 0f 5a 85 48
	ff ff ff	 cvtsd2ss xmm0, QWORD PTR tv301[ebp]
  0018d	8b 0d 00 00 00
	00		 mov	 ecx, DWORD PTR _skytexture
  00193	8b 15 00 00 00
	00		 mov	 edx, DWORD PTR _textures
  00199	8b 04 8a	 mov	 eax, DWORD PTR [edx+ecx*4]
  0019c	0f bf 48 08	 movsx	 ecx, WORD PTR [eax+8]
  001a0	f3 0f 2a c9	 cvtsi2ss xmm1, ecx
  001a4	f3 0f 5e 0d 00
	00 00 00	 divss	 xmm1, DWORD PTR __real@43800000
  001ac	f3 0f 5e c1	 divss	 xmm0, xmm1
  001b0	e8 00 00 00 00	 call	 __ftol3
  001b5	33 d2		 xor	 edx, edx
  001b7	b9 ff ff ff 3f	 mov	 ecx, 1073741823		; 3fffffffH
  001bc	f7 f1		 div	 ecx
  001be	89 55 98	 mov	 DWORD PTR _angle$[ebp], edx
  001c1	eb 1f		 jmp	 SHORT $LN3@HWR_DrawSk
$LN2@HWR_DrawSk:

; 4514 : 						/((float)textures[skytexture]->width/256.0f))
; 4515 : 							%(ANGLE_90-1);
; 4516 : 	else
; 4517 : 		angle = (dup_viewangle + gr_xtoviewangle[0])%(ANGLE_90-1);

  001c3	b8 04 00 00 00	 mov	 eax, 4
  001c8	6b c8 00	 imul	 ecx, eax, 0
  001cb	a1 00 00 00 00	 mov	 eax, DWORD PTR _dup_viewangle
  001d0	03 81 00 00 00
	00		 add	 eax, DWORD PTR _gr_xtoviewangle[ecx]
  001d6	33 d2		 xor	 edx, edx
  001d8	b9 ff ff ff 3f	 mov	 ecx, 1073741823		; 3fffffffH
  001dd	f7 f1		 div	 ecx
  001df	89 55 98	 mov	 DWORD PTR _angle$[ebp], edx
$LN3@HWR_DrawSk:

; 4518 : 
; 4519 : 	f = (float)((textures[skytexture]->width/2)

  001e2	a1 00 00 00 00	 mov	 eax, DWORD PTR _skytexture
  001e7	8b 0d 00 00 00
	00		 mov	 ecx, DWORD PTR _textures
  001ed	8b 14 81	 mov	 edx, DWORD PTR [ecx+eax*4]
  001f0	0f bf 42 08	 movsx	 eax, WORD PTR [edx+8]
  001f4	99		 cdq
  001f5	2b c2		 sub	 eax, edx
  001f7	d1 f8		 sar	 eax, 1
  001f9	f3 0f 2a c0	 cvtsi2ss xmm0, eax
  001fd	8b 45 98	 mov	 eax, DWORD PTR _angle$[ebp]
  00200	c1 f8 14	 sar	 eax, 20			; 00000014H
  00203	b9 00 08 00 00	 mov	 ecx, 2048		; 00000800H
  00208	2b c8		 sub	 ecx, eax
  0020a	81 e1 ff 1f 00
	00		 and	 ecx, 8191		; 00001fffH
  00210	f3 0f 2a 0c 8d
	00 00 00 00	 cvtsi2ss xmm1, DWORD PTR _finetangent[ecx*4]
  00219	f3 0f 5e 0d 00
	00 00 00	 divss	 xmm1, DWORD PTR __real@47800000
  00221	f3 0f 59 c1	 mulss	 xmm0, xmm1
  00225	f3 0f 11 45 94	 movss	 DWORD PTR _f$[ebp], xmm0

; 4520 : 	            * FIXED_TO_FLOAT(finetangent[(2048
; 4521 : 	 - ((INT32)angle>>(ANGLETOFINESHIFT + 1))) & FINEMASK]));
; 4522 : 
; 4523 : 	v[0].sow = v[3].sow = 0.22f+(f)/(textures[skytexture]->width/2);

  0022a	a1 00 00 00 00	 mov	 eax, DWORD PTR _skytexture
  0022f	8b 0d 00 00 00
	00		 mov	 ecx, DWORD PTR _textures
  00235	8b 14 81	 mov	 edx, DWORD PTR [ecx+eax*4]
  00238	0f bf 42 08	 movsx	 eax, WORD PTR [edx+8]
  0023c	99		 cdq
  0023d	2b c2		 sub	 eax, edx
  0023f	d1 f8		 sar	 eax, 1
  00241	f3 0f 2a c0	 cvtsi2ss xmm0, eax
  00245	f3 0f 10 4d 94	 movss	 xmm1, DWORD PTR _f$[ebp]
  0024a	f3 0f 5e c8	 divss	 xmm1, xmm0
  0024e	f3 0f 10 05 00
	00 00 00	 movss	 xmm0, DWORD PTR __real@3e6147ae
  00256	f3 0f 58 c1	 addss	 xmm0, xmm1
  0025a	f3 0f 11 85 50
	ff ff ff	 movss	 DWORD PTR tv187[ebp], xmm0
  00262	b8 18 00 00 00	 mov	 eax, 24			; 00000018H
  00267	6b c8 03	 imul	 ecx, eax, 3
  0026a	f3 0f 10 85 50
	ff ff ff	 movss	 xmm0, DWORD PTR tv187[ebp]
  00272	f3 0f 11 44 0d
	ac		 movss	 DWORD PTR _v$[ebp+ecx+16], xmm0
  00278	ba 18 00 00 00	 mov	 edx, 24			; 00000018H
  0027d	6b c2 00	 imul	 eax, edx, 0
  00280	f3 0f 10 85 50
	ff ff ff	 movss	 xmm0, DWORD PTR tv187[ebp]
  00288	f3 0f 11 44 05
	ac		 movss	 DWORD PTR _v$[ebp+eax+16], xmm0

; 4524 : 	v[2].sow = v[1].sow = 0.22f+(f+(127))/(textures[skytexture]->width/2);

  0028e	f3 0f 10 45 94	 movss	 xmm0, DWORD PTR _f$[ebp]
  00293	f3 0f 58 05 00
	00 00 00	 addss	 xmm0, DWORD PTR __real@42fe0000
  0029b	a1 00 00 00 00	 mov	 eax, DWORD PTR _skytexture
  002a0	8b 0d 00 00 00
	00		 mov	 ecx, DWORD PTR _textures
  002a6	8b 14 81	 mov	 edx, DWORD PTR [ecx+eax*4]
  002a9	0f bf 42 08	 movsx	 eax, WORD PTR [edx+8]
  002ad	99		 cdq
  002ae	2b c2		 sub	 eax, edx
  002b0	d1 f8		 sar	 eax, 1
  002b2	f3 0f 2a c8	 cvtsi2ss xmm1, eax
  002b6	f3 0f 5e c1	 divss	 xmm0, xmm1
  002ba	f3 0f 10 0d 00
	00 00 00	 movss	 xmm1, DWORD PTR __real@3e6147ae
  002c2	f3 0f 58 c8	 addss	 xmm1, xmm0
  002c6	f3 0f 11 8d 50
	ff ff ff	 movss	 DWORD PTR tv203[ebp], xmm1
  002ce	b8 18 00 00 00	 mov	 eax, 24			; 00000018H
  002d3	c1 e0 00	 shl	 eax, 0
  002d6	f3 0f 10 85 50
	ff ff ff	 movss	 xmm0, DWORD PTR tv203[ebp]
  002de	f3 0f 11 44 05
	ac		 movss	 DWORD PTR _v$[ebp+eax+16], xmm0
  002e4	b9 18 00 00 00	 mov	 ecx, 24			; 00000018H
  002e9	d1 e1		 shl	 ecx, 1
  002eb	f3 0f 10 85 50
	ff ff ff	 movss	 xmm0, DWORD PTR tv203[ebp]
  002f3	f3 0f 11 44 0d
	ac		 movss	 DWORD PTR _v$[ebp+ecx+16], xmm0

; 4525 : 
; 4526 : 	f = (float)((textures[skytexture]->height/2)

  002f9	a1 00 00 00 00	 mov	 eax, DWORD PTR _skytexture
  002fe	8b 0d 00 00 00
	00		 mov	 ecx, DWORD PTR _textures
  00304	8b 14 81	 mov	 edx, DWORD PTR [ecx+eax*4]
  00307	0f bf 42 0a	 movsx	 eax, WORD PTR [edx+10]
  0030b	99		 cdq
  0030c	2b c2		 sub	 eax, edx
  0030e	d1 f8		 sar	 eax, 1
  00310	f3 0f 2a c0	 cvtsi2ss xmm0, eax
  00314	a1 00 00 00 00	 mov	 eax, DWORD PTR _aimingangle
  00319	c1 f8 14	 sar	 eax, 20			; 00000014H
  0031c	b9 00 08 00 00	 mov	 ecx, 2048		; 00000800H
  00321	2b c8		 sub	 ecx, eax
  00323	81 e1 ff 1f 00
	00		 and	 ecx, 8191		; 00001fffH
  00329	f3 0f 2a 0c 8d
	00 00 00 00	 cvtsi2ss xmm1, DWORD PTR _finetangent[ecx*4]
  00332	f3 0f 5e 0d 00
	00 00 00	 divss	 xmm1, DWORD PTR __real@47800000
  0033a	f3 0f 59 c1	 mulss	 xmm0, xmm1
  0033e	f3 0f 11 45 94	 movss	 DWORD PTR _f$[ebp], xmm0

; 4527 : 	            * FIXED_TO_FLOAT(finetangent[(2048
; 4528 : 	 - ((INT32)aimingangle>>(ANGLETOFINESHIFT + 1))) & FINEMASK]));
; 4529 : 
; 4530 : 	v[3].tow = v[2].tow = 0.22f+(f)/(textures[skytexture]->height/2);

  00343	a1 00 00 00 00	 mov	 eax, DWORD PTR _skytexture
  00348	8b 0d 00 00 00
	00		 mov	 ecx, DWORD PTR _textures
  0034e	8b 14 81	 mov	 edx, DWORD PTR [ecx+eax*4]
  00351	0f bf 42 0a	 movsx	 eax, WORD PTR [edx+10]
  00355	99		 cdq
  00356	2b c2		 sub	 eax, edx
  00358	d1 f8		 sar	 eax, 1
  0035a	f3 0f 2a c0	 cvtsi2ss xmm0, eax
  0035e	f3 0f 10 4d 94	 movss	 xmm1, DWORD PTR _f$[ebp]
  00363	f3 0f 5e c8	 divss	 xmm1, xmm0
  00367	f3 0f 10 05 00
	00 00 00	 movss	 xmm0, DWORD PTR __real@3e6147ae
  0036f	f3 0f 58 c1	 addss	 xmm0, xmm1
  00373	f3 0f 11 85 50
	ff ff ff	 movss	 DWORD PTR tv234[ebp], xmm0
  0037b	b8 18 00 00 00	 mov	 eax, 24			; 00000018H
  00380	d1 e0		 shl	 eax, 1
  00382	f3 0f 10 85 50
	ff ff ff	 movss	 xmm0, DWORD PTR tv234[ebp]
  0038a	f3 0f 11 44 05
	b0		 movss	 DWORD PTR _v$[ebp+eax+20], xmm0
  00390	b9 18 00 00 00	 mov	 ecx, 24			; 00000018H
  00395	6b d1 03	 imul	 edx, ecx, 3
  00398	f3 0f 10 85 50
	ff ff ff	 movss	 xmm0, DWORD PTR tv234[ebp]
  003a0	f3 0f 11 44 15
	b0		 movss	 DWORD PTR _v$[ebp+edx+20], xmm0

; 4531 : 	v[0].tow = v[1].tow = 0.22f+(f+(127))/(textures[skytexture]->height/2);

  003a6	f3 0f 10 45 94	 movss	 xmm0, DWORD PTR _f$[ebp]
  003ab	f3 0f 58 05 00
	00 00 00	 addss	 xmm0, DWORD PTR __real@42fe0000
  003b3	a1 00 00 00 00	 mov	 eax, DWORD PTR _skytexture
  003b8	8b 0d 00 00 00
	00		 mov	 ecx, DWORD PTR _textures
  003be	8b 14 81	 mov	 edx, DWORD PTR [ecx+eax*4]
  003c1	0f bf 42 0a	 movsx	 eax, WORD PTR [edx+10]
  003c5	99		 cdq
  003c6	2b c2		 sub	 eax, edx
  003c8	d1 f8		 sar	 eax, 1
  003ca	f3 0f 2a c8	 cvtsi2ss xmm1, eax
  003ce	f3 0f 5e c1	 divss	 xmm0, xmm1
  003d2	f3 0f 10 0d 00
	00 00 00	 movss	 xmm1, DWORD PTR __real@3e6147ae
  003da	f3 0f 58 c8	 addss	 xmm1, xmm0
  003de	f3 0f 11 8d 50
	ff ff ff	 movss	 DWORD PTR tv250[ebp], xmm1
  003e6	b8 18 00 00 00	 mov	 eax, 24			; 00000018H
  003eb	c1 e0 00	 shl	 eax, 0
  003ee	f3 0f 10 85 50
	ff ff ff	 movss	 xmm0, DWORD PTR tv250[ebp]
  003f6	f3 0f 11 44 05
	b0		 movss	 DWORD PTR _v$[ebp+eax+20], xmm0
  003fc	b9 18 00 00 00	 mov	 ecx, 24			; 00000018H
  00401	6b d1 00	 imul	 edx, ecx, 0
  00404	f3 0f 10 85 50
	ff ff ff	 movss	 xmm0, DWORD PTR tv250[ebp]
  0040c	f3 0f 11 44 15
	b0		 movss	 DWORD PTR _v$[ebp+edx+20], xmm0

; 4532 : 
; 4533 : 	HWD.pfnDrawPolygon(NULL, v, 4, 0);

  00412	6a 00		 push	 0
  00414	6a 04		 push	 4
  00416	8d 45 9c	 lea	 eax, DWORD PTR _v$[ebp]
  00419	50		 push	 eax
  0041a	6a 00		 push	 0
  0041c	ff 15 10 00 00
	00		 call	 DWORD PTR _hwdriver+16
  00422	90		 npad	 1

; 4534 : }

  00423	5f		 pop	 edi
  00424	5e		 pop	 esi
  00425	5b		 pop	 ebx
  00426	8b 4d fc	 mov	 ecx, DWORD PTR __$ArrayPad$[ebp]
  00429	33 cd		 xor	 ecx, ebp
  0042b	e8 00 00 00 00	 call	 @__security_check_cookie@4
  00430	8b e5		 mov	 esp, ebp
  00432	5d		 pop	 ebp
  00433	c3		 ret	 0
_HWR_DrawSkyBackground ENDP
_TEXT	ENDS
; Function compile flags: /Odtp /ZI
; File C:\Users\RafaTheFox\Desktop\SRB2-Public-master (1)\SRB2-Public-master\src\hardware\hw_main.c
;	COMDAT _HWR_DrawMD2S
_TEXT	SEGMENT
_spr$1 = -4						; size = 4
_HWR_DrawMD2S PROC					; COMDAT

; 4090 : {

  00000	55		 push	 ebp
  00001	8b ec		 mov	 ebp, esp
  00003	83 ec 44	 sub	 esp, 68			; 00000044H
  00006	53		 push	 ebx
  00007	56		 push	 esi
  00008	57		 push	 edi

; 4091 : 	if (gr_vissprite_p > gr_vissprites)

  00009	81 3d 00 00 00
	00 00 00 00 00	 cmp	 DWORD PTR _gr_vissprite_p, OFFSET _gr_vissprites
  00013	0f 86 ce 00 00
	00		 jbe	 $LN3@HWR_DrawMD

; 4092 : 	{
; 4093 : 		gr_vissprite_t *spr;
; 4094 : 
; 4095 : 		// draw all MD2 back to front
; 4096 : 		for (spr = gr_vsprsortedhead.next;

  00019	a1 04 00 00 00	 mov	 eax, DWORD PTR _gr_vsprsortedhead+4
  0001e	89 45 fc	 mov	 DWORD PTR _spr$1[ebp], eax
  00021	eb 09		 jmp	 SHORT $LN4@HWR_DrawMD
$LN2@HWR_DrawMD:

; 4098 : 			spr = spr->next)

  00023	8b 45 fc	 mov	 eax, DWORD PTR _spr$1[ebp]
  00026	8b 48 04	 mov	 ecx, DWORD PTR [eax+4]
  00029	89 4d fc	 mov	 DWORD PTR _spr$1[ebp], ecx
$LN4@HWR_DrawMD:

; 4097 : 			spr != &gr_vsprsortedhead;

  0002c	81 7d fc 00 00
	00 00		 cmp	 DWORD PTR _spr$1[ebp], OFFSET _gr_vsprsortedhead
  00033	0f 84 ae 00 00
	00		 je	 $LN3@HWR_DrawMD

; 4099 : 		{
; 4100 : #ifdef HWPRECIP
; 4101 : 			if (!spr->precip)
; 4102 : 			{
; 4103 : #endif
; 4104 : 				if (spr->mobj && spr->mobj->skin)

  00039	8b 45 fc	 mov	 eax, DWORD PTR _spr$1[ebp]
  0003c	83 78 24 00	 cmp	 DWORD PTR [eax+36], 0
  00040	74 66		 je	 SHORT $LN6@HWR_DrawMD
  00042	8b 45 fc	 mov	 eax, DWORD PTR _spr$1[ebp]
  00045	8b 48 24	 mov	 ecx, DWORD PTR [eax+36]
  00048	83 79 64 00	 cmp	 DWORD PTR [ecx+100], 0
  0004c	74 5a		 je	 SHORT $LN6@HWR_DrawMD

; 4105 : 				{
; 4106 : 					if ((md2_playermodels[(skin_t*)spr->mobj->skin-skins].notfound == false) && (md2_playermodels[(skin_t*)spr->mobj->skin-skins].scale > 0.0f))

  0004e	8b 45 fc	 mov	 eax, DWORD PTR _spr$1[ebp]
  00051	8b 48 24	 mov	 ecx, DWORD PTR [eax+36]
  00054	8b 41 64	 mov	 eax, DWORD PTR [ecx+100]
  00057	2d 00 00 00 00	 sub	 eax, OFFSET _skins
  0005c	99		 cdq
  0005d	b9 ec 00 00 00	 mov	 ecx, 236		; 000000ecH
  00062	f7 f9		 idiv	 ecx
  00064	6b d0 38	 imul	 edx, eax, 56
  00067	83 ba 30 00 00
	00 00		 cmp	 DWORD PTR _md2_playermodels[edx+48], 0
  0006e	75 36		 jne	 SHORT $LN8@HWR_DrawMD
  00070	8b 45 fc	 mov	 eax, DWORD PTR _spr$1[ebp]
  00073	8b 48 24	 mov	 ecx, DWORD PTR [eax+36]
  00076	8b 41 64	 mov	 eax, DWORD PTR [ecx+100]
  00079	2d 00 00 00 00	 sub	 eax, OFFSET _skins
  0007e	99		 cdq
  0007f	b9 ec 00 00 00	 mov	 ecx, 236		; 000000ecH
  00084	f7 f9		 idiv	 ecx
  00086	6b d0 38	 imul	 edx, eax, 56
  00089	f3 0f 10 82 20
	00 00 00	 movss	 xmm0, DWORD PTR _md2_playermodels[edx+32]
  00091	0f 2f 05 00 00
	00 00		 comiss	 xmm0, DWORD PTR __real@00000000
  00098	76 0c		 jbe	 SHORT $LN8@HWR_DrawMD

; 4107 : 						HWR_DrawMD2(spr);

  0009a	8b 45 fc	 mov	 eax, DWORD PTR _spr$1[ebp]
  0009d	50		 push	 eax
  0009e	e8 00 00 00 00	 call	 _HWR_DrawMD2
  000a3	83 c4 04	 add	 esp, 4
$LN8@HWR_DrawMD:

; 4108 : 				}

  000a6	eb 3a		 jmp	 SHORT $LN9@HWR_DrawMD
$LN6@HWR_DrawMD:

; 4109 : 				else if (md2_models[spr->mobj->sprite].notfound == false && md2_models[spr->mobj->sprite].scale > 0.0f)

  000a8	8b 45 fc	 mov	 eax, DWORD PTR _spr$1[ebp]
  000ab	8b 48 24	 mov	 ecx, DWORD PTR [eax+36]
  000ae	6b 51 28 38	 imul	 edx, DWORD PTR [ecx+40], 56
  000b2	83 ba 30 00 00
	00 00		 cmp	 DWORD PTR _md2_models[edx+48], 0
  000b9	75 27		 jne	 SHORT $LN9@HWR_DrawMD
  000bb	8b 45 fc	 mov	 eax, DWORD PTR _spr$1[ebp]
  000be	8b 48 24	 mov	 ecx, DWORD PTR [eax+36]
  000c1	6b 51 28 38	 imul	 edx, DWORD PTR [ecx+40], 56
  000c5	f3 0f 10 82 20
	00 00 00	 movss	 xmm0, DWORD PTR _md2_models[edx+32]
  000cd	0f 2f 05 00 00
	00 00		 comiss	 xmm0, DWORD PTR __real@00000000
  000d4	76 0c		 jbe	 SHORT $LN9@HWR_DrawMD

; 4110 : 					HWR_DrawMD2(spr);

  000d6	8b 45 fc	 mov	 eax, DWORD PTR _spr$1[ebp]
  000d9	50		 push	 eax
  000da	e8 00 00 00 00	 call	 _HWR_DrawMD2
  000df	83 c4 04	 add	 esp, 4
$LN9@HWR_DrawMD:

; 4111 : #ifdef HWPRECIP
; 4112 : 			}
; 4113 : #endif
; 4114 : 		}

  000e2	e9 3c ff ff ff	 jmp	 $LN2@HWR_DrawMD
$LN3@HWR_DrawMD:

; 4115 : 	}
; 4116 : }

  000e7	5f		 pop	 edi
  000e8	5e		 pop	 esi
  000e9	5b		 pop	 ebx
  000ea	8b e5		 mov	 esp, ebp
  000ec	5d		 pop	 ebp
  000ed	c3		 ret	 0
_HWR_DrawMD2S ENDP
_TEXT	ENDS
; Function compile flags: /Odtp /ZI
; File C:\Users\RafaTheFox\Desktop\SRB2-Public-master (1)\SRB2-Public-master\src\hardware\hw_main.c
;	COMDAT _HWR_DrawSprites
_TEXT	SEGMENT
_spr$1 = -4						; size = 4
_HWR_DrawSprites PROC					; COMDAT

; 4060 : {

  00000	55		 push	 ebp
  00001	8b ec		 mov	 ebp, esp
  00003	83 ec 44	 sub	 esp, 68			; 00000044H
  00006	53		 push	 ebx
  00007	56		 push	 esi
  00008	57		 push	 edi

; 4061 : 	if (gr_vissprite_p > gr_vissprites)

  00009	81 3d 00 00 00
	00 00 00 00 00	 cmp	 DWORD PTR _gr_vissprite_p, OFFSET _gr_vissprites
  00013	0f 86 a4 00 00
	00		 jbe	 $LN3@HWR_DrawSp

; 4062 : 	{
; 4063 : 		gr_vissprite_t *spr;
; 4064 : 
; 4065 : 		// draw all vissprites back to front
; 4066 : 		for (spr = gr_vsprsortedhead.next;

  00019	a1 04 00 00 00	 mov	 eax, DWORD PTR _gr_vsprsortedhead+4
  0001e	89 45 fc	 mov	 DWORD PTR _spr$1[ebp], eax
  00021	eb 09		 jmp	 SHORT $LN4@HWR_DrawSp
$LN2@HWR_DrawSp:

; 4068 : 		     spr = spr->next)

  00023	8b 45 fc	 mov	 eax, DWORD PTR _spr$1[ebp]
  00026	8b 48 04	 mov	 ecx, DWORD PTR [eax+4]
  00029	89 4d fc	 mov	 DWORD PTR _spr$1[ebp], ecx
$LN4@HWR_DrawSp:

; 4067 : 		     spr != &gr_vsprsortedhead;

  0002c	81 7d fc 00 00
	00 00		 cmp	 DWORD PTR _spr$1[ebp], OFFSET _gr_vsprsortedhead
  00033	0f 84 84 00 00
	00		 je	 $LN3@HWR_DrawSp

; 4069 : 		{
; 4070 : #ifdef HWPRECIP
; 4071 : 			if (spr->precip)
; 4072 : 				HWR_DrawPrecipitationSprite(spr);
; 4073 : 			else
; 4074 : #endif
; 4075 : 				if (spr->mobj->skin)

  00039	8b 45 fc	 mov	 eax, DWORD PTR _spr$1[ebp]
  0003c	8b 48 24	 mov	 ecx, DWORD PTR [eax+36]
  0003f	83 79 64 00	 cmp	 DWORD PTR [ecx+100], 0
  00043	74 42		 je	 SHORT $LN6@HWR_DrawSp

; 4076 : 				{
; 4077 : 					if (!cv_grmd2.value || (cv_grmd2.value && md2_playermodels[(skin_t*)spr->mobj->skin-skins].notfound == true))

  00045	83 3d 14 00 00
	00 00		 cmp	 DWORD PTR _cv_grmd2+20, 0
  0004c	74 2b		 je	 SHORT $LN9@HWR_DrawSp
  0004e	83 3d 14 00 00
	00 00		 cmp	 DWORD PTR _cv_grmd2+20, 0
  00055	74 2e		 je	 SHORT $LN8@HWR_DrawSp
  00057	8b 45 fc	 mov	 eax, DWORD PTR _spr$1[ebp]
  0005a	8b 48 24	 mov	 ecx, DWORD PTR [eax+36]
  0005d	8b 41 64	 mov	 eax, DWORD PTR [ecx+100]
  00060	2d 00 00 00 00	 sub	 eax, OFFSET _skins
  00065	99		 cdq
  00066	b9 ec 00 00 00	 mov	 ecx, 236		; 000000ecH
  0006b	f7 f9		 idiv	 ecx
  0006d	6b d0 38	 imul	 edx, eax, 56
  00070	83 ba 30 00 00
	00 01		 cmp	 DWORD PTR _md2_playermodels[edx+48], 1
  00077	75 0c		 jne	 SHORT $LN8@HWR_DrawSp
$LN9@HWR_DrawSp:

; 4078 : 						HWR_DrawSprite(spr);

  00079	8b 45 fc	 mov	 eax, DWORD PTR _spr$1[ebp]
  0007c	50		 push	 eax
  0007d	e8 00 00 00 00	 call	 _HWR_DrawSprite
  00082	83 c4 04	 add	 esp, 4
$LN8@HWR_DrawSp:

; 4079 : 				}

  00085	eb 31		 jmp	 SHORT $LN10@HWR_DrawSp
$LN6@HWR_DrawSp:

; 4080 : 				else if (!cv_grmd2.value || (cv_grmd2.value && md2_models[spr->mobj->sprite].notfound == true))

  00087	83 3d 14 00 00
	00 00		 cmp	 DWORD PTR _cv_grmd2+20, 0
  0008e	74 1c		 je	 SHORT $LN11@HWR_DrawSp
  00090	83 3d 14 00 00
	00 00		 cmp	 DWORD PTR _cv_grmd2+20, 0
  00097	74 1f		 je	 SHORT $LN10@HWR_DrawSp
  00099	8b 45 fc	 mov	 eax, DWORD PTR _spr$1[ebp]
  0009c	8b 48 24	 mov	 ecx, DWORD PTR [eax+36]
  0009f	6b 51 28 38	 imul	 edx, DWORD PTR [ecx+40], 56
  000a3	83 ba 30 00 00
	00 01		 cmp	 DWORD PTR _md2_models[edx+48], 1
  000aa	75 0c		 jne	 SHORT $LN10@HWR_DrawSp
$LN11@HWR_DrawSp:

; 4081 : 					HWR_DrawSprite(spr);

  000ac	8b 45 fc	 mov	 eax, DWORD PTR _spr$1[ebp]
  000af	50		 push	 eax
  000b0	e8 00 00 00 00	 call	 _HWR_DrawSprite
  000b5	83 c4 04	 add	 esp, 4
$LN10@HWR_DrawSp:

; 4082 : 		}

  000b8	e9 66 ff ff ff	 jmp	 $LN2@HWR_DrawSp
$LN3@HWR_DrawSp:

; 4083 : 	}
; 4084 : }

  000bd	5f		 pop	 edi
  000be	5e		 pop	 esi
  000bf	5b		 pop	 ebx
  000c0	8b e5		 mov	 esp, ebp
  000c2	5d		 pop	 ebp
  000c3	c3		 ret	 0
_HWR_DrawSprites ENDP
_TEXT	ENDS
; Function compile flags: /Odtp /ZI
; File C:\Users\RafaTheFox\Desktop\SRB2-Public-master (1)\SRB2-Public-master\src\hardware\hw_main.c
;	COMDAT _HWR_CreateDrawNodes
_TEXT	SEGMENT
tv195 = -108						; size = 4
tv171 = -104						; size = 4
_temp$1 = -36						; size = 4
_shift$ = -32						; size = 4
_sortindex$ = -28					; size = 4
_sortnode$ = -24					; size = 4
_pviewz$ = -20						; size = 4
_loop$ = -16						; size = 4
_prev$ = -12						; size = 4
_p$ = -8						; size = 4
_i$ = -4						; size = 4
_HWR_CreateDrawNodes PROC				; COMDAT

; 3925 : {

  00000	55		 push	 ebp
  00001	8b ec		 mov	 ebp, esp
  00003	83 ec 6c	 sub	 esp, 108		; 0000006cH
  00006	53		 push	 ebx
  00007	56		 push	 esi
  00008	57		 push	 edi

; 3926 : 	UINT32 i = 0, p = 0, prev = 0, loop;

  00009	c7 45 fc 00 00
	00 00		 mov	 DWORD PTR _i$[ebp], 0
  00010	c7 45 f8 00 00
	00 00		 mov	 DWORD PTR _p$[ebp], 0
  00017	c7 45 f4 00 00
	00 00		 mov	 DWORD PTR _prev$[ebp], 0

; 3927 : 	const fixed_t pviewz = dup_viewz;

  0001e	a1 00 00 00 00	 mov	 eax, DWORD PTR _dup_viewz
  00023	89 45 ec	 mov	 DWORD PTR _pviewz$[ebp], eax

; 3928 : 
; 3929 : 	// Dump EVERYTHING into a huge drawnode list. Then we'll sort it!
; 3930 : 	// Could this be optimized into _AddTransparentWall/_AddTransparentPlane?
; 3931 : 	// Hell yes! But sort algorithm must be modified to use a linked list.
; 3932 : 	gr_drawnode_t *sortnode = Z_Calloc((sizeof(planeinfo_t)*numplanes)

  00026	6a 00		 push	 0
  00028	6a 00		 push	 0
  0002a	6a 01		 push	 1
  0002c	6b 05 00 00 00
	00 28		 imul	 eax, DWORD PTR _numplanes, 40
  00033	8b 0d 00 00 00
	00		 mov	 ecx, DWORD PTR _numwalls
  00039	c1 e1 07	 shl	 ecx, 7
  0003c	03 c1		 add	 eax, ecx
  0003e	50		 push	 eax
  0003f	e8 00 00 00 00	 call	 _Z_CallocAlign
  00044	83 c4 10	 add	 esp, 16			; 00000010H
  00047	89 45 e8	 mov	 DWORD PTR _sortnode$[ebp], eax

; 3933 : 									+ (sizeof(wallinfo_t)*numwalls)
; 3934 : 									,PU_STATIC, NULL);
; 3935 : 	// todo:
; 3936 : 	// However, in reality we shouldn't be re-copying and shifting all this information
; 3937 : 	// that is already lying around. This should all be in some sort of linked list or lists. -Jazz
; 3938 : 	size_t *sortindex = Z_Calloc(sizeof(size_t) * (numplanes + numwalls), PU_STATIC, NULL);

  0004a	6a 00		 push	 0
  0004c	6a 00		 push	 0
  0004e	6a 01		 push	 1
  00050	a1 00 00 00 00	 mov	 eax, DWORD PTR _numplanes
  00055	03 05 00 00 00
	00		 add	 eax, DWORD PTR _numwalls
  0005b	c1 e0 02	 shl	 eax, 2
  0005e	50		 push	 eax
  0005f	e8 00 00 00 00	 call	 _Z_CallocAlign
  00064	83 c4 10	 add	 esp, 16			; 00000010H
  00067	89 45 e4	 mov	 DWORD PTR _sortindex$[ebp], eax

; 3939 : 
; 3940 : 	// If true, swap the draw order.
; 3941 : 	boolean shift = false;

  0006a	c7 45 e0 00 00
	00 00		 mov	 DWORD PTR _shift$[ebp], 0

; 3942 : 
; 3943 : 	for (i = 0; i < numplanes; i++, p++)

  00071	c7 45 fc 00 00
	00 00		 mov	 DWORD PTR _i$[ebp], 0
  00078	eb 12		 jmp	 SHORT $LN4@HWR_Create
$LN2@HWR_Create:
  0007a	8b 45 fc	 mov	 eax, DWORD PTR _i$[ebp]
  0007d	83 c0 01	 add	 eax, 1
  00080	89 45 fc	 mov	 DWORD PTR _i$[ebp], eax
  00083	8b 4d f8	 mov	 ecx, DWORD PTR _p$[ebp]
  00086	83 c1 01	 add	 ecx, 1
  00089	89 4d f8	 mov	 DWORD PTR _p$[ebp], ecx
$LN4@HWR_Create:
  0008c	8b 45 fc	 mov	 eax, DWORD PTR _i$[ebp]
  0008f	3b 05 00 00 00
	00		 cmp	 eax, DWORD PTR _numplanes
  00095	73 22		 jae	 SHORT $LN3@HWR_Create

; 3944 : 	{
; 3945 : 		sortnode[p].plane = &planeinfo[i];

  00097	6b 45 fc 28	 imul	 eax, DWORD PTR _i$[ebp], 40
  0009b	03 05 00 00 00
	00		 add	 eax, DWORD PTR _planeinfo
  000a1	6b 4d f8 0c	 imul	 ecx, DWORD PTR _p$[ebp], 12
  000a5	8b 55 e8	 mov	 edx, DWORD PTR _sortnode$[ebp]
  000a8	89 04 0a	 mov	 DWORD PTR [edx+ecx], eax

; 3946 : 		sortindex[p] = p;

  000ab	8b 45 f8	 mov	 eax, DWORD PTR _p$[ebp]
  000ae	8b 4d e4	 mov	 ecx, DWORD PTR _sortindex$[ebp]
  000b1	8b 55 f8	 mov	 edx, DWORD PTR _p$[ebp]
  000b4	89 14 81	 mov	 DWORD PTR [ecx+eax*4], edx

; 3947 : 	}

  000b7	eb c1		 jmp	 SHORT $LN2@HWR_Create
$LN3@HWR_Create:

; 3948 : 
; 3949 : 	for (i = 0; i < numwalls; i++, p++)

  000b9	c7 45 fc 00 00
	00 00		 mov	 DWORD PTR _i$[ebp], 0
  000c0	eb 12		 jmp	 SHORT $LN7@HWR_Create
$LN5@HWR_Create:
  000c2	8b 45 fc	 mov	 eax, DWORD PTR _i$[ebp]
  000c5	83 c0 01	 add	 eax, 1
  000c8	89 45 fc	 mov	 DWORD PTR _i$[ebp], eax
  000cb	8b 4d f8	 mov	 ecx, DWORD PTR _p$[ebp]
  000ce	83 c1 01	 add	 ecx, 1
  000d1	89 4d f8	 mov	 DWORD PTR _p$[ebp], ecx
$LN7@HWR_Create:
  000d4	8b 45 fc	 mov	 eax, DWORD PTR _i$[ebp]
  000d7	3b 05 00 00 00
	00		 cmp	 eax, DWORD PTR _numwalls
  000dd	73 25		 jae	 SHORT $LN6@HWR_Create

; 3950 : 	{
; 3951 : 		sortnode[p].wall = &wallinfo[i];

  000df	8b 45 fc	 mov	 eax, DWORD PTR _i$[ebp]
  000e2	c1 e0 07	 shl	 eax, 7
  000e5	03 05 00 00 00
	00		 add	 eax, DWORD PTR _wallinfo
  000eb	6b 4d f8 0c	 imul	 ecx, DWORD PTR _p$[ebp], 12
  000ef	8b 55 e8	 mov	 edx, DWORD PTR _sortnode$[ebp]
  000f2	89 44 0a 04	 mov	 DWORD PTR [edx+ecx+4], eax

; 3952 : 		sortindex[p] = p;

  000f6	8b 45 f8	 mov	 eax, DWORD PTR _p$[ebp]
  000f9	8b 4d e4	 mov	 ecx, DWORD PTR _sortindex$[ebp]
  000fc	8b 55 f8	 mov	 edx, DWORD PTR _p$[ebp]
  000ff	89 14 81	 mov	 DWORD PTR [ecx+eax*4], edx

; 3953 : 	}

  00102	eb be		 jmp	 SHORT $LN5@HWR_Create
$LN6@HWR_Create:

; 3954 : 
; 3955 : 	// p is the number of stuff to sort
; 3956 : 
; 3957 : 	// Add the 3D floors, thicksides, and masked textures...
; 3958 : 	// Instead of going through drawsegs, we need to iterate
; 3959 : 	// through the lists of masked textures and
; 3960 : 	// translucent ffloors being drawn.
; 3961 : 
; 3962 : 	// This is a bubble sort! Wahoo!
; 3963 : 
; 3964 : 	// Stuff is sorted:
; 3965 : 	//      sortnode[sortindex[0]]   = farthest away
; 3966 : 	//      sortnode[sortindex[p-1]] = closest
; 3967 : 	// "i" should be closer. "prev" should be further.
; 3968 : 	// The lower drawcount is, the further it is from the screen.
; 3969 : 
; 3970 : 	for (loop = 0; loop < p; loop++)

  00104	c7 45 f0 00 00
	00 00		 mov	 DWORD PTR _loop$[ebp], 0
  0010b	eb 09		 jmp	 SHORT $LN10@HWR_Create
$LN8@HWR_Create:
  0010d	8b 45 f0	 mov	 eax, DWORD PTR _loop$[ebp]
  00110	83 c0 01	 add	 eax, 1
  00113	89 45 f0	 mov	 DWORD PTR _loop$[ebp], eax
$LN10@HWR_Create:
  00116	8b 45 f0	 mov	 eax, DWORD PTR _loop$[ebp]
  00119	3b 45 f8	 cmp	 eax, DWORD PTR _p$[ebp]
  0011c	0f 83 2e 02 00
	00		 jae	 $LN9@HWR_Create

; 3971 : 	{
; 3972 : 		for (i = 1; i < p; i++)

  00122	c7 45 fc 01 00
	00 00		 mov	 DWORD PTR _i$[ebp], 1
  00129	eb 09		 jmp	 SHORT $LN13@HWR_Create
$LN11@HWR_Create:
  0012b	8b 45 fc	 mov	 eax, DWORD PTR _i$[ebp]
  0012e	83 c0 01	 add	 eax, 1
  00131	89 45 fc	 mov	 DWORD PTR _i$[ebp], eax
$LN13@HWR_Create:
  00134	8b 45 fc	 mov	 eax, DWORD PTR _i$[ebp]
  00137	3b 45 f8	 cmp	 eax, DWORD PTR _p$[ebp]
  0013a	0f 83 0b 02 00
	00		 jae	 $LN12@HWR_Create

; 3973 : 		{
; 3974 : 			prev = i-1;

  00140	8b 45 fc	 mov	 eax, DWORD PTR _i$[ebp]
  00143	83 e8 01	 sub	 eax, 1
  00146	89 45 f4	 mov	 DWORD PTR _prev$[ebp], eax

; 3975 : 			if (sortnode[sortindex[i]].plane)

  00149	8b 45 fc	 mov	 eax, DWORD PTR _i$[ebp]
  0014c	8b 4d e4	 mov	 ecx, DWORD PTR _sortindex$[ebp]
  0014f	6b 14 81 0c	 imul	 edx, DWORD PTR [ecx+eax*4], 12
  00153	8b 45 e8	 mov	 eax, DWORD PTR _sortnode$[ebp]
  00156	83 3c 10 00	 cmp	 DWORD PTR [eax+edx], 0
  0015a	0f 84 0d 01 00
	00		 je	 $LN17@HWR_Create

; 3976 : 			{
; 3977 : 				// What are we comparing it with?
; 3978 : 				if (sortnode[sortindex[prev]].plane)

  00160	8b 45 f4	 mov	 eax, DWORD PTR _prev$[ebp]
  00163	8b 4d e4	 mov	 ecx, DWORD PTR _sortindex$[ebp]
  00166	6b 14 81 0c	 imul	 edx, DWORD PTR [ecx+eax*4], 12
  0016a	8b 45 e8	 mov	 eax, DWORD PTR _sortnode$[ebp]
  0016d	83 3c 10 00	 cmp	 DWORD PTR [eax+edx], 0
  00171	0f 84 ad 00 00
	00		 je	 $LN19@HWR_Create

; 3979 : 				{
; 3980 : 					// Plane (i) is further away than plane (prev)
; 3981 : 					if (ABS(sortnode[sortindex[i]].plane->fixedheight - pviewz) > ABS(sortnode[sortindex[prev]].plane->fixedheight - pviewz))

  00177	8b 45 fc	 mov	 eax, DWORD PTR _i$[ebp]
  0017a	8b 4d e4	 mov	 ecx, DWORD PTR _sortindex$[ebp]
  0017d	6b 14 81 0c	 imul	 edx, DWORD PTR [ecx+eax*4], 12
  00181	8b 45 e8	 mov	 eax, DWORD PTR _sortnode$[ebp]
  00184	8b 0c 10	 mov	 ecx, DWORD PTR [eax+edx]
  00187	8b 51 04	 mov	 edx, DWORD PTR [ecx+4]
  0018a	2b 55 ec	 sub	 edx, DWORD PTR _pviewz$[ebp]
  0018d	79 1d		 jns	 SHORT $LN37@HWR_Create
  0018f	8b 45 fc	 mov	 eax, DWORD PTR _i$[ebp]
  00192	8b 4d e4	 mov	 ecx, DWORD PTR _sortindex$[ebp]
  00195	6b 14 81 0c	 imul	 edx, DWORD PTR [ecx+eax*4], 12
  00199	8b 45 e8	 mov	 eax, DWORD PTR _sortnode$[ebp]
  0019c	8b 0c 10	 mov	 ecx, DWORD PTR [eax+edx]
  0019f	8b 51 04	 mov	 edx, DWORD PTR [ecx+4]
  001a2	2b 55 ec	 sub	 edx, DWORD PTR _pviewz$[ebp]
  001a5	f7 da		 neg	 edx
  001a7	89 55 98	 mov	 DWORD PTR tv171[ebp], edx
  001aa	eb 19		 jmp	 SHORT $LN38@HWR_Create
$LN37@HWR_Create:
  001ac	8b 45 fc	 mov	 eax, DWORD PTR _i$[ebp]
  001af	8b 4d e4	 mov	 ecx, DWORD PTR _sortindex$[ebp]
  001b2	6b 14 81 0c	 imul	 edx, DWORD PTR [ecx+eax*4], 12
  001b6	8b 45 e8	 mov	 eax, DWORD PTR _sortnode$[ebp]
  001b9	8b 0c 10	 mov	 ecx, DWORD PTR [eax+edx]
  001bc	8b 51 04	 mov	 edx, DWORD PTR [ecx+4]
  001bf	2b 55 ec	 sub	 edx, DWORD PTR _pviewz$[ebp]
  001c2	89 55 98	 mov	 DWORD PTR tv171[ebp], edx
$LN38@HWR_Create:
  001c5	8b 45 f4	 mov	 eax, DWORD PTR _prev$[ebp]
  001c8	8b 4d e4	 mov	 ecx, DWORD PTR _sortindex$[ebp]
  001cb	6b 14 81 0c	 imul	 edx, DWORD PTR [ecx+eax*4], 12
  001cf	8b 45 e8	 mov	 eax, DWORD PTR _sortnode$[ebp]
  001d2	8b 0c 10	 mov	 ecx, DWORD PTR [eax+edx]
  001d5	8b 51 04	 mov	 edx, DWORD PTR [ecx+4]
  001d8	2b 55 ec	 sub	 edx, DWORD PTR _pviewz$[ebp]
  001db	79 1d		 jns	 SHORT $LN39@HWR_Create
  001dd	8b 45 f4	 mov	 eax, DWORD PTR _prev$[ebp]
  001e0	8b 4d e4	 mov	 ecx, DWORD PTR _sortindex$[ebp]
  001e3	6b 14 81 0c	 imul	 edx, DWORD PTR [ecx+eax*4], 12
  001e7	8b 45 e8	 mov	 eax, DWORD PTR _sortnode$[ebp]
  001ea	8b 0c 10	 mov	 ecx, DWORD PTR [eax+edx]
  001ed	8b 51 04	 mov	 edx, DWORD PTR [ecx+4]
  001f0	2b 55 ec	 sub	 edx, DWORD PTR _pviewz$[ebp]
  001f3	f7 da		 neg	 edx
  001f5	89 55 94	 mov	 DWORD PTR tv195[ebp], edx
  001f8	eb 19		 jmp	 SHORT $LN40@HWR_Create
$LN39@HWR_Create:
  001fa	8b 45 f4	 mov	 eax, DWORD PTR _prev$[ebp]
  001fd	8b 4d e4	 mov	 ecx, DWORD PTR _sortindex$[ebp]
  00200	6b 14 81 0c	 imul	 edx, DWORD PTR [ecx+eax*4], 12
  00204	8b 45 e8	 mov	 eax, DWORD PTR _sortnode$[ebp]
  00207	8b 0c 10	 mov	 ecx, DWORD PTR [eax+edx]
  0020a	8b 51 04	 mov	 edx, DWORD PTR [ecx+4]
  0020d	2b 55 ec	 sub	 edx, DWORD PTR _pviewz$[ebp]
  00210	89 55 94	 mov	 DWORD PTR tv195[ebp], edx
$LN40@HWR_Create:
  00213	8b 45 98	 mov	 eax, DWORD PTR tv171[ebp]
  00216	3b 45 94	 cmp	 eax, DWORD PTR tv195[ebp]
  00219	7e 07		 jle	 SHORT $LN21@HWR_Create

; 3982 : 						shift = true;

  0021b	c7 45 e0 01 00
	00 00		 mov	 DWORD PTR _shift$[ebp], 1
$LN21@HWR_Create:

; 3983 : 				}

  00222	eb 44		 jmp	 SHORT $LN23@HWR_Create
$LN19@HWR_Create:

; 3984 : 				else if (sortnode[sortindex[prev]].wall)

  00224	8b 45 f4	 mov	 eax, DWORD PTR _prev$[ebp]
  00227	8b 4d e4	 mov	 ecx, DWORD PTR _sortindex$[ebp]
  0022a	6b 14 81 0c	 imul	 edx, DWORD PTR [ecx+eax*4], 12
  0022e	8b 45 e8	 mov	 eax, DWORD PTR _sortnode$[ebp]
  00231	83 7c 10 04 00	 cmp	 DWORD PTR [eax+edx+4], 0
  00236	74 30		 je	 SHORT $LN23@HWR_Create

; 3985 : 				{
; 3986 : 					// Plane (i) is further than wall (prev)
; 3987 : 					if (sortnode[sortindex[i]].plane->drawcount > sortnode[sortindex[prev]].wall->drawcount)

  00238	8b 45 fc	 mov	 eax, DWORD PTR _i$[ebp]
  0023b	8b 4d e4	 mov	 ecx, DWORD PTR _sortindex$[ebp]
  0023e	6b 14 81 0c	 imul	 edx, DWORD PTR [ecx+eax*4], 12
  00242	8b 45 e8	 mov	 eax, DWORD PTR _sortnode$[ebp]
  00245	8b 0c 10	 mov	 ecx, DWORD PTR [eax+edx]
  00248	8b 55 f4	 mov	 edx, DWORD PTR _prev$[ebp]
  0024b	8b 45 e4	 mov	 eax, DWORD PTR _sortindex$[ebp]
  0024e	6b 14 90 0c	 imul	 edx, DWORD PTR [eax+edx*4], 12
  00252	8b 45 e8	 mov	 eax, DWORD PTR _sortnode$[ebp]
  00255	8b 54 10 04	 mov	 edx, DWORD PTR [eax+edx+4]
  00259	8b 41 24	 mov	 eax, DWORD PTR [ecx+36]
  0025c	3b 42 70	 cmp	 eax, DWORD PTR [edx+112]
  0025f	7e 07		 jle	 SHORT $LN23@HWR_Create

; 3988 : 						shift = true;

  00261	c7 45 e0 01 00
	00 00		 mov	 DWORD PTR _shift$[ebp], 1
$LN23@HWR_Create:

; 3989 : 				}
; 3990 : 			}

  00268	e9 a2 00 00 00	 jmp	 $LN29@HWR_Create
$LN17@HWR_Create:

; 3991 : 			else if (sortnode[sortindex[i]].wall)

  0026d	8b 45 fc	 mov	 eax, DWORD PTR _i$[ebp]
  00270	8b 4d e4	 mov	 ecx, DWORD PTR _sortindex$[ebp]
  00273	6b 14 81 0c	 imul	 edx, DWORD PTR [ecx+eax*4], 12
  00277	8b 45 e8	 mov	 eax, DWORD PTR _sortnode$[ebp]
  0027a	83 7c 10 04 00	 cmp	 DWORD PTR [eax+edx+4], 0
  0027f	0f 84 8a 00 00
	00		 je	 $LN29@HWR_Create

; 3992 : 			{
; 3993 : 				// What are we comparing it with?
; 3994 : 				if (sortnode[sortindex[prev]].plane)

  00285	8b 45 f4	 mov	 eax, DWORD PTR _prev$[ebp]
  00288	8b 4d e4	 mov	 ecx, DWORD PTR _sortindex$[ebp]
  0028b	6b 14 81 0c	 imul	 edx, DWORD PTR [ecx+eax*4], 12
  0028f	8b 45 e8	 mov	 eax, DWORD PTR _sortnode$[ebp]
  00292	83 3c 10 00	 cmp	 DWORD PTR [eax+edx], 0
  00296	74 32		 je	 SHORT $LN25@HWR_Create

; 3995 : 				{
; 3996 : 					// Wall (i) is further than plane(prev)
; 3997 : 					if (sortnode[sortindex[i]].wall->drawcount > sortnode[sortindex[prev]].plane->drawcount)

  00298	8b 45 fc	 mov	 eax, DWORD PTR _i$[ebp]
  0029b	8b 4d e4	 mov	 ecx, DWORD PTR _sortindex$[ebp]
  0029e	6b 14 81 0c	 imul	 edx, DWORD PTR [ecx+eax*4], 12
  002a2	8b 45 e8	 mov	 eax, DWORD PTR _sortnode$[ebp]
  002a5	8b 4c 10 04	 mov	 ecx, DWORD PTR [eax+edx+4]
  002a9	8b 55 f4	 mov	 edx, DWORD PTR _prev$[ebp]
  002ac	8b 45 e4	 mov	 eax, DWORD PTR _sortindex$[ebp]
  002af	6b 14 90 0c	 imul	 edx, DWORD PTR [eax+edx*4], 12
  002b3	8b 45 e8	 mov	 eax, DWORD PTR _sortnode$[ebp]
  002b6	8b 14 10	 mov	 edx, DWORD PTR [eax+edx]
  002b9	8b 41 70	 mov	 eax, DWORD PTR [ecx+112]
  002bc	3b 42 24	 cmp	 eax, DWORD PTR [edx+36]
  002bf	7e 07		 jle	 SHORT $LN27@HWR_Create

; 3998 : 						shift = true;

  002c1	c7 45 e0 01 00
	00 00		 mov	 DWORD PTR _shift$[ebp], 1
$LN27@HWR_Create:

; 3999 : 				}

  002c8	eb 45		 jmp	 SHORT $LN29@HWR_Create
$LN25@HWR_Create:

; 4000 : 				else if (sortnode[sortindex[prev]].wall)

  002ca	8b 45 f4	 mov	 eax, DWORD PTR _prev$[ebp]
  002cd	8b 4d e4	 mov	 ecx, DWORD PTR _sortindex$[ebp]
  002d0	6b 14 81 0c	 imul	 edx, DWORD PTR [ecx+eax*4], 12
  002d4	8b 45 e8	 mov	 eax, DWORD PTR _sortnode$[ebp]
  002d7	83 7c 10 04 00	 cmp	 DWORD PTR [eax+edx+4], 0
  002dc	74 31		 je	 SHORT $LN29@HWR_Create

; 4001 : 				{
; 4002 : 					// Wall (i) is further than wall (prev)
; 4003 : 					if (sortnode[sortindex[i]].wall->drawcount > sortnode[sortindex[prev]].wall->drawcount)

  002de	8b 45 fc	 mov	 eax, DWORD PTR _i$[ebp]
  002e1	8b 4d e4	 mov	 ecx, DWORD PTR _sortindex$[ebp]
  002e4	6b 14 81 0c	 imul	 edx, DWORD PTR [ecx+eax*4], 12
  002e8	8b 45 e8	 mov	 eax, DWORD PTR _sortnode$[ebp]
  002eb	8b 4c 10 04	 mov	 ecx, DWORD PTR [eax+edx+4]
  002ef	8b 55 f4	 mov	 edx, DWORD PTR _prev$[ebp]
  002f2	8b 45 e4	 mov	 eax, DWORD PTR _sortindex$[ebp]
  002f5	6b 14 90 0c	 imul	 edx, DWORD PTR [eax+edx*4], 12
  002f9	8b 45 e8	 mov	 eax, DWORD PTR _sortnode$[ebp]
  002fc	8b 54 10 04	 mov	 edx, DWORD PTR [eax+edx+4]
  00300	8b 41 70	 mov	 eax, DWORD PTR [ecx+112]
  00303	3b 42 70	 cmp	 eax, DWORD PTR [edx+112]
  00306	7e 07		 jle	 SHORT $LN29@HWR_Create

; 4004 : 						shift = true;

  00308	c7 45 e0 01 00
	00 00		 mov	 DWORD PTR _shift$[ebp], 1
$LN29@HWR_Create:

; 4005 : 				}
; 4006 : 			}
; 4007 : 
; 4008 : 			if (shift)

  0030f	83 7d e0 00	 cmp	 DWORD PTR _shift$[ebp], 0
  00313	74 31		 je	 SHORT $LN30@HWR_Create

; 4009 : 			{
; 4010 : 				size_t temp;
; 4011 : 
; 4012 : 				temp = sortindex[prev];

  00315	8b 45 f4	 mov	 eax, DWORD PTR _prev$[ebp]
  00318	8b 4d e4	 mov	 ecx, DWORD PTR _sortindex$[ebp]
  0031b	8b 14 81	 mov	 edx, DWORD PTR [ecx+eax*4]
  0031e	89 55 dc	 mov	 DWORD PTR _temp$1[ebp], edx

; 4013 : 				sortindex[prev] = sortindex[i];

  00321	8b 45 f4	 mov	 eax, DWORD PTR _prev$[ebp]
  00324	8b 4d e4	 mov	 ecx, DWORD PTR _sortindex$[ebp]
  00327	8b 55 fc	 mov	 edx, DWORD PTR _i$[ebp]
  0032a	8b 75 e4	 mov	 esi, DWORD PTR _sortindex$[ebp]
  0032d	8b 14 96	 mov	 edx, DWORD PTR [esi+edx*4]
  00330	89 14 81	 mov	 DWORD PTR [ecx+eax*4], edx

; 4014 : 				sortindex[i] = temp;

  00333	8b 45 fc	 mov	 eax, DWORD PTR _i$[ebp]
  00336	8b 4d e4	 mov	 ecx, DWORD PTR _sortindex$[ebp]
  00339	8b 55 dc	 mov	 edx, DWORD PTR _temp$1[ebp]
  0033c	89 14 81	 mov	 DWORD PTR [ecx+eax*4], edx

; 4015 : 
; 4016 : 				shift = false;

  0033f	c7 45 e0 00 00
	00 00		 mov	 DWORD PTR _shift$[ebp], 0
$LN30@HWR_Create:

; 4017 : 			}
; 4018 : 
; 4019 : 		} //i++

  00346	e9 e0 fd ff ff	 jmp	 $LN11@HWR_Create
$LN12@HWR_Create:

; 4020 : 	} // loop++

  0034b	e9 bd fd ff ff	 jmp	 $LN8@HWR_Create
$LN9@HWR_Create:

; 4021 : 
; 4022 : 	HWD.pfnSetTransform(&atransform);

  00350	68 00 00 00 00	 push	 OFFSET _atransform
  00355	ff 15 38 00 00
	00		 call	 DWORD PTR _hwdriver+56
  0035b	90		 npad	 1

; 4023 : 	// Okay! Let's draw it all! Woo!
; 4024 : 	for (i = 0; i < p; i++)

  0035c	c7 45 fc 00 00
	00 00		 mov	 DWORD PTR _i$[ebp], 0
  00363	eb 09		 jmp	 SHORT $LN16@HWR_Create
$LN14@HWR_Create:
  00365	8b 45 fc	 mov	 eax, DWORD PTR _i$[ebp]
  00368	83 c0 01	 add	 eax, 1
  0036b	89 45 fc	 mov	 DWORD PTR _i$[ebp], eax
$LN16@HWR_Create:
  0036e	8b 45 fc	 mov	 eax, DWORD PTR _i$[ebp]
  00371	3b 45 f8	 cmp	 eax, DWORD PTR _p$[ebp]
  00374	0f 83 f4 01 00
	00		 jae	 $LN15@HWR_Create

; 4025 : 	{
; 4026 : 		if (sortnode[sortindex[i]].plane)

  0037a	8b 45 fc	 mov	 eax, DWORD PTR _i$[ebp]
  0037d	8b 4d e4	 mov	 ecx, DWORD PTR _sortindex$[ebp]
  00380	6b 14 81 0c	 imul	 edx, DWORD PTR [ecx+eax*4], 12
  00384	8b 45 e8	 mov	 eax, DWORD PTR _sortnode$[ebp]
  00387	83 3c 10 00	 cmp	 DWORD PTR [eax+edx], 0
  0038b	0f 84 04 01 00
	00		 je	 $LN31@HWR_Create

; 4027 : 		{
; 4028 : 			// We aren't traversing the BSP tree, so make gr_frontsector null to avoid crashes.
; 4029 : 			gr_frontsector = NULL;

  00391	c7 05 00 00 00
	00 00 00 00 00	 mov	 DWORD PTR _gr_frontsector, 0

; 4030 : 
; 4031 : 			if (!(sortnode[sortindex[i]].plane->blend & PF_NoTexture))

  0039b	8b 45 fc	 mov	 eax, DWORD PTR _i$[ebp]
  0039e	8b 4d e4	 mov	 ecx, DWORD PTR _sortindex$[ebp]
  003a1	6b 14 81 0c	 imul	 edx, DWORD PTR [ecx+eax*4], 12
  003a5	8b 45 e8	 mov	 eax, DWORD PTR _sortnode$[ebp]
  003a8	8b 0c 10	 mov	 ecx, DWORD PTR [eax+edx]
  003ab	8b 51 18	 mov	 edx, DWORD PTR [ecx+24]
  003ae	81 e2 00 20 00
	00		 and	 edx, 8192		; 00002000H
  003b4	75 1c		 jne	 SHORT $LN33@HWR_Create

; 4032 : 				HWR_GetFlat(sortnode[sortindex[i]].plane->lumpnum);

  003b6	8b 45 fc	 mov	 eax, DWORD PTR _i$[ebp]
  003b9	8b 4d e4	 mov	 ecx, DWORD PTR _sortindex$[ebp]
  003bc	6b 14 81 0c	 imul	 edx, DWORD PTR [ecx+eax*4], 12
  003c0	8b 45 e8	 mov	 eax, DWORD PTR _sortnode$[ebp]
  003c3	8b 0c 10	 mov	 ecx, DWORD PTR [eax+edx]
  003c6	8b 51 0c	 mov	 edx, DWORD PTR [ecx+12]
  003c9	52		 push	 edx
  003ca	e8 00 00 00 00	 call	 _HWR_GetFlat
  003cf	83 c4 04	 add	 esp, 4
$LN33@HWR_Create:

; 4033 : 			HWR_RenderPlane(NULL, sortnode[sortindex[i]].plane->xsub, sortnode[sortindex[i]].plane->fixedheight, sortnode[sortindex[i]].plane->blend, sortnode[sortindex[i]].plane->lightlevel,

  003d2	8b 45 fc	 mov	 eax, DWORD PTR _i$[ebp]
  003d5	8b 4d e4	 mov	 ecx, DWORD PTR _sortindex$[ebp]
  003d8	6b 14 81 0c	 imul	 edx, DWORD PTR [ecx+eax*4], 12
  003dc	8b 45 e8	 mov	 eax, DWORD PTR _sortnode$[ebp]
  003df	8b 0c 10	 mov	 ecx, DWORD PTR [eax+edx]
  003e2	8b 51 20	 mov	 edx, DWORD PTR [ecx+32]
  003e5	52		 push	 edx
  003e6	8b 45 fc	 mov	 eax, DWORD PTR _i$[ebp]
  003e9	8b 4d e4	 mov	 ecx, DWORD PTR _sortindex$[ebp]
  003ec	6b 14 81 0c	 imul	 edx, DWORD PTR [ecx+eax*4], 12
  003f0	8b 45 e8	 mov	 eax, DWORD PTR _sortnode$[ebp]
  003f3	8b 0c 10	 mov	 ecx, DWORD PTR [eax+edx]
  003f6	8b 51 1c	 mov	 edx, DWORD PTR [ecx+28]
  003f9	52		 push	 edx
  003fa	8b 45 fc	 mov	 eax, DWORD PTR _i$[ebp]
  003fd	8b 4d e4	 mov	 ecx, DWORD PTR _sortindex$[ebp]
  00400	6b 14 81 0c	 imul	 edx, DWORD PTR [ecx+eax*4], 12
  00404	8b 45 e8	 mov	 eax, DWORD PTR _sortnode$[ebp]
  00407	8b 0c 10	 mov	 ecx, DWORD PTR [eax+edx]
  0040a	0f b6 51 10	 movzx	 edx, BYTE PTR [ecx+16]
  0040e	52		 push	 edx
  0040f	8b 45 fc	 mov	 eax, DWORD PTR _i$[ebp]
  00412	8b 4d e4	 mov	 ecx, DWORD PTR _sortindex$[ebp]
  00415	6b 14 81 0c	 imul	 edx, DWORD PTR [ecx+eax*4], 12
  00419	8b 45 e8	 mov	 eax, DWORD PTR _sortnode$[ebp]
  0041c	8b 0c 10	 mov	 ecx, DWORD PTR [eax+edx]
  0041f	8b 51 14	 mov	 edx, DWORD PTR [ecx+20]
  00422	52		 push	 edx
  00423	8b 45 fc	 mov	 eax, DWORD PTR _i$[ebp]
  00426	8b 4d e4	 mov	 ecx, DWORD PTR _sortindex$[ebp]
  00429	6b 14 81 0c	 imul	 edx, DWORD PTR [ecx+eax*4], 12
  0042d	8b 45 e8	 mov	 eax, DWORD PTR _sortnode$[ebp]
  00430	8b 0c 10	 mov	 ecx, DWORD PTR [eax+edx]
  00433	8b 51 0c	 mov	 edx, DWORD PTR [ecx+12]
  00436	52		 push	 edx
  00437	8b 45 fc	 mov	 eax, DWORD PTR _i$[ebp]
  0043a	8b 4d e4	 mov	 ecx, DWORD PTR _sortindex$[ebp]
  0043d	6b 14 81 0c	 imul	 edx, DWORD PTR [ecx+eax*4], 12
  00441	8b 45 e8	 mov	 eax, DWORD PTR _sortnode$[ebp]
  00444	8b 0c 10	 mov	 ecx, DWORD PTR [eax+edx]
  00447	8b 51 08	 mov	 edx, DWORD PTR [ecx+8]
  0044a	52		 push	 edx
  0044b	8b 45 fc	 mov	 eax, DWORD PTR _i$[ebp]
  0044e	8b 4d e4	 mov	 ecx, DWORD PTR _sortindex$[ebp]
  00451	6b 14 81 0c	 imul	 edx, DWORD PTR [ecx+eax*4], 12
  00455	8b 45 e8	 mov	 eax, DWORD PTR _sortnode$[ebp]
  00458	8b 0c 10	 mov	 ecx, DWORD PTR [eax+edx]
  0045b	8b 51 18	 mov	 edx, DWORD PTR [ecx+24]
  0045e	52		 push	 edx
  0045f	8b 45 fc	 mov	 eax, DWORD PTR _i$[ebp]
  00462	8b 4d e4	 mov	 ecx, DWORD PTR _sortindex$[ebp]
  00465	6b 14 81 0c	 imul	 edx, DWORD PTR [ecx+eax*4], 12
  00469	8b 45 e8	 mov	 eax, DWORD PTR _sortnode$[ebp]
  0046c	8b 0c 10	 mov	 ecx, DWORD PTR [eax+edx]
  0046f	8b 51 04	 mov	 edx, DWORD PTR [ecx+4]
  00472	52		 push	 edx
  00473	8b 45 fc	 mov	 eax, DWORD PTR _i$[ebp]
  00476	8b 4d e4	 mov	 ecx, DWORD PTR _sortindex$[ebp]
  00479	6b 14 81 0c	 imul	 edx, DWORD PTR [ecx+eax*4], 12
  0047d	8b 45 e8	 mov	 eax, DWORD PTR _sortnode$[ebp]
  00480	8b 0c 10	 mov	 ecx, DWORD PTR [eax+edx]
  00483	8b 11		 mov	 edx, DWORD PTR [ecx]
  00485	52		 push	 edx
  00486	6a 00		 push	 0
  00488	e8 00 00 00 00	 call	 _HWR_RenderPlane
  0048d	83 c4 28	 add	 esp, 40			; 00000028H

; 4034 : 				sortnode[sortindex[i]].plane->lumpnum, sortnode[sortindex[i]].plane->FOFSector, sortnode[sortindex[i]].plane->alpha, sortnode[sortindex[i]].plane->fogplane, sortnode[sortindex[i]].plane->planecolormap);
; 4035 : 		}

  00490	e9 d4 00 00 00	 jmp	 $LN34@HWR_Create
$LN31@HWR_Create:

; 4036 : 		else if (sortnode[sortindex[i]].wall)

  00495	8b 45 fc	 mov	 eax, DWORD PTR _i$[ebp]
  00498	8b 4d e4	 mov	 ecx, DWORD PTR _sortindex$[ebp]
  0049b	6b 14 81 0c	 imul	 edx, DWORD PTR [ecx+eax*4], 12
  0049f	8b 45 e8	 mov	 eax, DWORD PTR _sortnode$[ebp]
  004a2	83 7c 10 04 00	 cmp	 DWORD PTR [eax+edx+4], 0
  004a7	0f 84 bc 00 00
	00		 je	 $LN34@HWR_Create

; 4037 : 		{
; 4038 : 			if (!(sortnode[sortindex[i]].wall->blend & PF_NoTexture))

  004ad	8b 45 fc	 mov	 eax, DWORD PTR _i$[ebp]
  004b0	8b 4d e4	 mov	 ecx, DWORD PTR _sortindex$[ebp]
  004b3	6b 14 81 0c	 imul	 edx, DWORD PTR [ecx+eax*4], 12
  004b7	8b 45 e8	 mov	 eax, DWORD PTR _sortnode$[ebp]
  004ba	8b 4c 10 04	 mov	 ecx, DWORD PTR [eax+edx+4]
  004be	8b 51 6c	 mov	 edx, DWORD PTR [ecx+108]
  004c1	81 e2 00 20 00
	00		 and	 edx, 8192		; 00002000H
  004c7	75 1d		 jne	 SHORT $LN35@HWR_Create

; 4039 : 				HWR_GetTexture(sortnode[sortindex[i]].wall->texnum);

  004c9	8b 45 fc	 mov	 eax, DWORD PTR _i$[ebp]
  004cc	8b 4d e4	 mov	 ecx, DWORD PTR _sortindex$[ebp]
  004cf	6b 14 81 0c	 imul	 edx, DWORD PTR [ecx+eax*4], 12
  004d3	8b 45 e8	 mov	 eax, DWORD PTR _sortnode$[ebp]
  004d6	8b 4c 10 04	 mov	 ecx, DWORD PTR [eax+edx+4]
  004da	8b 51 68	 mov	 edx, DWORD PTR [ecx+104]
  004dd	52		 push	 edx
  004de	e8 00 00 00 00	 call	 _HWR_GetTexture
  004e3	83 c4 04	 add	 esp, 4
$LN35@HWR_Create:

; 4040 : 			HWR_RenderWall(sortnode[sortindex[i]].wall->wallVerts, &sortnode[sortindex[i]].wall->Surf, sortnode[sortindex[i]].wall->blend, sortnode[sortindex[i]].wall->fogwall,

  004e6	8b 45 fc	 mov	 eax, DWORD PTR _i$[ebp]
  004e9	8b 4d e4	 mov	 ecx, DWORD PTR _sortindex$[ebp]
  004ec	6b 14 81 0c	 imul	 edx, DWORD PTR [ecx+eax*4], 12
  004f0	8b 45 e8	 mov	 eax, DWORD PTR _sortnode$[ebp]
  004f3	8b 4c 10 04	 mov	 ecx, DWORD PTR [eax+edx+4]
  004f7	8b 51 7c	 mov	 edx, DWORD PTR [ecx+124]
  004fa	52		 push	 edx
  004fb	8b 45 fc	 mov	 eax, DWORD PTR _i$[ebp]
  004fe	8b 4d e4	 mov	 ecx, DWORD PTR _sortindex$[ebp]
  00501	6b 14 81 0c	 imul	 edx, DWORD PTR [ecx+eax*4], 12
  00505	8b 45 e8	 mov	 eax, DWORD PTR _sortnode$[ebp]
  00508	8b 4c 10 04	 mov	 ecx, DWORD PTR [eax+edx+4]
  0050c	8b 51 78	 mov	 edx, DWORD PTR [ecx+120]
  0050f	52		 push	 edx
  00510	8b 45 fc	 mov	 eax, DWORD PTR _i$[ebp]
  00513	8b 4d e4	 mov	 ecx, DWORD PTR _sortindex$[ebp]
  00516	6b 14 81 0c	 imul	 edx, DWORD PTR [ecx+eax*4], 12
  0051a	8b 45 e8	 mov	 eax, DWORD PTR _sortnode$[ebp]
  0051d	8b 4c 10 04	 mov	 ecx, DWORD PTR [eax+edx+4]
  00521	8b 51 74	 mov	 edx, DWORD PTR [ecx+116]
  00524	52		 push	 edx
  00525	8b 45 fc	 mov	 eax, DWORD PTR _i$[ebp]
  00528	8b 4d e4	 mov	 ecx, DWORD PTR _sortindex$[ebp]
  0052b	6b 14 81 0c	 imul	 edx, DWORD PTR [ecx+eax*4], 12
  0052f	8b 45 e8	 mov	 eax, DWORD PTR _sortnode$[ebp]
  00532	8b 4c 10 04	 mov	 ecx, DWORD PTR [eax+edx+4]
  00536	8b 51 6c	 mov	 edx, DWORD PTR [ecx+108]
  00539	52		 push	 edx
  0053a	8b 45 fc	 mov	 eax, DWORD PTR _i$[ebp]
  0053d	8b 4d e4	 mov	 ecx, DWORD PTR _sortindex$[ebp]
  00540	6b 14 81 0c	 imul	 edx, DWORD PTR [ecx+eax*4], 12
  00544	8b 45 e8	 mov	 eax, DWORD PTR _sortnode$[ebp]
  00547	8b 4c 10 04	 mov	 ecx, DWORD PTR [eax+edx+4]
  0054b	83 c1 60	 add	 ecx, 96			; 00000060H
  0054e	51		 push	 ecx
  0054f	8b 55 fc	 mov	 edx, DWORD PTR _i$[ebp]
  00552	8b 45 e4	 mov	 eax, DWORD PTR _sortindex$[ebp]
  00555	6b 0c 90 0c	 imul	 ecx, DWORD PTR [eax+edx*4], 12
  00559	8b 55 e8	 mov	 edx, DWORD PTR _sortnode$[ebp]
  0055c	8b 44 0a 04	 mov	 eax, DWORD PTR [edx+ecx+4]
  00560	50		 push	 eax
  00561	e8 00 00 00 00	 call	 _HWR_RenderWall
  00566	83 c4 18	 add	 esp, 24			; 00000018H
$LN34@HWR_Create:

; 4041 : 				sortnode[sortindex[i]].wall->lightlevel, sortnode[sortindex[i]].wall->wallcolormap);
; 4042 : 		}
; 4043 : 	}

  00569	e9 f7 fd ff ff	 jmp	 $LN14@HWR_Create
$LN15@HWR_Create:

; 4044 : 
; 4045 : 	numwalls = 0;

  0056e	c7 05 00 00 00
	00 00 00 00 00	 mov	 DWORD PTR _numwalls, 0

; 4046 : 	numplanes = 0;

  00578	c7 05 00 00 00
	00 00 00 00 00	 mov	 DWORD PTR _numplanes, 0

; 4047 : 
; 4048 : 	// No mem leaks, please.
; 4049 : 	Z_Free(sortnode);

  00582	8b 45 e8	 mov	 eax, DWORD PTR _sortnode$[ebp]
  00585	50		 push	 eax
  00586	e8 00 00 00 00	 call	 _Z_Free
  0058b	83 c4 04	 add	 esp, 4

; 4050 : 	Z_Free(sortindex);

  0058e	8b 45 e4	 mov	 eax, DWORD PTR _sortindex$[ebp]
  00591	50		 push	 eax
  00592	e8 00 00 00 00	 call	 _Z_Free
  00597	83 c4 04	 add	 esp, 4

; 4051 : }

  0059a	5f		 pop	 edi
  0059b	5e		 pop	 esi
  0059c	5b		 pop	 ebx
  0059d	8b e5		 mov	 esp, ebp
  0059f	5d		 pop	 ebp
  005a0	c3		 ret	 0
_HWR_CreateDrawNodes ENDP
_TEXT	ENDS
; Function compile flags: /Odtp /ZI
; File C:\Users\RafaTheFox\Desktop\SRB2-Public-master (1)\SRB2-Public-master\src\hardware\hw_main.c
;	COMDAT _HWR_RenderWall
_TEXT	SEGMENT
_alpha$ = -109						; size = 1
_wv$ = -108						; size = 4
_i$ = -101						; size = 1
_trVerts$ = -100					; size = 96
__$ArrayPad$ = -4					; size = 4
_wallVerts$ = 8						; size = 4
_pSurf$ = 12						; size = 4
_blend$ = 16						; size = 4
_fogwall$ = 20						; size = 4
_lightlevel$ = 24					; size = 4
_wallcolormap$ = 28					; size = 4
_HWR_RenderWall PROC					; COMDAT

; 5142 : {

  00000	55		 push	 ebp
  00001	8b ec		 mov	 ebp, esp
  00003	81 ec b0 00 00
	00		 sub	 esp, 176		; 000000b0H
  00009	a1 00 00 00 00	 mov	 eax, DWORD PTR ___security_cookie
  0000e	33 c5		 xor	 eax, ebp
  00010	89 45 fc	 mov	 DWORD PTR __$ArrayPad$[ebp], eax
  00013	53		 push	 ebx
  00014	56		 push	 esi
  00015	57		 push	 edi

; 5143 : 	FOutVector  trVerts[4];
; 5144 : 	UINT8       i;
; 5145 : 	FOutVector  *wv;
; 5146 : 
; 5147 : 	// transform
; 5148 : 	wv = trVerts;

  00016	8d 45 9c	 lea	 eax, DWORD PTR _trVerts$[ebp]
  00019	89 45 94	 mov	 DWORD PTR _wv$[ebp], eax

; 5149 : 	// it sounds really stupid to do this conversion with the new T&L code
; 5150 : 	// we should directly put the right information in the right structure
; 5151 : 	// wallVerts3D seems ok, doesn't need FOutVector
; 5152 : 	// also remove the light copy
; 5153 : 	for (i = 0; i < 4; i++, wv++, wallVerts++)

  0001c	c6 45 9b 00	 mov	 BYTE PTR _i$[ebp], 0
  00020	eb 1a		 jmp	 SHORT $LN4@HWR_Render
$LN2@HWR_Render:
  00022	8a 45 9b	 mov	 al, BYTE PTR _i$[ebp]
  00025	04 01		 add	 al, 1
  00027	88 45 9b	 mov	 BYTE PTR _i$[ebp], al
  0002a	8b 4d 94	 mov	 ecx, DWORD PTR _wv$[ebp]
  0002d	83 c1 18	 add	 ecx, 24			; 00000018H
  00030	89 4d 94	 mov	 DWORD PTR _wv$[ebp], ecx
  00033	8b 55 08	 mov	 edx, DWORD PTR _wallVerts$[ebp]
  00036	83 c2 18	 add	 edx, 24			; 00000018H
  00039	89 55 08	 mov	 DWORD PTR _wallVerts$[ebp], edx
$LN4@HWR_Render:
  0003c	0f b6 45 9b	 movzx	 eax, BYTE PTR _i$[ebp]
  00040	83 f8 04	 cmp	 eax, 4
  00043	7d 3c		 jge	 SHORT $LN3@HWR_Render

; 5154 : 	{
; 5155 : 		wv->sow = wallVerts->s;

  00045	8b 45 94	 mov	 eax, DWORD PTR _wv$[ebp]
  00048	8b 4d 08	 mov	 ecx, DWORD PTR _wallVerts$[ebp]
  0004b	8b 51 0c	 mov	 edx, DWORD PTR [ecx+12]
  0004e	89 50 10	 mov	 DWORD PTR [eax+16], edx

; 5156 : 		wv->tow = wallVerts->t;

  00051	8b 45 94	 mov	 eax, DWORD PTR _wv$[ebp]
  00054	8b 4d 08	 mov	 ecx, DWORD PTR _wallVerts$[ebp]
  00057	8b 51 10	 mov	 edx, DWORD PTR [ecx+16]
  0005a	89 50 14	 mov	 DWORD PTR [eax+20], edx

; 5157 : 		wv->x   = wallVerts->x;

  0005d	8b 45 94	 mov	 eax, DWORD PTR _wv$[ebp]
  00060	8b 4d 08	 mov	 ecx, DWORD PTR _wallVerts$[ebp]
  00063	8b 11		 mov	 edx, DWORD PTR [ecx]
  00065	89 10		 mov	 DWORD PTR [eax], edx

; 5158 : 		wv->y   = wallVerts->y;

  00067	8b 45 94	 mov	 eax, DWORD PTR _wv$[ebp]
  0006a	8b 4d 08	 mov	 ecx, DWORD PTR _wallVerts$[ebp]
  0006d	8b 51 04	 mov	 edx, DWORD PTR [ecx+4]
  00070	89 50 04	 mov	 DWORD PTR [eax+4], edx

; 5159 : 		wv->z = wallVerts->z;

  00073	8b 45 94	 mov	 eax, DWORD PTR _wv$[ebp]
  00076	8b 4d 08	 mov	 ecx, DWORD PTR _wallVerts$[ebp]
  00079	8b 51 08	 mov	 edx, DWORD PTR [ecx+8]
  0007c	89 50 08	 mov	 DWORD PTR [eax+8], edx

; 5160 : 	}

  0007f	eb a1		 jmp	 SHORT $LN2@HWR_Render
$LN3@HWR_Render:

; 5161 : 
; 5162 : 	UINT8 alpha = pSurf->FlatColor.s.alpha; // retain the alpha

  00081	8b 45 0c	 mov	 eax, DWORD PTR _pSurf$[ebp]
  00084	8a 48 07	 mov	 cl, BYTE PTR [eax+7]
  00087	88 4d 93	 mov	 BYTE PTR _alpha$[ebp], cl

; 5163 : 
; 5164 : 	// Lighting is done here instead so that fog isn't drawn incorrectly on transparent walls after sorting
; 5165 : 	if (wallcolormap)

  0008a	83 7d 1c 00	 cmp	 DWORD PTR _wallcolormap$[ebp], 0
  0008e	74 6a		 je	 SHORT $LN5@HWR_Render

; 5166 : 	{
; 5167 : 		if (fogwall)

  00090	83 7d 14 00	 cmp	 DWORD PTR _fogwall$[ebp], 0
  00094	74 32		 je	 SHORT $LN7@HWR_Render

; 5168 : 			pSurf->FlatColor.rgba = HWR_Lighting(LightLevelToLum(lightlevel), wallcolormap->rgba, wallcolormap->fadergba, true, false);

  00096	6a 00		 push	 0
  00098	6a 01		 push	 1
  0009a	8b 45 1c	 mov	 eax, DWORD PTR _wallcolormap$[ebp]
  0009d	8b 48 1c	 mov	 ecx, DWORD PTR [eax+28]
  000a0	51		 push	 ecx
  000a1	8b 55 1c	 mov	 edx, DWORD PTR _wallcolormap$[ebp]
  000a4	8b 42 18	 mov	 eax, DWORD PTR [edx+24]
  000a7	50		 push	 eax
  000a8	8b 4d 18	 mov	 ecx, DWORD PTR _lightlevel$[ebp]
  000ab	51		 push	 ecx
  000ac	e8 00 00 00 00	 call	 _LightLevelToLum
  000b1	83 c4 04	 add	 esp, 4
  000b4	0f b6 d0	 movzx	 edx, al
  000b7	52		 push	 edx
  000b8	e8 00 00 00 00	 call	 _HWR_Lighting
  000bd	83 c4 14	 add	 esp, 20			; 00000014H
  000c0	8b 4d 0c	 mov	 ecx, DWORD PTR _pSurf$[ebp]
  000c3	89 41 04	 mov	 DWORD PTR [ecx+4], eax
  000c6	eb 30		 jmp	 SHORT $LN8@HWR_Render
$LN7@HWR_Render:

; 5169 : 		else
; 5170 : 			pSurf->FlatColor.rgba = HWR_Lighting(LightLevelToLum(lightlevel), wallcolormap->rgba, wallcolormap->fadergba, false, false);

  000c8	6a 00		 push	 0
  000ca	6a 00		 push	 0
  000cc	8b 45 1c	 mov	 eax, DWORD PTR _wallcolormap$[ebp]
  000cf	8b 48 1c	 mov	 ecx, DWORD PTR [eax+28]
  000d2	51		 push	 ecx
  000d3	8b 55 1c	 mov	 edx, DWORD PTR _wallcolormap$[ebp]
  000d6	8b 42 18	 mov	 eax, DWORD PTR [edx+24]
  000d9	50		 push	 eax
  000da	8b 4d 18	 mov	 ecx, DWORD PTR _lightlevel$[ebp]
  000dd	51		 push	 ecx
  000de	e8 00 00 00 00	 call	 _LightLevelToLum
  000e3	83 c4 04	 add	 esp, 4
  000e6	0f b6 d0	 movzx	 edx, al
  000e9	52		 push	 edx
  000ea	e8 00 00 00 00	 call	 _HWR_Lighting
  000ef	83 c4 14	 add	 esp, 20			; 00000014H
  000f2	8b 4d 0c	 mov	 ecx, DWORD PTR _pSurf$[ebp]
  000f5	89 41 04	 mov	 DWORD PTR [ecx+4], eax
$LN8@HWR_Render:

; 5171 : 	}

  000f8	eb 5a		 jmp	 SHORT $LN10@HWR_Render
$LN5@HWR_Render:

; 5172 : 	else
; 5173 : 	{
; 5174 : 		if (fogwall)

  000fa	83 7d 14 00	 cmp	 DWORD PTR _fogwall$[ebp], 0
  000fe	74 2b		 je	 SHORT $LN9@HWR_Render

; 5175 : 			pSurf->FlatColor.rgba = HWR_Lighting(LightLevelToLum(lightlevel), NORMALFOG, FADEFOG, true, false);

  00100	6a 00		 push	 0
  00102	6a 01		 push	 1
  00104	68 00 00 00 19	 push	 419430400		; 19000000H
  00109	6a 00		 push	 0
  0010b	8b 45 18	 mov	 eax, DWORD PTR _lightlevel$[ebp]
  0010e	50		 push	 eax
  0010f	e8 00 00 00 00	 call	 _LightLevelToLum
  00114	83 c4 04	 add	 esp, 4
  00117	0f b6 c8	 movzx	 ecx, al
  0011a	51		 push	 ecx
  0011b	e8 00 00 00 00	 call	 _HWR_Lighting
  00120	83 c4 14	 add	 esp, 20			; 00000014H
  00123	8b 55 0c	 mov	 edx, DWORD PTR _pSurf$[ebp]
  00126	89 42 04	 mov	 DWORD PTR [edx+4], eax
  00129	eb 29		 jmp	 SHORT $LN10@HWR_Render
$LN9@HWR_Render:

; 5176 : 		else
; 5177 : 			pSurf->FlatColor.rgba = HWR_Lighting(LightLevelToLum(lightlevel), NORMALFOG, FADEFOG, false, false);

  0012b	6a 00		 push	 0
  0012d	6a 00		 push	 0
  0012f	68 00 00 00 19	 push	 419430400		; 19000000H
  00134	6a 00		 push	 0
  00136	8b 45 18	 mov	 eax, DWORD PTR _lightlevel$[ebp]
  00139	50		 push	 eax
  0013a	e8 00 00 00 00	 call	 _LightLevelToLum
  0013f	83 c4 04	 add	 esp, 4
  00142	0f b6 c8	 movzx	 ecx, al
  00145	51		 push	 ecx
  00146	e8 00 00 00 00	 call	 _HWR_Lighting
  0014b	83 c4 14	 add	 esp, 20			; 00000014H
  0014e	8b 55 0c	 mov	 edx, DWORD PTR _pSurf$[ebp]
  00151	89 42 04	 mov	 DWORD PTR [edx+4], eax
$LN10@HWR_Render:

; 5178 : 	}
; 5179 : 
; 5180 : 	pSurf->FlatColor.s.alpha = alpha; // put the alpha back after lighting

  00154	8b 45 0c	 mov	 eax, DWORD PTR _pSurf$[ebp]
  00157	8a 4d 93	 mov	 cl, BYTE PTR _alpha$[ebp]
  0015a	88 48 07	 mov	 BYTE PTR [eax+7], cl

; 5181 : 
; 5182 : 	if (blend & PF_Environment)

  0015d	8b 45 10	 mov	 eax, DWORD PTR _blend$[ebp]
  00160	83 e0 08	 and	 eax, 8
  00163	74 26		 je	 SHORT $LN11@HWR_Render

; 5183 : 		HWD.pfnDrawPolygon(pSurf, trVerts, 4, blend|PF_Modulated|PF_Clip|PF_Occlude); // PF_Occlude must be used for solid objects

  00165	8b 45 10	 mov	 eax, DWORD PTR _blend$[ebp]
  00168	0d 00 10 00 00	 or	 eax, 4096		; 00001000H
  0016d	0d 00 00 00 40	 or	 eax, 1073741824		; 40000000H
  00172	0d 00 01 00 00	 or	 eax, 256		; 00000100H
  00177	50		 push	 eax
  00178	6a 04		 push	 4
  0017a	8d 4d 9c	 lea	 ecx, DWORD PTR _trVerts$[ebp]
  0017d	51		 push	 ecx
  0017e	8b 55 0c	 mov	 edx, DWORD PTR _pSurf$[ebp]
  00181	52		 push	 edx
  00182	ff 15 10 00 00
	00		 call	 DWORD PTR _hwdriver+16
  00188	90		 npad	 1
  00189	eb 1f		 jmp	 SHORT $LN12@HWR_Render
$LN11@HWR_Render:

; 5184 : 	else
; 5185 : 		HWD.pfnDrawPolygon(pSurf, trVerts, 4, blend|PF_Modulated|PF_Clip); // No PF_Occlude means overlapping (incorrect) transparency

  0018b	8b 45 10	 mov	 eax, DWORD PTR _blend$[ebp]
  0018e	0d 00 10 00 00	 or	 eax, 4096		; 00001000H
  00193	0d 00 00 00 40	 or	 eax, 1073741824		; 40000000H
  00198	50		 push	 eax
  00199	6a 04		 push	 4
  0019b	8d 4d 9c	 lea	 ecx, DWORD PTR _trVerts$[ebp]
  0019e	51		 push	 ecx
  0019f	8b 55 0c	 mov	 edx, DWORD PTR _pSurf$[ebp]
  001a2	52		 push	 edx
  001a3	ff 15 10 00 00
	00		 call	 DWORD PTR _hwdriver+16
  001a9	90		 npad	 1
$LN12@HWR_Render:

; 5186 : 
; 5187 : #ifdef WALLSPLATS
; 5188 : 	if (gr_curline->linedef->splats && cv_splats.value)
; 5189 : 		HWR_DrawSegsSplats(pSurf);
; 5190 : #endif
; 5191 : }

  001aa	5f		 pop	 edi
  001ab	5e		 pop	 esi
  001ac	5b		 pop	 ebx
  001ad	8b 4d fc	 mov	 ecx, DWORD PTR __$ArrayPad$[ebp]
  001b0	33 cd		 xor	 ecx, ebp
  001b2	e8 00 00 00 00	 call	 @__security_check_cookie@4
  001b7	8b e5		 mov	 esp, ebp
  001b9	5d		 pop	 ebp
  001ba	c3		 ret	 0
_HWR_RenderWall ENDP
_TEXT	ENDS
; Function compile flags: /Odtp /ZI
; File C:\Users\RafaTheFox\Desktop\SRB2-Public-master (1)\SRB2-Public-master\src\hardware\hw_main.c
;	COMDAT _HWR_SortVisSprites
_TEXT	SEGMENT
_bestdist$ = -72					; size = 4
_unsorted$ = -68					; size = 52
_best$ = -16						; size = 4
_ds$ = -12						; size = 4
_count$ = -8						; size = 4
_i$ = -4						; size = 4
_HWR_SortVisSprites PROC				; COMDAT

; 3790 : {

  00000	55		 push	 ebp
  00001	8b ec		 mov	 ebp, esp
  00003	81 ec 88 00 00
	00		 sub	 esp, 136		; 00000088H
  00009	53		 push	 ebx
  0000a	56		 push	 esi
  0000b	57		 push	 edi

; 3791 : 	size_t i, count;
; 3792 : 	gr_vissprite_t *ds;
; 3793 : 	gr_vissprite_t *best = NULL;

  0000c	c7 45 f0 00 00
	00 00		 mov	 DWORD PTR _best$[ebp], 0

; 3794 : 	gr_vissprite_t unsorted;
; 3795 : 	float bestdist;
; 3796 : 
; 3797 : 	count = gr_vissprite_p - gr_vissprites;

  00013	a1 00 00 00 00	 mov	 eax, DWORD PTR _gr_vissprite_p
  00018	2d 00 00 00 00	 sub	 eax, OFFSET _gr_vissprites
  0001d	99		 cdq
  0001e	b9 34 00 00 00	 mov	 ecx, 52			; 00000034H
  00023	f7 f9		 idiv	 ecx
  00025	89 45 f8	 mov	 DWORD PTR _count$[ebp], eax

; 3798 : 
; 3799 : 	unsorted.next = unsorted.prev = &unsorted;

  00028	8d 45 bc	 lea	 eax, DWORD PTR _unsorted$[ebp]
  0002b	89 45 bc	 mov	 DWORD PTR _unsorted$[ebp], eax
  0002e	8b 4d bc	 mov	 ecx, DWORD PTR _unsorted$[ebp]
  00031	89 4d c0	 mov	 DWORD PTR _unsorted$[ebp+4], ecx

; 3800 : 
; 3801 : 	if (!count)

  00034	83 7d f8 00	 cmp	 DWORD PTR _count$[ebp], 0
  00038	75 05		 jne	 SHORT $LN11@HWR_SortVi

; 3802 : 		return;

  0003a	e9 31 01 00 00	 jmp	 $LN6@HWR_SortVi
$LN11@HWR_SortVi:

; 3803 : 
; 3804 : 	for (ds = gr_vissprites; ds < gr_vissprite_p; ds++)

  0003f	c7 45 f4 00 00
	00 00		 mov	 DWORD PTR _ds$[ebp], OFFSET _gr_vissprites
  00046	eb 09		 jmp	 SHORT $LN4@HWR_SortVi
$LN2@HWR_SortVi:
  00048	8b 45 f4	 mov	 eax, DWORD PTR _ds$[ebp]
  0004b	83 c0 34	 add	 eax, 52			; 00000034H
  0004e	89 45 f4	 mov	 DWORD PTR _ds$[ebp], eax
$LN4@HWR_SortVi:
  00051	8b 45 f4	 mov	 eax, DWORD PTR _ds$[ebp]
  00054	3b 05 00 00 00
	00		 cmp	 eax, DWORD PTR _gr_vissprite_p
  0005a	73 19		 jae	 SHORT $LN3@HWR_SortVi

; 3805 : 	{
; 3806 : 		ds->next = ds+1;

  0005c	8b 45 f4	 mov	 eax, DWORD PTR _ds$[ebp]
  0005f	83 c0 34	 add	 eax, 52			; 00000034H
  00062	8b 4d f4	 mov	 ecx, DWORD PTR _ds$[ebp]
  00065	89 41 04	 mov	 DWORD PTR [ecx+4], eax

; 3807 : 		ds->prev = ds-1;

  00068	8b 45 f4	 mov	 eax, DWORD PTR _ds$[ebp]
  0006b	83 e8 34	 sub	 eax, 52			; 00000034H
  0006e	8b 4d f4	 mov	 ecx, DWORD PTR _ds$[ebp]
  00071	89 01		 mov	 DWORD PTR [ecx], eax

; 3808 : 	}

  00073	eb d3		 jmp	 SHORT $LN2@HWR_SortVi
$LN3@HWR_SortVi:

; 3809 : 
; 3810 : 	gr_vissprites[0].prev = &unsorted;

  00075	b8 34 00 00 00	 mov	 eax, 52			; 00000034H
  0007a	6b c8 00	 imul	 ecx, eax, 0
  0007d	8d 55 bc	 lea	 edx, DWORD PTR _unsorted$[ebp]
  00080	89 91 00 00 00
	00		 mov	 DWORD PTR _gr_vissprites[ecx], edx

; 3811 : 	unsorted.next = &gr_vissprites[0];

  00086	b8 34 00 00 00	 mov	 eax, 52			; 00000034H
  0008b	6b c8 00	 imul	 ecx, eax, 0
  0008e	81 c1 00 00 00
	00		 add	 ecx, OFFSET _gr_vissprites
  00094	89 4d c0	 mov	 DWORD PTR _unsorted$[ebp+4], ecx

; 3812 : 	(gr_vissprite_p-1)->next = &unsorted;

  00097	a1 00 00 00 00	 mov	 eax, DWORD PTR _gr_vissprite_p
  0009c	8d 4d bc	 lea	 ecx, DWORD PTR _unsorted$[ebp]
  0009f	89 48 d0	 mov	 DWORD PTR [eax-48], ecx

; 3813 : 	unsorted.prev = gr_vissprite_p-1;

  000a2	a1 00 00 00 00	 mov	 eax, DWORD PTR _gr_vissprite_p
  000a7	83 e8 34	 sub	 eax, 52			; 00000034H
  000aa	89 45 bc	 mov	 DWORD PTR _unsorted$[ebp], eax

; 3814 : 
; 3815 : 	// pull the vissprites out by scale
; 3816 : 	gr_vsprsortedhead.next = gr_vsprsortedhead.prev = &gr_vsprsortedhead;

  000ad	c7 05 00 00 00
	00 00 00 00 00	 mov	 DWORD PTR _gr_vsprsortedhead, OFFSET _gr_vsprsortedhead
  000b7	a1 00 00 00 00	 mov	 eax, DWORD PTR _gr_vsprsortedhead
  000bc	a3 04 00 00 00	 mov	 DWORD PTR _gr_vsprsortedhead+4, eax

; 3817 : 	for (i = 0; i < count; i++)

  000c1	c7 45 fc 00 00
	00 00		 mov	 DWORD PTR _i$[ebp], 0
  000c8	eb 09		 jmp	 SHORT $LN7@HWR_SortVi
$LN5@HWR_SortVi:
  000ca	8b 45 fc	 mov	 eax, DWORD PTR _i$[ebp]
  000cd	83 c0 01	 add	 eax, 1
  000d0	89 45 fc	 mov	 DWORD PTR _i$[ebp], eax
$LN7@HWR_SortVi:
  000d3	8b 45 fc	 mov	 eax, DWORD PTR _i$[ebp]
  000d6	3b 45 f8	 cmp	 eax, DWORD PTR _count$[ebp]
  000d9	0f 83 91 00 00
	00		 jae	 $LN6@HWR_SortVi

; 3818 : 	{
; 3819 : 		bestdist = ZCLIP_PLANE-1;

  000df	f3 0f 10 05 00
	00 00 00	 movss	 xmm0, DWORD PTR __real@40400000
  000e7	f3 0f 11 45 b8	 movss	 DWORD PTR _bestdist$[ebp], xmm0

; 3820 : 		for (ds = unsorted.next; ds != &unsorted; ds = ds->next)

  000ec	8b 45 c0	 mov	 eax, DWORD PTR _unsorted$[ebp+4]
  000ef	89 45 f4	 mov	 DWORD PTR _ds$[ebp], eax
  000f2	eb 09		 jmp	 SHORT $LN10@HWR_SortVi
$LN8@HWR_SortVi:
  000f4	8b 45 f4	 mov	 eax, DWORD PTR _ds$[ebp]
  000f7	8b 48 04	 mov	 ecx, DWORD PTR [eax+4]
  000fa	89 4d f4	 mov	 DWORD PTR _ds$[ebp], ecx
$LN10@HWR_SortVi:
  000fd	8d 45 bc	 lea	 eax, DWORD PTR _unsorted$[ebp]
  00100	39 45 f4	 cmp	 DWORD PTR _ds$[ebp], eax
  00103	74 23		 je	 SHORT $LN9@HWR_SortVi

; 3821 : 		{
; 3822 : 			if (ds->tz > bestdist)

  00105	8b 45 f4	 mov	 eax, DWORD PTR _ds$[ebp]
  00108	f3 0f 10 40 10	 movss	 xmm0, DWORD PTR [eax+16]
  0010d	0f 2f 45 b8	 comiss	 xmm0, DWORD PTR _bestdist$[ebp]
  00111	76 13		 jbe	 SHORT $LN12@HWR_SortVi

; 3823 : 			{
; 3824 : 				bestdist = ds->tz;

  00113	8b 45 f4	 mov	 eax, DWORD PTR _ds$[ebp]
  00116	f3 0f 10 40 10	 movss	 xmm0, DWORD PTR [eax+16]
  0011b	f3 0f 11 45 b8	 movss	 DWORD PTR _bestdist$[ebp], xmm0

; 3825 : 				best = ds;

  00120	8b 45 f4	 mov	 eax, DWORD PTR _ds$[ebp]
  00123	89 45 f0	 mov	 DWORD PTR _best$[ebp], eax
$LN12@HWR_SortVi:

; 3826 : 			}
; 3827 : 		}

  00126	eb cc		 jmp	 SHORT $LN8@HWR_SortVi
$LN9@HWR_SortVi:

; 3828 : 		best->next->prev = best->prev;

  00128	8b 45 f0	 mov	 eax, DWORD PTR _best$[ebp]
  0012b	8b 48 04	 mov	 ecx, DWORD PTR [eax+4]
  0012e	8b 55 f0	 mov	 edx, DWORD PTR _best$[ebp]
  00131	8b 02		 mov	 eax, DWORD PTR [edx]
  00133	89 01		 mov	 DWORD PTR [ecx], eax

; 3829 : 		best->prev->next = best->next;

  00135	8b 45 f0	 mov	 eax, DWORD PTR _best$[ebp]
  00138	8b 08		 mov	 ecx, DWORD PTR [eax]
  0013a	8b 55 f0	 mov	 edx, DWORD PTR _best$[ebp]
  0013d	8b 42 04	 mov	 eax, DWORD PTR [edx+4]
  00140	89 41 04	 mov	 DWORD PTR [ecx+4], eax

; 3830 : 		best->next = &gr_vsprsortedhead;

  00143	8b 45 f0	 mov	 eax, DWORD PTR _best$[ebp]
  00146	c7 40 04 00 00
	00 00		 mov	 DWORD PTR [eax+4], OFFSET _gr_vsprsortedhead

; 3831 : 		best->prev = gr_vsprsortedhead.prev;

  0014d	8b 45 f0	 mov	 eax, DWORD PTR _best$[ebp]
  00150	8b 0d 00 00 00
	00		 mov	 ecx, DWORD PTR _gr_vsprsortedhead
  00156	89 08		 mov	 DWORD PTR [eax], ecx

; 3832 : 		gr_vsprsortedhead.prev->next = best;

  00158	a1 00 00 00 00	 mov	 eax, DWORD PTR _gr_vsprsortedhead
  0015d	8b 4d f0	 mov	 ecx, DWORD PTR _best$[ebp]
  00160	89 48 04	 mov	 DWORD PTR [eax+4], ecx

; 3833 : 		gr_vsprsortedhead.prev = best;

  00163	8b 45 f0	 mov	 eax, DWORD PTR _best$[ebp]
  00166	a3 00 00 00 00	 mov	 DWORD PTR _gr_vsprsortedhead, eax

; 3834 : 	}

  0016b	e9 5a ff ff ff	 jmp	 $LN5@HWR_SortVi
$LN6@HWR_SortVi:

; 3835 : }

  00170	5f		 pop	 edi
  00171	5e		 pop	 esi
  00172	5b		 pop	 ebx
  00173	8b e5		 mov	 esp, ebp
  00175	5d		 pop	 ebp
  00176	c3		 ret	 0
_HWR_SortVisSprites ENDP
_TEXT	ENDS
; Function compile flags: /Odtp /ZI
; File C:\Users\RafaTheFox\Desktop\SRB2-Public-master (1)\SRB2-Public-master\src\hardware\hw_main.c
;	COMDAT _HWR_DrawSprite
_TEXT	SEGMENT
tv277 = -380						; size = 4
tv254 = -380						; size = 4
tv293 = -376						; size = 4
tv306 = -376						; size = 4
tv319 = -376						; size = 4
tv340 = -376						; size = 4
tv361 = -376						; size = 4
tv377 = -376						; size = 4
tv473 = -376						; size = 4
tv70 = -376						; size = 4
tv670 = -376						; size = 4
tv685 = -376						; size = 4
tv714 = -376						; size = 4
tv729 = -376						; size = 4
tv749 = -376						; size = 4
tv776 = -376						; size = 4
tv790 = -376						; size = 4
tv808 = -376						; size = 4
tv842 = -376						; size = 4
tv856 = -376						; size = 4
tv872 = -376						; size = 4
tv885 = -376						; size = 4
tv898 = -376						; size = 4
tv914 = -376						; size = 4
tv996 = -376						; size = 4
tv2182 = -376						; size = 4
tv152 = -376						; size = 4
tv168 = -376						; size = 4
tv183 = -376						; size = 4
tv217 = -376						; size = 4
tv231 = -376						; size = 4
tv2184 = -376						; size = 4
_blend$1 = -308						; size = 4
_light$2 = -304						; size = 4
_colormap$3 = -300					; size = 4
_lightlevel$4 = -293					; size = 1
_sector$5 = -292					; size = 4
_light$6 = -288						; size = 4
_colormap$7 = -284					; size = 4
_lightlevel$8 = -277					; size = 1
_sector$9 = -276					; size = 4
_scale$10 = -272					; size = 4
_radius$11 = -268					; size = 4
_floorz$12 = -264					; size = 4
_shadowdir$13 = -260					; size = 4
_mobjfloor$14 = -256					; size = 4
_floorheight$15 = -252					; size = 4
_sSurf$16 = -248					; size = 8
_swallVerts$17 = -240					; size = 96
_temp$18 = -144						; size = 4
_scale$19 = -140					; size = 4
_radius$20 = -136					; size = 4
_hires$ = -132						; size = 4
_Surf$ = -128						; size = 8
_gpatch$ = -120						; size = 4
_wv$ = -116						; size = 4
_wallVerts$ = -112					; size = 96
_tr_y$ = -16						; size = 4
_tr_x$ = -12						; size = 4
_i$ = -5						; size = 1
__$ArrayPad$ = -4					; size = 4
_spr$ = 8						; size = 4
_HWR_DrawSprite PROC					; COMDAT

; 3255 : {

  00000	55		 push	 ebp
  00001	8b ec		 mov	 ebp, esp
  00003	81 ec 7c 01 00
	00		 sub	 esp, 380		; 0000017cH
  00009	a1 00 00 00 00	 mov	 eax, DWORD PTR ___security_cookie
  0000e	33 c5		 xor	 eax, ebp
  00010	89 45 fc	 mov	 DWORD PTR __$ArrayPad$[ebp], eax
  00013	53		 push	 ebx
  00014	56		 push	 esi
  00015	57		 push	 edi

; 3256 : 	UINT8 i;
; 3257 : 	float tr_x, tr_y;
; 3258 : 	FOutVector wallVerts[4];
; 3259 : 	FOutVector *wv;
; 3260 : 	GLPatch_t *gpatch; // sprite patch converted to hardware
; 3261 : 	FSurfaceInfo Surf;
; 3262 : 	const boolean hires = (spr->mobj && spr->mobj->flags & MF_HIRES);

  00016	8b 45 08	 mov	 eax, DWORD PTR _spr$[ebp]
  00019	83 78 24 00	 cmp	 DWORD PTR [eax+36], 0
  0001d	74 1c		 je	 SHORT $LN75@HWR_DrawSp
  0001f	8b 4d 08	 mov	 ecx, DWORD PTR _spr$[ebp]
  00022	8b 51 24	 mov	 edx, DWORD PTR [ecx+36]
  00025	8b 42 60	 mov	 eax, DWORD PTR [edx+96]
  00028	25 00 00 08 00	 and	 eax, 524288		; 00080000H
  0002d	74 0c		 je	 SHORT $LN75@HWR_DrawSp
  0002f	c7 85 88 fe ff
	ff 01 00 00 00	 mov	 DWORD PTR tv70[ebp], 1
  00039	eb 0a		 jmp	 SHORT $LN76@HWR_DrawSp
$LN75@HWR_DrawSp:
  0003b	c7 85 88 fe ff
	ff 00 00 00 00	 mov	 DWORD PTR tv70[ebp], 0
$LN76@HWR_DrawSp:
  00045	8b 8d 88 fe ff
	ff		 mov	 ecx, DWORD PTR tv70[ebp]
  0004b	89 8d 7c ff ff
	ff		 mov	 DWORD PTR _hires$[ebp], ecx

; 3263 : 
; 3264 : 	if (!spr->mobj)

  00051	8b 45 08	 mov	 eax, DWORD PTR _spr$[ebp]
  00054	83 78 24 00	 cmp	 DWORD PTR [eax+36], 0
  00058	75 05		 jne	 SHORT $LN8@HWR_DrawSp

; 3265 : 		return;

  0005a	e9 db 1b 00 00	 jmp	 $LN68@HWR_DrawSp
$LN8@HWR_DrawSp:

; 3266 : 
; 3267 : 	if (!spr->mobj->subsector)

  0005f	8b 45 08	 mov	 eax, DWORD PTR _spr$[ebp]
  00062	8b 48 24	 mov	 ecx, DWORD PTR [eax+36]
  00065	83 79 34 00	 cmp	 DWORD PTR [ecx+52], 0
  00069	75 05		 jne	 SHORT $LN9@HWR_DrawSp

; 3268 : 		return;

  0006b	e9 ca 1b 00 00	 jmp	 $LN68@HWR_DrawSp
$LN9@HWR_DrawSp:

; 3269 : 
; 3270 : 	// cache sprite graphics
; 3271 : 	//12/12/99: Hurdler:
; 3272 : 	//          OK, I don't change anything for MD2 support because I want to be
; 3273 : 	//          sure to do it the right way. So actually, we keep normal sprite
; 3274 : 	//          in memory and we add the md2 model if it exists for that sprite
; 3275 : 
; 3276 : 	gpatch = W_CachePatchNum(spr->patchlumpnum, PU_CACHE);

  00070	6a 65		 push	 101			; 00000065H
  00072	8b 45 08	 mov	 eax, DWORD PTR _spr$[ebp]
  00075	8b 48 18	 mov	 ecx, DWORD PTR [eax+24]
  00078	51		 push	 ecx
  00079	e8 00 00 00 00	 call	 _W_CachePatchNum
  0007e	83 c4 08	 add	 esp, 8
  00081	89 45 88	 mov	 DWORD PTR _gpatch$[ebp], eax

; 3277 : 
; 3278 : 	// create the sprite billboard
; 3279 : 	//
; 3280 : 	//  3--2
; 3281 : 	//  | /|
; 3282 : 	//  |/ |
; 3283 : 	//  0--1
; 3284 : 	wallVerts[0].x = wallVerts[3].x = spr->x1;

  00084	b8 18 00 00 00	 mov	 eax, 24			; 00000018H
  00089	6b c8 03	 imul	 ecx, eax, 3
  0008c	8b 55 08	 mov	 edx, DWORD PTR _spr$[ebp]
  0008f	8b 42 08	 mov	 eax, DWORD PTR [edx+8]
  00092	89 44 0d 90	 mov	 DWORD PTR _wallVerts$[ebp+ecx], eax
  00096	b9 18 00 00 00	 mov	 ecx, 24			; 00000018H
  0009b	6b d1 03	 imul	 edx, ecx, 3
  0009e	b8 18 00 00 00	 mov	 eax, 24			; 00000018H
  000a3	6b c8 00	 imul	 ecx, eax, 0
  000a6	8b 54 15 90	 mov	 edx, DWORD PTR _wallVerts$[ebp+edx]
  000aa	89 54 0d 90	 mov	 DWORD PTR _wallVerts$[ebp+ecx], edx

; 3285 : 	wallVerts[2].x = wallVerts[1].x = spr->x2;

  000ae	b8 18 00 00 00	 mov	 eax, 24			; 00000018H
  000b3	c1 e0 00	 shl	 eax, 0
  000b6	8b 4d 08	 mov	 ecx, DWORD PTR _spr$[ebp]
  000b9	8b 51 0c	 mov	 edx, DWORD PTR [ecx+12]
  000bc	89 54 05 90	 mov	 DWORD PTR _wallVerts$[ebp+eax], edx
  000c0	b8 18 00 00 00	 mov	 eax, 24			; 00000018H
  000c5	c1 e0 00	 shl	 eax, 0
  000c8	b9 18 00 00 00	 mov	 ecx, 24			; 00000018H
  000cd	d1 e1		 shl	 ecx, 1
  000cf	8b 54 05 90	 mov	 edx, DWORD PTR _wallVerts$[ebp+eax]
  000d3	89 54 0d 90	 mov	 DWORD PTR _wallVerts$[ebp+ecx], edx

; 3286 : 	wallVerts[2].y = wallVerts[3].y = spr->ty;

  000d7	b8 18 00 00 00	 mov	 eax, 24			; 00000018H
  000dc	6b c8 03	 imul	 ecx, eax, 3
  000df	8b 55 08	 mov	 edx, DWORD PTR _spr$[ebp]
  000e2	8b 42 14	 mov	 eax, DWORD PTR [edx+20]
  000e5	89 44 0d 94	 mov	 DWORD PTR _wallVerts$[ebp+ecx+4], eax
  000e9	b9 18 00 00 00	 mov	 ecx, 24			; 00000018H
  000ee	6b d1 03	 imul	 edx, ecx, 3
  000f1	b8 18 00 00 00	 mov	 eax, 24			; 00000018H
  000f6	d1 e0		 shl	 eax, 1
  000f8	8b 4c 15 94	 mov	 ecx, DWORD PTR _wallVerts$[ebp+edx+4]
  000fc	89 4c 05 94	 mov	 DWORD PTR _wallVerts$[ebp+eax+4], ecx

; 3287 : 	wallVerts[0].y = wallVerts[1].y = spr->ty - gpatch->height;

  00100	8b 45 88	 mov	 eax, DWORD PTR _gpatch$[ebp]
  00103	0f bf 48 02	 movsx	 ecx, WORD PTR [eax+2]
  00107	f3 0f 2a c1	 cvtsi2ss xmm0, ecx
  0010b	8b 55 08	 mov	 edx, DWORD PTR _spr$[ebp]
  0010e	f3 0f 10 4a 14	 movss	 xmm1, DWORD PTR [edx+20]
  00113	f3 0f 5c c8	 subss	 xmm1, xmm0
  00117	f3 0f 11 8d 88
	fe ff ff	 movss	 DWORD PTR tv152[ebp], xmm1
  0011f	b8 18 00 00 00	 mov	 eax, 24			; 00000018H
  00124	c1 e0 00	 shl	 eax, 0
  00127	f3 0f 10 85 88
	fe ff ff	 movss	 xmm0, DWORD PTR tv152[ebp]
  0012f	f3 0f 11 44 05
	94		 movss	 DWORD PTR _wallVerts$[ebp+eax+4], xmm0
  00135	b9 18 00 00 00	 mov	 ecx, 24			; 00000018H
  0013a	6b d1 00	 imul	 edx, ecx, 0
  0013d	f3 0f 10 85 88
	fe ff ff	 movss	 xmm0, DWORD PTR tv152[ebp]
  00145	f3 0f 11 44 15
	94		 movss	 DWORD PTR _wallVerts$[ebp+edx+4], xmm0

; 3288 : 
; 3289 : 	if (hires)

  0014b	83 bd 7c ff ff
	ff 00		 cmp	 DWORD PTR _hires$[ebp], 0
  00152	0f 84 bb 00 00
	00		 je	 $LN10@HWR_DrawSp

; 3290 : 	{
; 3291 : 		wallVerts[0].x = wallVerts[3].x += (spr->x2-spr->x1)/4;

  00158	b8 18 00 00 00	 mov	 eax, 24			; 00000018H
  0015d	6b c8 03	 imul	 ecx, eax, 3
  00160	8b 55 08	 mov	 edx, DWORD PTR _spr$[ebp]
  00163	8b 45 08	 mov	 eax, DWORD PTR _spr$[ebp]
  00166	f3 0f 10 42 0c	 movss	 xmm0, DWORD PTR [edx+12]
  0016b	f3 0f 5c 40 08	 subss	 xmm0, DWORD PTR [eax+8]
  00170	f3 0f 5e 05 00
	00 00 00	 divss	 xmm0, DWORD PTR __real@40800000
  00178	f3 0f 10 4c 0d
	90		 movss	 xmm1, DWORD PTR _wallVerts$[ebp+ecx]
  0017e	f3 0f 58 c8	 addss	 xmm1, xmm0
  00182	f3 0f 11 8d 88
	fe ff ff	 movss	 DWORD PTR tv168[ebp], xmm1
  0018a	b9 18 00 00 00	 mov	 ecx, 24			; 00000018H
  0018f	6b d1 03	 imul	 edx, ecx, 3
  00192	f3 0f 10 85 88
	fe ff ff	 movss	 xmm0, DWORD PTR tv168[ebp]
  0019a	f3 0f 11 44 15
	90		 movss	 DWORD PTR _wallVerts$[ebp+edx], xmm0
  001a0	b8 18 00 00 00	 mov	 eax, 24			; 00000018H
  001a5	6b c8 00	 imul	 ecx, eax, 0
  001a8	f3 0f 10 85 88
	fe ff ff	 movss	 xmm0, DWORD PTR tv168[ebp]
  001b0	f3 0f 11 44 0d
	90		 movss	 DWORD PTR _wallVerts$[ebp+ecx], xmm0

; 3292 : 		wallVerts[2].x = wallVerts[1].x -= (spr->x2-spr->x1)/4;

  001b6	b8 18 00 00 00	 mov	 eax, 24			; 00000018H
  001bb	c1 e0 00	 shl	 eax, 0
  001be	8b 4d 08	 mov	 ecx, DWORD PTR _spr$[ebp]
  001c1	8b 55 08	 mov	 edx, DWORD PTR _spr$[ebp]
  001c4	f3 0f 10 41 0c	 movss	 xmm0, DWORD PTR [ecx+12]
  001c9	f3 0f 5c 42 08	 subss	 xmm0, DWORD PTR [edx+8]
  001ce	f3 0f 5e 05 00
	00 00 00	 divss	 xmm0, DWORD PTR __real@40800000
  001d6	f3 0f 10 4c 05
	90		 movss	 xmm1, DWORD PTR _wallVerts$[ebp+eax]
  001dc	f3 0f 5c c8	 subss	 xmm1, xmm0
  001e0	f3 0f 11 8d 88
	fe ff ff	 movss	 DWORD PTR tv183[ebp], xmm1
  001e8	b8 18 00 00 00	 mov	 eax, 24			; 00000018H
  001ed	c1 e0 00	 shl	 eax, 0
  001f0	f3 0f 10 85 88
	fe ff ff	 movss	 xmm0, DWORD PTR tv183[ebp]
  001f8	f3 0f 11 44 05
	90		 movss	 DWORD PTR _wallVerts$[ebp+eax], xmm0
  001fe	b9 18 00 00 00	 mov	 ecx, 24			; 00000018H
  00203	d1 e1		 shl	 ecx, 1
  00205	f3 0f 10 85 88
	fe ff ff	 movss	 xmm0, DWORD PTR tv183[ebp]
  0020d	f3 0f 11 44 0d
	90		 movss	 DWORD PTR _wallVerts$[ebp+ecx], xmm0
$LN10@HWR_DrawSp:

; 3293 : 	}
; 3294 : 
; 3295 : 	if(spr->mobj && spr->mobj->scale != 100)

  00213	8b 45 08	 mov	 eax, DWORD PTR _spr$[ebp]
  00216	83 78 24 00	 cmp	 DWORD PTR [eax+36], 0
  0021a	0f 84 b8 04 00
	00		 je	 $LN13@HWR_DrawSp
  00220	8b 45 08	 mov	 eax, DWORD PTR _spr$[ebp]
  00223	8b 48 24	 mov	 ecx, DWORD PTR [eax+36]
  00226	0f b7 91 cc 00
	00 00		 movzx	 edx, WORD PTR [ecx+204]
  0022d	83 fa 64	 cmp	 edx, 100		; 00000064H
  00230	0f 84 a2 04 00
	00		 je	 $LN13@HWR_DrawSp

; 3296 : 	{
; 3297 : 		const float radius = (spr->x2-spr->x1)/2;

  00236	8b 45 08	 mov	 eax, DWORD PTR _spr$[ebp]
  00239	8b 4d 08	 mov	 ecx, DWORD PTR _spr$[ebp]
  0023c	f3 0f 10 40 0c	 movss	 xmm0, DWORD PTR [eax+12]
  00241	f3 0f 5c 41 08	 subss	 xmm0, DWORD PTR [ecx+8]
  00246	f3 0f 5e 05 00
	00 00 00	 divss	 xmm0, DWORD PTR __real@40000000
  0024e	f3 0f 11 85 78
	ff ff ff	 movss	 DWORD PTR _radius$20[ebp], xmm0

; 3298 : 		const float scale = (float)(100-spr->mobj->scale);

  00256	8b 45 08	 mov	 eax, DWORD PTR _spr$[ebp]
  00259	8b 48 24	 mov	 ecx, DWORD PTR [eax+36]
  0025c	0f b7 91 cc 00
	00 00		 movzx	 edx, WORD PTR [ecx+204]
  00263	b8 64 00 00 00	 mov	 eax, 100		; 00000064H
  00268	2b c2		 sub	 eax, edx
  0026a	f3 0f 2a c0	 cvtsi2ss xmm0, eax
  0026e	f3 0f 11 85 74
	ff ff ff	 movss	 DWORD PTR _scale$19[ebp], xmm0

; 3299 : 		if(spr->mobj->flags & MF_HIRES)

  00276	8b 45 08	 mov	 eax, DWORD PTR _spr$[ebp]
  00279	8b 48 24	 mov	 ecx, DWORD PTR [eax+36]
  0027c	8b 51 60	 mov	 edx, DWORD PTR [ecx+96]
  0027f	81 e2 00 00 08
	00		 and	 edx, 524288		; 00080000H
  00285	0f 84 4d 02 00
	00		 je	 $LN12@HWR_DrawSp

; 3300 : 		{
; 3301 : 			wallVerts[0].x = wallVerts[3].x += FLOATSCALE(radius,scale)/2;

  0028b	b8 18 00 00 00	 mov	 eax, 24			; 00000018H
  00290	6b c8 03	 imul	 ecx, eax, 3
  00293	f3 0f 10 85 74
	ff ff ff	 movss	 xmm0, DWORD PTR _scale$19[ebp]
  0029b	f3 0f 59 85 78
	ff ff ff	 mulss	 xmm0, DWORD PTR _radius$20[ebp]
  002a3	f3 0f 5e 05 00
	00 00 00	 divss	 xmm0, DWORD PTR __real@42c80000
  002ab	f3 0f 5e 05 00
	00 00 00	 divss	 xmm0, DWORD PTR __real@40000000
  002b3	f3 0f 10 4c 0d
	90		 movss	 xmm1, DWORD PTR _wallVerts$[ebp+ecx]
  002b9	f3 0f 58 c8	 addss	 xmm1, xmm0
  002bd	f3 0f 11 8d 88
	fe ff ff	 movss	 DWORD PTR tv217[ebp], xmm1
  002c5	ba 18 00 00 00	 mov	 edx, 24			; 00000018H
  002ca	6b c2 03	 imul	 eax, edx, 3
  002cd	f3 0f 10 85 88
	fe ff ff	 movss	 xmm0, DWORD PTR tv217[ebp]
  002d5	f3 0f 11 44 05
	90		 movss	 DWORD PTR _wallVerts$[ebp+eax], xmm0
  002db	b9 18 00 00 00	 mov	 ecx, 24			; 00000018H
  002e0	6b d1 00	 imul	 edx, ecx, 0
  002e3	f3 0f 10 85 88
	fe ff ff	 movss	 xmm0, DWORD PTR tv217[ebp]
  002eb	f3 0f 11 44 15
	90		 movss	 DWORD PTR _wallVerts$[ebp+edx], xmm0

; 3302 : 			wallVerts[2].x = wallVerts[1].x -= FLOATSCALE(radius,scale)/2;

  002f1	b8 18 00 00 00	 mov	 eax, 24			; 00000018H
  002f6	c1 e0 00	 shl	 eax, 0
  002f9	f3 0f 10 85 74
	ff ff ff	 movss	 xmm0, DWORD PTR _scale$19[ebp]
  00301	f3 0f 59 85 78
	ff ff ff	 mulss	 xmm0, DWORD PTR _radius$20[ebp]
  00309	f3 0f 5e 05 00
	00 00 00	 divss	 xmm0, DWORD PTR __real@42c80000
  00311	f3 0f 5e 05 00
	00 00 00	 divss	 xmm0, DWORD PTR __real@40000000
  00319	f3 0f 10 4c 05
	90		 movss	 xmm1, DWORD PTR _wallVerts$[ebp+eax]
  0031f	f3 0f 5c c8	 subss	 xmm1, xmm0
  00323	f3 0f 11 8d 88
	fe ff ff	 movss	 DWORD PTR tv231[ebp], xmm1
  0032b	b9 18 00 00 00	 mov	 ecx, 24			; 00000018H
  00330	c1 e1 00	 shl	 ecx, 0
  00333	f3 0f 10 85 88
	fe ff ff	 movss	 xmm0, DWORD PTR tv231[ebp]
  0033b	f3 0f 11 44 0d
	90		 movss	 DWORD PTR _wallVerts$[ebp+ecx], xmm0
  00341	ba 18 00 00 00	 mov	 edx, 24			; 00000018H
  00346	d1 e2		 shl	 edx, 1
  00348	f3 0f 10 85 88
	fe ff ff	 movss	 xmm0, DWORD PTR tv231[ebp]
  00350	f3 0f 11 44 15
	90		 movss	 DWORD PTR _wallVerts$[ebp+edx], xmm0

; 3303 : 			wallVerts[0].y = wallVerts[1].y += FLOATSCALE(abs(gpatch->topoffset-gpatch->height),scale/2);

  00356	be 18 00 00 00	 mov	 esi, 24			; 00000018H
  0035b	c1 e6 00	 shl	 esi, 0
  0035e	f3 0f 10 85 74
	ff ff ff	 movss	 xmm0, DWORD PTR _scale$19[ebp]
  00366	f3 0f 5e 05 00
	00 00 00	 divss	 xmm0, DWORD PTR __real@40000000
  0036e	8b 45 88	 mov	 eax, DWORD PTR _gpatch$[ebp]
  00371	0f bf 48 06	 movsx	 ecx, WORD PTR [eax+6]
  00375	8b 55 88	 mov	 edx, DWORD PTR _gpatch$[ebp]
  00378	0f bf 42 02	 movsx	 eax, WORD PTR [edx+2]
  0037c	2b c8		 sub	 ecx, eax
  0037e	51		 push	 ecx
  0037f	f3 0f 11 85 88
	fe ff ff	 movss	 DWORD PTR tv2182[ebp], xmm0
  00387	e8 00 00 00 00	 call	 _abs
  0038c	83 c4 04	 add	 esp, 4
  0038f	f3 0f 2a c0	 cvtsi2ss xmm0, eax
  00393	f3 0f 10 8d 88
	fe ff ff	 movss	 xmm1, DWORD PTR tv2182[ebp]
  0039b	f3 0f 59 c8	 mulss	 xmm1, xmm0
  0039f	f3 0f 5e 0d 00
	00 00 00	 divss	 xmm1, DWORD PTR __real@42c80000
  003a7	f3 0f 10 44 35
	94		 movss	 xmm0, DWORD PTR _wallVerts$[ebp+esi+4]
  003ad	f3 0f 58 c1	 addss	 xmm0, xmm1
  003b1	f3 0f 11 85 84
	fe ff ff	 movss	 DWORD PTR tv254[ebp], xmm0
  003b9	b9 18 00 00 00	 mov	 ecx, 24			; 00000018H
  003be	c1 e1 00	 shl	 ecx, 0
  003c1	f3 0f 10 85 84
	fe ff ff	 movss	 xmm0, DWORD PTR tv254[ebp]
  003c9	f3 0f 11 44 0d
	94		 movss	 DWORD PTR _wallVerts$[ebp+ecx+4], xmm0
  003cf	ba 18 00 00 00	 mov	 edx, 24			; 00000018H
  003d4	6b c2 00	 imul	 eax, edx, 0
  003d7	f3 0f 10 85 84
	fe ff ff	 movss	 xmm0, DWORD PTR tv254[ebp]
  003df	f3 0f 11 44 05
	94		 movss	 DWORD PTR _wallVerts$[ebp+eax+4], xmm0

; 3304 : 			wallVerts[2].y = wallVerts[3].y += FLOATSCALE(abs(gpatch->topoffset-gpatch->height),scale/2);

  003e5	b8 18 00 00 00	 mov	 eax, 24			; 00000018H
  003ea	6b f0 03	 imul	 esi, eax, 3
  003ed	f3 0f 10 85 74
	ff ff ff	 movss	 xmm0, DWORD PTR _scale$19[ebp]
  003f5	f3 0f 5e 05 00
	00 00 00	 divss	 xmm0, DWORD PTR __real@40000000
  003fd	8b 4d 88	 mov	 ecx, DWORD PTR _gpatch$[ebp]
  00400	0f bf 51 06	 movsx	 edx, WORD PTR [ecx+6]
  00404	8b 45 88	 mov	 eax, DWORD PTR _gpatch$[ebp]
  00407	0f bf 48 02	 movsx	 ecx, WORD PTR [eax+2]
  0040b	2b d1		 sub	 edx, ecx
  0040d	52		 push	 edx
  0040e	f3 0f 11 85 88
	fe ff ff	 movss	 DWORD PTR tv2184[ebp], xmm0
  00416	e8 00 00 00 00	 call	 _abs
  0041b	83 c4 04	 add	 esp, 4
  0041e	f3 0f 2a c0	 cvtsi2ss xmm0, eax
  00422	f3 0f 10 8d 88
	fe ff ff	 movss	 xmm1, DWORD PTR tv2184[ebp]
  0042a	f3 0f 59 c8	 mulss	 xmm1, xmm0
  0042e	f3 0f 5e 0d 00
	00 00 00	 divss	 xmm1, DWORD PTR __real@42c80000
  00436	f3 0f 10 44 35
	94		 movss	 xmm0, DWORD PTR _wallVerts$[ebp+esi+4]
  0043c	f3 0f 58 c1	 addss	 xmm0, xmm1
  00440	f3 0f 11 85 84
	fe ff ff	 movss	 DWORD PTR tv277[ebp], xmm0
  00448	ba 18 00 00 00	 mov	 edx, 24			; 00000018H
  0044d	6b c2 03	 imul	 eax, edx, 3
  00450	f3 0f 10 85 84
	fe ff ff	 movss	 xmm0, DWORD PTR tv277[ebp]
  00458	f3 0f 11 44 05
	94		 movss	 DWORD PTR _wallVerts$[ebp+eax+4], xmm0
  0045e	b9 18 00 00 00	 mov	 ecx, 24			; 00000018H
  00463	d1 e1		 shl	 ecx, 1
  00465	f3 0f 10 85 84
	fe ff ff	 movss	 xmm0, DWORD PTR tv277[ebp]
  0046d	f3 0f 11 44 0d
	94		 movss	 DWORD PTR _wallVerts$[ebp+ecx+4], xmm0

; 3305 : 			wallVerts[2].y = wallVerts[3].y -= FLOATSCALE(gpatch->height,scale);

  00473	b8 18 00 00 00	 mov	 eax, 24			; 00000018H
  00478	6b c8 03	 imul	 ecx, eax, 3
  0047b	8b 55 88	 mov	 edx, DWORD PTR _gpatch$[ebp]
  0047e	0f bf 42 02	 movsx	 eax, WORD PTR [edx+2]
  00482	f3 0f 2a c0	 cvtsi2ss xmm0, eax
  00486	f3 0f 59 85 74
	ff ff ff	 mulss	 xmm0, DWORD PTR _scale$19[ebp]
  0048e	f3 0f 5e 05 00
	00 00 00	 divss	 xmm0, DWORD PTR __real@42c80000
  00496	f3 0f 10 4c 0d
	94		 movss	 xmm1, DWORD PTR _wallVerts$[ebp+ecx+4]
  0049c	f3 0f 5c c8	 subss	 xmm1, xmm0
  004a0	f3 0f 11 8d 88
	fe ff ff	 movss	 DWORD PTR tv293[ebp], xmm1
  004a8	b9 18 00 00 00	 mov	 ecx, 24			; 00000018H
  004ad	6b d1 03	 imul	 edx, ecx, 3
  004b0	f3 0f 10 85 88
	fe ff ff	 movss	 xmm0, DWORD PTR tv293[ebp]
  004b8	f3 0f 11 44 15
	94		 movss	 DWORD PTR _wallVerts$[ebp+edx+4], xmm0
  004be	b8 18 00 00 00	 mov	 eax, 24			; 00000018H
  004c3	d1 e0		 shl	 eax, 1
  004c5	f3 0f 10 85 88
	fe ff ff	 movss	 xmm0, DWORD PTR tv293[ebp]
  004cd	f3 0f 11 44 05
	94		 movss	 DWORD PTR _wallVerts$[ebp+eax+4], xmm0

; 3306 : 		}

  004d3	e9 00 02 00 00	 jmp	 $LN13@HWR_DrawSp
$LN12@HWR_DrawSp:

; 3307 : 		else
; 3308 : 		{
; 3309 : 			wallVerts[0].x = wallVerts[3].x += FLOATSCALE(radius,scale);

  004d8	b8 18 00 00 00	 mov	 eax, 24			; 00000018H
  004dd	6b c8 03	 imul	 ecx, eax, 3
  004e0	f3 0f 10 85 74
	ff ff ff	 movss	 xmm0, DWORD PTR _scale$19[ebp]
  004e8	f3 0f 59 85 78
	ff ff ff	 mulss	 xmm0, DWORD PTR _radius$20[ebp]
  004f0	f3 0f 5e 05 00
	00 00 00	 divss	 xmm0, DWORD PTR __real@42c80000
  004f8	f3 0f 10 4c 0d
	90		 movss	 xmm1, DWORD PTR _wallVerts$[ebp+ecx]
  004fe	f3 0f 58 c8	 addss	 xmm1, xmm0
  00502	f3 0f 11 8d 88
	fe ff ff	 movss	 DWORD PTR tv306[ebp], xmm1
  0050a	ba 18 00 00 00	 mov	 edx, 24			; 00000018H
  0050f	6b c2 03	 imul	 eax, edx, 3
  00512	f3 0f 10 85 88
	fe ff ff	 movss	 xmm0, DWORD PTR tv306[ebp]
  0051a	f3 0f 11 44 05
	90		 movss	 DWORD PTR _wallVerts$[ebp+eax], xmm0
  00520	b9 18 00 00 00	 mov	 ecx, 24			; 00000018H
  00525	6b d1 00	 imul	 edx, ecx, 0
  00528	f3 0f 10 85 88
	fe ff ff	 movss	 xmm0, DWORD PTR tv306[ebp]
  00530	f3 0f 11 44 15
	90		 movss	 DWORD PTR _wallVerts$[ebp+edx], xmm0

; 3310 : 			wallVerts[2].x = wallVerts[1].x -= FLOATSCALE(radius,scale);

  00536	b8 18 00 00 00	 mov	 eax, 24			; 00000018H
  0053b	c1 e0 00	 shl	 eax, 0
  0053e	f3 0f 10 85 74
	ff ff ff	 movss	 xmm0, DWORD PTR _scale$19[ebp]
  00546	f3 0f 59 85 78
	ff ff ff	 mulss	 xmm0, DWORD PTR _radius$20[ebp]
  0054e	f3 0f 5e 05 00
	00 00 00	 divss	 xmm0, DWORD PTR __real@42c80000
  00556	f3 0f 10 4c 05
	90		 movss	 xmm1, DWORD PTR _wallVerts$[ebp+eax]
  0055c	f3 0f 5c c8	 subss	 xmm1, xmm0
  00560	f3 0f 11 8d 88
	fe ff ff	 movss	 DWORD PTR tv319[ebp], xmm1
  00568	b9 18 00 00 00	 mov	 ecx, 24			; 00000018H
  0056d	c1 e1 00	 shl	 ecx, 0
  00570	f3 0f 10 85 88
	fe ff ff	 movss	 xmm0, DWORD PTR tv319[ebp]
  00578	f3 0f 11 44 0d
	90		 movss	 DWORD PTR _wallVerts$[ebp+ecx], xmm0
  0057e	ba 18 00 00 00	 mov	 edx, 24			; 00000018H
  00583	d1 e2		 shl	 edx, 1
  00585	f3 0f 10 85 88
	fe ff ff	 movss	 xmm0, DWORD PTR tv319[ebp]
  0058d	f3 0f 11 44 15
	90		 movss	 DWORD PTR _wallVerts$[ebp+edx], xmm0

; 3311 : 			wallVerts[0].y = wallVerts[1].y += FLOATSCALE(abs(gpatch->topoffset-gpatch->height),scale);

  00593	be 18 00 00 00	 mov	 esi, 24			; 00000018H
  00598	c1 e6 00	 shl	 esi, 0
  0059b	8b 45 88	 mov	 eax, DWORD PTR _gpatch$[ebp]
  0059e	0f bf 48 06	 movsx	 ecx, WORD PTR [eax+6]
  005a2	8b 55 88	 mov	 edx, DWORD PTR _gpatch$[ebp]
  005a5	0f bf 42 02	 movsx	 eax, WORD PTR [edx+2]
  005a9	2b c8		 sub	 ecx, eax
  005ab	51		 push	 ecx
  005ac	e8 00 00 00 00	 call	 _abs
  005b1	83 c4 04	 add	 esp, 4
  005b4	f3 0f 2a c0	 cvtsi2ss xmm0, eax
  005b8	f3 0f 59 85 74
	ff ff ff	 mulss	 xmm0, DWORD PTR _scale$19[ebp]
  005c0	f3 0f 5e 05 00
	00 00 00	 divss	 xmm0, DWORD PTR __real@42c80000
  005c8	f3 0f 10 4c 35
	94		 movss	 xmm1, DWORD PTR _wallVerts$[ebp+esi+4]
  005ce	f3 0f 58 c8	 addss	 xmm1, xmm0
  005d2	f3 0f 11 8d 88
	fe ff ff	 movss	 DWORD PTR tv340[ebp], xmm1
  005da	b9 18 00 00 00	 mov	 ecx, 24			; 00000018H
  005df	c1 e1 00	 shl	 ecx, 0
  005e2	f3 0f 10 85 88
	fe ff ff	 movss	 xmm0, DWORD PTR tv340[ebp]
  005ea	f3 0f 11 44 0d
	94		 movss	 DWORD PTR _wallVerts$[ebp+ecx+4], xmm0
  005f0	ba 18 00 00 00	 mov	 edx, 24			; 00000018H
  005f5	6b c2 00	 imul	 eax, edx, 0
  005f8	f3 0f 10 85 88
	fe ff ff	 movss	 xmm0, DWORD PTR tv340[ebp]
  00600	f3 0f 11 44 05
	94		 movss	 DWORD PTR _wallVerts$[ebp+eax+4], xmm0

; 3312 : 			wallVerts[2].y = wallVerts[3].y += FLOATSCALE(abs(gpatch->topoffset-gpatch->height),scale);

  00606	b8 18 00 00 00	 mov	 eax, 24			; 00000018H
  0060b	6b f0 03	 imul	 esi, eax, 3
  0060e	8b 4d 88	 mov	 ecx, DWORD PTR _gpatch$[ebp]
  00611	0f bf 51 06	 movsx	 edx, WORD PTR [ecx+6]
  00615	8b 45 88	 mov	 eax, DWORD PTR _gpatch$[ebp]
  00618	0f bf 48 02	 movsx	 ecx, WORD PTR [eax+2]
  0061c	2b d1		 sub	 edx, ecx
  0061e	52		 push	 edx
  0061f	e8 00 00 00 00	 call	 _abs
  00624	83 c4 04	 add	 esp, 4
  00627	f3 0f 2a c0	 cvtsi2ss xmm0, eax
  0062b	f3 0f 59 85 74
	ff ff ff	 mulss	 xmm0, DWORD PTR _scale$19[ebp]
  00633	f3 0f 5e 05 00
	00 00 00	 divss	 xmm0, DWORD PTR __real@42c80000
  0063b	f3 0f 10 4c 35
	94		 movss	 xmm1, DWORD PTR _wallVerts$[ebp+esi+4]
  00641	f3 0f 58 c8	 addss	 xmm1, xmm0
  00645	f3 0f 11 8d 88
	fe ff ff	 movss	 DWORD PTR tv361[ebp], xmm1
  0064d	ba 18 00 00 00	 mov	 edx, 24			; 00000018H
  00652	6b c2 03	 imul	 eax, edx, 3
  00655	f3 0f 10 85 88
	fe ff ff	 movss	 xmm0, DWORD PTR tv361[ebp]
  0065d	f3 0f 11 44 05
	94		 movss	 DWORD PTR _wallVerts$[ebp+eax+4], xmm0
  00663	b9 18 00 00 00	 mov	 ecx, 24			; 00000018H
  00668	d1 e1		 shl	 ecx, 1
  0066a	f3 0f 10 85 88
	fe ff ff	 movss	 xmm0, DWORD PTR tv361[ebp]
  00672	f3 0f 11 44 0d
	94		 movss	 DWORD PTR _wallVerts$[ebp+ecx+4], xmm0

; 3313 : 			wallVerts[2].y = wallVerts[3].y -= FLOATSCALE(gpatch->height,scale);

  00678	b8 18 00 00 00	 mov	 eax, 24			; 00000018H
  0067d	6b c8 03	 imul	 ecx, eax, 3
  00680	8b 55 88	 mov	 edx, DWORD PTR _gpatch$[ebp]
  00683	0f bf 42 02	 movsx	 eax, WORD PTR [edx+2]
  00687	f3 0f 2a c0	 cvtsi2ss xmm0, eax
  0068b	f3 0f 59 85 74
	ff ff ff	 mulss	 xmm0, DWORD PTR _scale$19[ebp]
  00693	f3 0f 5e 05 00
	00 00 00	 divss	 xmm0, DWORD PTR __real@42c80000
  0069b	f3 0f 10 4c 0d
	94		 movss	 xmm1, DWORD PTR _wallVerts$[ebp+ecx+4]
  006a1	f3 0f 5c c8	 subss	 xmm1, xmm0
  006a5	f3 0f 11 8d 88
	fe ff ff	 movss	 DWORD PTR tv377[ebp], xmm1
  006ad	b9 18 00 00 00	 mov	 ecx, 24			; 00000018H
  006b2	6b d1 03	 imul	 edx, ecx, 3
  006b5	f3 0f 10 85 88
	fe ff ff	 movss	 xmm0, DWORD PTR tv377[ebp]
  006bd	f3 0f 11 44 15
	94		 movss	 DWORD PTR _wallVerts$[ebp+edx+4], xmm0
  006c3	b8 18 00 00 00	 mov	 eax, 24			; 00000018H
  006c8	d1 e0		 shl	 eax, 1
  006ca	f3 0f 10 85 88
	fe ff ff	 movss	 xmm0, DWORD PTR tv377[ebp]
  006d2	f3 0f 11 44 05
	94		 movss	 DWORD PTR _wallVerts$[ebp+eax+4], xmm0
$LN13@HWR_DrawSp:

; 3314 : 		}
; 3315 : 	}
; 3316 : 
; 3317 : 	// make a wall polygon (with 2 triangles), using the floor/ceiling heights,
; 3318 : 	// and the 2d map coords of start/end vertices
; 3319 : 	wallVerts[0].z = wallVerts[1].z = wallVerts[2].z = wallVerts[3].z = spr->tz;

  006d8	b8 18 00 00 00	 mov	 eax, 24			; 00000018H
  006dd	6b c8 03	 imul	 ecx, eax, 3
  006e0	8b 55 08	 mov	 edx, DWORD PTR _spr$[ebp]
  006e3	8b 42 10	 mov	 eax, DWORD PTR [edx+16]
  006e6	89 44 0d 98	 mov	 DWORD PTR _wallVerts$[ebp+ecx+8], eax
  006ea	b9 18 00 00 00	 mov	 ecx, 24			; 00000018H
  006ef	6b d1 03	 imul	 edx, ecx, 3
  006f2	b8 18 00 00 00	 mov	 eax, 24			; 00000018H
  006f7	d1 e0		 shl	 eax, 1
  006f9	8b 4c 15 98	 mov	 ecx, DWORD PTR _wallVerts$[ebp+edx+8]
  006fd	89 4c 05 98	 mov	 DWORD PTR _wallVerts$[ebp+eax+8], ecx
  00701	ba 18 00 00 00	 mov	 edx, 24			; 00000018H
  00706	d1 e2		 shl	 edx, 1
  00708	b8 18 00 00 00	 mov	 eax, 24			; 00000018H
  0070d	c1 e0 00	 shl	 eax, 0
  00710	8b 4c 15 98	 mov	 ecx, DWORD PTR _wallVerts$[ebp+edx+8]
  00714	89 4c 05 98	 mov	 DWORD PTR _wallVerts$[ebp+eax+8], ecx
  00718	ba 18 00 00 00	 mov	 edx, 24			; 00000018H
  0071d	c1 e2 00	 shl	 edx, 0
  00720	b8 18 00 00 00	 mov	 eax, 24			; 00000018H
  00725	6b c8 00	 imul	 ecx, eax, 0
  00728	8b 54 15 98	 mov	 edx, DWORD PTR _wallVerts$[ebp+edx+8]
  0072c	89 54 0d 98	 mov	 DWORD PTR _wallVerts$[ebp+ecx+8], edx

; 3320 : 
; 3321 : 	// transform
; 3322 : 	wv = wallVerts;

  00730	8d 45 90	 lea	 eax, DWORD PTR _wallVerts$[ebp]
  00733	89 45 8c	 mov	 DWORD PTR _wv$[ebp], eax

; 3323 : 
; 3324 : 	for (i = 0; i < 4; i++,wv++)

  00736	c6 45 fb 00	 mov	 BYTE PTR _i$[ebp], 0
  0073a	eb 11		 jmp	 SHORT $LN4@HWR_DrawSp
$LN2@HWR_DrawSp:
  0073c	8a 45 fb	 mov	 al, BYTE PTR _i$[ebp]
  0073f	04 01		 add	 al, 1
  00741	88 45 fb	 mov	 BYTE PTR _i$[ebp], al
  00744	8b 4d 8c	 mov	 ecx, DWORD PTR _wv$[ebp]
  00747	83 c1 18	 add	 ecx, 24			; 00000018H
  0074a	89 4d 8c	 mov	 DWORD PTR _wv$[ebp], ecx
$LN4@HWR_DrawSp:
  0074d	0f b6 45 fb	 movzx	 eax, BYTE PTR _i$[ebp]
  00751	83 f8 04	 cmp	 eax, 4
  00754	0f 8d a1 00 00
	00		 jge	 $LN3@HWR_DrawSp

; 3325 : 	{
; 3326 : 		//look up/down ----TOTAL SUCKS!!!--- do the 2 in one!!!!!!!!!!!!!!!!!!!!!!!!!!!!!!!
; 3327 : 		tr_x = wv->z;

  0075a	8b 45 8c	 mov	 eax, DWORD PTR _wv$[ebp]
  0075d	f3 0f 10 40 08	 movss	 xmm0, DWORD PTR [eax+8]
  00762	f3 0f 11 45 f4	 movss	 DWORD PTR _tr_x$[ebp], xmm0

; 3328 : 		tr_y = wv->y;

  00767	8b 45 8c	 mov	 eax, DWORD PTR _wv$[ebp]
  0076a	f3 0f 10 40 04	 movss	 xmm0, DWORD PTR [eax+4]
  0076f	f3 0f 11 45 f0	 movss	 DWORD PTR _tr_y$[ebp], xmm0

; 3329 : 		wv->y = (tr_x * gr_viewludcos) + (tr_y * gr_viewludsin);

  00774	f3 0f 10 45 f4	 movss	 xmm0, DWORD PTR _tr_x$[ebp]
  00779	f3 0f 59 05 00
	00 00 00	 mulss	 xmm0, DWORD PTR _gr_viewludcos
  00781	f3 0f 10 4d f0	 movss	 xmm1, DWORD PTR _tr_y$[ebp]
  00786	f3 0f 59 0d 00
	00 00 00	 mulss	 xmm1, DWORD PTR _gr_viewludsin
  0078e	f3 0f 58 c1	 addss	 xmm0, xmm1
  00792	8b 45 8c	 mov	 eax, DWORD PTR _wv$[ebp]
  00795	f3 0f 11 40 04	 movss	 DWORD PTR [eax+4], xmm0

; 3330 : 		wv->z = (tr_x * gr_viewludsin) - (tr_y * gr_viewludcos);

  0079a	f3 0f 10 45 f4	 movss	 xmm0, DWORD PTR _tr_x$[ebp]
  0079f	f3 0f 59 05 00
	00 00 00	 mulss	 xmm0, DWORD PTR _gr_viewludsin
  007a7	f3 0f 10 4d f0	 movss	 xmm1, DWORD PTR _tr_y$[ebp]
  007ac	f3 0f 59 0d 00
	00 00 00	 mulss	 xmm1, DWORD PTR _gr_viewludcos
  007b4	f3 0f 5c c1	 subss	 xmm0, xmm1
  007b8	8b 45 8c	 mov	 eax, DWORD PTR _wv$[ebp]
  007bb	f3 0f 11 40 08	 movss	 DWORD PTR [eax+8], xmm0

; 3331 : 		// ---------------------- mega lame test ----------------------------------
; 3332 : 
; 3333 : 		//scale y before frustum so that frustum can be scaled to screen height
; 3334 : 		wv->y *= ORIGINAL_ASPECT * gr_fovlud;

  007c0	f3 0f 10 05 00
	00 00 00	 movss	 xmm0, DWORD PTR __real@3fcccccd
  007c8	f3 0f 59 05 00
	00 00 00	 mulss	 xmm0, DWORD PTR _gr_fovlud
  007d0	8b 45 8c	 mov	 eax, DWORD PTR _wv$[ebp]
  007d3	f3 0f 59 40 04	 mulss	 xmm0, DWORD PTR [eax+4]
  007d8	8b 4d 8c	 mov	 ecx, DWORD PTR _wv$[ebp]
  007db	f3 0f 11 41 04	 movss	 DWORD PTR [ecx+4], xmm0

; 3335 : 		wv->x *= gr_fovlud;

  007e0	8b 45 8c	 mov	 eax, DWORD PTR _wv$[ebp]
  007e3	f3 0f 10 00	 movss	 xmm0, DWORD PTR [eax]
  007e7	f3 0f 59 05 00
	00 00 00	 mulss	 xmm0, DWORD PTR _gr_fovlud
  007ef	8b 4d 8c	 mov	 ecx, DWORD PTR _wv$[ebp]
  007f2	f3 0f 11 01	 movss	 DWORD PTR [ecx], xmm0

; 3336 : 	}

  007f6	e9 41 ff ff ff	 jmp	 $LN2@HWR_DrawSp
$LN3@HWR_DrawSp:

; 3337 : 
; 3338 : 	if (spr->flip)

  007fb	8b 45 08	 mov	 eax, DWORD PTR _spr$[ebp]
  007fe	83 78 1c 00	 cmp	 DWORD PTR [eax+28], 0
  00802	74 4d		 je	 SHORT $LN14@HWR_DrawSp

; 3339 : 	{
; 3340 : 		wallVerts[0].sow = wallVerts[3].sow = gpatch->max_s;

  00804	b8 18 00 00 00	 mov	 eax, 24			; 00000018H
  00809	6b c8 03	 imul	 ecx, eax, 3
  0080c	8b 55 88	 mov	 edx, DWORD PTR _gpatch$[ebp]
  0080f	8b 42 08	 mov	 eax, DWORD PTR [edx+8]
  00812	89 44 0d a0	 mov	 DWORD PTR _wallVerts$[ebp+ecx+16], eax
  00816	b9 18 00 00 00	 mov	 ecx, 24			; 00000018H
  0081b	6b d1 03	 imul	 edx, ecx, 3
  0081e	b8 18 00 00 00	 mov	 eax, 24			; 00000018H
  00823	6b c8 00	 imul	 ecx, eax, 0
  00826	8b 54 15 a0	 mov	 edx, DWORD PTR _wallVerts$[ebp+edx+16]
  0082a	89 54 0d a0	 mov	 DWORD PTR _wallVerts$[ebp+ecx+16], edx

; 3341 : 		wallVerts[2].sow = wallVerts[1].sow = 0;

  0082e	b8 18 00 00 00	 mov	 eax, 24			; 00000018H
  00833	c1 e0 00	 shl	 eax, 0
  00836	0f 57 c0	 xorps	 xmm0, xmm0
  00839	f3 0f 11 44 05
	a0		 movss	 DWORD PTR _wallVerts$[ebp+eax+16], xmm0
  0083f	b9 18 00 00 00	 mov	 ecx, 24			; 00000018H
  00844	d1 e1		 shl	 ecx, 1
  00846	0f 57 c0	 xorps	 xmm0, xmm0
  00849	f3 0f 11 44 0d
	a0		 movss	 DWORD PTR _wallVerts$[ebp+ecx+16], xmm0

; 3342 : 	}else{

  0084f	eb 4b		 jmp	 SHORT $LN15@HWR_DrawSp
$LN14@HWR_DrawSp:

; 3343 : 		wallVerts[0].sow = wallVerts[3].sow = 0;

  00851	b8 18 00 00 00	 mov	 eax, 24			; 00000018H
  00856	6b c8 03	 imul	 ecx, eax, 3
  00859	0f 57 c0	 xorps	 xmm0, xmm0
  0085c	f3 0f 11 44 0d
	a0		 movss	 DWORD PTR _wallVerts$[ebp+ecx+16], xmm0
  00862	ba 18 00 00 00	 mov	 edx, 24			; 00000018H
  00867	6b c2 00	 imul	 eax, edx, 0
  0086a	0f 57 c0	 xorps	 xmm0, xmm0
  0086d	f3 0f 11 44 05
	a0		 movss	 DWORD PTR _wallVerts$[ebp+eax+16], xmm0

; 3344 : 		wallVerts[2].sow = wallVerts[1].sow = gpatch->max_s;

  00873	b8 18 00 00 00	 mov	 eax, 24			; 00000018H
  00878	c1 e0 00	 shl	 eax, 0
  0087b	8b 4d 88	 mov	 ecx, DWORD PTR _gpatch$[ebp]
  0087e	8b 51 08	 mov	 edx, DWORD PTR [ecx+8]
  00881	89 54 05 a0	 mov	 DWORD PTR _wallVerts$[ebp+eax+16], edx
  00885	b8 18 00 00 00	 mov	 eax, 24			; 00000018H
  0088a	c1 e0 00	 shl	 eax, 0
  0088d	b9 18 00 00 00	 mov	 ecx, 24			; 00000018H
  00892	d1 e1		 shl	 ecx, 1
  00894	8b 54 05 a0	 mov	 edx, DWORD PTR _wallVerts$[ebp+eax+16]
  00898	89 54 0d a0	 mov	 DWORD PTR _wallVerts$[ebp+ecx+16], edx
$LN15@HWR_DrawSp:

; 3345 : 	}
; 3346 : 
; 3347 : 	wallVerts[3].tow = wallVerts[2].tow = 0;

  0089c	b8 18 00 00 00	 mov	 eax, 24			; 00000018H
  008a1	d1 e0		 shl	 eax, 1
  008a3	0f 57 c0	 xorps	 xmm0, xmm0
  008a6	f3 0f 11 44 05
	a4		 movss	 DWORD PTR _wallVerts$[ebp+eax+20], xmm0
  008ac	b9 18 00 00 00	 mov	 ecx, 24			; 00000018H
  008b1	6b d1 03	 imul	 edx, ecx, 3
  008b4	0f 57 c0	 xorps	 xmm0, xmm0
  008b7	f3 0f 11 44 15
	a4		 movss	 DWORD PTR _wallVerts$[ebp+edx+20], xmm0

; 3348 : 
; 3349 : 	if (hires)

  008bd	83 bd 7c ff ff
	ff 00		 cmp	 DWORD PTR _hires$[ebp], 0
  008c4	74 46		 je	 SHORT $LN16@HWR_DrawSp

; 3350 : 		wallVerts[0].tow = wallVerts[1].tow = gpatch->max_t*2;

  008c6	8b 45 88	 mov	 eax, DWORD PTR _gpatch$[ebp]
  008c9	f3 0f 10 40 0c	 movss	 xmm0, DWORD PTR [eax+12]
  008ce	f3 0f 59 05 00
	00 00 00	 mulss	 xmm0, DWORD PTR __real@40000000
  008d6	f3 0f 11 85 88
	fe ff ff	 movss	 DWORD PTR tv473[ebp], xmm0
  008de	b9 18 00 00 00	 mov	 ecx, 24			; 00000018H
  008e3	c1 e1 00	 shl	 ecx, 0
  008e6	f3 0f 10 85 88
	fe ff ff	 movss	 xmm0, DWORD PTR tv473[ebp]
  008ee	f3 0f 11 44 0d
	a4		 movss	 DWORD PTR _wallVerts$[ebp+ecx+20], xmm0
  008f4	ba 18 00 00 00	 mov	 edx, 24			; 00000018H
  008f9	6b c2 00	 imul	 eax, edx, 0
  008fc	f3 0f 10 85 88
	fe ff ff	 movss	 xmm0, DWORD PTR tv473[ebp]
  00904	f3 0f 11 44 05
	a4		 movss	 DWORD PTR _wallVerts$[ebp+eax+20], xmm0
  0090a	eb 2a		 jmp	 SHORT $LN17@HWR_DrawSp
$LN16@HWR_DrawSp:

; 3351 : 	else
; 3352 : 		wallVerts[0].tow = wallVerts[1].tow = gpatch->max_t;

  0090c	b8 18 00 00 00	 mov	 eax, 24			; 00000018H
  00911	c1 e0 00	 shl	 eax, 0
  00914	8b 4d 88	 mov	 ecx, DWORD PTR _gpatch$[ebp]
  00917	8b 51 0c	 mov	 edx, DWORD PTR [ecx+12]
  0091a	89 54 05 a4	 mov	 DWORD PTR _wallVerts$[ebp+eax+20], edx
  0091e	b8 18 00 00 00	 mov	 eax, 24			; 00000018H
  00923	c1 e0 00	 shl	 eax, 0
  00926	b9 18 00 00 00	 mov	 ecx, 24			; 00000018H
  0092b	6b d1 00	 imul	 edx, ecx, 0
  0092e	8b 44 05 a4	 mov	 eax, DWORD PTR _wallVerts$[ebp+eax+20]
  00932	89 44 15 a4	 mov	 DWORD PTR _wallVerts$[ebp+edx+20], eax
$LN17@HWR_DrawSp:

; 3353 : 
; 3354 : 	// flip the texture coords
; 3355 : 	if (spr->vflip)

  00936	8b 45 08	 mov	 eax, DWORD PTR _spr$[ebp]
  00939	83 78 2c 00	 cmp	 DWORD PTR [eax+44], 0
  0093d	0f 84 86 00 00
	00		 je	 $LN18@HWR_DrawSp

; 3356 : 	{
; 3357 : 		FLOAT temp = wallVerts[0].tow;

  00943	b8 18 00 00 00	 mov	 eax, 24			; 00000018H
  00948	6b c8 00	 imul	 ecx, eax, 0
  0094b	f3 0f 10 44 0d
	a4		 movss	 xmm0, DWORD PTR _wallVerts$[ebp+ecx+20]
  00951	f3 0f 11 85 70
	ff ff ff	 movss	 DWORD PTR _temp$18[ebp], xmm0

; 3358 : 		wallVerts[0].tow = wallVerts[3].tow;

  00959	b8 18 00 00 00	 mov	 eax, 24			; 00000018H
  0095e	6b c8 03	 imul	 ecx, eax, 3
  00961	ba 18 00 00 00	 mov	 edx, 24			; 00000018H
  00966	6b c2 00	 imul	 eax, edx, 0
  00969	8b 4c 0d a4	 mov	 ecx, DWORD PTR _wallVerts$[ebp+ecx+20]
  0096d	89 4c 05 a4	 mov	 DWORD PTR _wallVerts$[ebp+eax+20], ecx

; 3359 : 		wallVerts[3].tow = temp;

  00971	b8 18 00 00 00	 mov	 eax, 24			; 00000018H
  00976	6b c8 03	 imul	 ecx, eax, 3
  00979	f3 0f 10 85 70
	ff ff ff	 movss	 xmm0, DWORD PTR _temp$18[ebp]
  00981	f3 0f 11 44 0d
	a4		 movss	 DWORD PTR _wallVerts$[ebp+ecx+20], xmm0

; 3360 : 		temp = wallVerts[1].tow;

  00987	b8 18 00 00 00	 mov	 eax, 24			; 00000018H
  0098c	c1 e0 00	 shl	 eax, 0
  0098f	f3 0f 10 44 05
	a4		 movss	 xmm0, DWORD PTR _wallVerts$[ebp+eax+20]
  00995	f3 0f 11 85 70
	ff ff ff	 movss	 DWORD PTR _temp$18[ebp], xmm0

; 3361 : 		wallVerts[1].tow = wallVerts[2].tow;

  0099d	b8 18 00 00 00	 mov	 eax, 24			; 00000018H
  009a2	d1 e0		 shl	 eax, 1
  009a4	b9 18 00 00 00	 mov	 ecx, 24			; 00000018H
  009a9	c1 e1 00	 shl	 ecx, 0
  009ac	8b 54 05 a4	 mov	 edx, DWORD PTR _wallVerts$[ebp+eax+20]
  009b0	89 54 0d a4	 mov	 DWORD PTR _wallVerts$[ebp+ecx+20], edx

; 3362 : 		wallVerts[2].tow = temp;

  009b4	b8 18 00 00 00	 mov	 eax, 24			; 00000018H
  009b9	d1 e0		 shl	 eax, 1
  009bb	f3 0f 10 85 70
	ff ff ff	 movss	 xmm0, DWORD PTR _temp$18[ebp]
  009c3	f3 0f 11 44 05
	a4		 movss	 DWORD PTR _wallVerts$[ebp+eax+20], xmm0
$LN18@HWR_DrawSp:

; 3363 : 	}
; 3364 : 
; 3365 : 	// cache the patch in the graphics card memory
; 3366 : 	//12/12/99: Hurdler: same comment as above (for md2)
; 3367 : 	//Hurdler: 25/04/2000: now support colormap in hardware mode
; 3368 : 	HWR_GetMappedPatch(gpatch, spr->colormap);

  009c9	8b 45 08	 mov	 eax, DWORD PTR _spr$[ebp]
  009cc	8b 48 30	 mov	 ecx, DWORD PTR [eax+48]
  009cf	51		 push	 ecx
  009d0	8b 55 88	 mov	 edx, DWORD PTR _gpatch$[ebp]
  009d3	52		 push	 edx
  009d4	e8 00 00 00 00	 call	 _HWR_GetMappedPatch
  009d9	83 c4 08	 add	 esp, 8

; 3369 : 
; 3370 : 	// Draw shadow BEFORE SPRITE.
; 3371 : 	if (cv_shadow.value // Shadows enabled
; 3372 : 		&& !(spr->mobj->flags & MF_SCENERY && spr->mobj->flags & MF_SPAWNCEILING && spr->mobj->flags & MF_NOGRAVITY) // Ceiling scenery have no shadow.
; 3373 : 		&& !(spr->mobj->flags2 & MF2_DEBRIS) // Debris have no corona or shadow.
; 3374 : 		&& (spr->mobj->z >= spr->mobj->floorz)) // Without this, your shadow shows on the floor, even after you die and fall through the ground.

  009dc	83 3d 14 00 00
	00 00		 cmp	 DWORD PTR _cv_shadow+20, 0
  009e3	0f 84 c6 0e 00
	00		 je	 $noshadow$77
  009e9	8b 45 08	 mov	 eax, DWORD PTR _spr$[ebp]
  009ec	8b 48 24	 mov	 ecx, DWORD PTR [eax+36]
  009ef	8b 51 60	 mov	 edx, DWORD PTR [ecx+96]
  009f2	81 e2 00 00 00
	02		 and	 edx, 33554432		; 02000000H
  009f8	74 26		 je	 SHORT $LN20@HWR_DrawSp
  009fa	8b 45 08	 mov	 eax, DWORD PTR _spr$[ebp]
  009fd	8b 48 24	 mov	 ecx, DWORD PTR [eax+36]
  00a00	8b 51 60	 mov	 edx, DWORD PTR [ecx+96]
  00a03	81 e2 00 01 00
	00		 and	 edx, 256		; 00000100H
  00a09	74 15		 je	 SHORT $LN20@HWR_DrawSp
  00a0b	8b 45 08	 mov	 eax, DWORD PTR _spr$[ebp]
  00a0e	8b 48 24	 mov	 ecx, DWORD PTR [eax+36]
  00a11	8b 51 60	 mov	 edx, DWORD PTR [ecx+96]
  00a14	81 e2 00 02 00
	00		 and	 edx, 512		; 00000200H
  00a1a	0f 85 8f 0e 00
	00		 jne	 $noshadow$77
$LN20@HWR_DrawSp:
  00a20	8b 45 08	 mov	 eax, DWORD PTR _spr$[ebp]
  00a23	8b 48 24	 mov	 ecx, DWORD PTR [eax+36]
  00a26	8b 91 88 00 00
	00		 mov	 edx, DWORD PTR [ecx+136]
  00a2c	83 e2 40	 and	 edx, 64			; 00000040H
  00a2f	0f 85 7a 0e 00
	00		 jne	 $noshadow$77
  00a35	8b 45 08	 mov	 eax, DWORD PTR _spr$[ebp]
  00a38	8b 48 24	 mov	 ecx, DWORD PTR [eax+36]
  00a3b	8b 55 08	 mov	 edx, DWORD PTR _spr$[ebp]
  00a3e	8b 42 24	 mov	 eax, DWORD PTR [edx+36]
  00a41	8b 49 18	 mov	 ecx, DWORD PTR [ecx+24]
  00a44	3b 48 38	 cmp	 ecx, DWORD PTR [eax+56]
  00a47	0f 8c 62 0e 00
	00		 jl	 $noshadow$77

; 3375 : 	{
; 3376 : 		////////////////////
; 3377 : 		// SHADOW SPRITE! //
; 3378 : 		////////////////////
; 3379 : 		FOutVector swallVerts[4];
; 3380 : 		FSurfaceInfo sSurf;
; 3381 : 		fixed_t floorheight, mobjfloor;
; 3382 : 
; 3383 : 		mobjfloor = HWR_OpaqueFloorAtPos(

  00a4d	8b 45 08	 mov	 eax, DWORD PTR _spr$[ebp]
  00a50	8b 48 24	 mov	 ecx, DWORD PTR [eax+36]
  00a53	8b 51 44	 mov	 edx, DWORD PTR [ecx+68]
  00a56	52		 push	 edx
  00a57	8b 45 08	 mov	 eax, DWORD PTR _spr$[ebp]
  00a5a	8b 48 24	 mov	 ecx, DWORD PTR [eax+36]
  00a5d	8b 51 18	 mov	 edx, DWORD PTR [ecx+24]
  00a60	52		 push	 edx
  00a61	8b 45 08	 mov	 eax, DWORD PTR _spr$[ebp]
  00a64	8b 48 24	 mov	 ecx, DWORD PTR [eax+36]
  00a67	8b 51 14	 mov	 edx, DWORD PTR [ecx+20]
  00a6a	52		 push	 edx
  00a6b	8b 45 08	 mov	 eax, DWORD PTR _spr$[ebp]
  00a6e	8b 48 24	 mov	 ecx, DWORD PTR [eax+36]
  00a71	8b 51 10	 mov	 edx, DWORD PTR [ecx+16]
  00a74	52		 push	 edx
  00a75	e8 00 00 00 00	 call	 _HWR_OpaqueFloorAtPos
  00a7a	83 c4 10	 add	 esp, 16			; 00000010H
  00a7d	89 85 00 ff ff
	ff		 mov	 DWORD PTR _mobjfloor$14[ebp], eax

; 3384 : 			spr->mobj->x, spr->mobj->y,
; 3385 : 			spr->mobj->z, spr->mobj->height);
; 3386 : 		if (cv_shadowoffs.value)

  00a83	83 3d 14 00 00
	00 00		 cmp	 DWORD PTR _cv_shadowoffs+20, 0
  00a8a	0f 84 a8 01 00
	00		 je	 $LN21@HWR_DrawSp

; 3387 : 		{
; 3388 : 			angle_t shadowdir;
; 3389 : 
; 3390 : 			// Set direction
; 3391 : 			if (splitscreen && stplyr != &players[displayplayer])

  00a90	83 3d 00 00 00
	00 00		 cmp	 DWORD PTR _splitscreen, 0
  00a97	74 33		 je	 SHORT $LN23@HWR_DrawSp
  00a99	69 05 00 00 00
	00 fc 01 00 00	 imul	 eax, DWORD PTR _displayplayer, 508
  00aa3	05 00 00 00 00	 add	 eax, OFFSET _players
  00aa8	39 05 00 00 00
	00		 cmp	 DWORD PTR _stplyr, eax
  00aae	74 1c		 je	 SHORT $LN23@HWR_DrawSp

; 3392 : 				shadowdir = localangle2 + FixedAngle(cv_cam2_rotate.value);

  00ab0	a1 14 00 00 00	 mov	 eax, DWORD PTR _cv_cam2_rotate+20
  00ab5	50		 push	 eax
  00ab6	e8 00 00 00 00	 call	 _FixedAngle
  00abb	83 c4 04	 add	 esp, 4
  00abe	03 05 00 00 00
	00		 add	 eax, DWORD PTR _localangle2
  00ac4	89 85 fc fe ff
	ff		 mov	 DWORD PTR _shadowdir$13[ebp], eax
  00aca	eb 1a		 jmp	 SHORT $LN24@HWR_DrawSp
$LN23@HWR_DrawSp:

; 3393 : 			else
; 3394 : 				shadowdir = localangle + FixedAngle(cv_cam_rotate.value);

  00acc	a1 14 00 00 00	 mov	 eax, DWORD PTR _cv_cam_rotate+20
  00ad1	50		 push	 eax
  00ad2	e8 00 00 00 00	 call	 _FixedAngle
  00ad7	83 c4 04	 add	 esp, 4
  00ada	03 05 00 00 00
	00		 add	 eax, DWORD PTR _localangle
  00ae0	89 85 fc fe ff
	ff		 mov	 DWORD PTR _shadowdir$13[ebp], eax
$LN24@HWR_DrawSp:

; 3395 : 
; 3396 : 			// Find floorheight
; 3397 : 			floorheight = HWR_OpaqueFloorAtPos(

  00ae6	8b 45 08	 mov	 eax, DWORD PTR _spr$[ebp]
  00ae9	8b 48 24	 mov	 ecx, DWORD PTR [eax+36]
  00aec	8b 51 44	 mov	 edx, DWORD PTR [ecx+68]
  00aef	52		 push	 edx
  00af0	8b 45 08	 mov	 eax, DWORD PTR _spr$[ebp]
  00af3	8b 48 24	 mov	 ecx, DWORD PTR [eax+36]
  00af6	8b 51 18	 mov	 edx, DWORD PTR [ecx+24]
  00af9	52		 push	 edx
  00afa	8b 45 08	 mov	 eax, DWORD PTR _spr$[ebp]
  00afd	8b 70 24	 mov	 esi, DWORD PTR [eax+36]
  00b00	8b 4d 08	 mov	 ecx, DWORD PTR _spr$[ebp]
  00b03	8b 51 24	 mov	 edx, DWORD PTR [ecx+36]
  00b06	8b 42 18	 mov	 eax, DWORD PTR [edx+24]
  00b09	2b 85 00 ff ff
	ff		 sub	 eax, DWORD PTR _mobjfloor$14[ebp]
  00b0f	50		 push	 eax
  00b10	8b 8d fc fe ff
	ff		 mov	 ecx, DWORD PTR _shadowdir$13[ebp]
  00b16	51		 push	 ecx
  00b17	8b 55 08	 mov	 edx, DWORD PTR _spr$[ebp]
  00b1a	8b 42 24	 mov	 eax, DWORD PTR [edx+36]
  00b1d	50		 push	 eax
  00b1e	e8 00 00 00 00	 call	 _P_ReturnThrustY
  00b23	83 c4 0c	 add	 esp, 12			; 0000000cH
  00b26	03 46 14	 add	 eax, DWORD PTR [esi+20]
  00b29	50		 push	 eax
  00b2a	8b 4d 08	 mov	 ecx, DWORD PTR _spr$[ebp]
  00b2d	8b 71 24	 mov	 esi, DWORD PTR [ecx+36]
  00b30	8b 55 08	 mov	 edx, DWORD PTR _spr$[ebp]
  00b33	8b 42 24	 mov	 eax, DWORD PTR [edx+36]
  00b36	8b 48 18	 mov	 ecx, DWORD PTR [eax+24]
  00b39	2b 8d 00 ff ff
	ff		 sub	 ecx, DWORD PTR _mobjfloor$14[ebp]
  00b3f	51		 push	 ecx
  00b40	8b 95 fc fe ff
	ff		 mov	 edx, DWORD PTR _shadowdir$13[ebp]
  00b46	52		 push	 edx
  00b47	8b 45 08	 mov	 eax, DWORD PTR _spr$[ebp]
  00b4a	8b 48 24	 mov	 ecx, DWORD PTR [eax+36]
  00b4d	51		 push	 ecx
  00b4e	e8 00 00 00 00	 call	 _P_ReturnThrustX
  00b53	83 c4 0c	 add	 esp, 12			; 0000000cH
  00b56	03 46 10	 add	 eax, DWORD PTR [esi+16]
  00b59	50		 push	 eax
  00b5a	e8 00 00 00 00	 call	 _HWR_OpaqueFloorAtPos
  00b5f	83 c4 10	 add	 esp, 16			; 00000010H
  00b62	89 85 04 ff ff
	ff		 mov	 DWORD PTR _floorheight$15[ebp], eax

; 3398 : 				spr->mobj->x + P_ReturnThrustX(spr->mobj, shadowdir, spr->mobj->z - mobjfloor),
; 3399 : 				spr->mobj->y + P_ReturnThrustY(spr->mobj, shadowdir, spr->mobj->z - mobjfloor),
; 3400 : 				spr->mobj->z, spr->mobj->height);
; 3401 : 
; 3402 : 			// The shadow is falling ABOVE it's mobj?
; 3403 : 			// Don't draw it, then!
; 3404 : 			if (spr->mobj->z < floorheight)

  00b68	8b 45 08	 mov	 eax, DWORD PTR _spr$[ebp]
  00b6b	8b 48 24	 mov	 ecx, DWORD PTR [eax+36]
  00b6e	8b 51 18	 mov	 edx, DWORD PTR [ecx+24]
  00b71	3b 95 04 ff ff
	ff		 cmp	 edx, DWORD PTR _floorheight$15[ebp]
  00b77	7d 0a		 jge	 SHORT $LN25@HWR_DrawSp

; 3405 : 				goto noshadow;

  00b79	e9 31 0d 00 00	 jmp	 $noshadow$77
  00b7e	e9 95 00 00 00	 jmp	 $LN27@HWR_DrawSp
$LN25@HWR_DrawSp:

; 3406 : 			else
; 3407 : 			{
; 3408 : 				fixed_t floorz;
; 3409 : 				floorz = HWR_OpaqueFloorAtPos(

  00b83	8b 45 08	 mov	 eax, DWORD PTR _spr$[ebp]
  00b86	8b 48 24	 mov	 ecx, DWORD PTR [eax+36]
  00b89	8b 51 44	 mov	 edx, DWORD PTR [ecx+68]
  00b8c	52		 push	 edx
  00b8d	8b 45 08	 mov	 eax, DWORD PTR _spr$[ebp]
  00b90	8b 48 24	 mov	 ecx, DWORD PTR [eax+36]
  00b93	8b 51 18	 mov	 edx, DWORD PTR [ecx+24]
  00b96	52		 push	 edx
  00b97	8b 45 08	 mov	 eax, DWORD PTR _spr$[ebp]
  00b9a	8b 70 24	 mov	 esi, DWORD PTR [eax+36]
  00b9d	8b 4d 08	 mov	 ecx, DWORD PTR _spr$[ebp]
  00ba0	8b 51 24	 mov	 edx, DWORD PTR [ecx+36]
  00ba3	8b 42 18	 mov	 eax, DWORD PTR [edx+24]
  00ba6	2b 85 04 ff ff
	ff		 sub	 eax, DWORD PTR _floorheight$15[ebp]
  00bac	50		 push	 eax
  00bad	8b 8d fc fe ff
	ff		 mov	 ecx, DWORD PTR _shadowdir$13[ebp]
  00bb3	51		 push	 ecx
  00bb4	8b 55 08	 mov	 edx, DWORD PTR _spr$[ebp]
  00bb7	8b 42 24	 mov	 eax, DWORD PTR [edx+36]
  00bba	50		 push	 eax
  00bbb	e8 00 00 00 00	 call	 _P_ReturnThrustY
  00bc0	83 c4 0c	 add	 esp, 12			; 0000000cH
  00bc3	03 46 14	 add	 eax, DWORD PTR [esi+20]
  00bc6	50		 push	 eax
  00bc7	8b 4d 08	 mov	 ecx, DWORD PTR _spr$[ebp]
  00bca	8b 71 24	 mov	 esi, DWORD PTR [ecx+36]
  00bcd	8b 55 08	 mov	 edx, DWORD PTR _spr$[ebp]
  00bd0	8b 42 24	 mov	 eax, DWORD PTR [edx+36]
  00bd3	8b 48 18	 mov	 ecx, DWORD PTR [eax+24]
  00bd6	2b 8d 04 ff ff
	ff		 sub	 ecx, DWORD PTR _floorheight$15[ebp]
  00bdc	51		 push	 ecx
  00bdd	8b 95 fc fe ff
	ff		 mov	 edx, DWORD PTR _shadowdir$13[ebp]
  00be3	52		 push	 edx
  00be4	8b 45 08	 mov	 eax, DWORD PTR _spr$[ebp]
  00be7	8b 48 24	 mov	 ecx, DWORD PTR [eax+36]
  00bea	51		 push	 ecx
  00beb	e8 00 00 00 00	 call	 _P_ReturnThrustX
  00bf0	83 c4 0c	 add	 esp, 12			; 0000000cH
  00bf3	03 46 10	 add	 eax, DWORD PTR [esi+16]
  00bf6	50		 push	 eax
  00bf7	e8 00 00 00 00	 call	 _HWR_OpaqueFloorAtPos
  00bfc	83 c4 10	 add	 esp, 16			; 00000010H
  00bff	89 85 f8 fe ff
	ff		 mov	 DWORD PTR _floorz$12[ebp], eax

; 3410 : 					spr->mobj->x + P_ReturnThrustX(spr->mobj, shadowdir, spr->mobj->z - floorheight),
; 3411 : 					spr->mobj->y + P_ReturnThrustY(spr->mobj, shadowdir, spr->mobj->z - floorheight),
; 3412 : 					spr->mobj->z, spr->mobj->height);
; 3413 : 				// The shadow would be falling on a wall? Don't draw it, then.
; 3414 : 				// Would draw midair otherwise.
; 3415 : 				if (floorz < floorheight)

  00c05	8b 85 f8 fe ff
	ff		 mov	 eax, DWORD PTR _floorz$12[ebp]
  00c0b	3b 85 04 ff ff
	ff		 cmp	 eax, DWORD PTR _floorheight$15[ebp]
  00c11	7d 05		 jge	 SHORT $LN27@HWR_DrawSp

; 3416 : 					goto noshadow;

  00c13	e9 97 0c 00 00	 jmp	 $noshadow$77
$LN27@HWR_DrawSp:

; 3417 : 			}
; 3418 : 
; 3419 : 			floorheight = FixedInt(spr->mobj->z - floorheight);

  00c18	8b 45 08	 mov	 eax, DWORD PTR _spr$[ebp]
  00c1b	8b 48 24	 mov	 ecx, DWORD PTR [eax+36]
  00c1e	8b 51 18	 mov	 edx, DWORD PTR [ecx+24]
  00c21	2b 95 04 ff ff
	ff		 sub	 edx, DWORD PTR _floorheight$15[ebp]
  00c27	52		 push	 edx
  00c28	e8 00 00 00 00	 call	 _FixedInt
  00c2d	83 c4 04	 add	 esp, 4
  00c30	89 85 04 ff ff
	ff		 mov	 DWORD PTR _floorheight$15[ebp], eax

; 3420 : 		}

  00c36	eb 1e		 jmp	 SHORT $LN22@HWR_DrawSp
$LN21@HWR_DrawSp:

; 3421 : 		else
; 3422 : 			floorheight = FixedInt(spr->mobj->z - mobjfloor);

  00c38	8b 45 08	 mov	 eax, DWORD PTR _spr$[ebp]
  00c3b	8b 48 24	 mov	 ecx, DWORD PTR [eax+36]
  00c3e	8b 51 18	 mov	 edx, DWORD PTR [ecx+24]
  00c41	2b 95 00 ff ff
	ff		 sub	 edx, DWORD PTR _mobjfloor$14[ebp]
  00c47	52		 push	 edx
  00c48	e8 00 00 00 00	 call	 _FixedInt
  00c4d	83 c4 04	 add	 esp, 4
  00c50	89 85 04 ff ff
	ff		 mov	 DWORD PTR _floorheight$15[ebp], eax
$LN22@HWR_DrawSp:

; 3423 : 
; 3424 : 		// create the sprite billboard
; 3425 : 		//
; 3426 : 		//  3--2
; 3427 : 		//  | /|
; 3428 : 		//  |/ |
; 3429 : 		//  0--1
; 3430 : 		swallVerts[0].x = swallVerts[3].x = spr->x1;

  00c56	b8 18 00 00 00	 mov	 eax, 24			; 00000018H
  00c5b	6b c8 03	 imul	 ecx, eax, 3
  00c5e	8b 55 08	 mov	 edx, DWORD PTR _spr$[ebp]
  00c61	8b 42 08	 mov	 eax, DWORD PTR [edx+8]
  00c64	89 84 0d 10 ff
	ff ff		 mov	 DWORD PTR _swallVerts$17[ebp+ecx], eax
  00c6b	b9 18 00 00 00	 mov	 ecx, 24			; 00000018H
  00c70	6b d1 03	 imul	 edx, ecx, 3
  00c73	b8 18 00 00 00	 mov	 eax, 24			; 00000018H
  00c78	6b c8 00	 imul	 ecx, eax, 0
  00c7b	8b 94 15 10 ff
	ff ff		 mov	 edx, DWORD PTR _swallVerts$17[ebp+edx]
  00c82	89 94 0d 10 ff
	ff ff		 mov	 DWORD PTR _swallVerts$17[ebp+ecx], edx

; 3431 : 		swallVerts[2].x = swallVerts[1].x = spr->x2;

  00c89	b8 18 00 00 00	 mov	 eax, 24			; 00000018H
  00c8e	c1 e0 00	 shl	 eax, 0
  00c91	8b 4d 08	 mov	 ecx, DWORD PTR _spr$[ebp]
  00c94	8b 51 0c	 mov	 edx, DWORD PTR [ecx+12]
  00c97	89 94 05 10 ff
	ff ff		 mov	 DWORD PTR _swallVerts$17[ebp+eax], edx
  00c9e	b8 18 00 00 00	 mov	 eax, 24			; 00000018H
  00ca3	c1 e0 00	 shl	 eax, 0
  00ca6	b9 18 00 00 00	 mov	 ecx, 24			; 00000018H
  00cab	d1 e1		 shl	 ecx, 1
  00cad	8b 94 05 10 ff
	ff ff		 mov	 edx, DWORD PTR _swallVerts$17[ebp+eax]
  00cb4	89 94 0d 10 ff
	ff ff		 mov	 DWORD PTR _swallVerts$17[ebp+ecx], edx

; 3432 : 
; 3433 : 		if (hires)

  00cbb	83 bd 7c ff ff
	ff 00		 cmp	 DWORD PTR _hires$[ebp], 0
  00cc2	0f 84 54 02 00
	00		 je	 $LN28@HWR_DrawSp

; 3434 : 		{
; 3435 : 			swallVerts[0].x = swallVerts[3].x += (spr->x2-spr->x1)/4;

  00cc8	b8 18 00 00 00	 mov	 eax, 24			; 00000018H
  00ccd	6b c8 03	 imul	 ecx, eax, 3
  00cd0	8b 55 08	 mov	 edx, DWORD PTR _spr$[ebp]
  00cd3	8b 45 08	 mov	 eax, DWORD PTR _spr$[ebp]
  00cd6	f3 0f 10 42 0c	 movss	 xmm0, DWORD PTR [edx+12]
  00cdb	f3 0f 5c 40 08	 subss	 xmm0, DWORD PTR [eax+8]
  00ce0	f3 0f 5e 05 00
	00 00 00	 divss	 xmm0, DWORD PTR __real@40800000
  00ce8	f3 0f 10 8c 0d
	10 ff ff ff	 movss	 xmm1, DWORD PTR _swallVerts$17[ebp+ecx]
  00cf1	f3 0f 58 c8	 addss	 xmm1, xmm0
  00cf5	f3 0f 11 8d 88
	fe ff ff	 movss	 DWORD PTR tv670[ebp], xmm1
  00cfd	b9 18 00 00 00	 mov	 ecx, 24			; 00000018H
  00d02	6b d1 03	 imul	 edx, ecx, 3
  00d05	f3 0f 10 85 88
	fe ff ff	 movss	 xmm0, DWORD PTR tv670[ebp]
  00d0d	f3 0f 11 84 15
	10 ff ff ff	 movss	 DWORD PTR _swallVerts$17[ebp+edx], xmm0
  00d16	b8 18 00 00 00	 mov	 eax, 24			; 00000018H
  00d1b	6b c8 00	 imul	 ecx, eax, 0
  00d1e	f3 0f 10 85 88
	fe ff ff	 movss	 xmm0, DWORD PTR tv670[ebp]
  00d26	f3 0f 11 84 0d
	10 ff ff ff	 movss	 DWORD PTR _swallVerts$17[ebp+ecx], xmm0

; 3436 : 			swallVerts[2].x = swallVerts[1].x -= (spr->x2-spr->x1)/4;

  00d2f	b8 18 00 00 00	 mov	 eax, 24			; 00000018H
  00d34	c1 e0 00	 shl	 eax, 0
  00d37	8b 4d 08	 mov	 ecx, DWORD PTR _spr$[ebp]
  00d3a	8b 55 08	 mov	 edx, DWORD PTR _spr$[ebp]
  00d3d	f3 0f 10 41 0c	 movss	 xmm0, DWORD PTR [ecx+12]
  00d42	f3 0f 5c 42 08	 subss	 xmm0, DWORD PTR [edx+8]
  00d47	f3 0f 5e 05 00
	00 00 00	 divss	 xmm0, DWORD PTR __real@40800000
  00d4f	f3 0f 10 8c 05
	10 ff ff ff	 movss	 xmm1, DWORD PTR _swallVerts$17[ebp+eax]
  00d58	f3 0f 5c c8	 subss	 xmm1, xmm0
  00d5c	f3 0f 11 8d 88
	fe ff ff	 movss	 DWORD PTR tv685[ebp], xmm1
  00d64	b8 18 00 00 00	 mov	 eax, 24			; 00000018H
  00d69	c1 e0 00	 shl	 eax, 0
  00d6c	f3 0f 10 85 88
	fe ff ff	 movss	 xmm0, DWORD PTR tv685[ebp]
  00d74	f3 0f 11 84 05
	10 ff ff ff	 movss	 DWORD PTR _swallVerts$17[ebp+eax], xmm0
  00d7d	b9 18 00 00 00	 mov	 ecx, 24			; 00000018H
  00d82	d1 e1		 shl	 ecx, 1
  00d84	f3 0f 10 85 88
	fe ff ff	 movss	 xmm0, DWORD PTR tv685[ebp]
  00d8c	f3 0f 11 84 0d
	10 ff ff ff	 movss	 DWORD PTR _swallVerts$17[ebp+ecx], xmm0

; 3437 : 
; 3438 : 			// Always a pixel above the floor, perfectly flat.
; 3439 : 			swallVerts[0].y = swallVerts[1].y = swallVerts[2].y = swallVerts[3].y =

  00d95	8b 45 88	 mov	 eax, DWORD PTR _gpatch$[ebp]
  00d98	0f bf 40 02	 movsx	 eax, WORD PTR [eax+2]
  00d9c	99		 cdq
  00d9d	2b c2		 sub	 eax, edx
  00d9f	d1 f8		 sar	 eax, 1
  00da1	f3 0f 2a c0	 cvtsi2ss xmm0, eax
  00da5	8b 4d 08	 mov	 ecx, DWORD PTR _spr$[ebp]
  00da8	f3 0f 10 49 14	 movss	 xmm1, DWORD PTR [ecx+20]
  00dad	f3 0f 5c c8	 subss	 xmm1, xmm0
  00db1	8b 55 88	 mov	 edx, DWORD PTR _gpatch$[ebp]
  00db4	0f bf 42 06	 movsx	 eax, WORD PTR [edx+6]
  00db8	8b 4d 88	 mov	 ecx, DWORD PTR _gpatch$[ebp]
  00dbb	0f bf 51 02	 movsx	 edx, WORD PTR [ecx+2]
  00dbf	2b c2		 sub	 eax, edx
  00dc1	99		 cdq
  00dc2	2b c2		 sub	 eax, edx
  00dc4	d1 f8		 sar	 eax, 1
  00dc6	f3 0f 2a c0	 cvtsi2ss xmm0, eax
  00dca	f3 0f 5c c8	 subss	 xmm1, xmm0
  00dce	8b 85 04 ff ff
	ff		 mov	 eax, DWORD PTR _floorheight$15[ebp]
  00dd4	83 e8 01	 sub	 eax, 1
  00dd7	f3 0f 2a c0	 cvtsi2ss xmm0, eax
  00ddb	f3 0f 5c c8	 subss	 xmm1, xmm0
  00ddf	f3 0f 11 8d 88
	fe ff ff	 movss	 DWORD PTR tv714[ebp], xmm1
  00de7	b9 18 00 00 00	 mov	 ecx, 24			; 00000018H
  00dec	6b d1 03	 imul	 edx, ecx, 3
  00def	f3 0f 10 85 88
	fe ff ff	 movss	 xmm0, DWORD PTR tv714[ebp]
  00df7	f3 0f 11 84 15
	14 ff ff ff	 movss	 DWORD PTR _swallVerts$17[ebp+edx+4], xmm0
  00e00	b8 18 00 00 00	 mov	 eax, 24			; 00000018H
  00e05	d1 e0		 shl	 eax, 1
  00e07	f3 0f 10 85 88
	fe ff ff	 movss	 xmm0, DWORD PTR tv714[ebp]
  00e0f	f3 0f 11 84 05
	14 ff ff ff	 movss	 DWORD PTR _swallVerts$17[ebp+eax+4], xmm0
  00e18	b9 18 00 00 00	 mov	 ecx, 24			; 00000018H
  00e1d	c1 e1 00	 shl	 ecx, 0
  00e20	f3 0f 10 85 88
	fe ff ff	 movss	 xmm0, DWORD PTR tv714[ebp]
  00e28	f3 0f 11 84 0d
	14 ff ff ff	 movss	 DWORD PTR _swallVerts$17[ebp+ecx+4], xmm0
  00e31	ba 18 00 00 00	 mov	 edx, 24			; 00000018H
  00e36	6b c2 00	 imul	 eax, edx, 0
  00e39	f3 0f 10 85 88
	fe ff ff	 movss	 xmm0, DWORD PTR tv714[ebp]
  00e41	f3 0f 11 84 05
	14 ff ff ff	 movss	 DWORD PTR _swallVerts$17[ebp+eax+4], xmm0

; 3440 : 				spr->ty - gpatch->height/2 - (gpatch->topoffset-gpatch->height)/2 - (floorheight-1);
; 3441 : 
; 3442 : 			// Spread out top away from the camera. (Fixme: Make it always move out in the same direction!... somehow.)
; 3443 : 			swallVerts[0].z = swallVerts[1].z = spr->tz - (gpatch->height-gpatch->topoffset)/2;

  00e4a	8b 45 88	 mov	 eax, DWORD PTR _gpatch$[ebp]
  00e4d	0f bf 40 02	 movsx	 eax, WORD PTR [eax+2]
  00e51	8b 4d 88	 mov	 ecx, DWORD PTR _gpatch$[ebp]
  00e54	0f bf 51 06	 movsx	 edx, WORD PTR [ecx+6]
  00e58	2b c2		 sub	 eax, edx
  00e5a	99		 cdq
  00e5b	2b c2		 sub	 eax, edx
  00e5d	d1 f8		 sar	 eax, 1
  00e5f	f3 0f 2a c0	 cvtsi2ss xmm0, eax
  00e63	8b 45 08	 mov	 eax, DWORD PTR _spr$[ebp]
  00e66	f3 0f 10 48 10	 movss	 xmm1, DWORD PTR [eax+16]
  00e6b	f3 0f 5c c8	 subss	 xmm1, xmm0
  00e6f	f3 0f 11 8d 88
	fe ff ff	 movss	 DWORD PTR tv729[ebp], xmm1
  00e77	b9 18 00 00 00	 mov	 ecx, 24			; 00000018H
  00e7c	c1 e1 00	 shl	 ecx, 0
  00e7f	f3 0f 10 85 88
	fe ff ff	 movss	 xmm0, DWORD PTR tv729[ebp]
  00e87	f3 0f 11 84 0d
	18 ff ff ff	 movss	 DWORD PTR _swallVerts$17[ebp+ecx+8], xmm0
  00e90	ba 18 00 00 00	 mov	 edx, 24			; 00000018H
  00e95	6b c2 00	 imul	 eax, edx, 0
  00e98	f3 0f 10 85 88
	fe ff ff	 movss	 xmm0, DWORD PTR tv729[ebp]
  00ea0	f3 0f 11 84 05
	18 ff ff ff	 movss	 DWORD PTR _swallVerts$17[ebp+eax+8], xmm0

; 3444 : 			swallVerts[2].z = swallVerts[3].z = spr->tz + gpatch->height/2 - (gpatch->height-gpatch->topoffset)/2;

  00ea9	8b 45 88	 mov	 eax, DWORD PTR _gpatch$[ebp]
  00eac	0f bf 40 02	 movsx	 eax, WORD PTR [eax+2]
  00eb0	99		 cdq
  00eb1	2b c2		 sub	 eax, edx
  00eb3	d1 f8		 sar	 eax, 1
  00eb5	f3 0f 2a c0	 cvtsi2ss xmm0, eax
  00eb9	8b 4d 08	 mov	 ecx, DWORD PTR _spr$[ebp]
  00ebc	f3 0f 58 41 10	 addss	 xmm0, DWORD PTR [ecx+16]
  00ec1	8b 55 88	 mov	 edx, DWORD PTR _gpatch$[ebp]
  00ec4	0f bf 42 02	 movsx	 eax, WORD PTR [edx+2]
  00ec8	8b 4d 88	 mov	 ecx, DWORD PTR _gpatch$[ebp]
  00ecb	0f bf 51 06	 movsx	 edx, WORD PTR [ecx+6]
  00ecf	2b c2		 sub	 eax, edx
  00ed1	99		 cdq
  00ed2	2b c2		 sub	 eax, edx
  00ed4	d1 f8		 sar	 eax, 1
  00ed6	f3 0f 2a c8	 cvtsi2ss xmm1, eax
  00eda	f3 0f 5c c1	 subss	 xmm0, xmm1
  00ede	f3 0f 11 85 88
	fe ff ff	 movss	 DWORD PTR tv749[ebp], xmm0
  00ee6	b8 18 00 00 00	 mov	 eax, 24			; 00000018H
  00eeb	6b c8 03	 imul	 ecx, eax, 3
  00eee	f3 0f 10 85 88
	fe ff ff	 movss	 xmm0, DWORD PTR tv749[ebp]
  00ef6	f3 0f 11 84 0d
	18 ff ff ff	 movss	 DWORD PTR _swallVerts$17[ebp+ecx+8], xmm0
  00eff	ba 18 00 00 00	 mov	 edx, 24			; 00000018H
  00f04	d1 e2		 shl	 edx, 1
  00f06	f3 0f 10 85 88
	fe ff ff	 movss	 xmm0, DWORD PTR tv749[ebp]
  00f0e	f3 0f 11 84 15
	18 ff ff ff	 movss	 DWORD PTR _swallVerts$17[ebp+edx+8], xmm0

; 3445 : 		}

  00f17	e9 69 01 00 00	 jmp	 $LN29@HWR_DrawSp
$LN28@HWR_DrawSp:

; 3446 : 		else
; 3447 : 		{
; 3448 : 			// Always a pixel above the floor, perfectly flat.
; 3449 : 			swallVerts[0].y = swallVerts[1].y = swallVerts[2].y = swallVerts[3].y =

  00f1c	8b 45 88	 mov	 eax, DWORD PTR _gpatch$[ebp]
  00f1f	0f bf 48 02	 movsx	 ecx, WORD PTR [eax+2]
  00f23	f3 0f 2a c1	 cvtsi2ss xmm0, ecx
  00f27	8b 55 08	 mov	 edx, DWORD PTR _spr$[ebp]
  00f2a	f3 0f 10 4a 14	 movss	 xmm1, DWORD PTR [edx+20]
  00f2f	f3 0f 5c c8	 subss	 xmm1, xmm0
  00f33	8b 45 88	 mov	 eax, DWORD PTR _gpatch$[ebp]
  00f36	0f bf 48 06	 movsx	 ecx, WORD PTR [eax+6]
  00f3a	8b 55 88	 mov	 edx, DWORD PTR _gpatch$[ebp]
  00f3d	0f bf 42 02	 movsx	 eax, WORD PTR [edx+2]
  00f41	2b c8		 sub	 ecx, eax
  00f43	f3 0f 2a c1	 cvtsi2ss xmm0, ecx
  00f47	f3 0f 5c c8	 subss	 xmm1, xmm0
  00f4b	8b 8d 04 ff ff
	ff		 mov	 ecx, DWORD PTR _floorheight$15[ebp]
  00f51	83 c1 03	 add	 ecx, 3
  00f54	f3 0f 2a c1	 cvtsi2ss xmm0, ecx
  00f58	f3 0f 5c c8	 subss	 xmm1, xmm0
  00f5c	f3 0f 11 8d 88
	fe ff ff	 movss	 DWORD PTR tv776[ebp], xmm1
  00f64	ba 18 00 00 00	 mov	 edx, 24			; 00000018H
  00f69	6b c2 03	 imul	 eax, edx, 3
  00f6c	f3 0f 10 85 88
	fe ff ff	 movss	 xmm0, DWORD PTR tv776[ebp]
  00f74	f3 0f 11 84 05
	14 ff ff ff	 movss	 DWORD PTR _swallVerts$17[ebp+eax+4], xmm0
  00f7d	b9 18 00 00 00	 mov	 ecx, 24			; 00000018H
  00f82	d1 e1		 shl	 ecx, 1
  00f84	f3 0f 10 85 88
	fe ff ff	 movss	 xmm0, DWORD PTR tv776[ebp]
  00f8c	f3 0f 11 84 0d
	14 ff ff ff	 movss	 DWORD PTR _swallVerts$17[ebp+ecx+4], xmm0
  00f95	ba 18 00 00 00	 mov	 edx, 24			; 00000018H
  00f9a	c1 e2 00	 shl	 edx, 0
  00f9d	f3 0f 10 85 88
	fe ff ff	 movss	 xmm0, DWORD PTR tv776[ebp]
  00fa5	f3 0f 11 84 15
	14 ff ff ff	 movss	 DWORD PTR _swallVerts$17[ebp+edx+4], xmm0
  00fae	b8 18 00 00 00	 mov	 eax, 24			; 00000018H
  00fb3	6b c8 00	 imul	 ecx, eax, 0
  00fb6	f3 0f 10 85 88
	fe ff ff	 movss	 xmm0, DWORD PTR tv776[ebp]
  00fbe	f3 0f 11 84 0d
	14 ff ff ff	 movss	 DWORD PTR _swallVerts$17[ebp+ecx+4], xmm0

; 3450 : 				spr->ty - gpatch->height - (gpatch->topoffset-gpatch->height) - (floorheight+3);
; 3451 : 
; 3452 : 			// Spread out top away from the camera. (Fixme: Make it always move out in the same direction!... somehow.)
; 3453 : 			swallVerts[0].z = swallVerts[1].z = spr->tz - (gpatch->height-gpatch->topoffset);

  00fc7	8b 45 88	 mov	 eax, DWORD PTR _gpatch$[ebp]
  00fca	0f bf 48 02	 movsx	 ecx, WORD PTR [eax+2]
  00fce	8b 55 88	 mov	 edx, DWORD PTR _gpatch$[ebp]
  00fd1	0f bf 42 06	 movsx	 eax, WORD PTR [edx+6]
  00fd5	2b c8		 sub	 ecx, eax
  00fd7	f3 0f 2a c1	 cvtsi2ss xmm0, ecx
  00fdb	8b 4d 08	 mov	 ecx, DWORD PTR _spr$[ebp]
  00fde	f3 0f 10 49 10	 movss	 xmm1, DWORD PTR [ecx+16]
  00fe3	f3 0f 5c c8	 subss	 xmm1, xmm0
  00fe7	f3 0f 11 8d 88
	fe ff ff	 movss	 DWORD PTR tv790[ebp], xmm1
  00fef	ba 18 00 00 00	 mov	 edx, 24			; 00000018H
  00ff4	c1 e2 00	 shl	 edx, 0
  00ff7	f3 0f 10 85 88
	fe ff ff	 movss	 xmm0, DWORD PTR tv790[ebp]
  00fff	f3 0f 11 84 15
	18 ff ff ff	 movss	 DWORD PTR _swallVerts$17[ebp+edx+8], xmm0
  01008	b8 18 00 00 00	 mov	 eax, 24			; 00000018H
  0100d	6b c8 00	 imul	 ecx, eax, 0
  01010	f3 0f 10 85 88
	fe ff ff	 movss	 xmm0, DWORD PTR tv790[ebp]
  01018	f3 0f 11 84 0d
	18 ff ff ff	 movss	 DWORD PTR _swallVerts$17[ebp+ecx+8], xmm0

; 3454 : 			swallVerts[2].z = swallVerts[3].z = spr->tz + gpatch->height - (gpatch->height-gpatch->topoffset);

  01021	8b 45 88	 mov	 eax, DWORD PTR _gpatch$[ebp]
  01024	0f bf 48 02	 movsx	 ecx, WORD PTR [eax+2]
  01028	f3 0f 2a c1	 cvtsi2ss xmm0, ecx
  0102c	8b 55 08	 mov	 edx, DWORD PTR _spr$[ebp]
  0102f	f3 0f 58 42 10	 addss	 xmm0, DWORD PTR [edx+16]
  01034	8b 45 88	 mov	 eax, DWORD PTR _gpatch$[ebp]
  01037	0f bf 48 02	 movsx	 ecx, WORD PTR [eax+2]
  0103b	8b 55 88	 mov	 edx, DWORD PTR _gpatch$[ebp]
  0103e	0f bf 42 06	 movsx	 eax, WORD PTR [edx+6]
  01042	2b c8		 sub	 ecx, eax
  01044	f3 0f 2a c9	 cvtsi2ss xmm1, ecx
  01048	f3 0f 5c c1	 subss	 xmm0, xmm1
  0104c	f3 0f 11 85 88
	fe ff ff	 movss	 DWORD PTR tv808[ebp], xmm0
  01054	b9 18 00 00 00	 mov	 ecx, 24			; 00000018H
  01059	6b d1 03	 imul	 edx, ecx, 3
  0105c	f3 0f 10 85 88
	fe ff ff	 movss	 xmm0, DWORD PTR tv808[ebp]
  01064	f3 0f 11 84 15
	18 ff ff ff	 movss	 DWORD PTR _swallVerts$17[ebp+edx+8], xmm0
  0106d	b8 18 00 00 00	 mov	 eax, 24			; 00000018H
  01072	d1 e0		 shl	 eax, 1
  01074	f3 0f 10 85 88
	fe ff ff	 movss	 xmm0, DWORD PTR tv808[ebp]
  0107c	f3 0f 11 84 05
	18 ff ff ff	 movss	 DWORD PTR _swallVerts$17[ebp+eax+8], xmm0
$LN29@HWR_DrawSp:

; 3455 : 		}
; 3456 : 
; 3457 : 		// Huh setting the Y higher? Also moving this before to stop the alterations affecting it after scaling.
; 3458 : 		if (spr->mobj && spr->mobj->scale != 100)

  01085	8b 45 08	 mov	 eax, DWORD PTR _spr$[ebp]
  01088	83 78 24 00	 cmp	 DWORD PTR [eax+36], 0
  0108c	0f 84 ec 02 00
	00		 je	 $LN32@HWR_DrawSp
  01092	8b 45 08	 mov	 eax, DWORD PTR _spr$[ebp]
  01095	8b 48 24	 mov	 ecx, DWORD PTR [eax+36]
  01098	0f b7 91 cc 00
	00 00		 movzx	 edx, WORD PTR [ecx+204]
  0109f	83 fa 64	 cmp	 edx, 100		; 00000064H
  010a2	0f 84 d6 02 00
	00		 je	 $LN32@HWR_DrawSp

; 3459 : 		{
; 3460 : 			const float radius = (spr->x2-spr->x1)/2;

  010a8	8b 45 08	 mov	 eax, DWORD PTR _spr$[ebp]
  010ab	8b 4d 08	 mov	 ecx, DWORD PTR _spr$[ebp]
  010ae	f3 0f 10 40 0c	 movss	 xmm0, DWORD PTR [eax+12]
  010b3	f3 0f 5c 41 08	 subss	 xmm0, DWORD PTR [ecx+8]
  010b8	f3 0f 5e 05 00
	00 00 00	 divss	 xmm0, DWORD PTR __real@40000000
  010c0	f3 0f 11 85 f4
	fe ff ff	 movss	 DWORD PTR _radius$11[ebp], xmm0

; 3461 : 			const float scale = (float)(100-spr->mobj->scale);

  010c8	8b 45 08	 mov	 eax, DWORD PTR _spr$[ebp]
  010cb	8b 48 24	 mov	 ecx, DWORD PTR [eax+36]
  010ce	0f b7 91 cc 00
	00 00		 movzx	 edx, WORD PTR [ecx+204]
  010d5	b8 64 00 00 00	 mov	 eax, 100		; 00000064H
  010da	2b c2		 sub	 eax, edx
  010dc	f3 0f 2a c0	 cvtsi2ss xmm0, eax
  010e0	f3 0f 11 85 f0
	fe ff ff	 movss	 DWORD PTR _scale$10[ebp], xmm0

; 3462 : 			if(spr->mobj->flags & MF_HIRES)

  010e8	8b 45 08	 mov	 eax, DWORD PTR _spr$[ebp]
  010eb	8b 48 24	 mov	 ecx, DWORD PTR [eax+36]
  010ee	8b 51 60	 mov	 edx, DWORD PTR [ecx+96]
  010f1	81 e2 00 00 08
	00		 and	 edx, 524288		; 00080000H
  010f7	0f 84 4b 01 00
	00		 je	 $LN31@HWR_DrawSp

; 3463 : 			{
; 3464 : 				swallVerts[0].x = swallVerts[3].x += FLOATSCALE(radius,scale)/2;

  010fd	b8 18 00 00 00	 mov	 eax, 24			; 00000018H
  01102	6b c8 03	 imul	 ecx, eax, 3
  01105	f3 0f 10 85 f0
	fe ff ff	 movss	 xmm0, DWORD PTR _scale$10[ebp]
  0110d	f3 0f 59 85 f4
	fe ff ff	 mulss	 xmm0, DWORD PTR _radius$11[ebp]
  01115	f3 0f 5e 05 00
	00 00 00	 divss	 xmm0, DWORD PTR __real@42c80000
  0111d	f3 0f 5e 05 00
	00 00 00	 divss	 xmm0, DWORD PTR __real@40000000
  01125	f3 0f 10 8c 0d
	10 ff ff ff	 movss	 xmm1, DWORD PTR _swallVerts$17[ebp+ecx]
  0112e	f3 0f 58 c8	 addss	 xmm1, xmm0
  01132	f3 0f 11 8d 88
	fe ff ff	 movss	 DWORD PTR tv842[ebp], xmm1
  0113a	ba 18 00 00 00	 mov	 edx, 24			; 00000018H
  0113f	6b c2 03	 imul	 eax, edx, 3
  01142	f3 0f 10 85 88
	fe ff ff	 movss	 xmm0, DWORD PTR tv842[ebp]
  0114a	f3 0f 11 84 05
	10 ff ff ff	 movss	 DWORD PTR _swallVerts$17[ebp+eax], xmm0
  01153	b9 18 00 00 00	 mov	 ecx, 24			; 00000018H
  01158	6b d1 00	 imul	 edx, ecx, 0
  0115b	f3 0f 10 85 88
	fe ff ff	 movss	 xmm0, DWORD PTR tv842[ebp]
  01163	f3 0f 11 84 15
	10 ff ff ff	 movss	 DWORD PTR _swallVerts$17[ebp+edx], xmm0

; 3465 : 				swallVerts[2].x = swallVerts[1].x -= FLOATSCALE(radius,scale)/2;

  0116c	b8 18 00 00 00	 mov	 eax, 24			; 00000018H
  01171	c1 e0 00	 shl	 eax, 0
  01174	f3 0f 10 85 f0
	fe ff ff	 movss	 xmm0, DWORD PTR _scale$10[ebp]
  0117c	f3 0f 59 85 f4
	fe ff ff	 mulss	 xmm0, DWORD PTR _radius$11[ebp]
  01184	f3 0f 5e 05 00
	00 00 00	 divss	 xmm0, DWORD PTR __real@42c80000
  0118c	f3 0f 5e 05 00
	00 00 00	 divss	 xmm0, DWORD PTR __real@40000000
  01194	f3 0f 10 8c 05
	10 ff ff ff	 movss	 xmm1, DWORD PTR _swallVerts$17[ebp+eax]
  0119d	f3 0f 5c c8	 subss	 xmm1, xmm0
  011a1	f3 0f 11 8d 88
	fe ff ff	 movss	 DWORD PTR tv856[ebp], xmm1
  011a9	b9 18 00 00 00	 mov	 ecx, 24			; 00000018H
  011ae	c1 e1 00	 shl	 ecx, 0
  011b1	f3 0f 10 85 88
	fe ff ff	 movss	 xmm0, DWORD PTR tv856[ebp]
  011b9	f3 0f 11 84 0d
	10 ff ff ff	 movss	 DWORD PTR _swallVerts$17[ebp+ecx], xmm0
  011c2	ba 18 00 00 00	 mov	 edx, 24			; 00000018H
  011c7	d1 e2		 shl	 edx, 1
  011c9	f3 0f 10 85 88
	fe ff ff	 movss	 xmm0, DWORD PTR tv856[ebp]
  011d1	f3 0f 11 84 15
	10 ff ff ff	 movss	 DWORD PTR _swallVerts$17[ebp+edx], xmm0

; 3466 : 				swallVerts[2].z = swallVerts[3].z -= FLOATSCALE(gpatch->height,scale);

  011da	b8 18 00 00 00	 mov	 eax, 24			; 00000018H
  011df	6b c8 03	 imul	 ecx, eax, 3
  011e2	8b 55 88	 mov	 edx, DWORD PTR _gpatch$[ebp]
  011e5	0f bf 42 02	 movsx	 eax, WORD PTR [edx+2]
  011e9	f3 0f 2a c0	 cvtsi2ss xmm0, eax
  011ed	f3 0f 59 85 f0
	fe ff ff	 mulss	 xmm0, DWORD PTR _scale$10[ebp]
  011f5	f3 0f 5e 05 00
	00 00 00	 divss	 xmm0, DWORD PTR __real@42c80000
  011fd	f3 0f 10 8c 0d
	18 ff ff ff	 movss	 xmm1, DWORD PTR _swallVerts$17[ebp+ecx+8]
  01206	f3 0f 5c c8	 subss	 xmm1, xmm0
  0120a	f3 0f 11 8d 88
	fe ff ff	 movss	 DWORD PTR tv872[ebp], xmm1
  01212	b9 18 00 00 00	 mov	 ecx, 24			; 00000018H
  01217	6b d1 03	 imul	 edx, ecx, 3
  0121a	f3 0f 10 85 88
	fe ff ff	 movss	 xmm0, DWORD PTR tv872[ebp]
  01222	f3 0f 11 84 15
	18 ff ff ff	 movss	 DWORD PTR _swallVerts$17[ebp+edx+8], xmm0
  0122b	b8 18 00 00 00	 mov	 eax, 24			; 00000018H
  01230	d1 e0		 shl	 eax, 1
  01232	f3 0f 10 85 88
	fe ff ff	 movss	 xmm0, DWORD PTR tv872[ebp]
  0123a	f3 0f 11 84 05
	18 ff ff ff	 movss	 DWORD PTR _swallVerts$17[ebp+eax+8], xmm0

; 3467 : 			}

  01243	e9 36 01 00 00	 jmp	 $LN32@HWR_DrawSp
$LN31@HWR_DrawSp:

; 3468 : 			else
; 3469 : 			{
; 3470 : 				swallVerts[0].x = swallVerts[3].x += FLOATSCALE(radius,scale);

  01248	b8 18 00 00 00	 mov	 eax, 24			; 00000018H
  0124d	6b c8 03	 imul	 ecx, eax, 3
  01250	f3 0f 10 85 f0
	fe ff ff	 movss	 xmm0, DWORD PTR _scale$10[ebp]
  01258	f3 0f 59 85 f4
	fe ff ff	 mulss	 xmm0, DWORD PTR _radius$11[ebp]
  01260	f3 0f 5e 05 00
	00 00 00	 divss	 xmm0, DWORD PTR __real@42c80000
  01268	f3 0f 10 8c 0d
	10 ff ff ff	 movss	 xmm1, DWORD PTR _swallVerts$17[ebp+ecx]
  01271	f3 0f 58 c8	 addss	 xmm1, xmm0
  01275	f3 0f 11 8d 88
	fe ff ff	 movss	 DWORD PTR tv885[ebp], xmm1
  0127d	ba 18 00 00 00	 mov	 edx, 24			; 00000018H
  01282	6b c2 03	 imul	 eax, edx, 3
  01285	f3 0f 10 85 88
	fe ff ff	 movss	 xmm0, DWORD PTR tv885[ebp]
  0128d	f3 0f 11 84 05
	10 ff ff ff	 movss	 DWORD PTR _swallVerts$17[ebp+eax], xmm0
  01296	b9 18 00 00 00	 mov	 ecx, 24			; 00000018H
  0129b	6b d1 00	 imul	 edx, ecx, 0
  0129e	f3 0f 10 85 88
	fe ff ff	 movss	 xmm0, DWORD PTR tv885[ebp]
  012a6	f3 0f 11 84 15
	10 ff ff ff	 movss	 DWORD PTR _swallVerts$17[ebp+edx], xmm0

; 3471 : 				swallVerts[2].x = swallVerts[1].x -= FLOATSCALE(radius,scale);

  012af	b8 18 00 00 00	 mov	 eax, 24			; 00000018H
  012b4	c1 e0 00	 shl	 eax, 0
  012b7	f3 0f 10 85 f0
	fe ff ff	 movss	 xmm0, DWORD PTR _scale$10[ebp]
  012bf	f3 0f 59 85 f4
	fe ff ff	 mulss	 xmm0, DWORD PTR _radius$11[ebp]
  012c7	f3 0f 5e 05 00
	00 00 00	 divss	 xmm0, DWORD PTR __real@42c80000
  012cf	f3 0f 10 8c 05
	10 ff ff ff	 movss	 xmm1, DWORD PTR _swallVerts$17[ebp+eax]
  012d8	f3 0f 5c c8	 subss	 xmm1, xmm0
  012dc	f3 0f 11 8d 88
	fe ff ff	 movss	 DWORD PTR tv898[ebp], xmm1
  012e4	b9 18 00 00 00	 mov	 ecx, 24			; 00000018H
  012e9	c1 e1 00	 shl	 ecx, 0
  012ec	f3 0f 10 85 88
	fe ff ff	 movss	 xmm0, DWORD PTR tv898[ebp]
  012f4	f3 0f 11 84 0d
	10 ff ff ff	 movss	 DWORD PTR _swallVerts$17[ebp+ecx], xmm0
  012fd	ba 18 00 00 00	 mov	 edx, 24			; 00000018H
  01302	d1 e2		 shl	 edx, 1
  01304	f3 0f 10 85 88
	fe ff ff	 movss	 xmm0, DWORD PTR tv898[ebp]
  0130c	f3 0f 11 84 15
	10 ff ff ff	 movss	 DWORD PTR _swallVerts$17[ebp+edx], xmm0

; 3472 : 				swallVerts[2].z = swallVerts[3].z -= FLOATSCALE(gpatch->height,scale);

  01315	b8 18 00 00 00	 mov	 eax, 24			; 00000018H
  0131a	6b c8 03	 imul	 ecx, eax, 3
  0131d	8b 55 88	 mov	 edx, DWORD PTR _gpatch$[ebp]
  01320	0f bf 42 02	 movsx	 eax, WORD PTR [edx+2]
  01324	f3 0f 2a c0	 cvtsi2ss xmm0, eax
  01328	f3 0f 59 85 f0
	fe ff ff	 mulss	 xmm0, DWORD PTR _scale$10[ebp]
  01330	f3 0f 5e 05 00
	00 00 00	 divss	 xmm0, DWORD PTR __real@42c80000
  01338	f3 0f 10 8c 0d
	18 ff ff ff	 movss	 xmm1, DWORD PTR _swallVerts$17[ebp+ecx+8]
  01341	f3 0f 5c c8	 subss	 xmm1, xmm0
  01345	f3 0f 11 8d 88
	fe ff ff	 movss	 DWORD PTR tv914[ebp], xmm1
  0134d	b9 18 00 00 00	 mov	 ecx, 24			; 00000018H
  01352	6b d1 03	 imul	 edx, ecx, 3
  01355	f3 0f 10 85 88
	fe ff ff	 movss	 xmm0, DWORD PTR tv914[ebp]
  0135d	f3 0f 11 84 15
	18 ff ff ff	 movss	 DWORD PTR _swallVerts$17[ebp+edx+8], xmm0
  01366	b8 18 00 00 00	 mov	 eax, 24			; 00000018H
  0136b	d1 e0		 shl	 eax, 1
  0136d	f3 0f 10 85 88
	fe ff ff	 movss	 xmm0, DWORD PTR tv914[ebp]
  01375	f3 0f 11 84 05
	18 ff ff ff	 movss	 DWORD PTR _swallVerts$17[ebp+eax+8], xmm0
$LN32@HWR_DrawSp:

; 3473 : 			}
; 3474 : 		}
; 3475 : 
; 3476 : 		// transform
; 3477 : 		wv = swallVerts;

  0137e	8d 85 10 ff ff
	ff		 lea	 eax, DWORD PTR _swallVerts$17[ebp]
  01384	89 45 8c	 mov	 DWORD PTR _wv$[ebp], eax

; 3478 : 
; 3479 : 		for (i = 0; i < 4; i++,wv++)

  01387	c6 45 fb 00	 mov	 BYTE PTR _i$[ebp], 0
  0138b	eb 11		 jmp	 SHORT $LN7@HWR_DrawSp
$LN5@HWR_DrawSp:
  0138d	8a 45 fb	 mov	 al, BYTE PTR _i$[ebp]
  01390	04 01		 add	 al, 1
  01392	88 45 fb	 mov	 BYTE PTR _i$[ebp], al
  01395	8b 4d 8c	 mov	 ecx, DWORD PTR _wv$[ebp]
  01398	83 c1 18	 add	 ecx, 24			; 00000018H
  0139b	89 4d 8c	 mov	 DWORD PTR _wv$[ebp], ecx
$LN7@HWR_DrawSp:
  0139e	0f b6 45 fb	 movzx	 eax, BYTE PTR _i$[ebp]
  013a2	83 f8 04	 cmp	 eax, 4
  013a5	0f 8d da 00 00
	00		 jge	 $LN6@HWR_DrawSp

; 3480 : 		{
; 3481 : 			// Offset away from the camera based on height from floor.
; 3482 : 			if (cv_shadowoffs.value)

  013ab	83 3d 14 00 00
	00 00		 cmp	 DWORD PTR _cv_shadowoffs+20, 0
  013b2	74 18		 je	 SHORT $LN33@HWR_DrawSp

; 3483 : 				wv->z += floorheight;

  013b4	f3 0f 2a 85 04
	ff ff ff	 cvtsi2ss xmm0, DWORD PTR _floorheight$15[ebp]
  013bc	8b 45 8c	 mov	 eax, DWORD PTR _wv$[ebp]
  013bf	f3 0f 58 40 08	 addss	 xmm0, DWORD PTR [eax+8]
  013c4	8b 4d 8c	 mov	 ecx, DWORD PTR _wv$[ebp]
  013c7	f3 0f 11 41 08	 movss	 DWORD PTR [ecx+8], xmm0
$LN33@HWR_DrawSp:

; 3484 : 			wv->z += 3;

  013cc	8b 45 8c	 mov	 eax, DWORD PTR _wv$[ebp]
  013cf	f3 0f 10 40 08	 movss	 xmm0, DWORD PTR [eax+8]
  013d4	f3 0f 58 05 00
	00 00 00	 addss	 xmm0, DWORD PTR __real@40400000
  013dc	8b 4d 8c	 mov	 ecx, DWORD PTR _wv$[ebp]
  013df	f3 0f 11 41 08	 movss	 DWORD PTR [ecx+8], xmm0

; 3485 : 
; 3486 : 			//look up/down ----TOTAL SUCKS!!!--- do the 2 in one!!!!!!!!!!!!!!!!!!!!!!!!!!!!!!!
; 3487 : 			tr_x = wv->z;

  013e4	8b 45 8c	 mov	 eax, DWORD PTR _wv$[ebp]
  013e7	f3 0f 10 40 08	 movss	 xmm0, DWORD PTR [eax+8]
  013ec	f3 0f 11 45 f4	 movss	 DWORD PTR _tr_x$[ebp], xmm0

; 3488 : 			tr_y = wv->y;

  013f1	8b 45 8c	 mov	 eax, DWORD PTR _wv$[ebp]
  013f4	f3 0f 10 40 04	 movss	 xmm0, DWORD PTR [eax+4]
  013f9	f3 0f 11 45 f0	 movss	 DWORD PTR _tr_y$[ebp], xmm0

; 3489 : 			wv->y = (tr_x * gr_viewludcos) + (tr_y * gr_viewludsin);

  013fe	f3 0f 10 45 f4	 movss	 xmm0, DWORD PTR _tr_x$[ebp]
  01403	f3 0f 59 05 00
	00 00 00	 mulss	 xmm0, DWORD PTR _gr_viewludcos
  0140b	f3 0f 10 4d f0	 movss	 xmm1, DWORD PTR _tr_y$[ebp]
  01410	f3 0f 59 0d 00
	00 00 00	 mulss	 xmm1, DWORD PTR _gr_viewludsin
  01418	f3 0f 58 c1	 addss	 xmm0, xmm1
  0141c	8b 45 8c	 mov	 eax, DWORD PTR _wv$[ebp]
  0141f	f3 0f 11 40 04	 movss	 DWORD PTR [eax+4], xmm0

; 3490 : 			wv->z = (tr_x * gr_viewludsin) - (tr_y * gr_viewludcos);

  01424	f3 0f 10 45 f4	 movss	 xmm0, DWORD PTR _tr_x$[ebp]
  01429	f3 0f 59 05 00
	00 00 00	 mulss	 xmm0, DWORD PTR _gr_viewludsin
  01431	f3 0f 10 4d f0	 movss	 xmm1, DWORD PTR _tr_y$[ebp]
  01436	f3 0f 59 0d 00
	00 00 00	 mulss	 xmm1, DWORD PTR _gr_viewludcos
  0143e	f3 0f 5c c1	 subss	 xmm0, xmm1
  01442	8b 45 8c	 mov	 eax, DWORD PTR _wv$[ebp]
  01445	f3 0f 11 40 08	 movss	 DWORD PTR [eax+8], xmm0

; 3491 : 			// ---------------------- mega lame test ----------------------------------
; 3492 : 
; 3493 : 			//scale y before frustum so that frustum can be scaled to screen height
; 3494 : 			wv->y *= ORIGINAL_ASPECT * gr_fovlud;

  0144a	f3 0f 10 05 00
	00 00 00	 movss	 xmm0, DWORD PTR __real@3fcccccd
  01452	f3 0f 59 05 00
	00 00 00	 mulss	 xmm0, DWORD PTR _gr_fovlud
  0145a	8b 45 8c	 mov	 eax, DWORD PTR _wv$[ebp]
  0145d	f3 0f 59 40 04	 mulss	 xmm0, DWORD PTR [eax+4]
  01462	8b 4d 8c	 mov	 ecx, DWORD PTR _wv$[ebp]
  01465	f3 0f 11 41 04	 movss	 DWORD PTR [ecx+4], xmm0

; 3495 : 			wv->x *= gr_fovlud;

  0146a	8b 45 8c	 mov	 eax, DWORD PTR _wv$[ebp]
  0146d	f3 0f 10 00	 movss	 xmm0, DWORD PTR [eax]
  01471	f3 0f 59 05 00
	00 00 00	 mulss	 xmm0, DWORD PTR _gr_fovlud
  01479	8b 4d 8c	 mov	 ecx, DWORD PTR _wv$[ebp]
  0147c	f3 0f 11 01	 movss	 DWORD PTR [ecx], xmm0

; 3496 : 		}

  01480	e9 08 ff ff ff	 jmp	 $LN5@HWR_DrawSp
$LN6@HWR_DrawSp:

; 3497 : 
; 3498 : 		if (spr->flip)

  01485	8b 45 08	 mov	 eax, DWORD PTR _spr$[ebp]
  01488	83 78 1c 00	 cmp	 DWORD PTR [eax+28], 0
  0148c	74 5c		 je	 SHORT $LN34@HWR_DrawSp

; 3499 : 		{
; 3500 : 			swallVerts[0].sow = swallVerts[3].sow = gpatch->max_s;

  0148e	b8 18 00 00 00	 mov	 eax, 24			; 00000018H
  01493	6b c8 03	 imul	 ecx, eax, 3
  01496	8b 55 88	 mov	 edx, DWORD PTR _gpatch$[ebp]
  01499	8b 42 08	 mov	 eax, DWORD PTR [edx+8]
  0149c	89 84 0d 20 ff
	ff ff		 mov	 DWORD PTR _swallVerts$17[ebp+ecx+16], eax
  014a3	b9 18 00 00 00	 mov	 ecx, 24			; 00000018H
  014a8	6b d1 03	 imul	 edx, ecx, 3
  014ab	b8 18 00 00 00	 mov	 eax, 24			; 00000018H
  014b0	6b c8 00	 imul	 ecx, eax, 0
  014b3	8b 94 15 20 ff
	ff ff		 mov	 edx, DWORD PTR _swallVerts$17[ebp+edx+16]
  014ba	89 94 0d 20 ff
	ff ff		 mov	 DWORD PTR _swallVerts$17[ebp+ecx+16], edx

; 3501 : 			swallVerts[2].sow = swallVerts[1].sow = 0;

  014c1	b8 18 00 00 00	 mov	 eax, 24			; 00000018H
  014c6	c1 e0 00	 shl	 eax, 0
  014c9	0f 57 c0	 xorps	 xmm0, xmm0
  014cc	f3 0f 11 84 05
	20 ff ff ff	 movss	 DWORD PTR _swallVerts$17[ebp+eax+16], xmm0
  014d5	b9 18 00 00 00	 mov	 ecx, 24			; 00000018H
  014da	d1 e1		 shl	 ecx, 1
  014dc	0f 57 c0	 xorps	 xmm0, xmm0
  014df	f3 0f 11 84 0d
	20 ff ff ff	 movss	 DWORD PTR _swallVerts$17[ebp+ecx+16], xmm0

; 3502 : 		}

  014e8	eb 5a		 jmp	 SHORT $LN35@HWR_DrawSp
$LN34@HWR_DrawSp:

; 3503 : 		else
; 3504 : 		{
; 3505 : 			swallVerts[0].sow = swallVerts[3].sow = 0;

  014ea	b8 18 00 00 00	 mov	 eax, 24			; 00000018H
  014ef	6b c8 03	 imul	 ecx, eax, 3
  014f2	0f 57 c0	 xorps	 xmm0, xmm0
  014f5	f3 0f 11 84 0d
	20 ff ff ff	 movss	 DWORD PTR _swallVerts$17[ebp+ecx+16], xmm0
  014fe	ba 18 00 00 00	 mov	 edx, 24			; 00000018H
  01503	6b c2 00	 imul	 eax, edx, 0
  01506	0f 57 c0	 xorps	 xmm0, xmm0
  01509	f3 0f 11 84 05
	20 ff ff ff	 movss	 DWORD PTR _swallVerts$17[ebp+eax+16], xmm0

; 3506 : 			swallVerts[2].sow = swallVerts[1].sow = gpatch->max_s;

  01512	b8 18 00 00 00	 mov	 eax, 24			; 00000018H
  01517	c1 e0 00	 shl	 eax, 0
  0151a	8b 4d 88	 mov	 ecx, DWORD PTR _gpatch$[ebp]
  0151d	8b 51 08	 mov	 edx, DWORD PTR [ecx+8]
  01520	89 94 05 20 ff
	ff ff		 mov	 DWORD PTR _swallVerts$17[ebp+eax+16], edx
  01527	b8 18 00 00 00	 mov	 eax, 24			; 00000018H
  0152c	c1 e0 00	 shl	 eax, 0
  0152f	b9 18 00 00 00	 mov	 ecx, 24			; 00000018H
  01534	d1 e1		 shl	 ecx, 1
  01536	8b 94 05 20 ff
	ff ff		 mov	 edx, DWORD PTR _swallVerts$17[ebp+eax+16]
  0153d	89 94 0d 20 ff
	ff ff		 mov	 DWORD PTR _swallVerts$17[ebp+ecx+16], edx
$LN35@HWR_DrawSp:

; 3507 : 		}
; 3508 : 		swallVerts[3].tow = swallVerts[2].tow = 0;

  01544	b8 18 00 00 00	 mov	 eax, 24			; 00000018H
  01549	d1 e0		 shl	 eax, 1
  0154b	0f 57 c0	 xorps	 xmm0, xmm0
  0154e	f3 0f 11 84 05
	24 ff ff ff	 movss	 DWORD PTR _swallVerts$17[ebp+eax+20], xmm0
  01557	b9 18 00 00 00	 mov	 ecx, 24			; 00000018H
  0155c	6b d1 03	 imul	 edx, ecx, 3
  0155f	0f 57 c0	 xorps	 xmm0, xmm0
  01562	f3 0f 11 84 15
	24 ff ff ff	 movss	 DWORD PTR _swallVerts$17[ebp+edx+20], xmm0

; 3509 : 
; 3510 : 		if (hires)

  0156b	83 bd 7c ff ff
	ff 00		 cmp	 DWORD PTR _hires$[ebp], 0
  01572	74 4c		 je	 SHORT $LN36@HWR_DrawSp

; 3511 : 			swallVerts[0].tow = swallVerts[1].tow = gpatch->max_t*2;

  01574	8b 45 88	 mov	 eax, DWORD PTR _gpatch$[ebp]
  01577	f3 0f 10 40 0c	 movss	 xmm0, DWORD PTR [eax+12]
  0157c	f3 0f 59 05 00
	00 00 00	 mulss	 xmm0, DWORD PTR __real@40000000
  01584	f3 0f 11 85 88
	fe ff ff	 movss	 DWORD PTR tv996[ebp], xmm0
  0158c	b9 18 00 00 00	 mov	 ecx, 24			; 00000018H
  01591	c1 e1 00	 shl	 ecx, 0
  01594	f3 0f 10 85 88
	fe ff ff	 movss	 xmm0, DWORD PTR tv996[ebp]
  0159c	f3 0f 11 84 0d
	24 ff ff ff	 movss	 DWORD PTR _swallVerts$17[ebp+ecx+20], xmm0
  015a5	ba 18 00 00 00	 mov	 edx, 24			; 00000018H
  015aa	6b c2 00	 imul	 eax, edx, 0
  015ad	f3 0f 10 85 88
	fe ff ff	 movss	 xmm0, DWORD PTR tv996[ebp]
  015b5	f3 0f 11 84 05
	24 ff ff ff	 movss	 DWORD PTR _swallVerts$17[ebp+eax+20], xmm0
  015be	eb 33		 jmp	 SHORT $LN37@HWR_DrawSp
$LN36@HWR_DrawSp:

; 3512 : 		else
; 3513 : 			swallVerts[0].tow = swallVerts[1].tow = gpatch->max_t;

  015c0	b8 18 00 00 00	 mov	 eax, 24			; 00000018H
  015c5	c1 e0 00	 shl	 eax, 0
  015c8	8b 4d 88	 mov	 ecx, DWORD PTR _gpatch$[ebp]
  015cb	8b 51 0c	 mov	 edx, DWORD PTR [ecx+12]
  015ce	89 94 05 24 ff
	ff ff		 mov	 DWORD PTR _swallVerts$17[ebp+eax+20], edx
  015d5	b8 18 00 00 00	 mov	 eax, 24			; 00000018H
  015da	c1 e0 00	 shl	 eax, 0
  015dd	b9 18 00 00 00	 mov	 ecx, 24			; 00000018H
  015e2	6b d1 00	 imul	 edx, ecx, 0
  015e5	8b 84 05 24 ff
	ff ff		 mov	 eax, DWORD PTR _swallVerts$17[ebp+eax+20]
  015ec	89 84 15 24 ff
	ff ff		 mov	 DWORD PTR _swallVerts$17[ebp+edx+20], eax
$LN37@HWR_DrawSp:

; 3514 : 
; 3515 : 		sSurf.FlatColor.s.red = 0x00;

  015f3	c6 85 0c ff ff
	ff 00		 mov	 BYTE PTR _sSurf$16[ebp+4], 0

; 3516 : 		sSurf.FlatColor.s.blue = 0x00;

  015fa	c6 85 0e ff ff
	ff 00		 mov	 BYTE PTR _sSurf$16[ebp+6], 0

; 3517 : 		sSurf.FlatColor.s.green = 0x00;

  01601	c6 85 0d ff ff
	ff 00		 mov	 BYTE PTR _sSurf$16[ebp+5], 0

; 3518 : 
; 3519 : 		if (spr->mobj->frame & FF_TRANSMASK || spr->mobj->flags2 & MF2_SHADOW)

  01608	8b 45 08	 mov	 eax, DWORD PTR _spr$[ebp]
  0160b	8b 48 24	 mov	 ecx, DWORD PTR [eax+36]
  0160e	8b 51 2c	 mov	 edx, DWORD PTR [ecx+44]
  01611	81 e2 00 00 0f
	00		 and	 edx, 983040		; 000f0000H
  01617	75 18		 jne	 SHORT $LN40@HWR_DrawSp
  01619	8b 45 08	 mov	 eax, DWORD PTR _spr$[ebp]
  0161c	8b 48 24	 mov	 ecx, DWORD PTR [eax+36]
  0161f	8b 91 88 00 00
	00		 mov	 edx, DWORD PTR [ecx+136]
  01625	81 e2 00 00 00
	01		 and	 edx, 16777216		; 01000000H
  0162b	0f 84 98 01 00
	00		 je	 $LN38@HWR_DrawSp
$LN40@HWR_DrawSp:

; 3520 : 		{
; 3521 : #ifdef HARDWAREFIX
; 3522 : 			sector_t *sector = spr->mobj->subsector->sector;

  01631	8b 45 08	 mov	 eax, DWORD PTR _spr$[ebp]
  01634	8b 48 24	 mov	 ecx, DWORD PTR [eax+36]
  01637	8b 51 34	 mov	 edx, DWORD PTR [ecx+52]
  0163a	8b 02		 mov	 eax, DWORD PTR [edx]
  0163c	89 85 ec fe ff
	ff		 mov	 DWORD PTR _sector$9[ebp], eax

; 3523 : 			UINT8 lightlevel = LightLevelToLum(sector->lightlevel);

  01642	8b 85 ec fe ff
	ff		 mov	 eax, DWORD PTR _sector$9[ebp]
  01648	0f bf 48 10	 movsx	 ecx, WORD PTR [eax+16]
  0164c	51		 push	 ecx
  0164d	e8 00 00 00 00	 call	 _LightLevelToLum
  01652	83 c4 04	 add	 esp, 4
  01655	88 85 eb fe ff
	ff		 mov	 BYTE PTR _lightlevel$8[ebp], al

; 3524 : 			extracolormap_t *colormap = sector->extra_colormap;

  0165b	8b 85 ec fe ff
	ff		 mov	 eax, DWORD PTR _sector$9[ebp]
  01661	8b 88 b0 00 00
	00		 mov	 ecx, DWORD PTR [eax+176]
  01667	89 8d e4 fe ff
	ff		 mov	 DWORD PTR _colormap$7[ebp], ecx

; 3525 : 
; 3526 : 			if (sector->numlights)

  0166d	8b 85 ec fe ff
	ff		 mov	 eax, DWORD PTR _sector$9[ebp]
  01673	83 b8 a8 00 00
	00 00		 cmp	 DWORD PTR [eax+168], 0
  0167a	0f 84 a9 00 00
	00		 je	 $LN41@HWR_DrawSp

; 3527 : 			{
; 3528 : 				INT32 light = R_GetPlaneLight(sector, spr->mobj->floorz, false);

  01680	6a 00		 push	 0
  01682	8b 45 08	 mov	 eax, DWORD PTR _spr$[ebp]
  01685	8b 48 24	 mov	 ecx, DWORD PTR [eax+36]
  01688	8b 51 38	 mov	 edx, DWORD PTR [ecx+56]
  0168b	52		 push	 edx
  0168c	8b 85 ec fe ff
	ff		 mov	 eax, DWORD PTR _sector$9[ebp]
  01692	50		 push	 eax
  01693	e8 00 00 00 00	 call	 _R_GetPlaneLight
  01698	83 c4 0c	 add	 esp, 12			; 0000000cH
  0169b	89 85 e0 fe ff
	ff		 mov	 DWORD PTR _light$6[ebp], eax

; 3529 : 
; 3530 : 				if (!(spr->mobj->frame & FF_FULLBRIGHT))

  016a1	8b 45 08	 mov	 eax, DWORD PTR _spr$[ebp]
  016a4	8b 48 24	 mov	 ecx, DWORD PTR [eax+36]
  016a7	8b 51 2c	 mov	 edx, DWORD PTR [ecx+44]
  016aa	81 e2 00 80 00
	00		 and	 edx, 32768		; 00008000H
  016b0	75 2b		 jne	 SHORT $LN43@HWR_DrawSp

; 3531 : 					lightlevel = LightLevelToLum(*sector->lightlist[light].lightlevel);

  016b2	6b 85 e0 fe ff
	ff 14		 imul	 eax, DWORD PTR _light$6[ebp], 20
  016b9	8b 8d ec fe ff
	ff		 mov	 ecx, DWORD PTR _sector$9[ebp]
  016bf	8b 91 a4 00 00
	00		 mov	 edx, DWORD PTR [ecx+164]
  016c5	8b 44 02 04	 mov	 eax, DWORD PTR [edx+eax+4]
  016c9	0f bf 08	 movsx	 ecx, WORD PTR [eax]
  016cc	51		 push	 ecx
  016cd	e8 00 00 00 00	 call	 _LightLevelToLum
  016d2	83 c4 04	 add	 esp, 4
  016d5	88 85 eb fe ff
	ff		 mov	 BYTE PTR _lightlevel$8[ebp], al
  016db	eb 13		 jmp	 SHORT $LN44@HWR_DrawSp
$LN43@HWR_DrawSp:

; 3532 : 				else
; 3533 : 					lightlevel = LightLevelToLum(255);

  016dd	68 ff 00 00 00	 push	 255			; 000000ffH
  016e2	e8 00 00 00 00	 call	 _LightLevelToLum
  016e7	83 c4 04	 add	 esp, 4
  016ea	88 85 eb fe ff
	ff		 mov	 BYTE PTR _lightlevel$8[ebp], al
$LN44@HWR_DrawSp:

; 3534 : 
; 3535 : 				if (sector->lightlist[light].extra_colormap)

  016f0	6b 85 e0 fe ff
	ff 14		 imul	 eax, DWORD PTR _light$6[ebp], 20
  016f7	8b 8d ec fe ff
	ff		 mov	 ecx, DWORD PTR _sector$9[ebp]
  016fd	8b 91 a4 00 00
	00		 mov	 edx, DWORD PTR [ecx+164]
  01703	83 7c 02 08 00	 cmp	 DWORD PTR [edx+eax+8], 0
  01708	74 1d		 je	 SHORT $LN45@HWR_DrawSp

; 3536 : 					colormap = sector->lightlist[light].extra_colormap;

  0170a	6b 85 e0 fe ff
	ff 14		 imul	 eax, DWORD PTR _light$6[ebp], 20
  01711	8b 8d ec fe ff
	ff		 mov	 ecx, DWORD PTR _sector$9[ebp]
  01717	8b 91 a4 00 00
	00		 mov	 edx, DWORD PTR [ecx+164]
  0171d	8b 44 02 08	 mov	 eax, DWORD PTR [edx+eax+8]
  01721	89 85 e4 fe ff
	ff		 mov	 DWORD PTR _colormap$7[ebp], eax
$LN45@HWR_DrawSp:

; 3537 : 			}

  01727	eb 3a		 jmp	 SHORT $LN46@HWR_DrawSp
$LN41@HWR_DrawSp:

; 3538 : 			else
; 3539 : 			{
; 3540 : 				lightlevel = LightLevelToLum(sector->lightlevel);

  01729	8b 85 ec fe ff
	ff		 mov	 eax, DWORD PTR _sector$9[ebp]
  0172f	0f bf 48 10	 movsx	 ecx, WORD PTR [eax+16]
  01733	51		 push	 ecx
  01734	e8 00 00 00 00	 call	 _LightLevelToLum
  01739	83 c4 04	 add	 esp, 4
  0173c	88 85 eb fe ff
	ff		 mov	 BYTE PTR _lightlevel$8[ebp], al

; 3541 : 
; 3542 : 				if (sector->extra_colormap)

  01742	8b 85 ec fe ff
	ff		 mov	 eax, DWORD PTR _sector$9[ebp]
  01748	83 b8 b0 00 00
	00 00		 cmp	 DWORD PTR [eax+176], 0
  0174f	74 12		 je	 SHORT $LN46@HWR_DrawSp

; 3543 : 					colormap = sector->extra_colormap;

  01751	8b 85 ec fe ff
	ff		 mov	 eax, DWORD PTR _sector$9[ebp]
  01757	8b 88 b0 00 00
	00		 mov	 ecx, DWORD PTR [eax+176]
  0175d	89 8d e4 fe ff
	ff		 mov	 DWORD PTR _colormap$7[ebp], ecx
$LN46@HWR_DrawSp:

; 3544 : 			}
; 3545 : 
; 3546 : 			if (colormap)

  01763	83 bd e4 fe ff
	ff 00		 cmp	 DWORD PTR _colormap$7[ebp], 0
  0176a	74 35		 je	 SHORT $LN47@HWR_DrawSp

; 3547 : 				sSurf.FlatColor.rgba = HWR_Lighting(lightlevel/2, colormap->rgba, colormap->fadergba, false, true);

  0176c	6a 01		 push	 1
  0176e	6a 00		 push	 0
  01770	8b 85 e4 fe ff
	ff		 mov	 eax, DWORD PTR _colormap$7[ebp]
  01776	8b 48 1c	 mov	 ecx, DWORD PTR [eax+28]
  01779	51		 push	 ecx
  0177a	8b 95 e4 fe ff
	ff		 mov	 edx, DWORD PTR _colormap$7[ebp]
  01780	8b 42 18	 mov	 eax, DWORD PTR [edx+24]
  01783	50		 push	 eax
  01784	0f b6 85 eb fe
	ff ff		 movzx	 eax, BYTE PTR _lightlevel$8[ebp]
  0178b	99		 cdq
  0178c	2b c2		 sub	 eax, edx
  0178e	d1 f8		 sar	 eax, 1
  01790	50		 push	 eax
  01791	e8 00 00 00 00	 call	 _HWR_Lighting
  01796	83 c4 14	 add	 esp, 20			; 00000014H
  01799	89 85 0c ff ff
	ff		 mov	 DWORD PTR _sSurf$16[ebp+4], eax
  0179f	eb 26		 jmp	 SHORT $LN48@HWR_DrawSp
$LN47@HWR_DrawSp:

; 3548 : 			else
; 3549 : 				sSurf.FlatColor.rgba = HWR_Lighting(lightlevel/2, NORMALFOG, FADEFOG, false, true);

  017a1	6a 01		 push	 1
  017a3	6a 00		 push	 0
  017a5	68 00 00 00 19	 push	 419430400		; 19000000H
  017aa	6a 00		 push	 0
  017ac	0f b6 85 eb fe
	ff ff		 movzx	 eax, BYTE PTR _lightlevel$8[ebp]
  017b3	99		 cdq
  017b4	2b c2		 sub	 eax, edx
  017b6	d1 f8		 sar	 eax, 1
  017b8	50		 push	 eax
  017b9	e8 00 00 00 00	 call	 _HWR_Lighting
  017be	83 c4 14	 add	 esp, 20			; 00000014H
  017c1	89 85 0c ff ff
	ff		 mov	 DWORD PTR _sSurf$16[ebp+4], eax
$LN48@HWR_DrawSp:

; 3550 : #else
; 3551 : 			// sprite lighting by modulating the RGB components
; 3552 : 			sSurf.FlatColor.s.red = sSurf.FlatColor.s.green = sSurf.FlatColor.s.blue = (UINT8)(spr->sectorlight/2);
; 3553 : #endif
; 3554 : 		}

  017c7	eb 07		 jmp	 SHORT $LN39@HWR_DrawSp
$LN38@HWR_DrawSp:

; 3555 : 		else
; 3556 : #ifdef HARDWAREFIX
; 3557 : 			Surf.FlatColor.rgba = NORMALFOG;

  017c9	c7 45 84 00 00
	00 00		 mov	 DWORD PTR _Surf$[ebp+4], 0
$LN39@HWR_DrawSp:

; 3558 : #else
; 3559 : 			sSurf.FlatColor.s.red = sSurf.FlatColor.s.green = sSurf.FlatColor.s.blue = 0x00;
; 3560 : #endif
; 3561 : 
; 3562 : 		/// \todo do the test earlier
; 3563 : 		if (!cv_grmd2.value || (md2_models[spr->mobj->sprite].scale < 0.0f) || (md2_models[spr->mobj->sprite].notfound = true) || (md2_playermodels[(skin_t*)spr->mobj->skin-skins].scale < 0.0f) || (md2_playermodels[(skin_t*)spr->mobj->skin-skins].notfound = true))

  017d0	83 3d 14 00 00
	00 00		 cmp	 DWORD PTR _cv_grmd2+20, 0
  017d7	0f 84 84 00 00
	00		 je	 $LN50@HWR_DrawSp
  017dd	8b 45 08	 mov	 eax, DWORD PTR _spr$[ebp]
  017e0	8b 48 24	 mov	 ecx, DWORD PTR [eax+36]
  017e3	6b 51 28 38	 imul	 edx, DWORD PTR [ecx+40], 56
  017e7	0f 57 c0	 xorps	 xmm0, xmm0
  017ea	0f 2f 82 20 00
	00 00		 comiss	 xmm0, DWORD PTR _md2_models[edx+32]
  017f1	77 6e		 ja	 SHORT $LN50@HWR_DrawSp
  017f3	8b 45 08	 mov	 eax, DWORD PTR _spr$[ebp]
  017f6	8b 48 24	 mov	 ecx, DWORD PTR [eax+36]
  017f9	6b 51 28 38	 imul	 edx, DWORD PTR [ecx+40], 56
  017fd	c7 82 30 00 00
	00 01 00 00 00	 mov	 DWORD PTR _md2_models[edx+48], 1
  01807	b8 01 00 00 00	 mov	 eax, 1
  0180c	85 c0		 test	 eax, eax
  0180e	75 51		 jne	 SHORT $LN50@HWR_DrawSp
  01810	8b 45 08	 mov	 eax, DWORD PTR _spr$[ebp]
  01813	8b 48 24	 mov	 ecx, DWORD PTR [eax+36]
  01816	8b 41 64	 mov	 eax, DWORD PTR [ecx+100]
  01819	2d 00 00 00 00	 sub	 eax, OFFSET _skins
  0181e	99		 cdq
  0181f	b9 ec 00 00 00	 mov	 ecx, 236		; 000000ecH
  01824	f7 f9		 idiv	 ecx
  01826	6b d0 38	 imul	 edx, eax, 56
  01829	0f 57 c0	 xorps	 xmm0, xmm0
  0182c	0f 2f 82 20 00
	00 00		 comiss	 xmm0, DWORD PTR _md2_playermodels[edx+32]
  01833	77 2c		 ja	 SHORT $LN50@HWR_DrawSp
  01835	8b 45 08	 mov	 eax, DWORD PTR _spr$[ebp]
  01838	8b 48 24	 mov	 ecx, DWORD PTR [eax+36]
  0183b	8b 41 64	 mov	 eax, DWORD PTR [ecx+100]
  0183e	2d 00 00 00 00	 sub	 eax, OFFSET _skins
  01843	99		 cdq
  01844	b9 ec 00 00 00	 mov	 ecx, 236		; 000000ecH
  01849	f7 f9		 idiv	 ecx
  0184b	6b d0 38	 imul	 edx, eax, 56
  0184e	c7 82 30 00 00
	00 01 00 00 00	 mov	 DWORD PTR _md2_playermodels[edx+48], 1
  01858	b8 01 00 00 00	 mov	 eax, 1
  0185d	85 c0		 test	 eax, eax
  0185f	74 4e		 je	 SHORT $noshadow$77
$LN50@HWR_DrawSp:

; 3564 : 		{
; 3565 : 			if (0x80 > floorheight/4)

  01861	8b 85 04 ff ff
	ff		 mov	 eax, DWORD PTR _floorheight$15[ebp]
  01867	99		 cdq
  01868	83 e2 03	 and	 edx, 3
  0186b	03 c2		 add	 eax, edx
  0186d	c1 f8 02	 sar	 eax, 2
  01870	3d 80 00 00 00	 cmp	 eax, 128		; 00000080H
  01875	7d 38		 jge	 SHORT $noshadow$77

; 3566 : 			{
; 3567 : 				sSurf.FlatColor.s.alpha = (UINT8)(0x80 - floorheight/4);

  01877	8b 85 04 ff ff
	ff		 mov	 eax, DWORD PTR _floorheight$15[ebp]
  0187d	99		 cdq
  0187e	83 e2 03	 and	 edx, 3
  01881	03 c2		 add	 eax, edx
  01883	c1 f8 02	 sar	 eax, 2
  01886	b9 80 00 00 00	 mov	 ecx, 128		; 00000080H
  0188b	2b c8		 sub	 ecx, eax
  0188d	88 8d 0f ff ff
	ff		 mov	 BYTE PTR _sSurf$16[ebp+7], cl

; 3568 : 				HWD.pfnDrawPolygon(&sSurf, swallVerts, 4, PF_Translucent|PF_Modulated|PF_Clip);

  01893	68 02 10 00 40	 push	 1073745922		; 40001002H
  01898	6a 04		 push	 4
  0189a	8d 85 10 ff ff
	ff		 lea	 eax, DWORD PTR _swallVerts$17[ebp]
  018a0	50		 push	 eax
  018a1	8d 8d 08 ff ff
	ff		 lea	 ecx, DWORD PTR _sSurf$16[ebp]
  018a7	51		 push	 ecx
  018a8	ff 15 10 00 00
	00		 call	 DWORD PTR _hwdriver+16
  018ae	90		 npad	 1
$noshadow$77:

; 3569 : 			}
; 3570 : 		}
; 3571 : 	}
; 3572 : 
; 3573 : noshadow:
; 3574 : 
; 3575 : 	// This needs to be AFTER the shadows so that the regular sprites aren't drawn completely black.
; 3576 : 	// sprite lighting by modulating the RGB components
; 3577 : 	/// \todo coloured
; 3578 : #ifndef HARDWAREFIX
; 3579 : 	Surf.FlatColor.s.red = Surf.FlatColor.s.green = Surf.FlatColor.s.blue = spr->sectorlight;
; 3580 : #endif
; 3581 : 
; 3582 : 	// colormap test
; 3583 : 	{
; 3584 : #ifdef HARDWAREFIX
; 3585 : 		sector_t *sector = spr->mobj->subsector->sector;

  018af	8b 45 08	 mov	 eax, DWORD PTR _spr$[ebp]
  018b2	8b 48 24	 mov	 ecx, DWORD PTR [eax+36]
  018b5	8b 51 34	 mov	 edx, DWORD PTR [ecx+52]
  018b8	8b 02		 mov	 eax, DWORD PTR [edx]
  018ba	89 85 dc fe ff
	ff		 mov	 DWORD PTR _sector$5[ebp], eax

; 3586 : 		UINT8 lightlevel = LightLevelToLum(sector->lightlevel);

  018c0	8b 85 dc fe ff
	ff		 mov	 eax, DWORD PTR _sector$5[ebp]
  018c6	0f bf 48 10	 movsx	 ecx, WORD PTR [eax+16]
  018ca	51		 push	 ecx
  018cb	e8 00 00 00 00	 call	 _LightLevelToLum
  018d0	83 c4 04	 add	 esp, 4
  018d3	88 85 db fe ff
	ff		 mov	 BYTE PTR _lightlevel$4[ebp], al

; 3587 : 		extracolormap_t *colormap = sector->extra_colormap;

  018d9	8b 85 dc fe ff
	ff		 mov	 eax, DWORD PTR _sector$5[ebp]
  018df	8b 88 b0 00 00
	00		 mov	 ecx, DWORD PTR [eax+176]
  018e5	89 8d d4 fe ff
	ff		 mov	 DWORD PTR _colormap$3[ebp], ecx

; 3588 : 
; 3589 : 		if (sector->numlights)

  018eb	8b 85 dc fe ff
	ff		 mov	 eax, DWORD PTR _sector$5[ebp]
  018f1	83 b8 a8 00 00
	00 00		 cmp	 DWORD PTR [eax+168], 0
  018f8	0f 84 ac 01 00
	00		 je	 $LN52@HWR_DrawSp

; 3590 : 		{
; 3591 : 			INT32 light = R_GetPlaneLight(sector, spr->mobj->z, false);

  018fe	6a 00		 push	 0
  01900	8b 45 08	 mov	 eax, DWORD PTR _spr$[ebp]
  01903	8b 48 24	 mov	 ecx, DWORD PTR [eax+36]
  01906	8b 51 18	 mov	 edx, DWORD PTR [ecx+24]
  01909	52		 push	 edx
  0190a	8b 85 dc fe ff
	ff		 mov	 eax, DWORD PTR _sector$5[ebp]
  01910	50		 push	 eax
  01911	e8 00 00 00 00	 call	 _R_GetPlaneLight
  01916	83 c4 0c	 add	 esp, 12			; 0000000cH
  01919	89 85 d0 fe ff
	ff		 mov	 DWORD PTR _light$2[ebp], eax

; 3592 : 
; 3593 : 			if ((sector->lightlist[light].height > (spr->mobj->z + spr->mobj->height)) && !(sector->lightlist[light].flags & FF_NOSHADE))

  0191f	6b 85 d0 fe ff
	ff 14		 imul	 eax, DWORD PTR _light$2[ebp], 20
  01926	8b 8d dc fe ff
	ff		 mov	 ecx, DWORD PTR _sector$5[ebp]
  0192c	8b 91 a4 00 00
	00		 mov	 edx, DWORD PTR [ecx+164]
  01932	8b 4d 08	 mov	 ecx, DWORD PTR _spr$[ebp]
  01935	8b 49 24	 mov	 ecx, DWORD PTR [ecx+36]
  01938	8b 75 08	 mov	 esi, DWORD PTR _spr$[ebp]
  0193b	8b 76 24	 mov	 esi, DWORD PTR [esi+36]
  0193e	8b 49 18	 mov	 ecx, DWORD PTR [ecx+24]
  01941	03 4e 44	 add	 ecx, DWORD PTR [esi+68]
  01944	39 0c 02	 cmp	 DWORD PTR [edx+eax], ecx
  01947	0f 8e ab 00 00
	00		 jle	 $LN54@HWR_DrawSp
  0194d	6b 85 d0 fe ff
	ff 14		 imul	 eax, DWORD PTR _light$2[ebp], 20
  01954	8b 8d dc fe ff
	ff		 mov	 ecx, DWORD PTR _sector$5[ebp]
  0195a	8b 91 a4 00 00
	00		 mov	 edx, DWORD PTR [ecx+164]
  01960	8b 44 02 0c	 mov	 eax, DWORD PTR [edx+eax+12]
  01964	83 e0 40	 and	 eax, 64			; 00000040H
  01967	0f 85 8b 00 00
	00		 jne	 $LN54@HWR_DrawSp

; 3594 : 			{
; 3595 : 				if (!(spr->mobj->frame & FF_FULLBRIGHT))

  0196d	8b 45 08	 mov	 eax, DWORD PTR _spr$[ebp]
  01970	8b 48 24	 mov	 ecx, DWORD PTR [eax+36]
  01973	8b 51 2c	 mov	 edx, DWORD PTR [ecx+44]
  01976	81 e2 00 80 00
	00		 and	 edx, 32768		; 00008000H
  0197c	75 2b		 jne	 SHORT $LN56@HWR_DrawSp

; 3596 : 					lightlevel = LightLevelToLum(*sector->lightlist[light].lightlevel);

  0197e	6b 85 d0 fe ff
	ff 14		 imul	 eax, DWORD PTR _light$2[ebp], 20
  01985	8b 8d dc fe ff
	ff		 mov	 ecx, DWORD PTR _sector$5[ebp]
  0198b	8b 91 a4 00 00
	00		 mov	 edx, DWORD PTR [ecx+164]
  01991	8b 44 02 04	 mov	 eax, DWORD PTR [edx+eax+4]
  01995	0f bf 08	 movsx	 ecx, WORD PTR [eax]
  01998	51		 push	 ecx
  01999	e8 00 00 00 00	 call	 _LightLevelToLum
  0199e	83 c4 04	 add	 esp, 4
  019a1	88 85 db fe ff
	ff		 mov	 BYTE PTR _lightlevel$4[ebp], al
  019a7	eb 13		 jmp	 SHORT $LN57@HWR_DrawSp
$LN56@HWR_DrawSp:

; 3597 : 				else
; 3598 : 					lightlevel = LightLevelToLum(255);

  019a9	68 ff 00 00 00	 push	 255			; 000000ffH
  019ae	e8 00 00 00 00	 call	 _LightLevelToLum
  019b3	83 c4 04	 add	 esp, 4
  019b6	88 85 db fe ff
	ff		 mov	 BYTE PTR _lightlevel$4[ebp], al
$LN57@HWR_DrawSp:

; 3599 : 
; 3600 : 				if (sector->lightlist[light].extra_colormap)

  019bc	6b 85 d0 fe ff
	ff 14		 imul	 eax, DWORD PTR _light$2[ebp], 20
  019c3	8b 8d dc fe ff
	ff		 mov	 ecx, DWORD PTR _sector$5[ebp]
  019c9	8b 91 a4 00 00
	00		 mov	 edx, DWORD PTR [ecx+164]
  019cf	83 7c 02 08 00	 cmp	 DWORD PTR [edx+eax+8], 0
  019d4	74 1d		 je	 SHORT $LN58@HWR_DrawSp

; 3601 : 					colormap = sector->lightlist[light].extra_colormap;

  019d6	6b 85 d0 fe ff
	ff 14		 imul	 eax, DWORD PTR _light$2[ebp], 20
  019dd	8b 8d dc fe ff
	ff		 mov	 ecx, DWORD PTR _sector$5[ebp]
  019e3	8b 91 a4 00 00
	00		 mov	 edx, DWORD PTR [ecx+164]
  019e9	8b 44 02 08	 mov	 eax, DWORD PTR [edx+eax+8]
  019ed	89 85 d4 fe ff
	ff		 mov	 DWORD PTR _colormap$3[ebp], eax
$LN58@HWR_DrawSp:

; 3602 : 			}

  019f3	e9 b0 00 00 00	 jmp	 $LN61@HWR_DrawSp
$LN54@HWR_DrawSp:

; 3603 : 			else // If we can't use the light at its bottom, we'll use the light at its top
; 3604 : 			{
; 3605 : 				light = R_GetPlaneLight(sector, spr->mobj->z + spr->mobj->height, false);

  019f8	6a 00		 push	 0
  019fa	8b 45 08	 mov	 eax, DWORD PTR _spr$[ebp]
  019fd	8b 48 24	 mov	 ecx, DWORD PTR [eax+36]
  01a00	8b 55 08	 mov	 edx, DWORD PTR _spr$[ebp]
  01a03	8b 42 24	 mov	 eax, DWORD PTR [edx+36]
  01a06	8b 49 18	 mov	 ecx, DWORD PTR [ecx+24]
  01a09	03 48 44	 add	 ecx, DWORD PTR [eax+68]
  01a0c	51		 push	 ecx
  01a0d	8b 95 dc fe ff
	ff		 mov	 edx, DWORD PTR _sector$5[ebp]
  01a13	52		 push	 edx
  01a14	e8 00 00 00 00	 call	 _R_GetPlaneLight
  01a19	83 c4 0c	 add	 esp, 12			; 0000000cH
  01a1c	89 85 d0 fe ff
	ff		 mov	 DWORD PTR _light$2[ebp], eax

; 3606 : 
; 3607 : 				if (!(spr->mobj->frame & FF_FULLBRIGHT))

  01a22	8b 45 08	 mov	 eax, DWORD PTR _spr$[ebp]
  01a25	8b 48 24	 mov	 ecx, DWORD PTR [eax+36]
  01a28	8b 51 2c	 mov	 edx, DWORD PTR [ecx+44]
  01a2b	81 e2 00 80 00
	00		 and	 edx, 32768		; 00008000H
  01a31	75 2b		 jne	 SHORT $LN59@HWR_DrawSp

; 3608 : 					lightlevel = LightLevelToLum(*sector->lightlist[light].lightlevel);

  01a33	6b 85 d0 fe ff
	ff 14		 imul	 eax, DWORD PTR _light$2[ebp], 20
  01a3a	8b 8d dc fe ff
	ff		 mov	 ecx, DWORD PTR _sector$5[ebp]
  01a40	8b 91 a4 00 00
	00		 mov	 edx, DWORD PTR [ecx+164]
  01a46	8b 44 02 04	 mov	 eax, DWORD PTR [edx+eax+4]
  01a4a	0f bf 08	 movsx	 ecx, WORD PTR [eax]
  01a4d	51		 push	 ecx
  01a4e	e8 00 00 00 00	 call	 _LightLevelToLum
  01a53	83 c4 04	 add	 esp, 4
  01a56	88 85 db fe ff
	ff		 mov	 BYTE PTR _lightlevel$4[ebp], al
  01a5c	eb 13		 jmp	 SHORT $LN60@HWR_DrawSp
$LN59@HWR_DrawSp:

; 3609 : 				else
; 3610 : 					lightlevel = LightLevelToLum(255);

  01a5e	68 ff 00 00 00	 push	 255			; 000000ffH
  01a63	e8 00 00 00 00	 call	 _LightLevelToLum
  01a68	83 c4 04	 add	 esp, 4
  01a6b	88 85 db fe ff
	ff		 mov	 BYTE PTR _lightlevel$4[ebp], al
$LN60@HWR_DrawSp:

; 3611 : 
; 3612 : 				if (sector->lightlist[light].extra_colormap)

  01a71	6b 85 d0 fe ff
	ff 14		 imul	 eax, DWORD PTR _light$2[ebp], 20
  01a78	8b 8d dc fe ff
	ff		 mov	 ecx, DWORD PTR _sector$5[ebp]
  01a7e	8b 91 a4 00 00
	00		 mov	 edx, DWORD PTR [ecx+164]
  01a84	83 7c 02 08 00	 cmp	 DWORD PTR [edx+eax+8], 0
  01a89	74 1d		 je	 SHORT $LN61@HWR_DrawSp

; 3613 : 					colormap = sector->lightlist[light].extra_colormap;

  01a8b	6b 85 d0 fe ff
	ff 14		 imul	 eax, DWORD PTR _light$2[ebp], 20
  01a92	8b 8d dc fe ff
	ff		 mov	 ecx, DWORD PTR _sector$5[ebp]
  01a98	8b 91 a4 00 00
	00		 mov	 edx, DWORD PTR [ecx+164]
  01a9e	8b 44 02 08	 mov	 eax, DWORD PTR [edx+eax+8]
  01aa2	89 85 d4 fe ff
	ff		 mov	 DWORD PTR _colormap$3[ebp], eax
$LN61@HWR_DrawSp:

; 3614 : 			}
; 3615 : 		}

  01aa8	eb 60		 jmp	 SHORT $LN64@HWR_DrawSp
$LN52@HWR_DrawSp:

; 3616 : 		else
; 3617 : 		{
; 3618 : 			if (!(spr->mobj->frame & FF_FULLBRIGHT))

  01aaa	8b 45 08	 mov	 eax, DWORD PTR _spr$[ebp]
  01aad	8b 48 24	 mov	 ecx, DWORD PTR [eax+36]
  01ab0	8b 51 2c	 mov	 edx, DWORD PTR [ecx+44]
  01ab3	81 e2 00 80 00
	00		 and	 edx, 32768		; 00008000H
  01ab9	75 1b		 jne	 SHORT $LN62@HWR_DrawSp

; 3619 : 				lightlevel = LightLevelToLum(sector->lightlevel);

  01abb	8b 85 dc fe ff
	ff		 mov	 eax, DWORD PTR _sector$5[ebp]
  01ac1	0f bf 48 10	 movsx	 ecx, WORD PTR [eax+16]
  01ac5	51		 push	 ecx
  01ac6	e8 00 00 00 00	 call	 _LightLevelToLum
  01acb	83 c4 04	 add	 esp, 4
  01ace	88 85 db fe ff
	ff		 mov	 BYTE PTR _lightlevel$4[ebp], al
  01ad4	eb 13		 jmp	 SHORT $LN63@HWR_DrawSp
$LN62@HWR_DrawSp:

; 3620 : 			else
; 3621 : 				lightlevel = LightLevelToLum(255);

  01ad6	68 ff 00 00 00	 push	 255			; 000000ffH
  01adb	e8 00 00 00 00	 call	 _LightLevelToLum
  01ae0	83 c4 04	 add	 esp, 4
  01ae3	88 85 db fe ff
	ff		 mov	 BYTE PTR _lightlevel$4[ebp], al
$LN63@HWR_DrawSp:

; 3622 : 
; 3623 : 			if (sector->extra_colormap)

  01ae9	8b 85 dc fe ff
	ff		 mov	 eax, DWORD PTR _sector$5[ebp]
  01aef	83 b8 b0 00 00
	00 00		 cmp	 DWORD PTR [eax+176], 0
  01af6	74 12		 je	 SHORT $LN64@HWR_DrawSp

; 3624 : 				colormap = sector->extra_colormap;

  01af8	8b 85 dc fe ff
	ff		 mov	 eax, DWORD PTR _sector$5[ebp]
  01afe	8b 88 b0 00 00
	00		 mov	 ecx, DWORD PTR [eax+176]
  01b04	89 8d d4 fe ff
	ff		 mov	 DWORD PTR _colormap$3[ebp], ecx
$LN64@HWR_DrawSp:

; 3625 : 		}
; 3626 : 
; 3627 : 		if (spr->mobj->frame & FF_FULLBRIGHT)

  01b0a	8b 45 08	 mov	 eax, DWORD PTR _spr$[ebp]
  01b0d	8b 48 24	 mov	 ecx, DWORD PTR [eax+36]
  01b10	8b 51 2c	 mov	 edx, DWORD PTR [ecx+44]
  01b13	81 e2 00 80 00
	00		 and	 edx, 32768		; 00008000H
  01b19	74 13		 je	 SHORT $LN65@HWR_DrawSp

; 3628 : 			lightlevel = LightLevelToLum(255);

  01b1b	68 ff 00 00 00	 push	 255			; 000000ffH
  01b20	e8 00 00 00 00	 call	 _LightLevelToLum
  01b25	83 c4 04	 add	 esp, 4
  01b28	88 85 db fe ff
	ff		 mov	 BYTE PTR _lightlevel$4[ebp], al
$LN65@HWR_DrawSp:

; 3629 : 
; 3630 : 		if (colormap)

  01b2e	83 bd d4 fe ff
	ff 00		 cmp	 DWORD PTR _colormap$3[ebp], 0
  01b35	74 2d		 je	 SHORT $LN66@HWR_DrawSp

; 3631 : 			Surf.FlatColor.rgba = HWR_Lighting(lightlevel, colormap->rgba, colormap->fadergba, false, false);

  01b37	6a 00		 push	 0
  01b39	6a 00		 push	 0
  01b3b	8b 85 d4 fe ff
	ff		 mov	 eax, DWORD PTR _colormap$3[ebp]
  01b41	8b 48 1c	 mov	 ecx, DWORD PTR [eax+28]
  01b44	51		 push	 ecx
  01b45	8b 95 d4 fe ff
	ff		 mov	 edx, DWORD PTR _colormap$3[ebp]
  01b4b	8b 42 18	 mov	 eax, DWORD PTR [edx+24]
  01b4e	50		 push	 eax
  01b4f	0f b6 8d db fe
	ff ff		 movzx	 ecx, BYTE PTR _lightlevel$4[ebp]
  01b56	51		 push	 ecx
  01b57	e8 00 00 00 00	 call	 _HWR_Lighting
  01b5c	83 c4 14	 add	 esp, 20			; 00000014H
  01b5f	89 45 84	 mov	 DWORD PTR _Surf$[ebp+4], eax
  01b62	eb 1e		 jmp	 SHORT $LN67@HWR_DrawSp
$LN66@HWR_DrawSp:

; 3632 : 		else
; 3633 : 			Surf.FlatColor.rgba = HWR_Lighting(lightlevel, NORMALFOG, FADEFOG, false, false);

  01b64	6a 00		 push	 0
  01b66	6a 00		 push	 0
  01b68	68 00 00 00 19	 push	 419430400		; 19000000H
  01b6d	6a 00		 push	 0
  01b6f	0f b6 85 db fe
	ff ff		 movzx	 eax, BYTE PTR _lightlevel$4[ebp]
  01b76	50		 push	 eax
  01b77	e8 00 00 00 00	 call	 _HWR_Lighting
  01b7c	83 c4 14	 add	 esp, 20			; 00000014H
  01b7f	89 45 84	 mov	 DWORD PTR _Surf$[ebp+4], eax
$LN67@HWR_DrawSp:

; 3634 : #else
; 3635 : 
; 3636 : 		sector_t *sector = spr->mobj->subsector->sector;
; 3637 : 
; 3638 : 		if (sector->ffloors)
; 3639 : 		{
; 3640 : 			ffloor_t *caster = sector->lightlist[R_GetPlaneLight(sector, spr->mobj->z, false)].caster;
; 3641 : 			sector = caster ? &sectors[caster->secnum] : sector;
; 3642 : 		}
; 3643 : 		{
; 3644 : 			RGBA_t temp;
; 3645 : 			INT32 alpha;
; 3646 : 
; 3647 : 			temp.rgba = sector->extra_colormap->rgba;
; 3648 : 			alpha = (26 - temp.s.alpha)*spr->sectorlight;
; 3649 : 			Surf.FlatColor.s.red = (UINT8)((alpha + temp.s.alpha*temp.s.red)/26);
; 3650 : 			Surf.FlatColor.s.blue = (UINT8)((alpha + temp.s.alpha*temp.s.blue)/26);
; 3651 : 			Surf.FlatColor.s.green = (UINT8)((alpha + temp.s.alpha*temp.s.green)/26);
; 3652 : 			Surf.FlatColor.s.alpha = 0xff;
; 3653 : 		}
; 3654 : #endif
; 3655 : 	}
; 3656 : 
; 3657 : 	/// \todo do the test earlier
; 3658 : 	if (!cv_grmd2.value || (md2_models[spr->mobj->sprite].scale < 0.0f))

  01b82	83 3d 14 00 00
	00 00		 cmp	 DWORD PTR _cv_grmd2+20, 0
  01b89	74 1a		 je	 SHORT $LN69@HWR_DrawSp
  01b8b	8b 45 08	 mov	 eax, DWORD PTR _spr$[ebp]
  01b8e	8b 48 24	 mov	 ecx, DWORD PTR [eax+36]
  01b91	6b 51 28 38	 imul	 edx, DWORD PTR [ecx+40], 56
  01b95	0f 57 c0	 xorps	 xmm0, xmm0
  01b98	0f 2f 82 20 00
	00 00		 comiss	 xmm0, DWORD PTR _md2_models[edx+32]
  01b9f	0f 86 95 00 00
	00		 jbe	 $LN68@HWR_DrawSp
$LN69@HWR_DrawSp:

; 3659 : 	{
; 3660 : 		FBITFIELD blend = 0;

  01ba5	c7 85 cc fe ff
	ff 00 00 00 00	 mov	 DWORD PTR _blend$1[ebp], 0

; 3661 : 		if (spr->mobj->flags2 & MF2_SHADOW)

  01baf	8b 45 08	 mov	 eax, DWORD PTR _spr$[ebp]
  01bb2	8b 48 24	 mov	 ecx, DWORD PTR [eax+36]
  01bb5	8b 91 88 00 00
	00		 mov	 edx, DWORD PTR [ecx+136]
  01bbb	81 e2 00 00 00
	01		 and	 edx, 16777216		; 01000000H
  01bc1	74 10		 je	 SHORT $LN70@HWR_DrawSp

; 3662 : 		{
; 3663 : 			Surf.FlatColor.s.alpha = 0x40;

  01bc3	c6 45 87 40	 mov	 BYTE PTR _Surf$[ebp+7], 64 ; 00000040H

; 3664 : 			blend = PF_Translucent;

  01bc7	c7 85 cc fe ff
	ff 02 00 00 00	 mov	 DWORD PTR _blend$1[ebp], 2

; 3665 : 		}

  01bd1	eb 45		 jmp	 SHORT $LN73@HWR_DrawSp
$LN70@HWR_DrawSp:

; 3666 : 		else if (spr->mobj->frame & FF_TRANSMASK)

  01bd3	8b 45 08	 mov	 eax, DWORD PTR _spr$[ebp]
  01bd6	8b 48 24	 mov	 ecx, DWORD PTR [eax+36]
  01bd9	8b 51 2c	 mov	 edx, DWORD PTR [ecx+44]
  01bdc	81 e2 00 00 0f
	00		 and	 edx, 983040		; 000f0000H
  01be2	74 26		 je	 SHORT $LN72@HWR_DrawSp

; 3667 : 			blend = HWR_TranstableToAlpha((spr->mobj->frame & FF_TRANSMASK)>>FF_TRANSSHIFT, &Surf);

  01be4	8d 45 80	 lea	 eax, DWORD PTR _Surf$[ebp]
  01be7	50		 push	 eax
  01be8	8b 4d 08	 mov	 ecx, DWORD PTR _spr$[ebp]
  01beb	8b 51 24	 mov	 edx, DWORD PTR [ecx+36]
  01bee	8b 42 2c	 mov	 eax, DWORD PTR [edx+44]
  01bf1	25 00 00 0f 00	 and	 eax, 983040		; 000f0000H
  01bf6	c1 e8 10	 shr	 eax, 16			; 00000010H
  01bf9	50		 push	 eax
  01bfa	e8 00 00 00 00	 call	 _HWR_TranstableToAlpha
  01bff	83 c4 08	 add	 esp, 8
  01c02	89 85 cc fe ff
	ff		 mov	 DWORD PTR _blend$1[ebp], eax
  01c08	eb 0e		 jmp	 SHORT $LN73@HWR_DrawSp
$LN72@HWR_DrawSp:

; 3668 : 		else
; 3669 : 		{
; 3670 : 			// BP: i agree that is little better in environement but it don't
; 3671 : 			//     work properly under glide nor with fogcolor to ffffff :(
; 3672 : 			// Hurdler: PF_Environement would be cool, but we need to fix
; 3673 : 			//          the issue with the fog before
; 3674 : 			Surf.FlatColor.s.alpha = 0xFF;

  01c0a	c6 45 87 ff	 mov	 BYTE PTR _Surf$[ebp+7], 255 ; 000000ffH

; 3675 : 			blend = PF_Translucent|PF_Occlude;

  01c0e	c7 85 cc fe ff
	ff 02 01 00 00	 mov	 DWORD PTR _blend$1[ebp], 258 ; 00000102H
$LN73@HWR_DrawSp:

; 3676 : 		}
; 3677 : 
; 3678 : 		HWD.pfnDrawPolygon(&Surf, wallVerts, 4, blend|PF_Modulated|PF_Clip);

  01c18	8b 85 cc fe ff
	ff		 mov	 eax, DWORD PTR _blend$1[ebp]
  01c1e	0d 00 10 00 00	 or	 eax, 4096		; 00001000H
  01c23	0d 00 00 00 40	 or	 eax, 1073741824		; 40000000H
  01c28	50		 push	 eax
  01c29	6a 04		 push	 4
  01c2b	8d 4d 90	 lea	 ecx, DWORD PTR _wallVerts$[ebp]
  01c2e	51		 push	 ecx
  01c2f	8d 55 80	 lea	 edx, DWORD PTR _Surf$[ebp]
  01c32	52		 push	 edx
  01c33	ff 15 10 00 00
	00		 call	 DWORD PTR _hwdriver+16
  01c39	90		 npad	 1
$LN68@HWR_DrawSp:

; 3679 : 	}
; 3680 : }

  01c3a	5f		 pop	 edi
  01c3b	5e		 pop	 esi
  01c3c	5b		 pop	 ebx
  01c3d	8b 4d fc	 mov	 ecx, DWORD PTR __$ArrayPad$[ebp]
  01c40	33 cd		 xor	 ecx, ebp
  01c42	e8 00 00 00 00	 call	 @__security_check_cookie@4
  01c47	8b e5		 mov	 esp, ebp
  01c49	5d		 pop	 ebp
  01c4a	c3		 ret	 0
_HWR_DrawSprite ENDP
_TEXT	ENDS
; Function compile flags: /Odtp /ZI
; File C:\Users\RafaTheFox\Desktop\SRB2-Public-master (1)\SRB2-Public-master\src\hardware\hw_main.c
;	COMDAT _HWR_OpaqueFloorAtPos
_TEXT	SEGMENT
_thingtop$1 = -24					; size = 4
_delta2$2 = -20						; size = 4
_delta1$3 = -16						; size = 4
_rover$4 = -12						; size = 4
_floorz$ = -8						; size = 4
_sec$ = -4						; size = 4
_x$ = 8							; size = 4
_y$ = 12						; size = 4
_z$ = 16						; size = 4
_height$ = 20						; size = 4
_HWR_OpaqueFloorAtPos PROC				; COMDAT

; 3220 : {

  00000	55		 push	 ebp
  00001	8b ec		 mov	 ebp, esp
  00003	83 ec 58	 sub	 esp, 88			; 00000058H
  00006	53		 push	 ebx
  00007	56		 push	 esi
  00008	57		 push	 edi

; 3221 : 	const sector_t *sec = R_PointInSubsector(x, y)->sector;

  00009	8b 45 0c	 mov	 eax, DWORD PTR _y$[ebp]
  0000c	50		 push	 eax
  0000d	8b 4d 08	 mov	 ecx, DWORD PTR _x$[ebp]
  00010	51		 push	 ecx
  00011	e8 00 00 00 00	 call	 _R_PointInSubsector
  00016	83 c4 08	 add	 esp, 8
  00019	8b 10		 mov	 edx, DWORD PTR [eax]
  0001b	89 55 fc	 mov	 DWORD PTR _sec$[ebp], edx

; 3222 : 	fixed_t floorz = sec->floorheight;

  0001e	8b 45 fc	 mov	 eax, DWORD PTR _sec$[ebp]
  00021	8b 08		 mov	 ecx, DWORD PTR [eax]
  00023	89 4d f8	 mov	 DWORD PTR _floorz$[ebp], ecx

; 3223 : 
; 3224 : 	if (sec->ffloors)

  00026	8b 45 fc	 mov	 eax, DWORD PTR _sec$[ebp]
  00029	83 b8 90 00 00
	00 00		 cmp	 DWORD PTR [eax+144], 0
  00030	0f 84 f1 00 00
	00		 je	 $LN3@HWR_Opaque

; 3225 : 	{
; 3226 : 		ffloor_t *rover;
; 3227 : 		fixed_t delta1, delta2;
; 3228 : 		const fixed_t thingtop = z + height;

  00036	8b 45 10	 mov	 eax, DWORD PTR _z$[ebp]
  00039	03 45 14	 add	 eax, DWORD PTR _height$[ebp]
  0003c	89 45 e8	 mov	 DWORD PTR _thingtop$1[ebp], eax

; 3229 : 
; 3230 : 		for (rover = sec->ffloors; rover; rover = rover->next)

  0003f	8b 45 fc	 mov	 eax, DWORD PTR _sec$[ebp]
  00042	8b 88 90 00 00
	00		 mov	 ecx, DWORD PTR [eax+144]
  00048	89 4d f4	 mov	 DWORD PTR _rover$4[ebp], ecx
  0004b	eb 09		 jmp	 SHORT $LN4@HWR_Opaque
$LN2@HWR_Opaque:
  0004d	8b 45 f4	 mov	 eax, DWORD PTR _rover$4[ebp]
  00050	8b 48 40	 mov	 ecx, DWORD PTR [eax+64]
  00053	89 4d f4	 mov	 DWORD PTR _rover$4[ebp], ecx
$LN4@HWR_Opaque:
  00056	83 7d f4 00	 cmp	 DWORD PTR _rover$4[ebp], 0
  0005a	0f 84 c7 00 00
	00		 je	 $LN3@HWR_Opaque

; 3231 : 		{
; 3232 : 			if (!(rover->flags & FF_EXISTS)
; 3233 : 			|| !(rover->flags & FF_RENDERPLANES)
; 3234 : 			|| rover->flags & FF_TRANSLUCENT
; 3235 : 			|| rover->flags & FF_FOG
; 3236 : 			|| rover->flags & FF_INVERTPLANES)

  00060	8b 45 f4	 mov	 eax, DWORD PTR _rover$4[ebp]
  00063	8b 48 34	 mov	 ecx, DWORD PTR [eax+52]
  00066	83 e1 01	 and	 ecx, 1
  00069	74 35		 je	 SHORT $LN7@HWR_Opaque
  0006b	8b 45 f4	 mov	 eax, DWORD PTR _rover$4[ebp]
  0006e	8b 48 34	 mov	 ecx, DWORD PTR [eax+52]
  00071	83 e1 10	 and	 ecx, 16			; 00000010H
  00074	74 2a		 je	 SHORT $LN7@HWR_Opaque
  00076	8b 45 f4	 mov	 eax, DWORD PTR _rover$4[ebp]
  00079	8b 48 34	 mov	 ecx, DWORD PTR [eax+52]
  0007c	81 e1 00 10 00
	00		 and	 ecx, 4096		; 00001000H
  00082	75 1c		 jne	 SHORT $LN7@HWR_Opaque
  00084	8b 45 f4	 mov	 eax, DWORD PTR _rover$4[ebp]
  00087	8b 48 34	 mov	 ecx, DWORD PTR [eax+52]
  0008a	81 e1 00 20 00
	00		 and	 ecx, 8192		; 00002000H
  00090	75 0e		 jne	 SHORT $LN7@HWR_Opaque
  00092	8b 45 f4	 mov	 eax, DWORD PTR _rover$4[ebp]
  00095	8b 48 34	 mov	 ecx, DWORD PTR [eax+52]
  00098	81 e1 00 40 00
	00		 and	 ecx, 16384		; 00004000H
  0009e	74 02		 je	 SHORT $LN6@HWR_Opaque
$LN7@HWR_Opaque:

; 3237 : 				continue;

  000a0	eb ab		 jmp	 SHORT $LN2@HWR_Opaque
$LN6@HWR_Opaque:

; 3238 : 
; 3239 : 			delta1 = z - (*rover->bottomheight + ((*rover->topheight - *rover->bottomheight)/2));

  000a2	8b 45 f4	 mov	 eax, DWORD PTR _rover$4[ebp]
  000a5	8b 48 18	 mov	 ecx, DWORD PTR [eax+24]
  000a8	8b 55 f4	 mov	 edx, DWORD PTR _rover$4[ebp]
  000ab	8b 02		 mov	 eax, DWORD PTR [edx]
  000ad	8b 55 f4	 mov	 edx, DWORD PTR _rover$4[ebp]
  000b0	8b 52 18	 mov	 edx, DWORD PTR [edx+24]
  000b3	8b 00		 mov	 eax, DWORD PTR [eax]
  000b5	2b 02		 sub	 eax, DWORD PTR [edx]
  000b7	99		 cdq
  000b8	2b c2		 sub	 eax, edx
  000ba	d1 f8		 sar	 eax, 1
  000bc	8b 09		 mov	 ecx, DWORD PTR [ecx]
  000be	03 c8		 add	 ecx, eax
  000c0	8b 55 10	 mov	 edx, DWORD PTR _z$[ebp]
  000c3	2b d1		 sub	 edx, ecx
  000c5	89 55 f0	 mov	 DWORD PTR _delta1$3[ebp], edx

; 3240 : 			delta2 = thingtop - (*rover->bottomheight + ((*rover->topheight - *rover->bottomheight)/2));

  000c8	8b 45 f4	 mov	 eax, DWORD PTR _rover$4[ebp]
  000cb	8b 48 18	 mov	 ecx, DWORD PTR [eax+24]
  000ce	8b 55 f4	 mov	 edx, DWORD PTR _rover$4[ebp]
  000d1	8b 02		 mov	 eax, DWORD PTR [edx]
  000d3	8b 55 f4	 mov	 edx, DWORD PTR _rover$4[ebp]
  000d6	8b 52 18	 mov	 edx, DWORD PTR [edx+24]
  000d9	8b 00		 mov	 eax, DWORD PTR [eax]
  000db	2b 02		 sub	 eax, DWORD PTR [edx]
  000dd	99		 cdq
  000de	2b c2		 sub	 eax, edx
  000e0	d1 f8		 sar	 eax, 1
  000e2	8b 09		 mov	 ecx, DWORD PTR [ecx]
  000e4	03 c8		 add	 ecx, eax
  000e6	8b 55 e8	 mov	 edx, DWORD PTR _thingtop$1[ebp]
  000e9	2b d1		 sub	 edx, ecx
  000eb	89 55 ec	 mov	 DWORD PTR _delta2$2[ebp], edx

; 3241 : 			if (*rover->topheight > floorz && abs(delta1) < abs(delta2))

  000ee	8b 45 f4	 mov	 eax, DWORD PTR _rover$4[ebp]
  000f1	8b 08		 mov	 ecx, DWORD PTR [eax]
  000f3	8b 11		 mov	 edx, DWORD PTR [ecx]
  000f5	3b 55 f8	 cmp	 edx, DWORD PTR _floorz$[ebp]
  000f8	7e 28		 jle	 SHORT $LN8@HWR_Opaque
  000fa	8b 45 f0	 mov	 eax, DWORD PTR _delta1$3[ebp]
  000fd	50		 push	 eax
  000fe	e8 00 00 00 00	 call	 _abs
  00103	83 c4 04	 add	 esp, 4
  00106	8b f0		 mov	 esi, eax
  00108	8b 4d ec	 mov	 ecx, DWORD PTR _delta2$2[ebp]
  0010b	51		 push	 ecx
  0010c	e8 00 00 00 00	 call	 _abs
  00111	83 c4 04	 add	 esp, 4
  00114	3b f0		 cmp	 esi, eax
  00116	7d 0a		 jge	 SHORT $LN8@HWR_Opaque

; 3242 : 				floorz = *rover->topheight;

  00118	8b 45 f4	 mov	 eax, DWORD PTR _rover$4[ebp]
  0011b	8b 08		 mov	 ecx, DWORD PTR [eax]
  0011d	8b 11		 mov	 edx, DWORD PTR [ecx]
  0011f	89 55 f8	 mov	 DWORD PTR _floorz$[ebp], edx
$LN8@HWR_Opaque:

; 3243 : 		}

  00122	e9 26 ff ff ff	 jmp	 $LN2@HWR_Opaque
$LN3@HWR_Opaque:

; 3244 : 	}
; 3245 : 
; 3246 : 	return floorz;

  00127	8b 45 f8	 mov	 eax, DWORD PTR _floorz$[ebp]

; 3247 : }

  0012a	5f		 pop	 edi
  0012b	5e		 pop	 esi
  0012c	5b		 pop	 ebx
  0012d	8b e5		 mov	 esp, ebp
  0012f	5d		 pop	 ebp
  00130	c3		 ret	 0
_HWR_OpaqueFloorAtPos ENDP
_TEXT	ENDS
; Function compile flags: /Odtp /ZI
; File C:\Users\RafaTheFox\Desktop\SRB2-Public-master (1)\SRB2-Public-master\src\hardware\hw_main.c
;	COMDAT _HWR_NewVisSprite
_TEXT	SEGMENT
_HWR_NewVisSprite PROC					; COMDAT

; 3210 : {

  00000	55		 push	 ebp
  00001	8b ec		 mov	 ebp, esp
  00003	83 ec 40	 sub	 esp, 64			; 00000040H
  00006	53		 push	 ebx
  00007	56		 push	 esi
  00008	57		 push	 edi

; 3211 : 	if (gr_vissprite_p == &gr_vissprites[MAXVISSPRITES])

  00009	b8 34 00 00 00	 mov	 eax, 52			; 00000034H
  0000e	c1 e0 0b	 shl	 eax, 11			; 0000000bH
  00011	05 00 00 00 00	 add	 eax, OFFSET _gr_vissprites
  00016	39 05 00 00 00
	00		 cmp	 DWORD PTR _gr_vissprite_p, eax
  0001c	75 07		 jne	 SHORT $LN2@HWR_NewVis

; 3212 : 		return &gr_overflowsprite;

  0001e	b8 00 00 00 00	 mov	 eax, OFFSET _gr_overflowsprite
  00023	eb 15		 jmp	 SHORT $LN1@HWR_NewVis
$LN2@HWR_NewVis:

; 3213 : 
; 3214 : 	gr_vissprite_p++;

  00025	a1 00 00 00 00	 mov	 eax, DWORD PTR _gr_vissprite_p
  0002a	83 c0 34	 add	 eax, 52			; 00000034H
  0002d	a3 00 00 00 00	 mov	 DWORD PTR _gr_vissprite_p, eax

; 3215 : 	return gr_vissprite_p-1;

  00032	a1 00 00 00 00	 mov	 eax, DWORD PTR _gr_vissprite_p
  00037	83 e8 34	 sub	 eax, 52			; 00000034H
$LN1@HWR_NewVis:

; 3216 : }

  0003a	5f		 pop	 edi
  0003b	5e		 pop	 esi
  0003c	5b		 pop	 ebx
  0003d	8b e5		 mov	 esp, ebp
  0003f	5d		 pop	 ebp
  00040	c3		 ret	 0
_HWR_NewVisSprite ENDP
_TEXT	ENDS
; Function compile flags: /Odtp /ZI
; File C:\Users\RafaTheFox\Desktop\SRB2-Public-master (1)\SRB2-Public-master\src\hardware\hw_main.c
;	COMDAT _HWR_ClearSprites
_TEXT	SEGMENT
_HWR_ClearSprites PROC					; COMDAT

; 3199 : {

  00000	55		 push	 ebp
  00001	8b ec		 mov	 ebp, esp
  00003	83 ec 40	 sub	 esp, 64			; 00000040H
  00006	53		 push	 ebx
  00007	56		 push	 esi
  00008	57		 push	 edi

; 3200 : 	gr_vissprite_p = gr_vissprites;

  00009	c7 05 00 00 00
	00 00 00 00 00	 mov	 DWORD PTR _gr_vissprite_p, OFFSET _gr_vissprites

; 3201 : }

  00013	5f		 pop	 edi
  00014	5e		 pop	 esi
  00015	5b		 pop	 ebx
  00016	8b e5		 mov	 esp, ebp
  00018	5d		 pop	 ebp
  00019	c3		 ret	 0
_HWR_ClearSprites ENDP
_TEXT	ENDS
; Function compile flags: /Odtp /ZI
; File C:\Users\RafaTheFox\Desktop\SRB2-Public-master (1)\SRB2-Public-master\src\hardware\hw_main.c
;	COMDAT _HWR_RenderBSPNode
_TEXT	SEGMENT
_side$ = -8						; size = 4
_bsp$ = -4						; size = 4
_bspnum$ = 8						; size = 4
_HWR_RenderBSPNode PROC					; COMDAT

; 3023 : {

  00000	55		 push	 ebp
  00001	8b ec		 mov	 ebp, esp
  00003	83 ec 48	 sub	 esp, 72			; 00000048H
  00006	53		 push	 ebx
  00007	56		 push	 esi
  00008	57		 push	 edi

; 3024 : 	/*//GZDoom code
; 3025 : 	if(bspnum == -1)
; 3026 : 	{
; 3027 : 		HWR_Subsector(subsectors);
; 3028 : 		return;
; 3029 : 	}
; 3030 : 	while(!((size_t)bspnum&(~NF_SUBSECTOR))) // Keep going until found a subsector
; 3031 : 	{
; 3032 : 		node_t *bsp = &nodes[bspnum];
; 3033 : 
; 3034 : 		// Decide which side the view point is on
; 3035 : 		INT32 side = R_PointOnSide(dup_viewx, dup_viewy, bsp);
; 3036 : 
; 3037 : 		// Recursively divide front space (toward the viewer)
; 3038 : 		HWR_RenderBSPNode(bsp->children[side]);
; 3039 : 
; 3040 : 		// Possibly divide back space (away from viewer)
; 3041 : 		side ^= 1;
; 3042 : 
; 3043 : 		if (!HWR_CheckBBox(bsp->bbox[side]))
; 3044 : 			return;
; 3045 : 
; 3046 : 		bspnum = bsp->children[side];
; 3047 : 	}
; 3048 : 
; 3049 : 	HWR_Subsector(bspnum-1);
; 3050 : */
; 3051 : 	node_t *bsp = &nodes[bspnum];

  00009	6b 45 08 34	 imul	 eax, DWORD PTR _bspnum$[ebp], 52
  0000d	03 05 00 00 00
	00		 add	 eax, DWORD PTR _nodes
  00013	89 45 fc	 mov	 DWORD PTR _bsp$[ebp], eax

; 3052 : 
; 3053 : 	// Decide which side the view point is on
; 3054 : 	INT32 side;
; 3055 : 
; 3056 : 	// Found a subsector?
; 3057 : 	if (bspnum & NF_SUBSECTOR)

  00016	8b 45 08	 mov	 eax, DWORD PTR _bspnum$[ebp]
  00019	25 00 80 00 00	 and	 eax, 32768		; 00008000H
  0001e	74 28		 je	 SHORT $LN2@HWR_Render

; 3058 : 	{
; 3059 : 		if (bspnum == -1)

  00020	83 7d 08 ff	 cmp	 DWORD PTR _bspnum$[ebp], -1
  00024	75 0c		 jne	 SHORT $LN3@HWR_Render

; 3060 : 		{
; 3061 : 			//*(gr_drawsubsector_p++) = 0;
; 3062 : 			HWR_Subsector(0);

  00026	6a 00		 push	 0
  00028	e8 00 00 00 00	 call	 _HWR_Subsector
  0002d	83 c4 04	 add	 esp, 4

; 3063 : 		}

  00030	eb 11		 jmp	 SHORT $LN4@HWR_Render
$LN3@HWR_Render:

; 3064 : 		else
; 3065 : 		{
; 3066 : 			//*(gr_drawsubsector_p++) = bspnum&(~NF_SUBSECTOR);
; 3067 : 			HWR_Subsector(bspnum&(~NF_SUBSECTOR));

  00032	8b 45 08	 mov	 eax, DWORD PTR _bspnum$[ebp]
  00035	25 ff 7f ff ff	 and	 eax, -32769		; ffff7fffH
  0003a	50		 push	 eax
  0003b	e8 00 00 00 00	 call	 _HWR_Subsector
  00040	83 c4 04	 add	 esp, 4
$LN4@HWR_Render:

; 3068 : 		}
; 3069 : 		return;

  00043	e9 8e 00 00 00	 jmp	 $LN5@HWR_Render
$LN2@HWR_Render:

; 3070 : 	}
; 3071 : 
; 3072 : 	// Decide which side the view point is on.
; 3073 : 	side = R_PointOnSide(dup_viewx, dup_viewy, bsp);

  00048	8b 45 fc	 mov	 eax, DWORD PTR _bsp$[ebp]
  0004b	50		 push	 eax
  0004c	8b 0d 00 00 00
	00		 mov	 ecx, DWORD PTR _dup_viewy
  00052	51		 push	 ecx
  00053	8b 15 00 00 00
	00		 mov	 edx, DWORD PTR _dup_viewx
  00059	52		 push	 edx
  0005a	e8 00 00 00 00	 call	 _R_PointOnSide
  0005f	83 c4 0c	 add	 esp, 12			; 0000000cH
  00062	89 45 f8	 mov	 DWORD PTR _side$[ebp], eax

; 3074 : 
; 3075 : 	// BP: big hack for a test in lighning ref : 1249753487AB
; 3076 : 	hwbbox = bsp->bbox[side];

  00065	8b 45 f8	 mov	 eax, DWORD PTR _side$[ebp]
  00068	c1 e0 04	 shl	 eax, 4
  0006b	8b 4d fc	 mov	 ecx, DWORD PTR _bsp$[ebp]
  0006e	8d 54 01 10	 lea	 edx, DWORD PTR [ecx+eax+16]
  00072	89 15 00 00 00
	00		 mov	 DWORD PTR _hwbbox, edx

; 3077 : 
; 3078 : 	// Recursively divide front space.
; 3079 : 	HWR_RenderBSPNode(bsp->children[side]);

  00078	8b 45 f8	 mov	 eax, DWORD PTR _side$[ebp]
  0007b	8b 4d fc	 mov	 ecx, DWORD PTR _bsp$[ebp]
  0007e	0f b7 54 41 30	 movzx	 edx, WORD PTR [ecx+eax*2+48]
  00083	52		 push	 edx
  00084	e8 00 00 00 00	 call	 _HWR_RenderBSPNode
  00089	83 c4 04	 add	 esp, 4

; 3080 : 
; 3081 : 	// Possibly divide back space.
; 3082 : 	if (HWR_CheckBBox(bsp->bbox[side^1]))

  0008c	8b 45 f8	 mov	 eax, DWORD PTR _side$[ebp]
  0008f	83 f0 01	 xor	 eax, 1
  00092	c1 e0 04	 shl	 eax, 4
  00095	8b 4d fc	 mov	 ecx, DWORD PTR _bsp$[ebp]
  00098	8d 54 01 10	 lea	 edx, DWORD PTR [ecx+eax+16]
  0009c	52		 push	 edx
  0009d	e8 00 00 00 00	 call	 _HWR_CheckBBox
  000a2	83 c4 04	 add	 esp, 4
  000a5	85 c0		 test	 eax, eax
  000a7	74 2d		 je	 SHORT $LN5@HWR_Render

; 3083 : 	{
; 3084 : 		// BP: big hack for a test in lighning ref : 1249753487AB
; 3085 : 		hwbbox = bsp->bbox[side^1];

  000a9	8b 45 f8	 mov	 eax, DWORD PTR _side$[ebp]
  000ac	83 f0 01	 xor	 eax, 1
  000af	c1 e0 04	 shl	 eax, 4
  000b2	8b 4d fc	 mov	 ecx, DWORD PTR _bsp$[ebp]
  000b5	8d 54 01 10	 lea	 edx, DWORD PTR [ecx+eax+16]
  000b9	89 15 00 00 00
	00		 mov	 DWORD PTR _hwbbox, edx

; 3086 : 		HWR_RenderBSPNode(bsp->children[side^1]);

  000bf	8b 45 f8	 mov	 eax, DWORD PTR _side$[ebp]
  000c2	83 f0 01	 xor	 eax, 1
  000c5	8b 4d fc	 mov	 ecx, DWORD PTR _bsp$[ebp]
  000c8	0f b7 54 41 30	 movzx	 edx, WORD PTR [ecx+eax*2+48]
  000cd	52		 push	 edx
  000ce	e8 00 00 00 00	 call	 _HWR_RenderBSPNode
  000d3	83 c4 04	 add	 esp, 4
$LN5@HWR_Render:

; 3087 : 	}
; 3088 : }

  000d6	5f		 pop	 edi
  000d7	5e		 pop	 esi
  000d8	5b		 pop	 ebx
  000d9	8b e5		 mov	 esp, ebp
  000db	5d		 pop	 ebp
  000dc	c3		 ret	 0
_HWR_RenderBSPNode ENDP
_TEXT	ENDS
; Function compile flags: /Odtp /ZI
; File C:\Users\RafaTheFox\Desktop\SRB2-Public-master (1)\SRB2-Public-master\src\hardware\hw_main.c
;	COMDAT _HWR_Subsector
_TEXT	SEGMENT
tv285 = -372						; size = 4
tv355 = -372						; size = 4
tv376 = -372						; size = 4
tv407 = -372						; size = 4
tv474 = -372						; size = 4
tv544 = -372						; size = 4
tv565 = -372						; size = 4
tv596 = -372						; size = 4
tv647 = -372						; size = 4
_po$1 = -304						; size = 4
_alpha$2 = -298						; size = 1
_alpha$3 = -297						; size = 1
_rover$4 = -296						; size = 4
_ceilingcolormap$ = -292				; size = 4
_floorcolormap$ = -288					; size = 4
_wh$ = -284						; size = 4
_light$ = -280						; size = 4
_locCeilingHeight$ = -276				; size = 4
_locFloorHeight$ = -272					; size = 4
_ceilinglightlevel$ = -268				; size = 4
_floorlightlevel$ = -264				; size = 4
_tempsec$ = -260					; size = 248
_sub$ = -12						; size = 4
_line$ = -8						; size = 4
_count$ = -4						; size = 2
_num$ = 8						; size = 4
_HWR_Subsector PROC					; COMDAT

; 2641 : {

  00000	55		 push	 ebp
  00001	8b ec		 mov	 ebp, esp
  00003	81 ec 74 01 00
	00		 sub	 esp, 372		; 00000174H
  00009	53		 push	 ebx
  0000a	56		 push	 esi
  0000b	57		 push	 edi

; 2642 : 	INT16 count;
; 2643 : 	seg_t *line;
; 2644 : 	subsector_t *sub;
; 2645 : 	sector_t tempsec; //SoM: 4/7/2000
; 2646 : 	INT32 floorlightlevel;
; 2647 : 	INT32 ceilinglightlevel;
; 2648 : 	INT32 locFloorHeight, locCeilingHeight;
; 2649 : 	INT32 light = 0;

  0000c	c7 85 e8 fe ff
	ff 00 00 00 00	 mov	 DWORD PTR _light$[ebp], 0

; 2650 : 	fixed_t wh;
; 2651 : 	extracolormap_t *floorcolormap;
; 2652 : 	extracolormap_t *ceilingcolormap;
; 2653 : 
; 2654 : #ifdef PARANOIA //no risk while developing, enough debugging nights!
; 2655 : 	if (num >= addsubsector)
; 2656 : 		I_Error("HWR_Subsector: ss %"PRIdS" with numss = %"PRIdS", addss = %"PRIdS"\n",
; 2657 : 			num, numsubsectors, addsubsector);
; 2658 : 
; 2659 : 	/*if (num >= numsubsectors)
; 2660 : 		I_Error("HWR_Subsector: ss %i with numss = %i",
; 2661 : 		        num,
; 2662 : 		        numsubsectors);*/
; 2663 : #endif
; 2664 : 
; 2665 : 	if (num < numsubsectors)

  00016	8b 45 08	 mov	 eax, DWORD PTR _num$[ebp]
  00019	3b 05 00 00 00
	00		 cmp	 eax, DWORD PTR _numsubsectors
  0001f	73 45		 jae	 SHORT $LN9@HWR_Subsec

; 2666 : 	{
; 2667 : 		sscount++;

  00021	a1 00 00 00 00	 mov	 eax, DWORD PTR _sscount
  00026	83 c0 01	 add	 eax, 1
  00029	a3 00 00 00 00	 mov	 DWORD PTR _sscount, eax

; 2668 : 		// subsector
; 2669 : 		sub = &subsectors[num];

  0002e	6b 45 08 14	 imul	 eax, DWORD PTR _num$[ebp], 20
  00032	03 05 00 00 00
	00		 add	 eax, DWORD PTR _subsectors
  00038	89 45 f4	 mov	 DWORD PTR _sub$[ebp], eax

; 2670 : 		// sector
; 2671 : 		gr_frontsector = sub->sector;

  0003b	8b 45 f4	 mov	 eax, DWORD PTR _sub$[ebp]
  0003e	8b 08		 mov	 ecx, DWORD PTR [eax]
  00040	89 0d 00 00 00
	00		 mov	 DWORD PTR _gr_frontsector, ecx

; 2672 : 		// how many linedefs
; 2673 : 		count = sub->numlines;

  00046	8b 45 f4	 mov	 eax, DWORD PTR _sub$[ebp]
  00049	66 8b 48 04	 mov	 cx, WORD PTR [eax+4]
  0004d	66 89 4d fc	 mov	 WORD PTR _count$[ebp], cx

; 2674 : 		// first line seg
; 2675 : 		line = &segs[sub->firstline];

  00051	8b 45 f4	 mov	 eax, DWORD PTR _sub$[ebp]
  00054	0f b7 48 06	 movzx	 ecx, WORD PTR [eax+6]
  00058	6b d1 3c	 imul	 edx, ecx, 60
  0005b	03 15 00 00 00
	00		 add	 edx, DWORD PTR _segs
  00061	89 55 f8	 mov	 DWORD PTR _line$[ebp], edx

; 2676 : 	}

  00064	eb 29		 jmp	 SHORT $LN10@HWR_Subsec
$LN9@HWR_Subsec:

; 2677 : 	else
; 2678 : 	{
; 2679 : 		// there are no segs but only planes
; 2680 : 		sub = &subsectors[0];

  00066	b8 14 00 00 00	 mov	 eax, 20			; 00000014H
  0006b	6b c8 00	 imul	 ecx, eax, 0
  0006e	03 0d 00 00 00
	00		 add	 ecx, DWORD PTR _subsectors
  00074	89 4d f4	 mov	 DWORD PTR _sub$[ebp], ecx

; 2681 : 		gr_frontsector = sub->sector;

  00077	8b 45 f4	 mov	 eax, DWORD PTR _sub$[ebp]
  0007a	8b 08		 mov	 ecx, DWORD PTR [eax]
  0007c	89 0d 00 00 00
	00		 mov	 DWORD PTR _gr_frontsector, ecx

; 2682 : 		count = 0;

  00082	33 c0		 xor	 eax, eax
  00084	66 89 45 fc	 mov	 WORD PTR _count$[ebp], ax

; 2683 : 		line = NULL;

  00088	c7 45 f8 00 00
	00 00		 mov	 DWORD PTR _line$[ebp], 0
$LN10@HWR_Subsec:

; 2684 : 	}
; 2685 : 
; 2686 : 	//SoM: 4/7/2000: Test to make Boom water work in Hardware mode.
; 2687 : 	gr_frontsector = R_FakeFlat(gr_frontsector, &tempsec, &floorlightlevel,

  0008f	6a 00		 push	 0
  00091	8d 85 f4 fe ff
	ff		 lea	 eax, DWORD PTR _ceilinglightlevel$[ebp]
  00097	50		 push	 eax
  00098	8d 8d f8 fe ff
	ff		 lea	 ecx, DWORD PTR _floorlightlevel$[ebp]
  0009e	51		 push	 ecx
  0009f	8d 95 fc fe ff
	ff		 lea	 edx, DWORD PTR _tempsec$[ebp]
