; Listing generated by Microsoft (R) Optimizing Compiler Version 19.41.34123.0 

	TITLE	C:\Users\RafaTheFox\Downloads\SRB2-Public-master\objs\VC10\Win32\Debug\info.obj
	.686P
	.XMM
	include listing.inc
	.model	flat

INCLUDELIB LIBCMTD
INCLUDELIB OLDNAMES

PUBLIC	_states
PUBLIC	_sprnames
PUBLIC	_mobjinfo
EXTRN	_A_Explode:PROC
EXTRN	_A_Pain:PROC
EXTRN	_A_Fall:PROC
EXTRN	_A_MonitorPop:PROC
EXTRN	_A_Look:PROC
EXTRN	_A_Chase:PROC
EXTRN	_A_FaceTarget:PROC
EXTRN	_A_Scream:PROC
EXTRN	_A_BossDeath:PROC
EXTRN	_A_JumpShield:PROC
EXTRN	_A_RingShield:PROC
EXTRN	_A_RingBox:PROC
EXTRN	_A_Invincibility:PROC
EXTRN	_A_SuperSneakers:PROC
EXTRN	_A_BunnyHop:PROC
EXTRN	_A_BubbleSpawn:PROC
EXTRN	_A_BubbleRise:PROC
EXTRN	_A_BubbleCheck:PROC
EXTRN	_A_ExtraLife:PROC
EXTRN	_A_BombShield:PROC
EXTRN	_A_WaterShield:PROC
EXTRN	_A_ForceShield:PROC
EXTRN	_A_GravityBox:PROC
EXTRN	_A_ScoreRise:PROC
EXTRN	_A_ParticleSpawn:PROC
EXTRN	_A_AttractChase:PROC
EXTRN	_A_DropMine:PROC
EXTRN	_A_FishJump:PROC
EXTRN	_A_ThrownRing:PROC
EXTRN	_A_GrenadeRing:PROC
EXTRN	_A_SetSolidSteam:PROC
EXTRN	_A_UnsetSolidSteam:PROC
EXTRN	_A_SignPlayer:PROC
EXTRN	_A_JetbThink:PROC
EXTRN	_A_JetgThink:PROC
EXTRN	_A_JetgShoot:PROC
EXTRN	_A_MinusDigging:PROC
EXTRN	_A_MinusPopup:PROC
EXTRN	_A_MinusCheck:PROC
EXTRN	_A_ChickenCheck:PROC
EXTRN	_A_MouseThink:PROC
EXTRN	_A_DetonChase:PROC
EXTRN	_A_CapeChase:PROC
EXTRN	_A_RotateSpikeBall:PROC
EXTRN	_A_MaceRotate:PROC
EXTRN	_A_RockSpawn:PROC
EXTRN	_A_CrawlaCommanderThink:PROC
EXTRN	_A_SmokeTrailer:PROC
EXTRN	_A_RingExplode:PROC
EXTRN	_A_MixUp:PROC
EXTRN	_A_RecyclePowers:PROC
EXTRN	_A_BossScream:PROC
EXTRN	_A_Invinciblerize:PROC
EXTRN	_A_DeInvinciblerize:PROC
EXTRN	_A_GoopSplat:PROC
EXTRN	_A_Boss2PogoSFX:PROC
EXTRN	_A_EggmanBox:PROC
EXTRN	_A_TurretFire:PROC
EXTRN	_A_TurretStop:PROC
EXTRN	_A_JetJawRoam:PROC
EXTRN	_A_JetJawChomp:PROC
EXTRN	_A_PointyThink:PROC
EXTRN	_A_CheckBuddy:PROC
EXTRN	_A_HoodThink:PROC
EXTRN	_A_ArrowCheck:PROC
EXTRN	_A_SnailerThink:PROC
EXTRN	_A_SharpChase:PROC
EXTRN	_A_SharpSpin:PROC
EXTRN	_A_VultureVtol:PROC
EXTRN	_A_VultureCheck:PROC
EXTRN	_A_SkimChase:PROC
EXTRN	_A_SkullAttack:PROC
EXTRN	_A_LobShot:PROC
EXTRN	_A_FireShot:PROC
EXTRN	_A_BossFireShot:PROC
EXTRN	_A_BuzzFly:PROC
EXTRN	_A_GuardChase:PROC
EXTRN	_A_SetReactionTime:PROC
EXTRN	_A_Boss3TakeDamage:PROC
EXTRN	_A_LinedefExecute:PROC
EXTRN	_A_PlayAttackSound:PROC
EXTRN	_A_PlayActiveSound:PROC
EXTRN	_A_1upThinker:PROC
EXTRN	_A_SpawnObjectRelative:PROC
EXTRN	_A_PlaySound:PROC
EXTRN	_A_FindTarget:PROC
EXTRN	_A_SetTics:PROC
EXTRN	_A_SetRandomTics:PROC
EXTRN	_A_MoveAbsolute:PROC
EXTRN	_A_Thrust:PROC
EXTRN	_A_ZThrust:PROC
EXTRN	_A_ToggleFlameJet:PROC
_DATA	SEGMENT
COMM	_ATTRPACK:DWORD
_DATA	ENDS
_DATA	SEGMENT
_states	DD	0c1H
	DD	00H
	DD	0ffffffffH
	DD	00H
	DD	00H
	DD	00H
	DD	00H
	DD	00H
	DD	00H
	DD	069H
	DD	00H
	DD	00H
	DD	00H
	DD	02H
	DD	00H
	DD	01H
	DD	010H
	DD	00H
	DD	00H
	DD	00H
	DD	03H
	DD	00H
	DD	02H
	DD	010H
	DD	00H
	DD	00H
	DD	00H
	DD	02H
	DD	00H
	DD	03H
	DD	04H
	DD	00H
	DD	00H
	DD	00H
	DD	05H
	DD	00H
	DD	04H
	DD	04H
	DD	00H
	DD	00H
	DD	00H
	DD	06H
	DD	00H
	DD	05H
	DD	04H
	DD	00H
	DD	00H
	DD	00H
	DD	07H
	DD	00H
	DD	06H
	DD	04H
	DD	00H
	DD	00H
	DD	00H
	DD	08H
	DD	00H
	DD	07H
	DD	04H
	DD	00H
	DD	00H
	DD	00H
	DD	09H
	DD	00H
	DD	08H
	DD	04H
	DD	00H
	DD	00H
	DD	00H
	DD	0aH
	DD	00H
	DD	09H
	DD	04H
	DD	00H
	DD	00H
	DD	00H
	DD	0bH
	DD	00H
	DD	0aH
	DD	04H
	DD	00H
	DD	00H
	DD	00H
	DD	04H
	DD	00H
	DD	0bH
	DD	01H
	DD	00H
	DD	00H
	DD	00H
	DD	0dH
	DD	00H
	DD	0cH
	DD	01H
	DD	00H
	DD	00H
	DD	00H
	DD	0eH
	DD	00H
	DD	0dH
	DD	01H
	DD	00H
	DD	00H
	DD	00H
	DD	0fH
	DD	00H
	DD	0eH
	DD	01H
	DD	00H
	DD	00H
	DD	00H
	DD	0cH
	DD	00H
	DD	0fH
	DD	0ffffffffH
	DD	00H
	DD	00H
	DD	00H
	DD	00H
	DD	00H
	DD	010H
	DD	02H
	DD	00H
	DD	00H
	DD	00H
	DD	012H
	DD	00H
	DD	011H
	DD	02H
	DD	00H
	DD	00H
	DD	00H
	DD	013H
	DD	00H
	DD	012H
	DD	02H
	DD	00H
	DD	00H
	DD	00H
	DD	014H
	DD	00H
	DD	013H
	DD	02H
	DD	00H
	DD	00H
	DD	00H
	DD	011H
	DD	00H
	DD	014H
	DD	02H
	DD	00H
	DD	00H
	DD	00H
	DD	016H
	DD	00H
	DD	015H
	DD	02H
	DD	00H
	DD	00H
	DD	00H
	DD	015H
	DD	00H
	DD	016H
	DD	06H
	DD	00H
	DD	00H
	DD	00H
	DD	018H
	DD	00H
	DD	017H
	DD	06H
	DD	00H
	DD	00H
	DD	00H
	DD	019H
	DD	00H
	DD	018H
	DD	06H
	DD	00H
	DD	00H
	DD	00H
	DD	01aH
	DD	00H
	DD	019H
	DD	06H
	DD	00H
	DD	00H
	DD	00H
	DD	017H
	DD	00H
	DD	016H
	DD	0ffffffffH
	DD	00H
	DD	00H
	DD	00H
	DD	00H
	DD	00H
	DD	017H
	DD	05H
	DD	00H
	DD	00H
	DD	00H
	DD	01dH
	DD	00H
	DD	018H
	DD	05H
	DD	00H
	DD	00H
	DD	00H
	DD	01eH
	DD	00H
	DD	019H
	DD	05H
	DD	00H
	DD	00H
	DD	00H
	DD	01fH
	DD	00H
	DD	018H
	DD	05H
	DD	00H
	DD	00H
	DD	00H
	DD	01cH
	DD	00H
	DD	01aH
	DD	0eH
	DD	00H
	DD	00H
	DD	00H
	DD	04H
	DD	00H
	DD	01bH
	DD	0ffffffffH
	DD	00H
	DD	00H
	DD	00H
	DD	01H
	DD	00H
	DD	01cH
	DD	08H
	DD	FLAT:_A_Fall
	DD	00H
	DD	00H
	DD	023H
	DD	00H
	DD	01cH
	DD	07H
	DD	00H
	DD	00H
	DD	00H
	DD	024H
	DD	00H
	DD	01cH
	DD	0ffffffffH
	DD	00H
	DD	00H
	DD	00H
	DD	00H
	DD	00H
	DD	01dH
	DD	0cH
	DD	00H
	DD	00H
	DD	00H
	DD	026H
	DD	00H
	DD	01eH
	DD	0cH
	DD	00H
	DD	00H
	DD	00H
	DD	025H
	DD	00H
	DD	01fH
	DD	02H
	DD	00H
	DD	00H
	DD	00H
	DD	028H
	DD	00H
	DD	020H
	DD	02H
	DD	00H
	DD	00H
	DD	00H
	DD	027H
	DD	00H
	DD	021H
	DD	0ffffffffH
	DD	00H
	DD	00H
	DD	00H
	DD	00H
	DD	00H
	DD	014H
	DD	0ffffffffH
	DD	00H
	DD	00H
	DD	00H
	DD	02aH
	DD	00H
	DD	014H
	DD	07H
	DD	00H
	DD	00H
	DD	00H
	DD	02cH
	DD	00H
	DD	015H
	DD	07H
	DD	00H
	DD	00H
	DD	00H
	DD	02bH
	DD	00H
	DD	016H
	DD	07H
	DD	00H
	DD	00H
	DD	00H
	DD	02eH
	DD	00H
	DD	017H
	DD	07H
	DD	00H
	DD	00H
	DD	00H
	DD	02dH
	DD	00H
	DD	018H
	DD	0cH
	DD	00H
	DD	00H
	DD	00H
	DD	02fH
	DD	00H
	DD	019H
	DD	0ffffffffH
	DD	00H
	DD	00H
	DD	00H
	DD	02aH
	DD	00H
	DD	026H
	DD	04H
	DD	00H
	DD	00H
	DD	00H
	DD	032H
	DD	00H
	DD	027H
	DD	04H
	DD	00H
	DD	00H
	DD	00H
	DD	033H
	DD	00H
	DD	08028H
	DD	04H
	DD	00H
	DD	00H
	DD	00H
	DD	034H
	DD	00H
	DD	029H
	DD	03H
	DD	00H
	DD	00H
	DD	00H
	DD	035H
	DD	00H
	DD	02aH
	DD	03H
	DD	00H
	DD	00H
	DD	00H
	DD	036H
	DD	00H
	DD	02bH
	DD	03H
	DD	00H
	DD	00H
	DD	00H
	DD	037H
	DD	00H
	DD	02cH
	DD	03H
	DD	00H
	DD	00H
	DD	00H
	DD	038H
	DD	00H
	DD	02dH
	DD	03H
	DD	00H
	DD	00H
	DD	00H
	DD	039H
	DD	00H
	DD	02eH
	DD	010H
	DD	00H
	DD	00H
	DD	00H
	DD	04H
	DD	00H
	DD	022H
	DD	02H
	DD	FLAT:_A_1upThinker
	DD	00H
	DD	00H
	DD	03bH
	DD	00H
	DD	023H
	DD	02H
	DD	00H
	DD	00H
	DD	00H
	DD	03aH
	DD	00H
	DD	024H
	DD	012H
	DD	00H
	DD	00H
	DD	00H
	DD	03dH
	DD	00H
	DD	024H
	DD	012H
	DD	FLAT:_A_ExtraLife
	DD	00H
	DD	00H
	DD	00H
	DD	00H
	DD	025H
	DD	0ffffffffH
	DD	00H
	DD	00H
	DD	00H
	DD	00H
	DD	01H
	DD	00H
	DD	05H
	DD	FLAT:_A_Look
	DD	00H
	DD	00H
	DD	040H
	DD	01H
	DD	00H
	DD	05H
	DD	FLAT:_A_Look
	DD	00H
	DD	00H
	DD	03fH
	DD	01H
	DD	00H
	DD	03H
	DD	FLAT:_A_Chase
	DD	00H
	DD	00H
	DD	042H
	DD	01H
	DD	01H
	DD	03H
	DD	FLAT:_A_Chase
	DD	00H
	DD	00H
	DD	043H
	DD	01H
	DD	02H
	DD	03H
	DD	FLAT:_A_Chase
	DD	00H
	DD	00H
	DD	044H
	DD	01H
	DD	03H
	DD	03H
	DD	FLAT:_A_Chase
	DD	00H
	DD	00H
	DD	045H
	DD	01H
	DD	04H
	DD	03H
	DD	FLAT:_A_Chase
	DD	00H
	DD	00H
	DD	046H
	DD	01H
	DD	05H
	DD	03H
	DD	FLAT:_A_Chase
	DD	00H
	DD	00H
	DD	041H
	DD	02H
	DD	00H
	DD	05H
	DD	FLAT:_A_Look
	DD	00H
	DD	00H
	DD	048H
	DD	02H
	DD	00H
	DD	05H
	DD	FLAT:_A_Look
	DD	00H
	DD	00H
	DD	047H
	DD	02H
	DD	00H
	DD	01H
	DD	FLAT:_A_Chase
	DD	00H
	DD	00H
	DD	04aH
	DD	02H
	DD	01H
	DD	01H
	DD	FLAT:_A_Chase
	DD	00H
	DD	00H
	DD	04bH
	DD	02H
	DD	02H
	DD	01H
	DD	FLAT:_A_Chase
	DD	00H
	DD	00H
	DD	04cH
	DD	02H
	DD	03H
	DD	01H
	DD	FLAT:_A_Chase
	DD	00H
	DD	00H
	DD	04dH
	DD	02H
	DD	04H
	DD	01H
	DD	FLAT:_A_Chase
	DD	00H
	DD	00H
	DD	04eH
	DD	02H
	DD	05H
	DD	01H
	DD	FLAT:_A_Chase
	DD	00H
	DD	00H
	DD	049H
	DD	03H
	DD	01H
	DD	01H
	DD	00H
	DD	00H
	DD	00H
	DD	050H
	DD	03H
	DD	01H
	DD	01H
	DD	FLAT:_A_FishJump
	DD	00H
	DD	00H
	DD	04fH
	DD	03H
	DD	00H
	DD	01H
	DD	00H
	DD	00H
	DD	00H
	DD	052H
	DD	03H
	DD	00H
	DD	01H
	DD	FLAT:_A_FishJump
	DD	00H
	DD	00H
	DD	051H
	DD	04H
	DD	00H
	DD	02H
	DD	FLAT:_A_Look
	DD	00H
	DD	00H
	DD	054H
	DD	04H
	DD	01H
	DD	02H
	DD	FLAT:_A_Look
	DD	00H
	DD	00H
	DD	053H
	DD	04H
	DD	00H
	DD	02H
	DD	FLAT:_A_BuzzFly
	DD	00H
	DD	00H
	DD	056H
	DD	04H
	DD	01H
	DD	02H
	DD	FLAT:_A_BuzzFly
	DD	00H
	DD	00H
	DD	055H
	DD	05H
	DD	00H
	DD	02H
	DD	FLAT:_A_Look
	DD	00H
	DD	00H
	DD	058H
	DD	05H
	DD	01H
	DD	02H
	DD	FLAT:_A_Look
	DD	00H
	DD	00H
	DD	057H
	DD	05H
	DD	00H
	DD	02H
	DD	FLAT:_A_BuzzFly
	DD	00H
	DD	00H
	DD	05aH
	DD	05H
	DD	01H
	DD	02H
	DD	FLAT:_A_BuzzFly
	DD	00H
	DD	00H
	DD	059H
	DD	06H
	DD	00H
	DD	04H
	DD	FLAT:_A_Look
	DD	00H
	DD	00H
	DD	05cH
	DD	06H
	DD	01H
	DD	04H
	DD	FLAT:_A_Look
	DD	00H
	DD	00H
	DD	05bH
	DD	06H
	DD	00H
	DD	01H
	DD	FLAT:_A_JetbThink
	DD	00H
	DD	00H
	DD	05eH
	DD	06H
	DD	01H
	DD	01H
	DD	FLAT:_A_JetbThink
	DD	00H
	DD	00H
	DD	05dH
	DD	07H
	DD	00H
	DD	04H
	DD	FLAT:_A_Look
	DD	00H
	DD	00H
	DD	060H
	DD	07H
	DD	01H
	DD	04H
	DD	FLAT:_A_Look
	DD	00H
	DD	00H
	DD	05fH
	DD	07H
	DD	00H
	DD	01H
	DD	FLAT:_A_JetgThink
	DD	00H
	DD	00H
	DD	062H
	DD	07H
	DD	01H
	DD	01H
	DD	FLAT:_A_JetgThink
	DD	00H
	DD	00H
	DD	061H
	DD	07H
	DD	02H
	DD	01H
	DD	FLAT:_A_JetgShoot
	DD	00H
	DD	00H
	DD	064H
	DD	07H
	DD	03H
	DD	01H
	DD	00H
	DD	00H
	DD	00H
	DD	061H
	DD	08H
	DD	00H
	DD	01H
	DD	FLAT:_A_CrawlaCommanderThink
	DD	00H
	DD	0f0000H
	DD	066H
	DD	08H
	DD	01H
	DD	01H
	DD	FLAT:_A_CrawlaCommanderThink
	DD	00H
	DD	0f0000H
	DD	065H
	DD	08H
	DD	02H
	DD	01H
	DD	FLAT:_A_CrawlaCommanderThink
	DD	00H
	DD	0f0000H
	DD	068H
	DD	08H
	DD	03H
	DD	01H
	DD	FLAT:_A_CrawlaCommanderThink
	DD	00H
	DD	0f0000H
	DD	067H
	DD	09H
	DD	00H
	DD	023H
	DD	FLAT:_A_Look
	DD	00H
	DD	00H
	DD	069H
	DD	09H
	DD	00H
	DD	01H
	DD	FLAT:_A_DetonChase
	DD	00H
	DD	00H
	DD	06bH
	DD	09H
	DD	01H
	DD	01H
	DD	FLAT:_A_DetonChase
	DD	00H
	DD	00H
	DD	06cH
	DD	09H
	DD	02H
	DD	01H
	DD	FLAT:_A_DetonChase
	DD	00H
	DD	00H
	DD	06dH
	DD	09H
	DD	03H
	DD	01H
	DD	FLAT:_A_DetonChase
	DD	00H
	DD	00H
	DD	06eH
	DD	09H
	DD	04H
	DD	01H
	DD	FLAT:_A_DetonChase
	DD	00H
	DD	00H
	DD	06fH
	DD	09H
	DD	05H
	DD	01H
	DD	FLAT:_A_DetonChase
	DD	00H
	DD	00H
	DD	070H
	DD	09H
	DD	06H
	DD	01H
	DD	FLAT:_A_DetonChase
	DD	00H
	DD	00H
	DD	071H
	DD	09H
	DD	07H
	DD	01H
	DD	FLAT:_A_DetonChase
	DD	00H
	DD	00H
	DD	072H
	DD	09H
	DD	06H
	DD	01H
	DD	FLAT:_A_DetonChase
	DD	00H
	DD	00H
	DD	073H
	DD	09H
	DD	05H
	DD	01H
	DD	FLAT:_A_DetonChase
	DD	00H
	DD	00H
	DD	074H
	DD	09H
	DD	04H
	DD	01H
	DD	FLAT:_A_DetonChase
	DD	00H
	DD	00H
	DD	075H
	DD	09H
	DD	03H
	DD	01H
	DD	FLAT:_A_DetonChase
	DD	00H
	DD	00H
	DD	076H
	DD	09H
	DD	02H
	DD	01H
	DD	FLAT:_A_DetonChase
	DD	00H
	DD	00H
	DD	077H
	DD	09H
	DD	01H
	DD	01H
	DD	FLAT:_A_DetonChase
	DD	00H
	DD	00H
	DD	06aH
	DD	09H
	DD	00H
	DD	0ffffffffH
	DD	00H
	DD	00H
	DD	00H
	DD	078H
	DD	0aH
	DD	00H
	DD	01H
	DD	FLAT:_A_SkimChase
	DD	00H
	DD	00H
	DD	07aH
	DD	0aH
	DD	00H
	DD	01H
	DD	FLAT:_A_SkimChase
	DD	00H
	DD	00H
	DD	079H
	DD	0aH
	DD	00H
	DD	0eH
	DD	00H
	DD	00H
	DD	00H
	DD	07cH
	DD	0aH
	DD	00H
	DD	0eH
	DD	FLAT:_A_DropMine
	DD	00H
	DD	00H
	DD	079H
	DD	0bH
	DD	08000H
	DD	069H
	DD	FLAT:_A_TurretStop
	DD	00H
	DD	00H
	DD	07eH
	DD	0bH
	DD	08000H
	DD	069H
	DD	FLAT:_A_TurretFire
	DD	00H
	DD	00H
	DD	07dH
	DD	0bH
	DD	08001H
	DD	07H
	DD	FLAT:_A_Pain
	DD	00H
	DD	00H
	DD	080H
	DD	0bH
	DD	08002H
	DD	07H
	DD	00H
	DD	00H
	DD	00H
	DD	081H
	DD	0bH
	DD	08003H
	DD	07H
	DD	00H
	DD	00H
	DD	00H
	DD	082H
	DD	0bH
	DD	08004H
	DD	07H
	DD	00H
	DD	00H
	DD	00H
	DD	083H
	DD	0bH
	DD	08001H
	DD	07H
	DD	00H
	DD	00H
	DD	00H
	DD	084H
	DD	0bH
	DD	08002H
	DD	07H
	DD	FLAT:_A_Pain
	DD	00H
	DD	00H
	DD	085H
	DD	0bH
	DD	08003H
	DD	07H
	DD	00H
	DD	00H
	DD	00H
	DD	086H
	DD	0bH
	DD	08004H
	DD	07H
	DD	00H
	DD	00H
	DD	00H
	DD	087H
	DD	0bH
	DD	08004H
	DD	07H
	DD	FLAT:_A_LinedefExecute
	DD	07d00H
	DD	00H
	DD	0669H
	DD	0cH
	DD	00H
	DD	01H
	DD	FLAT:_A_Look
	DD	01H
	DD	00H
	DD	088H
	DD	0cH
	DD	01H
	DD	02H
	DD	FLAT:_A_FaceTarget
	DD	00H
	DD	00H
	DD	08aH
	DD	0cH
	DD	02H
	DD	02H
	DD	00H
	DD	00H
	DD	00H
	DD	08bH
	DD	0cH
	DD	03H
	DD	02H
	DD	00H
	DD	00H
	DD	00H
	DD	08cH
	DD	0cH
	DD	04H
	DD	02H
	DD	00H
	DD	00H
	DD	00H
	DD	08dH
	DD	0cH
	DD	05H
	DD	02H
	DD	00H
	DD	00H
	DD	00H
	DD	08eH
	DD	0cH
	DD	06H
	DD	02H
	DD	00H
	DD	00H
	DD	00H
	DD	08fH
	DD	0cH
	DD	07H
	DD	02H
	DD	00H
	DD	00H
	DD	00H
	DD	090H
	DD	0cH
	DD	08H
	DD	0eH
	DD	00H
	DD	00H
	DD	00H
	DD	091H
	DD	0cH
	DD	08H
	DD	0eH
	DD	FLAT:_A_JetgShoot
	DD	00H
	DD	00H
	DD	092H
	DD	0cH
	DD	07H
	DD	02H
	DD	00H
	DD	00H
	DD	00H
	DD	093H
	DD	0cH
	DD	06H
	DD	02H
	DD	00H
	DD	00H
	DD	00H
	DD	094H
	DD	0cH
	DD	05H
	DD	02H
	DD	00H
	DD	00H
	DD	00H
	DD	095H
	DD	0cH
	DD	04H
	DD	02H
	DD	00H
	DD	00H
	DD	00H
	DD	096H
	DD	0cH
	DD	03H
	DD	02H
	DD	00H
	DD	00H
	DD	00H
	DD	097H
	DD	0cH
	DD	02H
	DD	02H
	DD	00H
	DD	00H
	DD	00H
	DD	098H
	DD	0cH
	DD	01H
	DD	02H
	DD	00H
	DD	00H
	DD	00H
	DD	099H
	DD	0cH
	DD	00H
	DD	045H
	DD	FLAT:_A_SetTics
	DD	00H
	DD	01H
	DD	088H
	DD	0dH
	DD	00H
	DD	01H
	DD	FLAT:_A_Look
	DD	00H
	DD	00H
	DD	09aH
	DD	0dH
	DD	00H
	DD	01H
	DD	FLAT:_A_SharpChase
	DD	00H
	DD	00H
	DD	09bH
	DD	0dH
	DD	01H
	DD	02H
	DD	FLAT:_A_FaceTarget
	DD	00H
	DD	00H
	DD	09dH
	DD	0dH
	DD	02H
	DD	02H
	DD	FLAT:_A_FaceTarget
	DD	00H
	DD	00H
	DD	09eH
	DD	0dH
	DD	03H
	DD	02H
	DD	FLAT:_A_FaceTarget
	DD	00H
	DD	00H
	DD	09fH
	DD	0dH
	DD	04H
	DD	07H
	DD	FLAT:_A_FaceTarget
	DD	00H
	DD	00H
	DD	0a0H
	DD	0dH
	DD	04H
	DD	01H
	DD	FLAT:_A_SharpSpin
	DD	00H
	DD	00H
	DD	0a1H
	DD	0dH
	DD	04H
	DD	01H
	DD	FLAT:_A_SharpSpin
	DD	00H
	DD	00H
	DD	0a2H
	DD	0dH
	DD	04H
	DD	01H
	DD	FLAT:_A_SharpSpin
	DD	00H
	DD	00H
	DD	0a3H
	DD	0dH
	DD	04H
	DD	01H
	DD	FLAT:_A_SharpSpin
	DD	00H
	DD	00H
	DD	0a4H
	DD	0dH
	DD	04H
	DD	01H
	DD	FLAT:_A_SharpSpin
	DD	00H
	DD	00H
	DD	0a5H
	DD	0dH
	DD	04H
	DD	01H
	DD	FLAT:_A_SharpSpin
	DD	00H
	DD	00H
	DD	0a6H
	DD	0dH
	DD	04H
	DD	01H
	DD	FLAT:_A_SharpSpin
	DD	00H
	DD	00H
	DD	0a7H
	DD	0dH
	DD	04H
	DD	01H
	DD	FLAT:_A_SharpSpin
	DD	00H
	DD	00H
	DD	0a0H
	DD	0eH
	DD	00H
	DD	01H
	DD	FLAT:_A_JetJawRoam
	DD	00H
	DD	00H
	DD	0a9H
	DD	0eH
	DD	00H
	DD	01H
	DD	FLAT:_A_JetJawRoam
	DD	00H
	DD	00H
	DD	0aaH
	DD	0eH
	DD	00H
	DD	01H
	DD	FLAT:_A_JetJawRoam
	DD	00H
	DD	00H
	DD	0abH
	DD	0eH
	DD	00H
	DD	01H
	DD	FLAT:_A_JetJawRoam
	DD	00H
	DD	00H
	DD	0acH
	DD	0eH
	DD	01H
	DD	01H
	DD	FLAT:_A_JetJawRoam
	DD	00H
	DD	00H
	DD	0adH
	DD	0eH
	DD	01H
	DD	01H
	DD	FLAT:_A_JetJawRoam
	DD	00H
	DD	00H
	DD	0aeH
	DD	0eH
	DD	01H
	DD	01H
	DD	FLAT:_A_JetJawRoam
	DD	00H
	DD	00H
	DD	0afH
	DD	0eH
	DD	01H
	DD	01H
	DD	FLAT:_A_JetJawRoam
	DD	00H
	DD	00H
	DD	0a8H
	DD	0eH
	DD	00H
	DD	01H
	DD	FLAT:_A_JetJawChomp
	DD	00H
	DD	00H
	DD	0b1H
	DD	0eH
	DD	00H
	DD	01H
	DD	FLAT:_A_JetJawChomp
	DD	00H
	DD	00H
	DD	0b2H
	DD	0eH
	DD	00H
	DD	01H
	DD	FLAT:_A_JetJawChomp
	DD	00H
	DD	00H
	DD	0b3H
	DD	0eH
	DD	00H
	DD	01H
	DD	FLAT:_A_JetJawChomp
	DD	00H
	DD	00H
	DD	0b4H
	DD	0eH
	DD	01H
	DD	01H
	DD	FLAT:_A_JetJawChomp
	DD	00H
	DD	00H
	DD	0b5H
	DD	0eH
	DD	01H
	DD	01H
	DD	FLAT:_A_JetJawChomp
	DD	00H
	DD	00H
	DD	0b6H
	DD	0eH
	DD	01H
	DD	01H
	DD	FLAT:_A_JetJawChomp
	DD	00H
	DD	00H
	DD	0b7H
	DD	0eH
	DD	01H
	DD	01H
	DD	FLAT:_A_JetJawChomp
	DD	00H
	DD	00H
	DD	0b8H
	DD	0eH
	DD	02H
	DD	01H
	DD	FLAT:_A_JetJawChomp
	DD	00H
	DD	00H
	DD	0b9H
	DD	0eH
	DD	02H
	DD	01H
	DD	FLAT:_A_JetJawChomp
	DD	00H
	DD	00H
	DD	0baH
	DD	0eH
	DD	02H
	DD	01H
	DD	FLAT:_A_JetJawChomp
	DD	00H
	DD	00H
	DD	0bbH
	DD	0eH
	DD	02H
	DD	01H
	DD	FLAT:_A_JetJawChomp
	DD	00H
	DD	00H
	DD	0bcH
	DD	0eH
	DD	03H
	DD	01H
	DD	FLAT:_A_JetJawChomp
	DD	00H
	DD	00H
	DD	0bdH
	DD	0eH
	DD	03H
	DD	01H
	DD	FLAT:_A_JetJawChomp
	DD	00H
	DD	00H
	DD	0beH
	DD	0eH
	DD	03H
	DD	01H
	DD	FLAT:_A_JetJawChomp
	DD	00H
	DD	00H
	DD	0bfH
	DD	0eH
	DD	03H
	DD	01H
	DD	FLAT:_A_JetJawChomp
	DD	00H
	DD	00H
	DD	0b0H
	DD	0fH
	DD	00H
	DD	01H
	DD	FLAT:_A_SnailerThink
	DD	00H
	DD	00H
	DD	0c0H
	DD	010H
	DD	04H
	DD	023H
	DD	FLAT:_A_Look
	DD	01H
	DD	00H
	DD	0c1H
	DD	010H
	DD	04H
	DD	01H
	DD	FLAT:_A_VultureVtol
	DD	00H
	DD	00H
	DD	0c3H
	DD	010H
	DD	05H
	DD	01H
	DD	FLAT:_A_VultureVtol
	DD	00H
	DD	00H
	DD	0c4H
	DD	010H
	DD	06H
	DD	01H
	DD	FLAT:_A_VultureVtol
	DD	00H
	DD	00H
	DD	0c5H
	DD	010H
	DD	07H
	DD	01H
	DD	FLAT:_A_VultureVtol
	DD	00H
	DD	00H
	DD	0c2H
	DD	010H
	DD	00H
	DD	01H
	DD	FLAT:_A_Thrust
	DD	01eH
	DD	01H
	DD	0c7H
	DD	010H
	DD	00H
	DD	01H
	DD	FLAT:_A_VultureCheck
	DD	00H
	DD	00H
	DD	0c8H
	DD	010H
	DD	01H
	DD	01H
	DD	FLAT:_A_VultureCheck
	DD	00H
	DD	00H
	DD	0c9H
	DD	010H
	DD	02H
	DD	01H
	DD	FLAT:_A_VultureCheck
	DD	00H
	DD	00H
	DD	0c9H
	DD	010H
	DD	03H
	DD	01H
	DD	FLAT:_A_VultureCheck
	DD	00H
	DD	00H
	DD	0c7H
	DD	011H
	DD	00H
	DD	01H
	DD	FLAT:_A_PointyThink
	DD	00H
	DD	00H
	DD	0cbH
	DD	011H
	DD	01H
	DD	01H
	DD	FLAT:_A_CheckBuddy
	DD	00H
	DD	00H
	DD	0ccH
	DD	012H
	DD	00H
	DD	0eH
	DD	FLAT:_A_Look
	DD	02000000H
	DD	00H
	DD	0cdH
	DD	012H
	DD	00H
	DD	01H
	DD	FLAT:_A_HoodThink
	DD	00H
	DD	00H
	DD	0ceH
	DD	012H
	DD	00H
	DD	023H
	DD	FLAT:_A_FireShot
	DD	073H
	DD	0ffffffe8H
	DD	0d0H
	DD	012H
	DD	01H
	DD	01H
	DD	00H
	DD	00H
	DD	00H
	DD	0d1H
	DD	012H
	DD	01H
	DD	01H
	DD	FLAT:_A_HoodThink
	DD	00H
	DD	00H
	DD	0d1H
	DD	012H
	DD	00H
	DD	01H
	DD	FLAT:_A_HoodThink
	DD	00H
	DD	00H
	DD	0d2H
	DD	013H
	DD	00H
	DD	01H
	DD	FLAT:_A_Chase
	DD	00H
	DD	00H
	DD	0d4H
	DD	013H
	DD	01H
	DD	01H
	DD	FLAT:_A_Chase
	DD	00H
	DD	00H
	DD	0d5H
	DD	013H
	DD	02H
	DD	01H
	DD	FLAT:_A_Chase
	DD	00H
	DD	00H
	DD	0d6H
	DD	013H
	DD	03H
	DD	01H
	DD	FLAT:_A_Chase
	DD	00H
	DD	00H
	DD	0d7H
	DD	013H
	DD	04H
	DD	01H
	DD	FLAT:_A_Chase
	DD	00H
	DD	00H
	DD	0d8H
	DD	013H
	DD	05H
	DD	01H
	DD	FLAT:_A_Chase
	DD	00H
	DD	00H
	DD	0d3H
	DD	013H
	DD	06H
	DD	0eH
	DD	FLAT:_A_PlayActiveSound
	DD	00H
	DD	00H
	DD	0daH
	DD	013H
	DD	06H
	DD	00H
	DD	FLAT:_A_PlayAttackSound
	DD	00H
	DD	00H
	DD	0dbH
	DD	013H
	DD	06H
	DD	00H
	DD	FLAT:_A_FaceTarget
	DD	00H
	DD	00H
	DD	0dcH
	DD	013H
	DD	07H
	DD	023H
	DD	FLAT:_A_Thrust
	DD	014H
	DD	01H
	DD	0d3H
	DD	014H
	DD	00H
	DD	01H
	DD	FLAT:_A_Look
	DD	00H
	DD	00H
	DD	0ddH
	DD	014H
	DD	01H
	DD	03H
	DD	FLAT:_A_GuardChase
	DD	00H
	DD	00H
	DD	0dfH
	DD	014H
	DD	02H
	DD	03H
	DD	FLAT:_A_GuardChase
	DD	00H
	DD	00H
	DD	0e0H
	DD	014H
	DD	03H
	DD	03H
	DD	FLAT:_A_GuardChase
	DD	00H
	DD	00H
	DD	0e1H
	DD	014H
	DD	04H
	DD	03H
	DD	FLAT:_A_GuardChase
	DD	00H
	DD	00H
	DD	0deH
	DD	014H
	DD	05H
	DD	05H
	DD	00H
	DD	00H
	DD	00H
	DD	0e3H
	DD	014H
	DD	06H
	DD	05H
	DD	00H
	DD	00H
	DD	00H
	DD	0e4H
	DD	014H
	DD	07H
	DD	0fH
	DD	00H
	DD	00H
	DD	00H
	DD	0e5H
	DD	014H
	DD	08H
	DD	01H
	DD	FLAT:_A_GuardChase
	DD	00H
	DD	00H
	DD	0e6H
	DD	014H
	DD	09H
	DD	01H
	DD	FLAT:_A_GuardChase
	DD	00H
	DD	00H
	DD	0e7H
	DD	014H
	DD	0aH
	DD	01H
	DD	FLAT:_A_GuardChase
	DD	00H
	DD	00H
	DD	0e8H
	DD	014H
	DD	0bH
	DD	01H
	DD	FLAT:_A_GuardChase
	DD	00H
	DD	00H
	DD	0e5H
	DD	015H
	DD	00H
	DD	0ffffffffH
	DD	00H
	DD	00H
	DD	00H
	DD	064fH
	DD	016H
	DD	00H
	DD	01H
	DD	FLAT:_A_Look
	DD	00H
	DD	00H
	DD	0eaH
	DD	016H
	DD	00H
	DD	02H
	DD	FLAT:_A_Chase
	DD	00H
	DD	00H
	DD	0ecH
	DD	016H
	DD	01H
	DD	02H
	DD	FLAT:_A_Chase
	DD	00H
	DD	00H
	DD	0edH
	DD	016H
	DD	02H
	DD	02H
	DD	FLAT:_A_Chase
	DD	00H
	DD	00H
	DD	0eeH
	DD	016H
	DD	03H
	DD	02H
	DD	FLAT:_A_Chase
	DD	00H
	DD	00H
	DD	0ebH
	DD	0c1H
	DD	00H
	DD	01H
	DD	FLAT:_A_Look
	DD	00H
	DD	00H
	DD	0efH
	DD	017H
	DD	010H
	DD	01H
	DD	FLAT:_A_MinusDigging
	DD	00H
	DD	00H
	DD	0f0H
	DD	017H
	DD	00H
	DD	01H
	DD	FLAT:_A_MinusPopup
	DD	00H
	DD	00H
	DD	0f2H
	DD	017H
	DD	00H
	DD	01H
	DD	FLAT:_A_MinusCheck
	DD	00H
	DD	00H
	DD	0f3H
	DD	017H
	DD	01H
	DD	01H
	DD	FLAT:_A_MinusCheck
	DD	00H
	DD	00H
	DD	0f4H
	DD	017H
	DD	02H
	DD	01H
	DD	FLAT:_A_MinusCheck
	DD	00H
	DD	00H
	DD	0f5H
	DD	017H
	DD	03H
	DD	01H
	DD	FLAT:_A_MinusCheck
	DD	00H
	DD	00H
	DD	0f6H
	DD	017H
	DD	04H
	DD	01H
	DD	FLAT:_A_MinusCheck
	DD	00H
	DD	00H
	DD	0f7H
	DD	017H
	DD	05H
	DD	01H
	DD	FLAT:_A_MinusCheck
	DD	00H
	DD	00H
	DD	0f8H
	DD	017H
	DD	06H
	DD	01H
	DD	FLAT:_A_MinusCheck
	DD	00H
	DD	00H
	DD	0f9H
	DD	017H
	DD	07H
	DD	01H
	DD	FLAT:_A_MinusCheck
	DD	00H
	DD	00H
	DD	0f2H
	DD	017H
	DD	08H
	DD	01H
	DD	FLAT:_A_MinusCheck
	DD	00H
	DD	00H
	DD	0fbH
	DD	017H
	DD	09H
	DD	01H
	DD	FLAT:_A_MinusCheck
	DD	00H
	DD	00H
	DD	0fcH
	DD	017H
	DD	0aH
	DD	01H
	DD	FLAT:_A_MinusCheck
	DD	00H
	DD	00H
	DD	0fdH
	DD	017H
	DD	0bH
	DD	01H
	DD	FLAT:_A_MinusCheck
	DD	00H
	DD	00H
	DD	0feH
	DD	017H
	DD	0cH
	DD	01H
	DD	FLAT:_A_MinusCheck
	DD	00H
	DD	00H
	DD	0ffH
	DD	017H
	DD	0dH
	DD	01H
	DD	FLAT:_A_MinusCheck
	DD	00H
	DD	00H
	DD	0100H
	DD	017H
	DD	0eH
	DD	01H
	DD	FLAT:_A_MinusCheck
	DD	00H
	DD	00H
	DD	0101H
	DD	017H
	DD	0fH
	DD	01H
	DD	FLAT:_A_MinusCheck
	DD	00H
	DD	00H
	DD	0faH
	DD	018H
	DD	08000H
	DD	05H
	DD	00H
	DD	00H
	DD	00H
	DD	0103H
	DD	018H
	DD	08001H
	DD	05H
	DD	00H
	DD	00H
	DD	00H
	DD	0104H
	DD	018H
	DD	08002H
	DD	05H
	DD	00H
	DD	00H
	DD	00H
	DD	0105H
	DD	018H
	DD	08003H
	DD	05H
	DD	00H
	DD	00H
	DD	00H
	DD	0106H
	DD	018H
	DD	08004H
	DD	05H
	DD	00H
	DD	00H
	DD	00H
	DD	0107H
	DD	018H
	DD	08005H
	DD	05H
	DD	00H
	DD	00H
	DD	00H
	DD	0108H
	DD	018H
	DD	08006H
	DD	05H
	DD	00H
	DD	00H
	DD	00H
	DD	064fH
	DD	019H
	DD	08000H
	DD	01H
	DD	00H
	DD	00H
	DD	00H
	DD	010aH
	DD	0c1H
	DD	08000H
	DD	01H
	DD	00H
	DD	00H
	DD	00H
	DD	0109H
	DD	01aH
	DD	00H
	DD	01H
	DD	00H
	DD	00H
	DD	00H
	DD	010bH
	DD	01aH
	DD	01H
	DD	03H
	DD	00H
	DD	00H
	DD	00H
	DD	010dH
	DD	01aH
	DD	02H
	DD	01eH
	DD	00H
	DD	00H
	DD	00H
	DD	010eH
	DD	01aH
	DD	03H
	DD	02H
	DD	00H
	DD	00H
	DD	00H
	DD	010fH
	DD	01aH
	DD	04H
	DD	01H
	DD	00H
	DD	00H
	DD	00H
	DD	0110H
	DD	01aH
	DD	05H
	DD	01H
	DD	00H
	DD	00H
	DD	00H
	DD	0111H
	DD	01aH
	DD	06H
	DD	01H
	DD	00H
	DD	00H
	DD	00H
	DD	0112H
	DD	01aH
	DD	07H
	DD	01H
	DD	00H
	DD	00H
	DD	00H
	DD	0113H
	DD	01aH
	DD	08H
	DD	0fH
	DD	FLAT:_A_BossFireShot
	DD	06cH
	DD	00H
	DD	0114H
	DD	01aH
	DD	09H
	DD	0aH
	DD	00H
	DD	00H
	DD	00H
	DD	0115H
	DD	01aH
	DD	0aH
	DD	02H
	DD	00H
	DD	00H
	DD	00H
	DD	010bH
	DD	01aH
	DD	0bH
	DD	03H
	DD	00H
	DD	00H
	DD	00H
	DD	0117H
	DD	01aH
	DD	0cH
	DD	01eH
	DD	00H
	DD	00H
	DD	00H
	DD	0118H
	DD	01aH
	DD	0dH
	DD	02H
	DD	00H
	DD	00H
	DD	00H
	DD	0119H
	DD	01aH
	DD	0eH
	DD	01H
	DD	00H
	DD	00H
	DD	00H
	DD	011aH
	DD	01aH
	DD	0fH
	DD	01H
	DD	00H
	DD	00H
	DD	00H
	DD	011bH
	DD	01aH
	DD	010H
	DD	01H
	DD	00H
	DD	00H
	DD	00H
	DD	011cH
	DD	01aH
	DD	011H
	DD	01H
	DD	00H
	DD	00H
	DD	00H
	DD	011dH
	DD	01aH
	DD	012H
	DD	0fH
	DD	FLAT:_A_BossFireShot
	DD	06cH
	DD	01H
	DD	011eH
	DD	01aH
	DD	013H
	DD	0aH
	DD	00H
	DD	00H
	DD	00H
	DD	011fH
	DD	01aH
	DD	014H
	DD	02H
	DD	00H
	DD	00H
	DD	00H
	DD	010bH
	DD	01aH
	DD	03H
	DD	023H
	DD	00H
	DD	00H
	DD	00H
	DD	0121H
	DD	01aH
	DD	00H
	DD	023H
	DD	FLAT:_A_SkullAttack
	DD	00H
	DD	00H
	DD	010bH
	DD	01aH
	DD	015H
	DD	018H
	DD	FLAT:_A_Pain
	DD	00H
	DD	00H
	DD	0123H
	DD	01aH
	DD	015H
	DD	010H
	DD	FLAT:_A_SkullAttack
	DD	01H
	DD	00H
	DD	010bH
	DD	01aH
	DD	016H
	DD	08H
	DD	FLAT:_A_Fall
	DD	00H
	DD	00H
	DD	0125H
	DD	01aH
	DD	016H
	DD	08H
	DD	FLAT:_A_BossScream
	DD	00H
	DD	00H
	DD	0126H
	DD	01aH
	DD	016H
	DD	08H
	DD	FLAT:_A_BossScream
	DD	00H
	DD	00H
	DD	0127H
	DD	01aH
	DD	016H
	DD	08H
	DD	FLAT:_A_BossScream
	DD	00H
	DD	00H
	DD	0128H
	DD	01aH
	DD	016H
	DD	08H
	DD	FLAT:_A_BossScream
	DD	00H
	DD	00H
	DD	0129H
	DD	01aH
	DD	016H
	DD	08H
	DD	FLAT:_A_BossScream
	DD	00H
	DD	00H
	DD	012aH
	DD	01aH
	DD	016H
	DD	08H
	DD	FLAT:_A_BossScream
	DD	00H
	DD	00H
	DD	012bH
	DD	01aH
	DD	016H
	DD	08H
	DD	FLAT:_A_BossScream
	DD	00H
	DD	00H
	DD	012cH
	DD	01aH
	DD	016H
	DD	08H
	DD	FLAT:_A_BossScream
	DD	00H
	DD	00H
	DD	012dH
	DD	01aH
	DD	016H
	DD	08H
	DD	FLAT:_A_BossScream
	DD	00H
	DD	00H
	DD	012eH
	DD	01aH
	DD	016H
	DD	08H
	DD	FLAT:_A_BossScream
	DD	00H
	DD	00H
	DD	012fH
	DD	01aH
	DD	016H
	DD	08H
	DD	FLAT:_A_BossScream
	DD	00H
	DD	00H
	DD	0130H
	DD	01aH
	DD	016H
	DD	08H
	DD	FLAT:_A_BossScream
	DD	00H
	DD	00H
	DD	0131H
	DD	01aH
	DD	016H
	DD	0ffffffffH
	DD	FLAT:_A_BossDeath
	DD	00H
	DD	00H
	DD	00H
	DD	01aH
	DD	017H
	DD	05H
	DD	00H
	DD	00H
	DD	00H
	DD	0133H
	DD	01aH
	DD	018H
	DD	05H
	DD	00H
	DD	00H
	DD	00H
	DD	0132H
	DD	01bH
	DD	00H
	DD	0ffffffffH
	DD	00H
	DD	00H
	DD	00H
	DD	00H
	DD	01bH
	DD	01H
	DD	01H
	DD	00H
	DD	00H
	DD	00H
	DD	0136H
	DD	01bH
	DD	00H
	DD	01H
	DD	FLAT:_A_Boss2PogoSFX
	DD	0c0000H
	DD	050000H
	DD	0137H
	DD	01bH
	DD	01H
	DD	01H
	DD	00H
	DD	00H
	DD	00H
	DD	0138H
	DD	01bH
	DD	02H
	DD	0ffffffffH
	DD	00H
	DD	00H
	DD	00H
	DD	00H
	DD	01bH
	DD	03H
	DD	017H
	DD	FLAT:_A_Invinciblerize
	DD	00H
	DD	00H
	DD	013aH
	DD	01bH
	DD	03H
	DD	01H
	DD	FLAT:_A_DeInvinciblerize
	DD	00H
	DD	00H
	DD	0134H
	DD	01bH
	DD	04H
	DD	08H
	DD	FLAT:_A_Fall
	DD	00H
	DD	00H
	DD	013cH
	DD	01bH
	DD	04H
	DD	08H
	DD	FLAT:_A_BossScream
	DD	00H
	DD	00H
	DD	013dH
	DD	01bH
	DD	04H
	DD	08H
	DD	FLAT:_A_BossScream
	DD	00H
	DD	00H
	DD	013eH
	DD	01bH
	DD	04H
	DD	08H
	DD	FLAT:_A_BossScream
	DD	00H
	DD	00H
	DD	013fH
	DD	01bH
	DD	04H
	DD	08H
	DD	FLAT:_A_BossScream
	DD	00H
	DD	00H
	DD	0140H
	DD	01bH
	DD	04H
	DD	08H
	DD	FLAT:_A_BossScream
	DD	00H
	DD	00H
	DD	0141H
	DD	01bH
	DD	04H
	DD	08H
	DD	FLAT:_A_BossScream
	DD	00H
	DD	00H
	DD	0142H
	DD	01bH
	DD	04H
	DD	08H
	DD	FLAT:_A_BossScream
	DD	00H
	DD	00H
	DD	0143H
	DD	01bH
	DD	04H
	DD	08H
	DD	FLAT:_A_BossScream
	DD	00H
	DD	00H
	DD	0144H
	DD	01bH
	DD	04H
	DD	08H
	DD	FLAT:_A_BossScream
	DD	00H
	DD	00H
	DD	0145H
	DD	01bH
	DD	04H
	DD	08H
	DD	FLAT:_A_BossScream
	DD	00H
	DD	00H
	DD	0146H
	DD	01bH
	DD	04H
	DD	08H
	DD	FLAT:_A_BossScream
	DD	00H
	DD	00H
	DD	0147H
	DD	01bH
	DD	04H
	DD	08H
	DD	FLAT:_A_BossScream
	DD	00H
	DD	00H
	DD	0148H
	DD	01bH
	DD	04H
	DD	0ffffffffH
	DD	FLAT:_A_BossDeath
	DD	00H
	DD	00H
	DD	00H
	DD	01bH
	DD	05H
	DD	05H
	DD	00H
	DD	00H
	DD	00H
	DD	014aH
	DD	01bH
	DD	06H
	DD	05H
	DD	00H
	DD	00H
	DD	00H
	DD	0149H
	DD	01cH
	DD	00H
	DD	023H
	DD	00H
	DD	00H
	DD	00H
	DD	064fH
	DD	01dH
	DD	00H
	DD	023H
	DD	00H
	DD	00H
	DD	00H
	DD	064fH
	DD	01eH
	DD	00H
	DD	023H
	DD	00H
	DD	00H
	DD	00H
	DD	064fH
	DD	01fH
	DD	08000H
	DD	02H
	DD	00H
	DD	00H
	DD	00H
	DD	014fH
	DD	01fH
	DD	08001H
	DD	02H
	DD	00H
	DD	00H
	DD	00H
	DD	014eH
	DD	01fH
	DD	08002H
	DD	0ffffffffH
	DD	00H
	DD	00H
	DD	00H
	DD	064fH
	DD	020H
	DD	00H
	DD	01H
	DD	00H
	DD	00H
	DD	00H
	DD	0151H
	DD	020H
	DD	01H
	DD	02H
	DD	00H
	DD	00H
	DD	00H
	DD	0153H
	DD	020H
	DD	02H
	DD	02H
	DD	00H
	DD	00H
	DD	00H
	DD	0154H
	DD	020H
	DD	03H
	DD	02H
	DD	FLAT:_A_BossFireShot
	DD	06dH
	DD	02H
	DD	0155H
	DD	020H
	DD	03H
	DD	02H
	DD	FLAT:_A_BossFireShot
	DD	06dH
	DD	04H
	DD	0156H
	DD	020H
	DD	03H
	DD	02H
	DD	FLAT:_A_BossFireShot
	DD	06dH
	DD	03H
	DD	0157H
	DD	020H
	DD	03H
	DD	02H
	DD	FLAT:_A_BossFireShot
	DD	06dH
	DD	05H
	DD	0158H
	DD	020H
	DD	04H
	DD	02H
	DD	00H
	DD	00H
	DD	00H
	DD	0159H
	DD	020H
	DD	05H
	DD	02H
	DD	00H
	DD	00H
	DD	00H
	DD	015aH
	DD	020H
	DD	06H
	DD	04H
	DD	00H
	DD	00H
	DD	00H
	DD	015bH
	DD	020H
	DD	07H
	DD	04H
	DD	00H
	DD	00H
	DD	00H
	DD	015cH
	DD	020H
	DD	06H
	DD	04H
	DD	00H
	DD	00H
	DD	00H
	DD	015dH
	DD	020H
	DD	07H
	DD	04H
	DD	00H
	DD	00H
	DD	00H
	DD	015eH
	DD	020H
	DD	06H
	DD	04H
	DD	00H
	DD	00H
	DD	00H
	DD	015fH
	DD	020H
	DD	07H
	DD	04H
	DD	00H
	DD	00H
	DD	00H
	DD	0160H
	DD	020H
	DD	06H
	DD	04H
	DD	00H
	DD	00H
	DD	00H
	DD	0161H
	DD	020H
	DD	07H
	DD	04H
	DD	00H
	DD	00H
	DD	00H
	DD	0162H
	DD	020H
	DD	06H
	DD	04H
	DD	00H
	DD	00H
	DD	00H
	DD	0163H
	DD	020H
	DD	07H
	DD	04H
	DD	00H
	DD	00H
	DD	00H
	DD	0164H
	DD	020H
	DD	06H
	DD	04H
	DD	00H
	DD	00H
	DD	00H
	DD	0165H
	DD	020H
	DD	07H
	DD	04H
	DD	00H
	DD	00H
	DD	00H
	DD	0166H
	DD	020H
	DD	06H
	DD	04H
	DD	00H
	DD	00H
	DD	00H
	DD	0167H
	DD	020H
	DD	07H
	DD	04H
	DD	00H
	DD	00H
	DD	00H
	DD	0168H
	DD	020H
	DD	06H
	DD	04H
	DD	00H
	DD	00H
	DD	00H
	DD	0169H
	DD	020H
	DD	07H
	DD	04H
	DD	00H
	DD	00H
	DD	00H
	DD	016aH
	DD	020H
	DD	06H
	DD	04H
	DD	00H
	DD	00H
	DD	00H
	DD	016bH
	DD	020H
	DD	07H
	DD	04H
	DD	00H
	DD	00H
	DD	00H
	DD	016cH
	DD	020H
	DD	06H
	DD	04H
	DD	00H
	DD	00H
	DD	00H
	DD	016dH
	DD	020H
	DD	07H
	DD	04H
	DD	00H
	DD	00H
	DD	00H
	DD	0152H
	DD	020H
	DD	08H
	DD	01H
	DD	FLAT:_A_Boss3TakeDamage
	DD	00H
	DD	00H
	DD	016fH
	DD	020H
	DD	08H
	DD	017H
	DD	FLAT:_A_Pain
	DD	00H
	DD	00H
	DD	0151H
	DD	020H
	DD	09H
	DD	08H
	DD	FLAT:_A_Fall
	DD	00H
	DD	00H
	DD	0171H
	DD	020H
	DD	09H
	DD	08H
	DD	FLAT:_A_BossScream
	DD	00H
	DD	00H
	DD	0172H
	DD	020H
	DD	09H
	DD	08H
	DD	FLAT:_A_BossScream
	DD	00H
	DD	00H
	DD	0173H
	DD	020H
	DD	09H
	DD	08H
	DD	FLAT:_A_BossScream
	DD	00H
	DD	00H
	DD	0174H
	DD	020H
	DD	09H
	DD	08H
	DD	FLAT:_A_BossScream
	DD	00H
	DD	00H
	DD	0175H
	DD	020H
	DD	09H
	DD	08H
	DD	FLAT:_A_BossScream
	DD	00H
	DD	00H
	DD	0176H
	DD	020H
	DD	09H
	DD	08H
	DD	FLAT:_A_BossScream
	DD	00H
	DD	00H
	DD	0177H
	DD	020H
	DD	09H
	DD	08H
	DD	FLAT:_A_BossScream
	DD	00H
	DD	00H
	DD	0178H
	DD	020H
	DD	09H
	DD	08H
	DD	FLAT:_A_BossScream
	DD	00H
	DD	00H
	DD	0179H
	DD	020H
	DD	09H
	DD	08H
	DD	FLAT:_A_BossScream
	DD	00H
	DD	00H
	DD	017aH
	DD	020H
	DD	09H
	DD	08H
	DD	FLAT:_A_BossScream
	DD	00H
	DD	00H
	DD	017bH
	DD	020H
	DD	09H
	DD	08H
	DD	FLAT:_A_BossScream
	DD	00H
	DD	00H
	DD	017cH
	DD	020H
	DD	09H
	DD	08H
	DD	FLAT:_A_BossScream
	DD	00H
	DD	00H
	DD	017dH
	DD	020H
	DD	09H
	DD	0ffffffffH
	DD	FLAT:_A_BossDeath
	DD	00H
	DD	00H
	DD	00H
	DD	020H
	DD	0aH
	DD	05H
	DD	FLAT:_A_LinedefExecute
	DD	065H
	DD	00H
	DD	017fH
	DD	020H
	DD	0bH
	DD	05H
	DD	00H
	DD	00H
	DD	00H
	DD	017eH
	DD	021H
	DD	00H
	DD	01H
	DD	00H
	DD	00H
	DD	00H
	DD	0181H
	DD	021H
	DD	01H
	DD	01H
	DD	00H
	DD	00H
	DD	00H
	DD	0182H
	DD	021H
	DD	02H
	DD	01H
	DD	00H
	DD	00H
	DD	00H
	DD	0183H
	DD	021H
	DD	03H
	DD	01H
	DD	00H
	DD	00H
	DD	00H
	DD	0184H
	DD	021H
	DD	04H
	DD	01H
	DD	00H
	DD	00H
	DD	00H
	DD	0185H
	DD	021H
	DD	05H
	DD	01H
	DD	00H
	DD	00H
	DD	00H
	DD	0186H
	DD	021H
	DD	06H
	DD	01H
	DD	00H
	DD	00H
	DD	00H
	DD	0180H
	DD	022H
	DD	00H
	DD	0ffffffffH
	DD	00H
	DD	00H
	DD	00H
	DD	0187H
	DD	025H
	DD	00H
	DD	01H
	DD	FLAT:_A_SetReactionTime
	DD	00H
	DD	00H
	DD	0189H
	DD	025H
	DD	00H
	DD	07H
	DD	FLAT:_A_Look
	DD	01H
	DD	00H
	DD	0189H
	DD	025H
	DD	01H
	DD	07H
	DD	00H
	DD	00H
	DD	00H
	DD	018bH
	DD	025H
	DD	02H
	DD	07H
	DD	00H
	DD	00H
	DD	00H
	DD	018cH
	DD	025H
	DD	03H
	DD	07H
	DD	FLAT:_A_PlaySound
	DD	011aH
	DD	00H
	DD	018dH
	DD	025H
	DD	04H
	DD	07H
	DD	00H
	DD	00H
	DD	00H
	DD	018eH
	DD	025H
	DD	05H
	DD	07H
	DD	00H
	DD	00H
	DD	00H
	DD	018fH
	DD	025H
	DD	06H
	DD	07H
	DD	FLAT:_A_PlaySound
	DD	011bH
	DD	00H
	DD	018aH
	DD	025H
	DD	07H
	DD	03H
	DD	00H
	DD	00H
	DD	00H
	DD	0191H
	DD	025H
	DD	018H
	DD	01H
	DD	FLAT:_A_PlaySound
	DD	0110H
	DD	00H
	DD	0190H
	DD	025H
	DD	08H
	DD	01H
	DD	FLAT:_A_PlaySound
	DD	0114H
	DD	00H
	DD	0193H
	DD	025H
	DD	019H
	DD	01H
	DD	00H
	DD	00H
	DD	00H
	DD	0194H
	DD	025H
	DD	08H
	DD	01H
	DD	00H
	DD	00H
	DD	00H
	DD	0195H
	DD	025H
	DD	019H
	DD	01H
	DD	00H
	DD	00H
	DD	00H
	DD	0196H
	DD	025H
	DD	08H
	DD	01H
	DD	00H
	DD	00H
	DD	00H
	DD	0197H
	DD	025H
	DD	019H
	DD	01H
	DD	00H
	DD	00H
	DD	00H
	DD	0198H
	DD	025H
	DD	08H
	DD	01H
	DD	00H
	DD	00H
	DD	00H
	DD	0199H
	DD	025H
	DD	019H
	DD	01H
	DD	00H
	DD	00H
	DD	00H
	DD	019aH
	DD	025H
	DD	08H
	DD	01H
	DD	00H
	DD	00H
	DD	00H
	DD	019bH
	DD	025H
	DD	019H
	DD	01H
	DD	00H
	DD	00H
	DD	00H
	DD	019cH
	DD	025H
	DD	08H
	DD	01H
	DD	00H
	DD	00H
	DD	00H
	DD	019dH
	DD	025H
	DD	019H
	DD	01H
	DD	00H
	DD	00H
	DD	00H
	DD	019eH
	DD	025H
	DD	08H
	DD	01H
	DD	00H
	DD	00H
	DD	00H
	DD	019fH
	DD	025H
	DD	019H
	DD	01H
	DD	00H
	DD	00H
	DD	00H
	DD	01a0H
	DD	025H
	DD	08H
	DD	01H
	DD	00H
	DD	00H
	DD	00H
	DD	01a1H
	DD	025H
	DD	019H
	DD	01H
	DD	00H
	DD	00H
	DD	00H
	DD	01a2H
	DD	025H
	DD	08H
	DD	01H
	DD	00H
	DD	00H
	DD	00H
	DD	01a3H
	DD	025H
	DD	019H
	DD	01H
	DD	00H
	DD	00H
	DD	00H
	DD	01a4H
	DD	025H
	DD	08H
	DD	01H
	DD	00H
	DD	00H
	DD	00H
	DD	01a5H
	DD	025H
	DD	019H
	DD	01H
	DD	00H
	DD	00H
	DD	00H
	DD	01a6H
	DD	025H
	DD	08H
	DD	01H
	DD	00H
	DD	00H
	DD	00H
	DD	01a7H
	DD	025H
	DD	019H
	DD	01H
	DD	00H
	DD	00H
	DD	00H
	DD	01a8H
	DD	025H
	DD	08H
	DD	01H
	DD	00H
	DD	00H
	DD	00H
	DD	01a9H
	DD	025H
	DD	019H
	DD	01H
	DD	00H
	DD	00H
	DD	00H
	DD	01aaH
	DD	025H
	DD	08H
	DD	01H
	DD	00H
	DD	00H
	DD	00H
	DD	01abH
	DD	025H
	DD	019H
	DD	01H
	DD	00H
	DD	00H
	DD	00H
	DD	01acH
	DD	025H
	DD	08H
	DD	01H
	DD	00H
	DD	00H
	DD	00H
	DD	01adH
	DD	025H
	DD	019H
	DD	01H
	DD	00H
	DD	00H
	DD	00H
	DD	01aeH
	DD	025H
	DD	08H
	DD	01H
	DD	00H
	DD	00H
	DD	00H
	DD	01afH
	DD	025H
	DD	019H
	DD	01H
	DD	00H
	DD	00H
	DD	00H
	DD	01b0H
	DD	025H
	DD	08H
	DD	01H
	DD	00H
	DD	00H
	DD	00H
	DD	01b1H
	DD	025H
	DD	019H
	DD	01H
	DD	00H
	DD	00H
	DD	00H
	DD	01b2H
	DD	025H
	DD	08H
	DD	01H
	DD	00H
	DD	00H
	DD	00H
	DD	01b3H
	DD	025H
	DD	019H
	DD	01H
	DD	00H
	DD	00H
	DD	00H
	DD	01b4H
	DD	025H
	DD	08H
	DD	01H
	DD	00H
	DD	00H
	DD	00H
	DD	018aH
	DD	025H
	DD	09H
	DD	014H
	DD	00H
	DD	00H
	DD	00H
	DD	01b6H
	DD	025H
	DD	0aH
	DD	02H
	DD	00H
	DD	00H
	DD	00H
	DD	01b7H
	DD	025H
	DD	0bH
	DD	02H
	DD	00H
	DD	00H
	DD	00H
	DD	01b8H
	DD	025H
	DD	0cH
	DD	0eH
	DD	00H
	DD	00H
	DD	00H
	DD	0192H
	DD	025H
	DD	0dH
	DD	0eH
	DD	FLAT:_A_Scream
	DD	010dH
	DD	00H
	DD	01baH
	DD	025H
	DD	0eH
	DD	07H
	DD	00H
	DD	00H
	DD	00H
	DD	01bbH
	DD	025H
	DD	0fH
	DD	05H
	DD	00H
	DD	00H
	DD	00H
	DD	01bcH
	DD	025H
	DD	010H
	DD	03H
	DD	FLAT:_A_PlaySound
	DD	0121H
	DD	00H
	DD	01bdH
	DD	025H
	DD	011H
	DD	0ffffffffH
	DD	00H
	DD	00H
	DD	00H
	DD	01bdH
	DD	025H
	DD	012H
	DD	0eH
	DD	00H
	DD	00H
	DD	00H
	DD	01bfH
	DD	025H
	DD	013H
	DD	05H
	DD	00H
	DD	00H
	DD	00H
	DD	01c0H
	DD	025H
	DD	014H
	DD	023H
	DD	FLAT:_A_PlaySound
	DD	0119H
	DD	00H
	DD	01c2H
	DD	025H
	DD	015H
	DD	0ffffffffH
	DD	00H
	DD	00H
	DD	00H
	DD	0188H
	DD	025H
	DD	016H
	DD	0eH
	DD	FLAT:_A_PlaySound
	DD	0116H
	DD	00H
	DD	01c3H
	DD	025H
	DD	017H
	DD	0ffffffffH
	DD	00H
	DD	00H
	DD	00H
	DD	018aH
	DD	025H
	DD	015H
	DD	069H
	DD	00H
	DD	00H
	DD	00H
	DD	01c5H
	DD	025H
	DD	015H
	DD	01H
	DD	FLAT:_A_PlaySound
	DD	097H
	DD	00H
	DD	01c6H
	DD	025H
	DD	015H
	DD	0eH
	DD	FLAT:_A_LinedefExecute
	DD	01068H
	DD	00H
	DD	0188H
	DD	0c1H
	DD	00H
	DD	01H
	DD	FLAT:_A_CapeChase
	DD	0900000H
	DD	00H
	DD	01c7H
	DD	026H
	DD	00H
	DD	02H
	DD	00H
	DD	00H
	DD	00H
	DD	01c9H
	DD	026H
	DD	01H
	DD	02H
	DD	00H
	DD	00H
	DD	00H
	DD	01c8H
	DD	026H
	DD	02H
	DD	0d2H
	DD	FLAT:_A_GoopSplat
	DD	00H
	DD	00H
	DD	01cbH
	DD	026H
	DD	02H
	DD	04H
	DD	00H
	DD	00H
	DD	00H
	DD	01ccH
	DD	026H
	DD	02H
	DD	04H
	DD	00H
	DD	00H
	DD	00H
	DD	01cdH
	DD	026H
	DD	02H
	DD	04H
	DD	00H
	DD	00H
	DD	00H
	DD	01ceH
	DD	026H
	DD	02H
	DD	04H
	DD	00H
	DD	00H
	DD	00H
	DD	064fH
	DD	027H
	DD	00H
	DD	01H
	DD	00H
	DD	00H
	DD	00H
	DD	01cfH
	DD	02aH
	DD	00H
	DD	01H
	DD	FLAT:_A_AttractChase
	DD	00H
	DD	00H
	DD	01d1H
	DD	02aH
	DD	01H
	DD	01H
	DD	FLAT:_A_AttractChase
	DD	00H
	DD	00H
	DD	01d2H
	DD	02aH
	DD	02H
	DD	01H
	DD	FLAT:_A_AttractChase
	DD	00H
	DD	00H
	DD	01d3H
	DD	02aH
	DD	03H
	DD	01H
	DD	FLAT:_A_AttractChase
	DD	00H
	DD	00H
	DD	01d4H
	DD	02aH
	DD	04H
	DD	01H
	DD	FLAT:_A_AttractChase
	DD	00H
	DD	00H
	DD	01d5H
	DD	02aH
	DD	05H
	DD	01H
	DD	FLAT:_A_AttractChase
	DD	00H
	DD	00H
	DD	01d6H
	DD	02aH
	DD	06H
	DD	01H
	DD	FLAT:_A_AttractChase
	DD	00H
	DD	00H
	DD	01d7H
	DD	02aH
	DD	07H
	DD	01H
	DD	FLAT:_A_AttractChase
	DD	00H
	DD	00H
	DD	01d8H
	DD	02aH
	DD	08H
	DD	01H
	DD	FLAT:_A_AttractChase
	DD	00H
	DD	00H
	DD	01d9H
	DD	02aH
	DD	09H
	DD	01H
	DD	FLAT:_A_AttractChase
	DD	00H
	DD	00H
	DD	01daH
	DD	02aH
	DD	0aH
	DD	01H
	DD	FLAT:_A_AttractChase
	DD	00H
	DD	00H
	DD	01dbH
	DD	02aH
	DD	0bH
	DD	01H
	DD	FLAT:_A_AttractChase
	DD	00H
	DD	00H
	DD	01dcH
	DD	02aH
	DD	0cH
	DD	01H
	DD	FLAT:_A_AttractChase
	DD	00H
	DD	00H
	DD	01ddH
	DD	02aH
	DD	0dH
	DD	01H
	DD	FLAT:_A_AttractChase
	DD	00H
	DD	00H
	DD	01deH
	DD	02aH
	DD	0eH
	DD	01H
	DD	FLAT:_A_AttractChase
	DD	00H
	DD	00H
	DD	01dfH
	DD	02aH
	DD	0fH
	DD	01H
	DD	FLAT:_A_AttractChase
	DD	00H
	DD	00H
	DD	01e0H
	DD	02aH
	DD	010H
	DD	01H
	DD	FLAT:_A_AttractChase
	DD	00H
	DD	00H
	DD	01e1H
	DD	02aH
	DD	011H
	DD	01H
	DD	FLAT:_A_AttractChase
	DD	00H
	DD	00H
	DD	01e2H
	DD	02aH
	DD	012H
	DD	01H
	DD	FLAT:_A_AttractChase
	DD	00H
	DD	00H
	DD	01e3H
	DD	02aH
	DD	013H
	DD	01H
	DD	FLAT:_A_AttractChase
	DD	00H
	DD	00H
	DD	01e4H
	DD	02aH
	DD	014H
	DD	01H
	DD	FLAT:_A_AttractChase
	DD	00H
	DD	00H
	DD	01e5H
	DD	02aH
	DD	015H
	DD	01H
	DD	FLAT:_A_AttractChase
	DD	00H
	DD	00H
	DD	01e6H
	DD	02aH
	DD	016H
	DD	01H
	DD	FLAT:_A_AttractChase
	DD	00H
	DD	00H
	DD	01e7H
	DD	02aH
	DD	017H
	DD	01H
	DD	FLAT:_A_AttractChase
	DD	00H
	DD	00H
	DD	01d0H
	DD	0e0H
	DD	00H
	DD	00H
	DD	FLAT:_A_AttractChase
	DD	00H
	DD	00H
	DD	01e8H
	DD	0e0H
	DD	01H
	DD	0ffffffffH
	DD	00H
	DD	00H
	DD	00H
	DD	064fH
	DD	0e1H
	DD	00H
	DD	01H
	DD	00H
	DD	00H
	DD	00H
	DD	01ebH
	DD	0e1H
	DD	01H
	DD	01H
	DD	00H
	DD	00H
	DD	00H
	DD	01ecH
	DD	0e1H
	DD	02H
	DD	01H
	DD	00H
	DD	00H
	DD	00H
	DD	01eaH
	DD	0e2H
	DD	00H
	DD	01H
	DD	00H
	DD	00H
	DD	00H
	DD	01eeH
	DD	0e2H
	DD	01H
	DD	01H
	DD	00H
	DD	00H
	DD	00H
	DD	01efH
	DD	0e2H
	DD	02H
	DD	01H
	DD	00H
	DD	00H
	DD	00H
	DD	01edH
	DD	02bH
	DD	00H
	DD	01H
	DD	FLAT:_A_AttractChase
	DD	00H
	DD	00H
	DD	01f1H
	DD	02bH
	DD	01H
	DD	01H
	DD	FLAT:_A_AttractChase
	DD	00H
	DD	00H
	DD	01f2H
	DD	02bH
	DD	02H
	DD	01H
	DD	FLAT:_A_AttractChase
	DD	00H
	DD	00H
	DD	01f3H
	DD	02bH
	DD	03H
	DD	01H
	DD	FLAT:_A_AttractChase
	DD	00H
	DD	00H
	DD	01f4H
	DD	02bH
	DD	04H
	DD	01H
	DD	FLAT:_A_AttractChase
	DD	00H
	DD	00H
	DD	01f5H
	DD	02bH
	DD	05H
	DD	01H
	DD	FLAT:_A_AttractChase
	DD	00H
	DD	00H
	DD	01f6H
	DD	02bH
	DD	06H
	DD	01H
	DD	FLAT:_A_AttractChase
	DD	00H
	DD	00H
	DD	01f7H
	DD	02bH
	DD	07H
	DD	01H
	DD	FLAT:_A_AttractChase
	DD	00H
	DD	00H
	DD	01f8H
	DD	02bH
	DD	08H
	DD	01H
	DD	FLAT:_A_AttractChase
	DD	00H
	DD	00H
	DD	01f9H
	DD	02bH
	DD	09H
	DD	01H
	DD	FLAT:_A_AttractChase
	DD	00H
	DD	00H
	DD	01faH
	DD	02bH
	DD	0aH
	DD	01H
	DD	FLAT:_A_AttractChase
	DD	00H
	DD	00H
	DD	01fbH
	DD	02bH
	DD	0bH
	DD	01H
	DD	FLAT:_A_AttractChase
	DD	00H
	DD	00H
	DD	01fcH
	DD	02bH
	DD	0cH
	DD	01H
	DD	FLAT:_A_AttractChase
	DD	00H
	DD	00H
	DD	01fdH
	DD	02bH
	DD	0dH
	DD	01H
	DD	FLAT:_A_AttractChase
	DD	00H
	DD	00H
	DD	01feH
	DD	02bH
	DD	0eH
	DD	01H
	DD	FLAT:_A_AttractChase
	DD	00H
	DD	00H
	DD	01ffH
	DD	02bH
	DD	0fH
	DD	01H
	DD	FLAT:_A_AttractChase
	DD	00H
	DD	00H
	DD	0200H
	DD	02bH
	DD	010H
	DD	01H
	DD	FLAT:_A_AttractChase
	DD	00H
	DD	00H
	DD	0201H
	DD	02bH
	DD	011H
	DD	01H
	DD	FLAT:_A_AttractChase
	DD	00H
	DD	00H
	DD	0202H
	DD	02bH
	DD	012H
	DD	01H
	DD	FLAT:_A_AttractChase
	DD	00H
	DD	00H
	DD	0203H
	DD	02bH
	DD	013H
	DD	01H
	DD	FLAT:_A_AttractChase
	DD	00H
	DD	00H
	DD	0204H
	DD	02bH
	DD	014H
	DD	01H
	DD	FLAT:_A_AttractChase
	DD	00H
	DD	00H
	DD	0205H
	DD	02bH
	DD	015H
	DD	01H
	DD	FLAT:_A_AttractChase
	DD	00H
	DD	00H
	DD	0206H
	DD	02bH
	DD	016H
	DD	01H
	DD	FLAT:_A_AttractChase
	DD	00H
	DD	00H
	DD	0207H
	DD	02bH
	DD	017H
	DD	01H
	DD	FLAT:_A_AttractChase
	DD	00H
	DD	00H
	DD	01f0H
	DD	02cH
	DD	08000H
	DD	02H
	DD	00H
	DD	00H
	DD	00H
	DD	0209H
	DD	02cH
	DD	08001H
	DD	02H
	DD	00H
	DD	00H
	DD	00H
	DD	020aH
	DD	02cH
	DD	08002H
	DD	02H
	DD	00H
	DD	00H
	DD	00H
	DD	020bH
	DD	02cH
	DD	08003H
	DD	02H
	DD	00H
	DD	00H
	DD	00H
	DD	020cH
	DD	02cH
	DD	08004H
	DD	02H
	DD	00H
	DD	00H
	DD	00H
	DD	020dH
	DD	02cH
	DD	08005H
	DD	02H
	DD	00H
	DD	00H
	DD	00H
	DD	020eH
	DD	02cH
	DD	08006H
	DD	02H
	DD	00H
	DD	00H
	DD	00H
	DD	0208H
	DD	02dH
	DD	08000H
	DD	0ffffffffH
	DD	00H
	DD	00H
	DD	00H
	DD	064fH
	DD	02eH
	DD	00H
	DD	0ffffffffH
	DD	00H
	DD	00H
	DD	00H
	DD	00H
	DD	02fH
	DD	00H
	DD	0ffffffffH
	DD	00H
	DD	00H
	DD	00H
	DD	00H
	DD	031H
	DD	00H
	DD	0ffffffffH
	DD	00H
	DD	00H
	DD	00H
	DD	00H
	DD	032H
	DD	08000H
	DD	0ffffffffH
	DD	00H
	DD	00H
	DD	00H
	DD	00H
	DD	032H
	DD	08001H
	DD	0ffffffffH
	DD	00H
	DD	00H
	DD	00H
	DD	00H
	DD	032H
	DD	08002H
	DD	0ffffffffH
	DD	00H
	DD	00H
	DD	00H
	DD	00H
	DD	032H
	DD	08003H
	DD	0ffffffffH
	DD	00H
	DD	00H
	DD	00H
	DD	00H
	DD	032H
	DD	08004H
	DD	0ffffffffH
	DD	00H
	DD	00H
	DD	00H
	DD	00H
	DD	032H
	DD	08005H
	DD	0ffffffffH
	DD	00H
	DD	00H
	DD	00H
	DD	00H
	DD	032H
	DD	08006H
	DD	0ffffffffH
	DD	00H
	DD	00H
	DD	00H
	DD	00H
	DD	033H
	DD	00H
	DD	0ffffffffH
	DD	00H
	DD	00H
	DD	00H
	DD	00H
	DD	034H
	DD	00H
	DD	01H
	DD	00H
	DD	00H
	DD	00H
	DD	021cH
	DD	034H
	DD	01H
	DD	01H
	DD	00H
	DD	00H
	DD	00H
	DD	021dH
	DD	034H
	DD	02H
	DD	01H
	DD	00H
	DD	00H
	DD	00H
	DD	021eH
	DD	034H
	DD	03H
	DD	01H
	DD	00H
	DD	00H
	DD	00H
	DD	021fH
	DD	034H
	DD	04H
	DD	01H
	DD	00H
	DD	00H
	DD	00H
	DD	021bH
	DD	035H
	DD	00H
	DD	08H
	DD	FLAT:_A_BubbleSpawn
	DD	00H
	DD	00H
	DD	0221H
	DD	035H
	DD	01H
	DD	08H
	DD	FLAT:_A_BubbleCheck
	DD	00H
	DD	00H
	DD	0220H
	DD	036H
	DD	00H
	DD	01H
	DD	00H
	DD	00H
	DD	00H
	DD	0223H
	DD	036H
	DD	01H
	DD	01H
	DD	00H
	DD	00H
	DD	00H
	DD	0224H
	DD	036H
	DD	02H
	DD	01H
	DD	00H
	DD	00H
	DD	00H
	DD	0225H
	DD	036H
	DD	05H
	DD	01H
	DD	00H
	DD	00H
	DD	00H
	DD	0226H
	DD	036H
	DD	00H
	DD	01H
	DD	00H
	DD	00H
	DD	00H
	DD	0227H
	DD	036H
	DD	01H
	DD	01H
	DD	00H
	DD	00H
	DD	00H
	DD	0228H
	DD	036H
	DD	02H
	DD	01H
	DD	00H
	DD	00H
	DD	00H
	DD	0229H
	DD	036H
	DD	03H
	DD	01H
	DD	00H
	DD	00H
	DD	00H
	DD	022aH
	DD	036H
	DD	00H
	DD	01H
	DD	00H
	DD	00H
	DD	00H
	DD	022bH
	DD	036H
	DD	01H
	DD	01H
	DD	00H
	DD	00H
	DD	00H
	DD	022cH
	DD	036H
	DD	02H
	DD	01H
	DD	00H
	DD	00H
	DD	00H
	DD	022dH
	DD	036H
	DD	04H
	DD	01H
	DD	00H
	DD	00H
	DD	00H
	DD	022eH
	DD	036H
	DD	00H
	DD	01H
	DD	00H
	DD	00H
	DD	00H
	DD	022fH
	DD	036H
	DD	01H
	DD	01H
	DD	00H
	DD	00H
	DD	00H
	DD	0230H
	DD	036H
	DD	02H
	DD	01H
	DD	00H
	DD	00H
	DD	00H
	DD	0231H
	DD	036H
	DD	03H
	DD	01H
	DD	00H
	DD	00H
	DD	00H
	DD	0232H
	DD	036H
	DD	00H
	DD	01H
	DD	00H
	DD	00H
	DD	00H
	DD	0233H
	DD	036H
	DD	01H
	DD	01H
	DD	00H
	DD	00H
	DD	00H
	DD	0234H
	DD	036H
	DD	02H
	DD	01H
	DD	00H
	DD	00H
	DD	00H
	DD	0235H
	DD	036H
	DD	06H
	DD	01H
	DD	00H
	DD	00H
	DD	00H
	DD	0236H
	DD	036H
	DD	00H
	DD	01H
	DD	00H
	DD	00H
	DD	00H
	DD	0237H
	DD	036H
	DD	01H
	DD	01H
	DD	00H
	DD	00H
	DD	00H
	DD	0238H
	DD	036H
	DD	02H
	DD	01H
	DD	00H
	DD	00H
	DD	00H
	DD	0239H
	DD	036H
	DD	03H
	DD	01H
	DD	00H
	DD	00H
	DD	00H
	DD	023aH
	DD	036H
	DD	00H
	DD	01H
	DD	00H
	DD	00H
	DD	00H
	DD	023bH
	DD	036H
	DD	01H
	DD	01H
	DD	00H
	DD	00H
	DD	00H
	DD	023cH
	DD	036H
	DD	02H
	DD	01H
	DD	00H
	DD	00H
	DD	00H
	DD	023dH
	DD	036H
	DD	05H
	DD	01H
	DD	00H
	DD	00H
	DD	00H
	DD	023eH
	DD	036H
	DD	00H
	DD	01H
	DD	00H
	DD	00H
	DD	00H
	DD	023fH
	DD	036H
	DD	01H
	DD	01H
	DD	00H
	DD	00H
	DD	00H
	DD	0240H
	DD	036H
	DD	02H
	DD	01H
	DD	00H
	DD	00H
	DD	00H
	DD	0241H
	DD	036H
	DD	03H
	DD	01H
	DD	00H
	DD	00H
	DD	00H
	DD	0242H
	DD	036H
	DD	00H
	DD	01H
	DD	00H
	DD	00H
	DD	00H
	DD	0243H
	DD	036H
	DD	01H
	DD	01H
	DD	00H
	DD	00H
	DD	00H
	DD	0244H
	DD	036H
	DD	02H
	DD	01H
	DD	00H
	DD	00H
	DD	00H
	DD	0245H
	DD	036H
	DD	04H
	DD	01H
	DD	00H
	DD	00H
	DD	00H
	DD	0246H
	DD	036H
	DD	00H
	DD	01H
	DD	00H
	DD	00H
	DD	00H
	DD	0247H
	DD	036H
	DD	01H
	DD	01H
	DD	00H
	DD	00H
	DD	00H
	DD	0248H
	DD	036H
	DD	02H
	DD	01H
	DD	00H
	DD	00H
	DD	00H
	DD	0249H
	DD	036H
	DD	03H
	DD	01H
	DD	00H
	DD	00H
	DD	00H
	DD	024aH
	DD	036H
	DD	00H
	DD	01H
	DD	00H
	DD	00H
	DD	00H
	DD	024bH
	DD	036H
	DD	01H
	DD	01H
	DD	00H
	DD	00H
	DD	00H
	DD	024cH
	DD	036H
	DD	02H
	DD	01H
	DD	00H
	DD	00H
	DD	00H
	DD	024dH
	DD	036H
	DD	06H
	DD	01H
	DD	00H
	DD	00H
	DD	00H
	DD	024eH
	DD	036H
	DD	00H
	DD	01H
	DD	00H
	DD	00H
	DD	00H
	DD	024fH
	DD	036H
	DD	01H
	DD	01H
	DD	00H
	DD	00H
	DD	00H
	DD	0250H
	DD	036H
	DD	02H
	DD	01H
	DD	00H
	DD	00H
	DD	00H
	DD	0251H
	DD	036H
	DD	03H
	DD	01H
	DD	00H
	DD	00H
	DD	00H
	DD	0252H
	DD	036H
	DD	00H
	DD	01H
	DD	00H
	DD	00H
	DD	00H
	DD	0253H
	DD	036H
	DD	01H
	DD	01H
	DD	00H
	DD	00H
	DD	00H
	DD	0254H
	DD	036H
	DD	02H
	DD	01H
	DD	00H
	DD	00H
	DD	00H
	DD	0256H
	DD	036H
	DD	03H
	DD	0ffffffffH
	DD	00H
	DD	00H
	DD	00H
	DD	00H
	DD	036H
	DD	00H
	DD	0ffffffffH
	DD	FLAT:_A_SignPlayer
	DD	00H
	DD	00H
	DD	00H
	DD	037H
	DD	00H
	DD	02H
	DD	FLAT:_A_SetSolidSteam
	DD	00H
	DD	00H
	DD	0258H
	DD	037H
	DD	01H
	DD	02H
	DD	FLAT:_A_UnsetSolidSteam
	DD	00H
	DD	00H
	DD	0259H
	DD	037H
	DD	02H
	DD	02H
	DD	00H
	DD	00H
	DD	00H
	DD	025aH
	DD	037H
	DD	03H
	DD	02H
	DD	00H
	DD	00H
	DD	00H
	DD	025bH
	DD	037H
	DD	04H
	DD	02H
	DD	00H
	DD	00H
	DD	00H
	DD	025cH
	DD	037H
	DD	05H
	DD	02H
	DD	00H
	DD	00H
	DD	00H
	DD	025dH
	DD	037H
	DD	06H
	DD	02H
	DD	00H
	DD	00H
	DD	00H
	DD	025eH
	DD	037H
	DD	07H
	DD	012H
	DD	00H
	DD	00H
	DD	00H
	DD	0257H
	DD	038H
	DD	00H
	DD	01H
	DD	FLAT:_A_RotateSpikeBall
	DD	00H
	DD	00H
	DD	0260H
	DD	038H
	DD	01H
	DD	01H
	DD	FLAT:_A_RotateSpikeBall
	DD	00H
	DD	00H
	DD	0261H
	DD	038H
	DD	02H
	DD	01H
	DD	FLAT:_A_RotateSpikeBall
	DD	00H
	DD	00H
	DD	0262H
	DD	038H
	DD	03H
	DD	01H
	DD	FLAT:_A_RotateSpikeBall
	DD	00H
	DD	00H
	DD	0263H
	DD	038H
	DD	04H
	DD	01H
	DD	FLAT:_A_RotateSpikeBall
	DD	00H
	DD	00H
	DD	0264H
	DD	038H
	DD	05H
	DD	01H
	DD	FLAT:_A_RotateSpikeBall
	DD	00H
	DD	00H
	DD	0265H
	DD	038H
	DD	06H
	DD	01H
	DD	FLAT:_A_RotateSpikeBall
	DD	00H
	DD	00H
	DD	0266H
	DD	038H
	DD	07H
	DD	01H
	DD	FLAT:_A_RotateSpikeBall
	DD	00H
	DD	00H
	DD	025fH
	DD	039H
	DD	08000H
	DD	02H
	DD	00H
	DD	00H
	DD	00H
	DD	0268H
	DD	039H
	DD	08001H
	DD	02H
	DD	00H
	DD	00H
	DD	00H
	DD	0269H
	DD	039H
	DD	08002H
	DD	02H
	DD	00H
	DD	00H
	DD	00H
	DD	026aH
	DD	039H
	DD	08003H
	DD	02H
	DD	00H
	DD	00H
	DD	00H
	DD	026bH
	DD	039H
	DD	08004H
	DD	02H
	DD	00H
	DD	00H
	DD	00H
	DD	026cH
	DD	039H
	DD	08005H
	DD	02H
	DD	00H
	DD	00H
	DD	00H
	DD	0267H
	DD	03aH
	DD	00H
	DD	0ffffffffH
	DD	00H
	DD	00H
	DD	00H
	DD	00H
	DD	03bH
	DD	00H
	DD	0ffffffffH
	DD	00H
	DD	00H
	DD	00H
	DD	00H
	DD	03cH
	DD	00H
	DD	0ffffffffH
	DD	00H
	DD	00H
	DD	00H
	DD	00H
	DD	03cH
	DD	00H
	DD	02H
	DD	00H
	DD	00H
	DD	00H
	DD	0271H
	DD	03cH
	DD	01H
	DD	02H
	DD	00H
	DD	00H
	DD	00H
	DD	0270H
	DD	03cH
	DD	02H
	DD	01H
	DD	00H
	DD	00H
	DD	00H
	DD	0273H
	DD	03cH
	DD	03H
	DD	01H
	DD	00H
	DD	00H
	DD	00H
	DD	0274H
	DD	03cH
	DD	04H
	DD	01H
	DD	00H
	DD	00H
	DD	00H
	DD	0275H
	DD	03cH
	DD	05H
	DD	01H
	DD	00H
	DD	00H
	DD	00H
	DD	0276H
	DD	03cH
	DD	06H
	DD	01H
	DD	00H
	DD	00H
	DD	00H
	DD	0277H
	DD	03cH
	DD	07H
	DD	01H
	DD	00H
	DD	00H
	DD	00H
	DD	0278H
	DD	03cH
	DD	08H
	DD	01H
	DD	00H
	DD	00H
	DD	00H
	DD	0279H
	DD	03cH
	DD	09H
	DD	01H
	DD	00H
	DD	00H
	DD	00H
	DD	027aH
	DD	03cH
	DD	0aH
	DD	01H
	DD	00H
	DD	00H
	DD	00H
	DD	027bH
	DD	03cH
	DD	0bH
	DD	01H
	DD	00H
	DD	00H
	DD	00H
	DD	027cH
	DD	03cH
	DD	0cH
	DD	01H
	DD	00H
	DD	00H
	DD	00H
	DD	027dH
	DD	03cH
	DD	0dH
	DD	01H
	DD	00H
	DD	00H
	DD	00H
	DD	027eH
	DD	03cH
	DD	0eH
	DD	01H
	DD	00H
	DD	00H
	DD	00H
	DD	027fH
	DD	03cH
	DD	0fH
	DD	01H
	DD	00H
	DD	00H
	DD	00H
	DD	0280H
	DD	03cH
	DD	010H
	DD	01H
	DD	00H
	DD	00H
	DD	00H
	DD	0281H
	DD	03cH
	DD	00H
	DD	01H
	DD	00H
	DD	00H
	DD	00H
	DD	0282H
	DD	03cH
	DD	02H
	DD	01H
	DD	00H
	DD	00H
	DD	00H
	DD	0283H
	DD	03cH
	DD	03H
	DD	01H
	DD	00H
	DD	00H
	DD	00H
	DD	0284H
	DD	03cH
	DD	04H
	DD	01H
	DD	00H
	DD	00H
	DD	00H
	DD	0285H
	DD	03cH
	DD	05H
	DD	01H
	DD	00H
	DD	00H
	DD	00H
	DD	0286H
	DD	03cH
	DD	06H
	DD	01H
	DD	00H
	DD	00H
	DD	00H
	DD	0287H
	DD	03cH
	DD	07H
	DD	01H
	DD	00H
	DD	00H
	DD	00H
	DD	0288H
	DD	03cH
	DD	08H
	DD	01H
	DD	00H
	DD	00H
	DD	00H
	DD	0289H
	DD	03cH
	DD	09H
	DD	01H
	DD	00H
	DD	00H
	DD	00H
	DD	028aH
	DD	03cH
	DD	0aH
	DD	01H
	DD	00H
	DD	00H
	DD	00H
	DD	028bH
	DD	03cH
	DD	0bH
	DD	01H
	DD	00H
	DD	00H
	DD	00H
	DD	028cH
	DD	03cH
	DD	0cH
	DD	01H
	DD	00H
	DD	00H
	DD	00H
	DD	028dH
	DD	03cH
	DD	0dH
	DD	01H
	DD	00H
	DD	00H
	DD	00H
	DD	028eH
	DD	03cH
	DD	0eH
	DD	01H
	DD	00H
	DD	00H
	DD	00H
	DD	028fH
	DD	03cH
	DD	0fH
	DD	01H
	DD	00H
	DD	00H
	DD	00H
	DD	0290H
	DD	03cH
	DD	010H
	DD	01H
	DD	00H
	DD	00H
	DD	00H
	DD	0270H
	DD	03dH
	DD	00H
	DD	05H
	DD	00H
	DD	00H
	DD	00H
	DD	0292H
	DD	03dH
	DD	01H
	DD	05H
	DD	00H
	DD	00H
	DD	00H
	DD	0293H
	DD	03dH
	DD	02H
	DD	05H
	DD	00H
	DD	00H
	DD	00H
	DD	0294H
	DD	03dH
	DD	03H
	DD	05H
	DD	00H
	DD	00H
	DD	00H
	DD	0295H
	DD	03dH
	DD	04H
	DD	05H
	DD	00H
	DD	00H
	DD	00H
	DD	0296H
	DD	03dH
	DD	05H
	DD	05H
	DD	00H
	DD	00H
	DD	00H
	DD	0297H
	DD	03dH
	DD	06H
	DD	05H
	DD	00H
	DD	00H
	DD	00H
	DD	0298H
	DD	03dH
	DD	07H
	DD	05H
	DD	00H
	DD	00H
	DD	00H
	DD	0291H
	DD	0c1H
	DD	00H
	DD	01H
	DD	FLAT:_A_FindTarget
	DD	00H
	DD	00H
	DD	029aH
	DD	0c1H
	DD	00H
	DD	01H
	DD	FLAT:_A_LobShot
	DD	071H
	DD	08cH
	DD	029bH
	DD	0c1H
	DD	00H
	DD	02H
	DD	FLAT:_A_SetRandomTics
	DD	011H
	DD	069H
	DD	0299H
	DD	03eH
	DD	00H
	DD	02H
	DD	00H
	DD	00H
	DD	00H
	DD	029dH
	DD	04dH
	DD	00H
	DD	01H
	DD	00H
	DD	00H
	DD	00H
	DD	029cH
	DD	03eH
	DD	01H
	DD	012H
	DD	FLAT:_A_MonitorPop
	DD	00H
	DD	00H
	DD	029fH
	DD	03eH
	DD	01H
	DD	012H
	DD	FLAT:_A_RingBox
	DD	00H
	DD	00H
	DD	064fH
	DD	03fH
	DD	00H
	DD	02H
	DD	00H
	DD	00H
	DD	00H
	DD	02a1H
	DD	03fH
	DD	01H
	DD	01H
	DD	00H
	DD	00H
	DD	00H
	DD	02a0H
	DD	040H
	DD	00H
	DD	02H
	DD	00H
	DD	00H
	DD	00H
	DD	02a3H
	DD	040H
	DD	01H
	DD	01H
	DD	00H
	DD	00H
	DD	00H
	DD	02a2H
	DD	041H
	DD	00H
	DD	02H
	DD	00H
	DD	00H
	DD	00H
	DD	02a5H
	DD	04dH
	DD	00H
	DD	01H
	DD	00H
	DD	00H
	DD	00H
	DD	02a4H
	DD	041H
	DD	01H
	DD	012H
	DD	FLAT:_A_MonitorPop
	DD	00H
	DD	00H
	DD	02a7H
	DD	041H
	DD	01H
	DD	012H
	DD	FLAT:_A_SuperSneakers
	DD	00H
	DD	00H
	DD	064fH
	DD	042H
	DD	00H
	DD	02H
	DD	00H
	DD	00H
	DD	00H
	DD	02a9H
	DD	04dH
	DD	00H
	DD	01H
	DD	00H
	DD	00H
	DD	00H
	DD	02a8H
	DD	042H
	DD	01H
	DD	012H
	DD	FLAT:_A_MonitorPop
	DD	00H
	DD	00H
	DD	02abH
	DD	042H
	DD	01H
	DD	012H
	DD	FLAT:_A_Invincibility
	DD	00H
	DD	00H
	DD	064fH
	DD	04dH
	DD	00H
	DD	01H
	DD	FLAT:_A_MonitorPop
	DD	00H
	DD	00H
	DD	03cH
	DD	043H
	DD	00H
	DD	02H
	DD	00H
	DD	00H
	DD	00H
	DD	02aeH
	DD	04dH
	DD	00H
	DD	01H
	DD	00H
	DD	00H
	DD	00H
	DD	02adH
	DD	043H
	DD	01H
	DD	012H
	DD	FLAT:_A_MonitorPop
	DD	00H
	DD	00H
	DD	02b0H
	DD	043H
	DD	01H
	DD	012H
	DD	FLAT:_A_RingShield
	DD	00H
	DD	00H
	DD	064fH
	DD	044H
	DD	00H
	DD	02H
	DD	00H
	DD	00H
	DD	00H
	DD	02b2H
	DD	04dH
	DD	00H
	DD	01H
	DD	00H
	DD	00H
	DD	00H
	DD	02b1H
	DD	044H
	DD	01H
	DD	012H
	DD	FLAT:_A_MonitorPop
	DD	00H
	DD	00H
	DD	02b4H
	DD	044H
	DD	01H
	DD	012H
	DD	FLAT:_A_ForceShield
	DD	00H
	DD	00H
	DD	064fH
	DD	045H
	DD	00H
	DD	02H
	DD	00H
	DD	00H
	DD	00H
	DD	02b6H
	DD	04dH
	DD	00H
	DD	01H
	DD	00H
	DD	00H
	DD	00H
	DD	02b5H
	DD	045H
	DD	01H
	DD	012H
	DD	FLAT:_A_MonitorPop
	DD	00H
	DD	00H
	DD	02b8H
	DD	045H
	DD	01H
	DD	012H
	DD	FLAT:_A_BombShield
	DD	00H
	DD	00H
	DD	064fH
	DD	046H
	DD	00H
	DD	02H
	DD	00H
	DD	00H
	DD	00H
	DD	02baH
	DD	04dH
	DD	00H
	DD	01H
	DD	00H
	DD	00H
	DD	00H
	DD	02b9H
	DD	046H
	DD	01H
	DD	012H
	DD	FLAT:_A_MonitorPop
	DD	00H
	DD	00H
	DD	02bcH
	DD	046H
	DD	01H
	DD	012H
	DD	FLAT:_A_JumpShield
	DD	00H
	DD	00H
	DD	064fH
	DD	047H
	DD	00H
	DD	02H
	DD	00H
	DD	00H
	DD	00H
	DD	02beH
	DD	04dH
	DD	00H
	DD	01H
	DD	00H
	DD	00H
	DD	00H
	DD	02bdH
	DD	047H
	DD	01H
	DD	012H
	DD	FLAT:_A_MonitorPop
	DD	00H
	DD	00H
	DD	02c0H
	DD	047H
	DD	01H
	DD	012H
	DD	FLAT:_A_WaterShield
	DD	00H
	DD	00H
	DD	064fH
	DD	048H
	DD	00H
	DD	02H
	DD	00H
	DD	00H
	DD	00H
	DD	02c2H
	DD	04dH
	DD	00H
	DD	01H
	DD	00H
	DD	00H
	DD	00H
	DD	02c1H
	DD	048H
	DD	01H
	DD	012H
	DD	FLAT:_A_MonitorPop
	DD	00H
	DD	00H
	DD	02c4H
	DD	048H
	DD	01H
	DD	012H
	DD	FLAT:_A_EggmanBox
	DD	00H
	DD	00H
	DD	064fH
	DD	049H
	DD	00H
	DD	02H
	DD	00H
	DD	00H
	DD	00H
	DD	02c6H
	DD	04dH
	DD	00H
	DD	01H
	DD	00H
	DD	00H
	DD	00H
	DD	02c5H
	DD	049H
	DD	01H
	DD	012H
	DD	FLAT:_A_MonitorPop
	DD	00H
	DD	00H
	DD	02c8H
	DD	049H
	DD	01H
	DD	012H
	DD	FLAT:_A_MixUp
	DD	00H
	DD	00H
	DD	064fH
	DD	04aH
	DD	00H
	DD	02H
	DD	00H
	DD	00H
	DD	00H
	DD	02caH
	DD	04dH
	DD	00H
	DD	01H
	DD	00H
	DD	00H
	DD	00H
	DD	02c9H
	DD	04aH
	DD	01H
	DD	012H
	DD	FLAT:_A_MonitorPop
	DD	00H
	DD	00H
	DD	02ccH
	DD	04aH
	DD	01H
	DD	012H
	DD	FLAT:_A_RecyclePowers
	DD	00H
	DD	00H
	DD	064fH
	DD	04bH
	DD	00H
	DD	02H
	DD	00H
	DD	00H
	DD	00H
	DD	02ceH
	DD	04dH
	DD	00H
	DD	01H
	DD	00H
	DD	00H
	DD	00H
	DD	02cdH
	DD	04bH
	DD	00H
	DD	01H
	DD	FLAT:_A_MonitorPop
	DD	00H
	DD	00H
	DD	064fH
	DD	04cH
	DD	00H
	DD	02H
	DD	00H
	DD	00H
	DD	00H
	DD	02d1H
	DD	04dH
	DD	00H
	DD	01H
	DD	00H
	DD	00H
	DD	00H
	DD	02d0H
	DD	04cH
	DD	01H
	DD	012H
	DD	FLAT:_A_MonitorPop
	DD	00H
	DD	00H
	DD	02d3H
	DD	04cH
	DD	01H
	DD	012H
	DD	FLAT:_A_GravityBox
	DD	00H
	DD	00H
	DD	064fH
	DD	04dH
	DD	01H
	DD	02H
	DD	00H
	DD	00H
	DD	00H
	DD	02d5H
	DD	04dH
	DD	02H
	DD	02H
	DD	00H
	DD	00H
	DD	00H
	DD	02d6H
	DD	04dH
	DD	03H
	DD	02H
	DD	00H
	DD	00H
	DD	00H
	DD	02d7H
	DD	04dH
	DD	04H
	DD	02H
	DD	00H
	DD	00H
	DD	00H
	DD	02d8H
	DD	04dH
	DD	05H
	DD	0ffffffffH
	DD	00H
	DD	00H
	DD	00H
	DD	00H
	DD	04eH
	DD	08000H
	DD	01H
	DD	FLAT:_A_SmokeTrailer
	DD	0b6H
	DD	00H
	DD	02d9H
	DD	04fH
	DD	08000H
	DD	01H
	DD	FLAT:_A_SmokeTrailer
	DD	0b6H
	DD	00H
	DD	02daH
	DD	050H
	DD	00H
	DD	0ffffffffH
	DD	00H
	DD	00H
	DD	00H
	DD	00H
	DD	050H
	DD	01H
	DD	01H
	DD	FLAT:_A_Fall
	DD	00H
	DD	00H
	DD	02ddH
	DD	050H
	DD	02H
	DD	03H
	DD	FLAT:_A_Scream
	DD	00H
	DD	00H
	DD	02deH
	DD	050H
	DD	03H
	DD	03H
	DD	FLAT:_A_Explode
	DD	00H
	DD	00H
	DD	02dfH
	DD	050H
	DD	04H
	DD	03H
	DD	00H
	DD	00H
	DD	00H
	DD	064fH
	DD	051H
	DD	08000H
	DD	01H
	DD	00H
	DD	00H
	DD	00H
	DD	02e1H
	DD	051H
	DD	08001H
	DD	01H
	DD	00H
	DD	00H
	DD	00H
	DD	02e0H
	DD	052H
	DD	08000H
	DD	01H
	DD	00H
	DD	00H
	DD	00H
	DD	02e2H
	DD	052H
	DD	08001H
	DD	02H
	DD	00H
	DD	00H
	DD	00H
	DD	02e4H
	DD	052H
	DD	08002H
	DD	02H
	DD	00H
	DD	00H
	DD	00H
	DD	064fH
	DD	053H
	DD	00H
	DD	0ffffffffH
	DD	00H
	DD	00H
	DD	00H
	DD	064fH
	DD	054H
	DD	00H
	DD	01H
	DD	FLAT:_A_ArrowCheck
	DD	00H
	DD	00H
	DD	02e6H
	DD	054H
	DD	01H
	DD	01H
	DD	FLAT:_A_ArrowCheck
	DD	00H
	DD	00H
	DD	02e7H
	DD	054H
	DD	02H
	DD	01H
	DD	FLAT:_A_ArrowCheck
	DD	00H
	DD	00H
	DD	02e8H
	DD	055H
	DD	00H
	DD	0eH
	DD	00H
	DD	00H
	DD	00H
	DD	02eaH
	DD	055H
	DD	01H
	DD	0eH
	DD	00H
	DD	00H
	DD	00H
	DD	02e9H
	DD	056H
	DD	00H
	DD	07H
	DD	00H
	DD	00H
	DD	00H
	DD	02ecH
	DD	056H
	DD	01H
	DD	07H
	DD	00H
	DD	00H
	DD	00H
	DD	02ebH
	DD	057H
	DD	00H
	DD	0ffffffffH
	DD	00H
	DD	00H
	DD	00H
	DD	00H
	DD	059H
	DD	00H
	DD	0ffffffffH
	DD	00H
	DD	00H
	DD	00H
	DD	00H
	DD	05aH
	DD	00H
	DD	0ffffffffH
	DD	00H
	DD	00H
	DD	00H
	DD	00H
	DD	05bH
	DD	00H
	DD	04H
	DD	00H
	DD	00H
	DD	00H
	DD	02f1H
	DD	05bH
	DD	01H
	DD	04H
	DD	00H
	DD	00H
	DD	00H
	DD	02f2H
	DD	05bH
	DD	02H
	DD	04H
	DD	00H
	DD	00H
	DD	00H
	DD	02f3H
	DD	05bH
	DD	03H
	DD	04H
	DD	00H
	DD	00H
	DD	00H
	DD	02f0H
	DD	05cH
	DD	08000H
	DD	023H
	DD	FLAT:_A_Scream
	DD	00H
	DD	00H
	DD	02f4H
	DD	05dH
	DD	00H
	DD	0ffffffffH
	DD	00H
	DD	00H
	DD	00H
	DD	00H
	DD	05eH
	DD	00H
	DD	0ffffffffH
	DD	00H
	DD	00H
	DD	00H
	DD	02f7H
	DD	05eH
	DD	01H
	DD	05H
	DD	00H
	DD	00H
	DD	00H
	DD	02f8H
	DD	05eH
	DD	02H
	DD	05H
	DD	00H
	DD	00H
	DD	00H
	DD	02f9H
	DD	05eH
	DD	03H
	DD	05H
	DD	00H
	DD	00H
	DD	00H
	DD	02faH
	DD	05eH
	DD	04H
	DD	05H
	DD	00H
	DD	00H
	DD	00H
	DD	02fbH
	DD	05eH
	DD	05H
	DD	05H
	DD	00H
	DD	00H
	DD	00H
	DD	02f6H
	DD	0c1H
	DD	00H
	DD	069H
	DD	00H
	DD	00H
	DD	00H
	DD	02fdH
	DD	05fH
	DD	00H
	DD	02H
	DD	00H
	DD	00H
	DD	00H
	DD	02feH
	DD	05fH
	DD	01H
	DD	02H
	DD	00H
	DD	00H
	DD	00H
	DD	02ffH
	DD	05fH
	DD	02H
	DD	02H
	DD	FLAT:_A_SpawnObjectRelative
	DD	00H
	DD	07eH
	DD	02fcH
	DD	05fH
	DD	03H
	DD	0ffffffffH
	DD	00H
	DD	00H
	DD	00H
	DD	0300H
	DD	05fH
	DD	04H
	DD	01H
	DD	00H
	DD	00H
	DD	00H
	DD	0302H
	DD	05fH
	DD	05H
	DD	01H
	DD	00H
	DD	00H
	DD	00H
	DD	064fH
	DD	060H
	DD	00H
	DD	0ffffffffH
	DD	00H
	DD	00H
	DD	00H
	DD	00H
	DD	061H
	DD	00H
	DD	0ffffffffH
	DD	00H
	DD	00H
	DD	00H
	DD	00H
	DD	062H
	DD	00H
	DD	0ffffffffH
	DD	00H
	DD	00H
	DD	00H
	DD	00H
	DD	063H
	DD	00H
	DD	0ffffffffH
	DD	00H
	DD	00H
	DD	00H
	DD	00H
	DD	064H
	DD	00H
	DD	0ffffffffH
	DD	00H
	DD	00H
	DD	00H
	DD	00H
	DD	065H
	DD	08000H
	DD	03H
	DD	00H
	DD	00H
	DD	00H
	DD	0309H
	DD	065H
	DD	08001H
	DD	03H
	DD	00H
	DD	00H
	DD	00H
	DD	030aH
	DD	065H
	DD	08002H
	DD	03H
	DD	00H
	DD	00H
	DD	00H
	DD	030bH
	DD	065H
	DD	08003H
	DD	03H
	DD	00H
	DD	00H
	DD	00H
	DD	0308H
	DD	066H
	DD	00H
	DD	0ffffffffH
	DD	00H
	DD	00H
	DD	00H
	DD	064fH
	DD	067H
	DD	00H
	DD	01H
	DD	FLAT:_A_MaceRotate
	DD	00H
	DD	00H
	DD	030dH
	DD	068H
	DD	00H
	DD	01H
	DD	FLAT:_A_MaceRotate
	DD	00H
	DD	00H
	DD	030eH
	DD	069H
	DD	00H
	DD	01H
	DD	FLAT:_A_MaceRotate
	DD	00H
	DD	00H
	DD	030fH
	DD	06aH
	DD	00H
	DD	01H
	DD	FLAT:_A_MaceRotate
	DD	00H
	DD	00H
	DD	0310H
	DD	058H
	DD	00H
	DD	0ffffffffH
	DD	00H
	DD	00H
	DD	00H
	DD	00H
	DD	06bH
	DD	00H
	DD	0ffffffffH
	DD	00H
	DD	00H
	DD	00H
	DD	00H
	DD	06bH
	DD	00H
	DD	05H
	DD	00H
	DD	00H
	DD	00H
	DD	0314H
	DD	06bH
	DD	01H
	DD	05H
	DD	00H
	DD	00H
	DD	00H
	DD	0315H
	DD	06bH
	DD	02H
	DD	05H
	DD	00H
	DD	00H
	DD	00H
	DD	0316H
	DD	06bH
	DD	03H
	DD	05H
	DD	00H
	DD	00H
	DD	00H
	DD	0317H
	DD	06bH
	DD	04H
	DD	05H
	DD	00H
	DD	00H
	DD	00H
	DD	0318H
	DD	06bH
	DD	05H
	DD	05H
	DD	00H
	DD	00H
	DD	00H
	DD	0319H
	DD	06bH
	DD	06H
	DD	05H
	DD	00H
	DD	00H
	DD	00H
	DD	031aH
	DD	06bH
	DD	07H
	DD	05H
	DD	00H
	DD	00H
	DD	00H
	DD	0313H
	DD	06cH
	DD	00H
	DD	0ffffffffH
	DD	00H
	DD	00H
	DD	00H
	DD	00H
	DD	06cH
	DD	00H
	DD	05H
	DD	00H
	DD	00H
	DD	00H
	DD	031dH
	DD	06cH
	DD	01H
	DD	05H
	DD	00H
	DD	00H
	DD	00H
	DD	031eH
	DD	06cH
	DD	02H
	DD	05H
	DD	00H
	DD	00H
	DD	00H
	DD	031fH
	DD	06cH
	DD	03H
	DD	05H
	DD	00H
	DD	00H
	DD	00H
	DD	0320H
	DD	06cH
	DD	04H
	DD	05H
	DD	00H
	DD	00H
	DD	00H
	DD	0321H
	DD	06cH
	DD	05H
	DD	05H
	DD	00H
	DD	00H
	DD	00H
	DD	0322H
	DD	06cH
	DD	06H
	DD	05H
	DD	00H
	DD	00H
	DD	00H
	DD	0323H
	DD	06cH
	DD	07H
	DD	05H
	DD	00H
	DD	00H
	DD	00H
	DD	031cH
	DD	06dH
	DD	00H
	DD	0ffffffffH
	DD	00H
	DD	00H
	DD	00H
	DD	00H
	DD	06dH
	DD	01H
	DD	0ffffffffH
	DD	00H
	DD	00H
	DD	00H
	DD	00H
	DD	06dH
	DD	02H
	DD	0ffffffffH
	DD	00H
	DD	00H
	DD	00H
	DD	00H
	DD	06dH
	DD	03H
	DD	0ffffffffH
	DD	00H
	DD	00H
	DD	00H
	DD	00H
	DD	0c1H
	DD	00H
	DD	046H
	DD	00H
	DD	00H
	DD	00H
	DD	0329H
	DD	0c1H
	DD	00H
	DD	069H
	DD	FLAT:_A_ToggleFlameJet
	DD	00H
	DD	00H
	DD	032aH
	DD	0c1H
	DD	00H
	DD	01H
	DD	FLAT:_A_ToggleFlameJet
	DD	00H
	DD	00H
	DD	0328H
	DD	06eH
	DD	00H
	DD	04H
	DD	00H
	DD	00H
	DD	00H
	DD	032cH
	DD	06eH
	DD	01H
	DD	05H
	DD	00H
	DD	00H
	DD	00H
	DD	032dH
	DD	06eH
	DD	02H
	DD	0bH
	DD	00H
	DD	00H
	DD	00H
	DD	064fH
	DD	06fH
	DD	00H
	DD	0ffffffffH
	DD	00H
	DD	00H
	DD	00H
	DD	00H
	DD	070H
	DD	00H
	DD	0ffffffffH
	DD	00H
	DD	00H
	DD	00H
	DD	00H
	DD	071H
	DD	00H
	DD	0ffffffffH
	DD	00H
	DD	00H
	DD	00H
	DD	00H
	DD	072H
	DD	08000H
	DD	05H
	DD	00H
	DD	00H
	DD	00H
	DD	0332H
	DD	072H
	DD	08001H
	DD	05H
	DD	00H
	DD	00H
	DD	00H
	DD	0333H
	DD	072H
	DD	08002H
	DD	05H
	DD	00H
	DD	00H
	DD	00H
	DD	0334H
	DD	072H
	DD	08003H
	DD	05H
	DD	00H
	DD	00H
	DD	00H
	DD	0335H
	DD	072H
	DD	08004H
	DD	05H
	DD	00H
	DD	00H
	DD	00H
	DD	0336H
	DD	072H
	DD	08005H
	DD	05H
	DD	00H
	DD	00H
	DD	00H
	DD	0331H
	DD	066H
	DD	01H
	DD	0ffffffffH
	DD	00H
	DD	00H
	DD	00H
	DD	064fH
	DD	073H
	DD	00H
	DD	08H
	DD	00H
	DD	00H
	DD	00H
	DD	00H
	DD	074H
	DD	00H
	DD	01H
	DD	00H
	DD	00H
	DD	00H
	DD	033aH
	DD	074H
	DD	01H
	DD	01H
	DD	00H
	DD	00H
	DD	00H
	DD	033bH
	DD	074H
	DD	02H
	DD	01H
	DD	00H
	DD	00H
	DD	00H
	DD	033cH
	DD	074H
	DD	03H
	DD	01H
	DD	00H
	DD	00H
	DD	00H
	DD	033dH
	DD	074H
	DD	04H
	DD	01H
	DD	00H
	DD	00H
	DD	00H
	DD	033eH
	DD	074H
	DD	05H
	DD	01H
	DD	00H
	DD	00H
	DD	00H
	DD	033fH
	DD	074H
	DD	06H
	DD	01H
	DD	00H
	DD	00H
	DD	00H
	DD	0340H
	DD	074H
	DD	07H
	DD	01H
	DD	00H
	DD	00H
	DD	00H
	DD	0339H
	DD	075H
	DD	00H
	DD	01H
	DD	00H
	DD	00H
	DD	00H
	DD	0342H
	DD	075H
	DD	01H
	DD	01H
	DD	00H
	DD	00H
	DD	00H
	DD	0343H
	DD	075H
	DD	02H
	DD	01H
	DD	00H
	DD	00H
	DD	00H
	DD	0344H
	DD	075H
	DD	03H
	DD	01H
	DD	00H
	DD	00H
	DD	00H
	DD	0345H
	DD	075H
	DD	04H
	DD	01H
	DD	00H
	DD	00H
	DD	00H
	DD	0346H
	DD	075H
	DD	05H
	DD	01H
	DD	00H
	DD	00H
	DD	00H
	DD	0347H
	DD	075H
	DD	06H
	DD	01H
	DD	00H
	DD	00H
	DD	00H
	DD	0348H
	DD	075H
	DD	07H
	DD	01H
	DD	00H
	DD	00H
	DD	00H
	DD	0349H
	DD	075H
	DD	08H
	DD	01H
	DD	00H
	DD	00H
	DD	00H
	DD	034aH
	DD	075H
	DD	09H
	DD	01H
	DD	00H
	DD	00H
	DD	00H
	DD	034bH
	DD	075H
	DD	0aH
	DD	01H
	DD	00H
	DD	00H
	DD	00H
	DD	034cH
	DD	075H
	DD	0bH
	DD	01H
	DD	00H
	DD	00H
	DD	00H
	DD	034dH
	DD	075H
	DD	0cH
	DD	01H
	DD	00H
	DD	00H
	DD	00H
	DD	034eH
	DD	075H
	DD	0dH
	DD	01H
	DD	00H
	DD	00H
	DD	00H
	DD	034fH
	DD	075H
	DD	0eH
	DD	01H
	DD	00H
	DD	00H
	DD	00H
	DD	0350H
	DD	075H
	DD	0fH
	DD	01H
	DD	00H
	DD	00H
	DD	00H
	DD	0351H
	DD	075H
	DD	010H
	DD	01H
	DD	00H
	DD	00H
	DD	00H
	DD	0352H
	DD	075H
	DD	011H
	DD	01H
	DD	00H
	DD	00H
	DD	00H
	DD	0353H
	DD	075H
	DD	012H
	DD	01H
	DD	00H
	DD	00H
	DD	00H
	DD	0354H
	DD	075H
	DD	013H
	DD	01H
	DD	00H
	DD	00H
	DD	00H
	DD	0355H
	DD	075H
	DD	014H
	DD	01H
	DD	00H
	DD	00H
	DD	00H
	DD	0356H
	DD	075H
	DD	015H
	DD	01H
	DD	00H
	DD	00H
	DD	00H
	DD	0357H
	DD	075H
	DD	016H
	DD	01H
	DD	00H
	DD	00H
	DD	00H
	DD	0358H
	DD	075H
	DD	017H
	DD	01H
	DD	00H
	DD	00H
	DD	00H
	DD	0359H
	DD	075H
	DD	018H
	DD	01H
	DD	00H
	DD	00H
	DD	00H
	DD	035aH
	DD	075H
	DD	019H
	DD	01H
	DD	00H
	DD	00H
	DD	00H
	DD	035bH
	DD	075H
	DD	01aH
	DD	01H
	DD	00H
	DD	00H
	DD	00H
	DD	035cH
	DD	075H
	DD	01bH
	DD	01H
	DD	00H
	DD	00H
	DD	00H
	DD	035dH
	DD	075H
	DD	01cH
	DD	01H
	DD	00H
	DD	00H
	DD	00H
	DD	035eH
	DD	075H
	DD	01dH
	DD	01H
	DD	00H
	DD	00H
	DD	00H
	DD	035fH
	DD	075H
	DD	01eH
	DD	01H
	DD	00H
	DD	00H
	DD	00H
	DD	0360H
	DD	075H
	DD	01fH
	DD	01H
	DD	00H
	DD	00H
	DD	00H
	DD	00H
	DD	076H
	DD	00H
	DD	02H
	DD	00H
	DD	00H
	DD	00H
	DD	0362H
	DD	076H
	DD	01H
	DD	02H
	DD	00H
	DD	00H
	DD	00H
	DD	0363H
	DD	076H
	DD	02H
	DD	02H
	DD	00H
	DD	00H
	DD	00H
	DD	0364H
	DD	076H
	DD	01H
	DD	02H
	DD	00H
	DD	00H
	DD	00H
	DD	0365H
	DD	076H
	DD	00H
	DD	02H
	DD	00H
	DD	00H
	DD	00H
	DD	064fH
	DD	077H
	DD	00H
	DD	04H
	DD	00H
	DD	00H
	DD	00H
	DD	0367H
	DD	077H
	DD	00H
	DD	04H
	DD	FLAT:_A_Chase
	DD	00H
	DD	00H
	DD	0368H
	DD	077H
	DD	01H
	DD	04H
	DD	FLAT:_A_Chase
	DD	00H
	DD	00H
	DD	0367H
	DD	078H
	DD	00H
	DD	04H
	DD	00H
	DD	00H
	DD	00H
	DD	036aH
	DD	078H
	DD	00H
	DD	040H
	DD	00H
	DD	00H
	DD	00H
	DD	036bH
	DD	078H
	DD	01H
	DD	02H
	DD	FLAT:_A_BunnyHop
	DD	06H
	DD	03H
	DD	036cH
	DD	078H
	DD	01H
	DD	02H
	DD	FLAT:_A_Chase
	DD	00H
	DD	00H
	DD	036dH
	DD	078H
	DD	01H
	DD	02H
	DD	FLAT:_A_Chase
	DD	00H
	DD	00H
	DD	036eH
	DD	078H
	DD	01H
	DD	02H
	DD	FLAT:_A_Chase
	DD	00H
	DD	00H
	DD	036fH
	DD	078H
	DD	01H
	DD	02H
	DD	FLAT:_A_Chase
	DD	00H
	DD	00H
	DD	0370H
	DD	078H
	DD	01H
	DD	02H
	DD	FLAT:_A_Chase
	DD	00H
	DD	00H
	DD	0371H
	DD	078H
	DD	01H
	DD	02H
	DD	FLAT:_A_Chase
	DD	00H
	DD	00H
	DD	0372H
	DD	078H
	DD	01H
	DD	02H
	DD	FLAT:_A_Chase
	DD	00H
	DD	00H
	DD	036aH
	DD	079H
	DD	00H
	DD	02H
	DD	FLAT:_A_MouseThink
	DD	00H
	DD	00H
	DD	0374H
	DD	079H
	DD	01H
	DD	02H
	DD	FLAT:_A_MouseThink
	DD	00H
	DD	00H
	DD	0373H
	DD	07aH
	DD	00H
	DD	07H
	DD	FLAT:_A_Chase
	DD	03H
	DD	00H
	DD	0376H
	DD	07aH
	DD	00H
	DD	01H
	DD	FLAT:_A_BunnyHop
	DD	04H
	DD	02H
	DD	0377H
	DD	07aH
	DD	01H
	DD	02H
	DD	FLAT:_A_ChickenCheck
	DD	00H
	DD	00H
	DD	0378H
	DD	07aH
	DD	02H
	DD	02H
	DD	00H
	DD	00H
	DD	00H
	DD	0377H
	DD	07bH
	DD	00H
	DD	04H
	DD	FLAT:_A_Chase
	DD	03H
	DD	00H
	DD	037aH
	DD	07bH
	DD	01H
	DD	04H
	DD	FLAT:_A_Chase
	DD	03H
	DD	00H
	DD	037bH
	DD	07bH
	DD	02H
	DD	04H
	DD	FLAT:_A_Chase
	DD	03H
	DD	00H
	DD	037cH
	DD	07bH
	DD	03H
	DD	04H
	DD	FLAT:_A_Chase
	DD	03H
	DD	00H
	DD	0379H
	DD	07cH
	DD	00H
	DD	0ffffffffH
	DD	00H
	DD	00H
	DD	00H
	DD	00H
	DD	07cH
	DD	04H
	DD	04H
	DD	FLAT:_A_Pain
	DD	00H
	DD	00H
	DD	037fH
	DD	07cH
	DD	03H
	DD	01H
	DD	00H
	DD	00H
	DD	00H
	DD	0380H
	DD	07cH
	DD	02H
	DD	01H
	DD	00H
	DD	00H
	DD	00H
	DD	0381H
	DD	07cH
	DD	01H
	DD	01H
	DD	00H
	DD	00H
	DD	00H
	DD	037dH
	DD	07dH
	DD	00H
	DD	0ffffffffH
	DD	00H
	DD	00H
	DD	00H
	DD	00H
	DD	07dH
	DD	04H
	DD	04H
	DD	FLAT:_A_Pain
	DD	00H
	DD	00H
	DD	0384H
	DD	07dH
	DD	03H
	DD	01H
	DD	00H
	DD	00H
	DD	00H
	DD	0385H
	DD	07dH
	DD	02H
	DD	01H
	DD	00H
	DD	00H
	DD	00H
	DD	0386H
	DD	07dH
	DD	01H
	DD	01H
	DD	00H
	DD	00H
	DD	00H
	DD	0382H
	DD	07eH
	DD	00H
	DD	0ffffffffH
	DD	00H
	DD	00H
	DD	00H
	DD	00H
	DD	07eH
	DD	04H
	DD	04H
	DD	FLAT:_A_Pain
	DD	00H
	DD	00H
	DD	0389H
	DD	07eH
	DD	03H
	DD	01H
	DD	00H
	DD	00H
	DD	00H
	DD	038aH
	DD	07eH
	DD	02H
	DD	01H
	DD	00H
	DD	00H
	DD	00H
	DD	038bH
	DD	07eH
	DD	01H
	DD	01H
	DD	00H
	DD	00H
	DD	00H
	DD	0387H
	DD	07fH
	DD	00H
	DD	0ffffffffH
	DD	00H
	DD	00H
	DD	00H
	DD	00H
	DD	07fH
	DD	04H
	DD	04H
	DD	FLAT:_A_Pain
	DD	00H
	DD	00H
	DD	038eH
	DD	07fH
	DD	03H
	DD	01H
	DD	00H
	DD	00H
	DD	00H
	DD	038fH
	DD	07fH
	DD	02H
	DD	01H
	DD	00H
	DD	00H
	DD	00H
	DD	0390H
	DD	07fH
	DD	01H
	DD	01H
	DD	00H
	DD	00H
	DD	00H
	DD	038cH
	DD	080H
	DD	00H
	DD	0ffffffffH
	DD	00H
	DD	00H
	DD	00H
	DD	00H
	DD	080H
	DD	04H
	DD	04H
	DD	FLAT:_A_Pain
	DD	00H
	DD	00H
	DD	0393H
	DD	080H
	DD	03H
	DD	01H
	DD	00H
	DD	00H
	DD	00H
	DD	0394H
	DD	080H
	DD	02H
	DD	01H
	DD	00H
	DD	00H
	DD	00H
	DD	0395H
	DD	080H
	DD	01H
	DD	01H
	DD	00H
	DD	00H
	DD	00H
	DD	0391H
	DD	081H
	DD	00H
	DD	0ffffffffH
	DD	00H
	DD	00H
	DD	00H
	DD	00H
	DD	081H
	DD	01H
	DD	01H
	DD	FLAT:_A_Pain
	DD	00H
	DD	00H
	DD	0398H
	DD	081H
	DD	02H
	DD	01H
	DD	00H
	DD	00H
	DD	00H
	DD	0399H
	DD	081H
	DD	03H
	DD	01H
	DD	00H
	DD	00H
	DD	00H
	DD	039aH
	DD	081H
	DD	04H
	DD	01H
	DD	00H
	DD	00H
	DD	00H
	DD	039bH
	DD	081H
	DD	03H
	DD	01H
	DD	00H
	DD	00H
	DD	00H
	DD	039cH
	DD	081H
	DD	02H
	DD	01H
	DD	00H
	DD	00H
	DD	00H
	DD	039dH
	DD	081H
	DD	01H
	DD	01H
	DD	00H
	DD	00H
	DD	00H
	DD	0396H
	DD	082H
	DD	00H
	DD	0ffffffffH
	DD	00H
	DD	00H
	DD	00H
	DD	00H
	DD	082H
	DD	01H
	DD	01H
	DD	FLAT:_A_Pain
	DD	00H
	DD	00H
	DD	03a0H
	DD	082H
	DD	02H
	DD	01H
	DD	00H
	DD	00H
	DD	00H
	DD	03a1H
	DD	082H
	DD	03H
	DD	01H
	DD	00H
	DD	00H
	DD	00H
	DD	03a2H
	DD	082H
	DD	04H
	DD	01H
	DD	00H
	DD	00H
	DD	00H
	DD	03a3H
	DD	082H
	DD	03H
	DD	01H
	DD	00H
	DD	00H
	DD	00H
	DD	03a4H
	DD	082H
	DD	02H
	DD	01H
	DD	00H
	DD	00H
	DD	00H
	DD	03a5H
	DD	082H
	DD	01H
	DD	01H
	DD	00H
	DD	00H
	DD	00H
	DD	039eH
	DD	083H
	DD	00H
	DD	0ffffffffH
	DD	00H
	DD	00H
	DD	00H
	DD	00H
	DD	083H
	DD	01H
	DD	01H
	DD	FLAT:_A_Pain
	DD	00H
	DD	00H
	DD	03a8H
	DD	083H
	DD	02H
	DD	01H
	DD	00H
	DD	00H
	DD	00H
	DD	03a9H
	DD	083H
	DD	03H
	DD	01H
	DD	00H
	DD	00H
	DD	00H
	DD	03aaH
	DD	083H
	DD	04H
	DD	01H
	DD	00H
	DD	00H
	DD	00H
	DD	03abH
	DD	083H
	DD	03H
	DD	01H
	DD	00H
	DD	00H
	DD	00H
	DD	03acH
	DD	083H
	DD	02H
	DD	01H
	DD	00H
	DD	00H
	DD	00H
	DD	03adH
	DD	083H
	DD	01H
	DD	01H
	DD	00H
	DD	00H
	DD	00H
	DD	03a6H
	DD	084H
	DD	00H
	DD	0ffffffffH
	DD	00H
	DD	00H
	DD	00H
	DD	00H
	DD	084H
	DD	01H
	DD	01H
	DD	FLAT:_A_Pain
	DD	00H
	DD	00H
	DD	03b0H
	DD	084H
	DD	02H
	DD	01H
	DD	00H
	DD	00H
	DD	00H
	DD	03b1H
	DD	084H
	DD	03H
	DD	01H
	DD	00H
	DD	00H
	DD	00H
	DD	03b2H
	DD	084H
	DD	04H
	DD	01H
	DD	00H
	DD	00H
	DD	00H
	DD	03b3H
	DD	084H
	DD	03H
	DD	01H
	DD	00H
	DD	00H
	DD	00H
	DD	03b4H
	DD	084H
	DD	02H
	DD	01H
	DD	00H
	DD	00H
	DD	00H
	DD	03b5H
	DD	084H
	DD	01H
	DD	01H
	DD	00H
	DD	00H
	DD	00H
	DD	03aeH
	DD	085H
	DD	08000H
	DD	0ffffffffH
	DD	00H
	DD	00H
	DD	00H
	DD	00H
	DD	085H
	DD	08000H
	DD	01H
	DD	00H
	DD	00H
	DD	00H
	DD	03b6H
	DD	086H
	DD	00H
	DD	0ffffffffH
	DD	00H
	DD	00H
	DD	00H
	DD	00H
	DD	086H
	DD	01H
	DD	0ffffffffH
	DD	00H
	DD	00H
	DD	00H
	DD	00H
	DD	086H
	DD	02H
	DD	0ffffffffH
	DD	00H
	DD	00H
	DD	00H
	DD	00H
	DD	087H
	DD	00H
	DD	02H
	DD	00H
	DD	00H
	DD	00H
	DD	03bcH
	DD	087H
	DD	01H
	DD	02H
	DD	00H
	DD	00H
	DD	00H
	DD	03bdH
	DD	087H
	DD	02H
	DD	02H
	DD	00H
	DD	00H
	DD	00H
	DD	03beH
	DD	087H
	DD	03H
	DD	02H
	DD	00H
	DD	00H
	DD	00H
	DD	03bfH
	DD	087H
	DD	04H
	DD	02H
	DD	00H
	DD	00H
	DD	00H
	DD	03c0H
	DD	087H
	DD	05H
	DD	02H
	DD	00H
	DD	00H
	DD	00H
	DD	03c1H
	DD	087H
	DD	06H
	DD	02H
	DD	00H
	DD	00H
	DD	00H
	DD	03c2H
	DD	087H
	DD	07H
	DD	02H
	DD	00H
	DD	00H
	DD	00H
	DD	03c3H
	DD	087H
	DD	08H
	DD	02H
	DD	00H
	DD	00H
	DD	00H
	DD	064fH
	DD	088H
	DD	00H
	DD	03H
	DD	00H
	DD	00H
	DD	00H
	DD	03c5H
	DD	088H
	DD	01H
	DD	03H
	DD	00H
	DD	00H
	DD	00H
	DD	03c6H
	DD	088H
	DD	02H
	DD	03H
	DD	00H
	DD	00H
	DD	00H
	DD	03b7H
	DD	089H
	DD	00H
	DD	04H
	DD	00H
	DD	00H
	DD	00H
	DD	03c8H
	DD	089H
	DD	01H
	DD	05H
	DD	00H
	DD	00H
	DD	00H
	DD	03c9H
	DD	089H
	DD	02H
	DD	06H
	DD	00H
	DD	00H
	DD	00H
	DD	03caH
	DD	089H
	DD	03H
	DD	07H
	DD	00H
	DD	00H
	DD	00H
	DD	03cbH
	DD	089H
	DD	04H
	DD	08H
	DD	00H
	DD	00H
	DD	00H
	DD	00H
	DD	08aH
	DD	00H
	DD	01H
	DD	FLAT:_A_BubbleRise
	DD	00H
	DD	0400H
	DD	03cdH
	DD	08aH
	DD	00H
	DD	01H
	DD	FLAT:_A_BubbleRise
	DD	00H
	DD	0400H
	DD	03ccH
	DD	08bH
	DD	00H
	DD	01H
	DD	FLAT:_A_BubbleRise
	DD	00H
	DD	0400H
	DD	03cfH
	DD	08bH
	DD	00H
	DD	01H
	DD	FLAT:_A_BubbleRise
	DD	00H
	DD	0400H
	DD	03ceH
	DD	08cH
	DD	08000H
	DD	010H
	DD	FLAT:_A_BubbleRise
	DD	00H
	DD	0400H
	DD	03d1H
	DD	08dH
	DD	08000H
	DD	010H
	DD	FLAT:_A_BubbleRise
	DD	00H
	DD	0400H
	DD	03d1H
	DD	08eH
	DD	00H
	DD	010H
	DD	00H
	DD	00H
	DD	00H
	DD	064fH
	DD	08fH
	DD	08000H
	DD	02H
	DD	00H
	DD	00H
	DD	00H
	DD	03d4H
	DD	08fH
	DD	08001H
	DD	02H
	DD	00H
	DD	00H
	DD	00H
	DD	03d5H
	DD	08fH
	DD	08002H
	DD	02H
	DD	00H
	DD	00H
	DD	00H
	DD	03d6H
	DD	08fH
	DD	08003H
	DD	02H
	DD	00H
	DD	00H
	DD	00H
	DD	03d7H
	DD	08fH
	DD	08004H
	DD	02H
	DD	00H
	DD	00H
	DD	00H
	DD	03d8H
	DD	08fH
	DD	08005H
	DD	02H
	DD	00H
	DD	00H
	DD	00H
	DD	03d9H
	DD	08fH
	DD	08006H
	DD	02H
	DD	00H
	DD	00H
	DD	00H
	DD	03daH
	DD	08fH
	DD	08007H
	DD	02H
	DD	00H
	DD	00H
	DD	00H
	DD	03dbH
	DD	08fH
	DD	08008H
	DD	02H
	DD	00H
	DD	00H
	DD	00H
	DD	03dcH
	DD	08fH
	DD	08009H
	DD	02H
	DD	00H
	DD	00H
	DD	00H
	DD	03ddH
	DD	08fH
	DD	0800aH
	DD	02H
	DD	00H
	DD	00H
	DD	00H
	DD	03deH
	DD	08fH
	DD	0800bH
	DD	02H
	DD	00H
	DD	00H
	DD	00H
	DD	03dfH
	DD	08fH
	DD	0800cH
	DD	02H
	DD	00H
	DD	00H
	DD	00H
	DD	03e0H
	DD	08fH
	DD	0800dH
	DD	02H
	DD	00H
	DD	00H
	DD	00H
	DD	064fH
	DD	090H
	DD	08000H
	DD	0ffffffffH
	DD	00H
	DD	00H
	DD	00H
	DD	00H
	DD	091H
	DD	08000H
	DD	046H
	DD	00H
	DD	00H
	DD	00H
	DD	064fH
	DD	0c1H
	DD	00H
	DD	01H
	DD	FLAT:_A_ParticleSpawn
	DD	00H
	DD	00H
	DD	03e3H
	DD	092H
	DD	00H
	DD	020H
	DD	FLAT:_A_ScoreRise
	DD	00H
	DD	00H
	DD	064fH
	DD	092H
	DD	01H
	DD	020H
	DD	FLAT:_A_ScoreRise
	DD	00H
	DD	00H
	DD	064fH
	DD	092H
	DD	02H
	DD	020H
	DD	FLAT:_A_ScoreRise
	DD	00H
	DD	00H
	DD	064fH
	DD	092H
	DD	03H
	DD	020H
	DD	FLAT:_A_ScoreRise
	DD	00H
	DD	00H
	DD	064fH
	DD	093H
	DD	00H
	DD	028H
	DD	00H
	DD	00H
	DD	00H
	DD	064fH
	DD	093H
	DD	01H
	DD	028H
	DD	00H
	DD	00H
	DD	00H
	DD	064fH
	DD	093H
	DD	02H
	DD	028H
	DD	00H
	DD	00H
	DD	00H
	DD	064fH
	DD	093H
	DD	03H
	DD	028H
	DD	00H
	DD	00H
	DD	00H
	DD	064fH
	DD	093H
	DD	04H
	DD	028H
	DD	00H
	DD	00H
	DD	00H
	DD	064fH
	DD	093H
	DD	05H
	DD	028H
	DD	00H
	DD	00H
	DD	00H
	DD	064fH
	DD	094H
	DD	08000H
	DD	02H
	DD	00H
	DD	00H
	DD	00H
	DD	064fH
	DD	095H
	DD	00H
	DD	01H
	DD	00H
	DD	00H
	DD	00H
	DD	03f0H
	DD	095H
	DD	01H
	DD	01H
	DD	00H
	DD	00H
	DD	00H
	DD	064fH
	DD	095H
	DD	00H
	DD	01H
	DD	00H
	DD	00H
	DD	00H
	DD	03f2H
	DD	095H
	DD	02H
	DD	01H
	DD	00H
	DD	00H
	DD	00H
	DD	064fH
	DD	096H
	DD	08000H
	DD	01H
	DD	FLAT:_A_ThrownRing
	DD	00H
	DD	00H
	DD	03f4H
	DD	096H
	DD	08001H
	DD	01H
	DD	FLAT:_A_ThrownRing
	DD	00H
	DD	00H
	DD	03f5H
	DD	096H
	DD	08002H
	DD	01H
	DD	FLAT:_A_ThrownRing
	DD	00H
	DD	00H
	DD	03f6H
	DD	096H
	DD	08003H
	DD	01H
	DD	FLAT:_A_ThrownRing
	DD	00H
	DD	00H
	DD	03f7H
	DD	096H
	DD	08004H
	DD	01H
	DD	FLAT:_A_ThrownRing
	DD	00H
	DD	00H
	DD	03f8H
	DD	096H
	DD	08005H
	DD	01H
	DD	FLAT:_A_ThrownRing
	DD	00H
	DD	00H
	DD	03f9H
	DD	096H
	DD	08006H
	DD	01H
	DD	FLAT:_A_ThrownRing
	DD	00H
	DD	00H
	DD	03f3H
	DD	097H
	DD	00H
	DD	01H
	DD	00H
	DD	00H
	DD	00H
	DD	03fbH
	DD	097H
	DD	01H
	DD	01H
	DD	00H
	DD	00H
	DD	00H
	DD	03fcH
	DD	097H
	DD	02H
	DD	01H
	DD	00H
	DD	00H
	DD	00H
	DD	03fdH
	DD	097H
	DD	03H
	DD	01H
	DD	00H
	DD	00H
	DD	00H
	DD	03feH
	DD	097H
	DD	04H
	DD	01H
	DD	00H
	DD	00H
	DD	00H
	DD	03ffH
	DD	097H
	DD	05H
	DD	01H
	DD	00H
	DD	00H
	DD	00H
	DD	0400H
	DD	097H
	DD	06H
	DD	01H
	DD	00H
	DD	00H
	DD	00H
	DD	0401H
	DD	097H
	DD	07H
	DD	01H
	DD	00H
	DD	00H
	DD	00H
	DD	0402H
	DD	097H
	DD	08H
	DD	01H
	DD	00H
	DD	00H
	DD	00H
	DD	0403H
	DD	097H
	DD	09H
	DD	01H
	DD	00H
	DD	00H
	DD	00H
	DD	0404H
	DD	097H
	DD	0aH
	DD	01H
	DD	00H
	DD	00H
	DD	00H
	DD	0405H
	DD	097H
	DD	0bH
	DD	01H
	DD	00H
	DD	00H
	DD	00H
	DD	0406H
	DD	097H
	DD	0cH
	DD	01H
	DD	00H
	DD	00H
	DD	00H
	DD	0407H
	DD	097H
	DD	0dH
	DD	01H
	DD	00H
	DD	00H
	DD	00H
	DD	0408H
	DD	097H
	DD	0eH
	DD	01H
	DD	00H
	DD	00H
	DD	00H
	DD	0409H
	DD	097H
	DD	0fH
	DD	01H
	DD	00H
	DD	00H
	DD	00H
	DD	040aH
	DD	097H
	DD	010H
	DD	01H
	DD	00H
	DD	00H
	DD	00H
	DD	040bH
	DD	097H
	DD	011H
	DD	01H
	DD	00H
	DD	00H
	DD	00H
	DD	040cH
	DD	097H
	DD	012H
	DD	01H
	DD	00H
	DD	00H
	DD	00H
	DD	040dH
	DD	097H
	DD	013H
	DD	01H
	DD	00H
	DD	00H
	DD	00H
	DD	040eH
	DD	097H
	DD	014H
	DD	01H
	DD	00H
	DD	00H
	DD	00H
	DD	040fH
	DD	097H
	DD	015H
	DD	01H
	DD	00H
	DD	00H
	DD	00H
	DD	0410H
	DD	097H
	DD	016H
	DD	01H
	DD	00H
	DD	00H
	DD	00H
	DD	0411H
	DD	097H
	DD	017H
	DD	01H
	DD	00H
	DD	00H
	DD	00H
	DD	0412H
	DD	097H
	DD	018H
	DD	01H
	DD	00H
	DD	00H
	DD	00H
	DD	0413H
	DD	097H
	DD	019H
	DD	01H
	DD	00H
	DD	00H
	DD	00H
	DD	0414H
	DD	097H
	DD	01aH
	DD	01H
	DD	00H
	DD	00H
	DD	00H
	DD	0415H
	DD	097H
	DD	01bH
	DD	01H
	DD	00H
	DD	00H
	DD	00H
	DD	0416H
	DD	097H
	DD	01cH
	DD	01H
	DD	00H
	DD	00H
	DD	00H
	DD	0417H
	DD	097H
	DD	01dH
	DD	01H
	DD	00H
	DD	00H
	DD	00H
	DD	0418H
	DD	097H
	DD	01eH
	DD	01H
	DD	00H
	DD	00H
	DD	00H
	DD	0419H
	DD	097H
	DD	01fH
	DD	01H
	DD	00H
	DD	00H
	DD	00H
	DD	041aH
	DD	097H
	DD	020H
	DD	01H
	DD	00H
	DD	00H
	DD	00H
	DD	041bH
	DD	097H
	DD	021H
	DD	01H
	DD	00H
	DD	00H
	DD	00H
	DD	041cH
	DD	097H
	DD	022H
	DD	01H
	DD	00H
	DD	00H
	DD	00H
	DD	03faH
	DD	098H
	DD	00H
	DD	01H
	DD	00H
	DD	00H
	DD	00H
	DD	041eH
	DD	098H
	DD	01H
	DD	01H
	DD	00H
	DD	00H
	DD	00H
	DD	041fH
	DD	098H
	DD	02H
	DD	01H
	DD	00H
	DD	00H
	DD	00H
	DD	0420H
	DD	098H
	DD	03H
	DD	01H
	DD	00H
	DD	00H
	DD	00H
	DD	0421H
	DD	098H
	DD	04H
	DD	01H
	DD	00H
	DD	00H
	DD	00H
	DD	0422H
	DD	098H
	DD	05H
	DD	01H
	DD	00H
	DD	00H
	DD	00H
	DD	0423H
	DD	098H
	DD	06H
	DD	01H
	DD	00H
	DD	00H
	DD	00H
	DD	0424H
	DD	098H
	DD	07H
	DD	01H
	DD	00H
	DD	00H
	DD	00H
	DD	0425H
	DD	098H
	DD	08H
	DD	01H
	DD	00H
	DD	00H
	DD	00H
	DD	0426H
	DD	098H
	DD	09H
	DD	01H
	DD	00H
	DD	00H
	DD	00H
	DD	0427H
	DD	098H
	DD	0aH
	DD	01H
	DD	00H
	DD	00H
	DD	00H
	DD	0428H
	DD	098H
	DD	0bH
	DD	01H
	DD	00H
	DD	00H
	DD	00H
	DD	0429H
	DD	098H
	DD	0cH
	DD	01H
	DD	00H
	DD	00H
	DD	00H
	DD	042aH
	DD	098H
	DD	0dH
	DD	01H
	DD	00H
	DD	00H
	DD	00H
	DD	042bH
	DD	098H
	DD	0eH
	DD	01H
	DD	00H
	DD	00H
	DD	00H
	DD	042cH
	DD	098H
	DD	0fH
	DD	01H
	DD	00H
	DD	00H
	DD	00H
	DD	042dH
	DD	098H
	DD	010H
	DD	01H
	DD	00H
	DD	00H
	DD	00H
	DD	042eH
	DD	098H
	DD	011H
	DD	01H
	DD	00H
	DD	00H
	DD	00H
	DD	042fH
	DD	098H
	DD	012H
	DD	01H
	DD	00H
	DD	00H
	DD	00H
	DD	0430H
	DD	098H
	DD	013H
	DD	01H
	DD	00H
	DD	00H
	DD	00H
	DD	0431H
	DD	098H
	DD	014H
	DD	01H
	DD	00H
	DD	00H
	DD	00H
	DD	0432H
	DD	098H
	DD	015H
	DD	01H
	DD	00H
	DD	00H
	DD	00H
	DD	0433H
	DD	098H
	DD	016H
	DD	01H
	DD	00H
	DD	00H
	DD	00H
	DD	0434H
	DD	098H
	DD	017H
	DD	01H
	DD	00H
	DD	00H
	DD	00H
	DD	0435H
	DD	098H
	DD	018H
	DD	01H
	DD	00H
	DD	00H
	DD	00H
	DD	0436H
	DD	098H
	DD	019H
	DD	01H
	DD	00H
	DD	00H
	DD	00H
	DD	0437H
	DD	098H
	DD	01aH
	DD	01H
	DD	00H
	DD	00H
	DD	00H
	DD	0438H
	DD	098H
	DD	01bH
	DD	01H
	DD	00H
	DD	00H
	DD	00H
	DD	0439H
	DD	098H
	DD	01cH
	DD	01H
	DD	00H
	DD	00H
	DD	00H
	DD	043aH
	DD	098H
	DD	01dH
	DD	01H
	DD	00H
	DD	00H
	DD	00H
	DD	043bH
	DD	098H
	DD	01eH
	DD	01H
	DD	00H
	DD	00H
	DD	00H
	DD	043cH
	DD	098H
	DD	01fH
	DD	01H
	DD	00H
	DD	00H
	DD	00H
	DD	043dH
	DD	098H
	DD	020H
	DD	01H
	DD	00H
	DD	00H
	DD	00H
	DD	043eH
	DD	098H
	DD	021H
	DD	01H
	DD	00H
	DD	00H
	DD	00H
	DD	043fH
	DD	098H
	DD	022H
	DD	01H
	DD	00H
	DD	00H
	DD	00H
	DD	041dH
	DD	099H
	DD	00H
	DD	01H
	DD	00H
	DD	00H
	DD	00H
	DD	0441H
	DD	099H
	DD	01H
	DD	01H
	DD	00H
	DD	00H
	DD	00H
	DD	0442H
	DD	099H
	DD	02H
	DD	01H
	DD	00H
	DD	00H
	DD	00H
	DD	0443H
	DD	099H
	DD	03H
	DD	01H
	DD	00H
	DD	00H
	DD	00H
	DD	0444H
	DD	099H
	DD	04H
	DD	01H
	DD	00H
	DD	00H
	DD	00H
	DD	0445H
	DD	099H
	DD	05H
	DD	01H
	DD	00H
	DD	00H
	DD	00H
	DD	0446H
	DD	099H
	DD	06H
	DD	01H
	DD	00H
	DD	00H
	DD	00H
	DD	0447H
	DD	099H
	DD	07H
	DD	01H
	DD	00H
	DD	00H
	DD	00H
	DD	0448H
	DD	099H
	DD	08H
	DD	01H
	DD	00H
	DD	00H
	DD	00H
	DD	0449H
	DD	099H
	DD	09H
	DD	01H
	DD	00H
	DD	00H
	DD	00H
	DD	044aH
	DD	099H
	DD	0aH
	DD	01H
	DD	00H
	DD	00H
	DD	00H
	DD	044bH
	DD	099H
	DD	0bH
	DD	01H
	DD	00H
	DD	00H
	DD	00H
	DD	044cH
	DD	099H
	DD	0cH
	DD	01H
	DD	00H
	DD	00H
	DD	00H
	DD	044dH
	DD	099H
	DD	0dH
	DD	01H
	DD	00H
	DD	00H
	DD	00H
	DD	044eH
	DD	099H
	DD	0eH
	DD	01H
	DD	00H
	DD	00H
	DD	00H
	DD	044fH
	DD	099H
	DD	0fH
	DD	01H
	DD	00H
	DD	00H
	DD	00H
	DD	0450H
	DD	099H
	DD	010H
	DD	01H
	DD	00H
	DD	00H
	DD	00H
	DD	0451H
	DD	099H
	DD	011H
	DD	01H
	DD	00H
	DD	00H
	DD	00H
	DD	0452H
	DD	099H
	DD	012H
	DD	01H
	DD	00H
	DD	00H
	DD	00H
	DD	0453H
	DD	099H
	DD	013H
	DD	01H
	DD	00H
	DD	00H
	DD	00H
	DD	0454H
	DD	099H
	DD	014H
	DD	01H
	DD	00H
	DD	00H
	DD	00H
	DD	0455H
	DD	099H
	DD	015H
	DD	01H
	DD	00H
	DD	00H
	DD	00H
	DD	0456H
	DD	099H
	DD	016H
	DD	01H
	DD	00H
	DD	00H
	DD	00H
	DD	0457H
	DD	099H
	DD	017H
	DD	01H
	DD	00H
	DD	00H
	DD	00H
	DD	0458H
	DD	099H
	DD	018H
	DD	01H
	DD	00H
	DD	00H
	DD	00H
	DD	0459H
	DD	099H
	DD	019H
	DD	01H
	DD	00H
	DD	00H
	DD	00H
	DD	045aH
	DD	099H
	DD	01aH
	DD	01H
	DD	00H
	DD	00H
	DD	00H
	DD	045bH
	DD	099H
	DD	01bH
	DD	01H
	DD	00H
	DD	00H
	DD	00H
	DD	045cH
	DD	099H
	DD	01cH
	DD	01H
	DD	00H
	DD	00H
	DD	00H
	DD	045dH
	DD	099H
	DD	01dH
	DD	01H
	DD	00H
	DD	00H
	DD	00H
	DD	045eH
	DD	099H
	DD	01eH
	DD	01H
	DD	00H
	DD	00H
	DD	00H
	DD	045fH
	DD	099H
	DD	01fH
	DD	01H
	DD	00H
	DD	00H
	DD	00H
	DD	0460H
	DD	099H
	DD	020H
	DD	01H
	DD	00H
	DD	00H
	DD	00H
	DD	0461H
	DD	099H
	DD	021H
	DD	01H
	DD	00H
	DD	00H
	DD	00H
	DD	0462H
	DD	099H
	DD	022H
	DD	01H
	DD	00H
	DD	00H
	DD	00H
	DD	0440H
	DD	09aH
	DD	00H
	DD	01H
	DD	00H
	DD	00H
	DD	00H
	DD	0464H
	DD	09aH
	DD	01H
	DD	01H
	DD	00H
	DD	00H
	DD	00H
	DD	0465H
	DD	09aH
	DD	02H
	DD	01H
	DD	00H
	DD	00H
	DD	00H
	DD	0466H
	DD	09aH
	DD	03H
	DD	01H
	DD	00H
	DD	00H
	DD	00H
	DD	0467H
	DD	09aH
	DD	04H
	DD	01H
	DD	00H
	DD	00H
	DD	00H
	DD	0468H
	DD	09aH
	DD	05H
	DD	01H
	DD	00H
	DD	00H
	DD	00H
	DD	0469H
	DD	09aH
	DD	06H
	DD	01H
	DD	00H
	DD	00H
	DD	00H
	DD	046aH
	DD	09aH
	DD	07H
	DD	01H
	DD	00H
	DD	00H
	DD	00H
	DD	046bH
	DD	09aH
	DD	08H
	DD	01H
	DD	00H
	DD	00H
	DD	00H
	DD	046cH
	DD	09aH
	DD	09H
	DD	01H
	DD	00H
	DD	00H
	DD	00H
	DD	046dH
	DD	09aH
	DD	0aH
	DD	01H
	DD	00H
	DD	00H
	DD	00H
	DD	046eH
	DD	09aH
	DD	0bH
	DD	01H
	DD	00H
	DD	00H
	DD	00H
	DD	046fH
	DD	09aH
	DD	0cH
	DD	01H
	DD	00H
	DD	00H
	DD	00H
	DD	0470H
	DD	09aH
	DD	0dH
	DD	01H
	DD	00H
	DD	00H
	DD	00H
	DD	0471H
	DD	09aH
	DD	0eH
	DD	01H
	DD	00H
	DD	00H
	DD	00H
	DD	0472H
	DD	09aH
	DD	0fH
	DD	01H
	DD	00H
	DD	00H
	DD	00H
	DD	0473H
	DD	09aH
	DD	010H
	DD	01H
	DD	00H
	DD	00H
	DD	00H
	DD	0474H
	DD	09aH
	DD	011H
	DD	01H
	DD	00H
	DD	00H
	DD	00H
	DD	0475H
	DD	09aH
	DD	012H
	DD	01H
	DD	00H
	DD	00H
	DD	00H
	DD	0476H
	DD	09aH
	DD	013H
	DD	01H
	DD	00H
	DD	00H
	DD	00H
	DD	0477H
	DD	09aH
	DD	014H
	DD	01H
	DD	00H
	DD	00H
	DD	00H
	DD	0478H
	DD	09aH
	DD	015H
	DD	01H
	DD	00H
	DD	00H
	DD	00H
	DD	0479H
	DD	09aH
	DD	016H
	DD	01H
	DD	00H
	DD	00H
	DD	00H
	DD	047aH
	DD	09aH
	DD	017H
	DD	01H
	DD	00H
	DD	00H
	DD	00H
	DD	047bH
	DD	09aH
	DD	018H
	DD	01H
	DD	00H
	DD	00H
	DD	00H
	DD	047cH
	DD	09aH
	DD	019H
	DD	01H
	DD	00H
	DD	00H
	DD	00H
	DD	047dH
	DD	09aH
	DD	01aH
	DD	01H
	DD	00H
	DD	00H
	DD	00H
	DD	047eH
	DD	09aH
	DD	01bH
	DD	01H
	DD	00H
	DD	00H
	DD	00H
	DD	047fH
	DD	09aH
	DD	01cH
	DD	01H
	DD	00H
	DD	00H
	DD	00H
	DD	0480H
	DD	09aH
	DD	01dH
	DD	01H
	DD	00H
	DD	00H
	DD	00H
	DD	0481H
	DD	09aH
	DD	01eH
	DD	01H
	DD	00H
	DD	00H
	DD	00H
	DD	0482H
	DD	09aH
	DD	01fH
	DD	01H
	DD	00H
	DD	00H
	DD	00H
	DD	0483H
	DD	09aH
	DD	020H
	DD	01H
	DD	00H
	DD	00H
	DD	00H
	DD	0484H
	DD	09aH
	DD	021H
	DD	01H
	DD	00H
	DD	00H
	DD	00H
	DD	0485H
	DD	09aH
	DD	022H
	DD	01H
	DD	00H
	DD	00H
	DD	00H
	DD	0463H
	DD	09bH
	DD	00H
	DD	01H
	DD	00H
	DD	00H
	DD	00H
	DD	0487H
	DD	09bH
	DD	01H
	DD	01H
	DD	00H
	DD	00H
	DD	00H
	DD	0488H
	DD	09bH
	DD	02H
	DD	01H
	DD	00H
	DD	00H
	DD	00H
	DD	0489H
	DD	09bH
	DD	03H
	DD	01H
	DD	00H
	DD	00H
	DD	00H
	DD	048aH
	DD	09bH
	DD	04H
	DD	01H
	DD	00H
	DD	00H
	DD	00H
	DD	048bH
	DD	09bH
	DD	05H
	DD	01H
	DD	00H
	DD	00H
	DD	00H
	DD	048cH
	DD	09bH
	DD	06H
	DD	01H
	DD	00H
	DD	00H
	DD	00H
	DD	048dH
	DD	09bH
	DD	07H
	DD	01H
	DD	00H
	DD	00H
	DD	00H
	DD	048eH
	DD	09bH
	DD	08H
	DD	01H
	DD	00H
	DD	00H
	DD	00H
	DD	048fH
	DD	09bH
	DD	09H
	DD	01H
	DD	00H
	DD	00H
	DD	00H
	DD	0490H
	DD	09bH
	DD	0aH
	DD	01H
	DD	00H
	DD	00H
	DD	00H
	DD	0491H
	DD	09bH
	DD	0bH
	DD	01H
	DD	00H
	DD	00H
	DD	00H
	DD	0492H
	DD	09bH
	DD	0cH
	DD	01H
	DD	00H
	DD	00H
	DD	00H
	DD	0493H
	DD	09bH
	DD	0dH
	DD	01H
	DD	00H
	DD	00H
	DD	00H
	DD	0494H
	DD	09bH
	DD	0eH
	DD	01H
	DD	00H
	DD	00H
	DD	00H
	DD	0495H
	DD	09bH
	DD	0fH
	DD	01H
	DD	00H
	DD	00H
	DD	00H
	DD	0496H
	DD	09bH
	DD	010H
	DD	01H
	DD	00H
	DD	00H
	DD	00H
	DD	0497H
	DD	09bH
	DD	011H
	DD	01H
	DD	00H
	DD	00H
	DD	00H
	DD	0498H
	DD	09bH
	DD	012H
	DD	01H
	DD	00H
	DD	00H
	DD	00H
	DD	0499H
	DD	09bH
	DD	013H
	DD	01H
	DD	00H
	DD	00H
	DD	00H
	DD	049aH
	DD	09bH
	DD	014H
	DD	01H
	DD	00H
	DD	00H
	DD	00H
	DD	049bH
	DD	09bH
	DD	015H
	DD	01H
	DD	00H
	DD	00H
	DD	00H
	DD	049cH
	DD	09bH
	DD	016H
	DD	01H
	DD	00H
	DD	00H
	DD	00H
	DD	049dH
	DD	09bH
	DD	017H
	DD	01H
	DD	00H
	DD	00H
	DD	00H
	DD	049eH
	DD	09bH
	DD	018H
	DD	01H
	DD	00H
	DD	00H
	DD	00H
	DD	049fH
	DD	09bH
	DD	019H
	DD	01H
	DD	00H
	DD	00H
	DD	00H
	DD	04a0H
	DD	09bH
	DD	01aH
	DD	01H
	DD	00H
	DD	00H
	DD	00H
	DD	04a1H
	DD	09bH
	DD	01bH
	DD	01H
	DD	00H
	DD	00H
	DD	00H
	DD	04a2H
	DD	09bH
	DD	01cH
	DD	01H
	DD	00H
	DD	00H
	DD	00H
	DD	04a3H
	DD	09bH
	DD	01dH
	DD	01H
	DD	00H
	DD	00H
	DD	00H
	DD	04a4H
	DD	09bH
	DD	01eH
	DD	01H
	DD	00H
	DD	00H
	DD	00H
	DD	04a5H
	DD	09bH
	DD	01fH
	DD	01H
	DD	00H
	DD	00H
	DD	00H
	DD	04a6H
	DD	09bH
	DD	020H
	DD	01H
	DD	00H
	DD	00H
	DD	00H
	DD	04a7H
	DD	09bH
	DD	021H
	DD	01H
	DD	00H
	DD	00H
	DD	00H
	DD	04a8H
	DD	09bH
	DD	022H
	DD	01H
	DD	00H
	DD	00H
	DD	00H
	DD	0486H
	DD	09cH
	DD	00H
	DD	01H
	DD	00H
	DD	00H
	DD	00H
	DD	04aaH
	DD	09cH
	DD	01H
	DD	01H
	DD	00H
	DD	00H
	DD	00H
	DD	04abH
	DD	09cH
	DD	02H
	DD	01H
	DD	00H
	DD	00H
	DD	00H
	DD	04acH
	DD	09cH
	DD	03H
	DD	01H
	DD	00H
	DD	00H
	DD	00H
	DD	04adH
	DD	09cH
	DD	04H
	DD	01H
	DD	00H
	DD	00H
	DD	00H
	DD	04aeH
	DD	09cH
	DD	05H
	DD	01H
	DD	00H
	DD	00H
	DD	00H
	DD	04afH
	DD	09cH
	DD	06H
	DD	01H
	DD	00H
	DD	00H
	DD	00H
	DD	04b0H
	DD	09cH
	DD	07H
	DD	01H
	DD	00H
	DD	00H
	DD	00H
	DD	04b1H
	DD	09cH
	DD	08H
	DD	01H
	DD	00H
	DD	00H
	DD	00H
	DD	04b2H
	DD	09cH
	DD	09H
	DD	01H
	DD	00H
	DD	00H
	DD	00H
	DD	04b3H
	DD	09cH
	DD	0aH
	DD	01H
	DD	00H
	DD	00H
	DD	00H
	DD	04b4H
	DD	09cH
	DD	0bH
	DD	01H
	DD	00H
	DD	00H
	DD	00H
	DD	04b5H
	DD	09cH
	DD	0cH
	DD	01H
	DD	00H
	DD	00H
	DD	00H
	DD	04b6H
	DD	09cH
	DD	0dH
	DD	01H
	DD	00H
	DD	00H
	DD	00H
	DD	04b7H
	DD	09cH
	DD	0eH
	DD	01H
	DD	00H
	DD	00H
	DD	00H
	DD	04b8H
	DD	09cH
	DD	0fH
	DD	01H
	DD	00H
	DD	00H
	DD	00H
	DD	04b9H
	DD	09cH
	DD	010H
	DD	01H
	DD	00H
	DD	00H
	DD	00H
	DD	04baH
	DD	09cH
	DD	011H
	DD	01H
	DD	00H
	DD	00H
	DD	00H
	DD	04bbH
	DD	09cH
	DD	012H
	DD	01H
	DD	00H
	DD	00H
	DD	00H
	DD	04bcH
	DD	09cH
	DD	013H
	DD	01H
	DD	00H
	DD	00H
	DD	00H
	DD	04bdH
	DD	09cH
	DD	014H
	DD	01H
	DD	00H
	DD	00H
	DD	00H
	DD	04beH
	DD	09cH
	DD	015H
	DD	01H
	DD	00H
	DD	00H
	DD	00H
	DD	04bfH
	DD	09cH
	DD	016H
	DD	01H
	DD	00H
	DD	00H
	DD	00H
	DD	04c0H
	DD	09cH
	DD	017H
	DD	01H
	DD	00H
	DD	00H
	DD	00H
	DD	04c1H
	DD	09cH
	DD	018H
	DD	01H
	DD	00H
	DD	00H
	DD	00H
	DD	04c2H
	DD	09cH
	DD	019H
	DD	01H
	DD	00H
	DD	00H
	DD	00H
	DD	04c3H
	DD	09cH
	DD	01aH
	DD	01H
	DD	00H
	DD	00H
	DD	00H
	DD	04c4H
	DD	09cH
	DD	01bH
	DD	01H
	DD	00H
	DD	00H
	DD	00H
	DD	04c5H
	DD	09cH
	DD	01cH
	DD	01H
	DD	00H
	DD	00H
	DD	00H
	DD	04c6H
	DD	09cH
	DD	01dH
	DD	01H
	DD	00H
	DD	00H
	DD	00H
	DD	04c7H
	DD	09cH
	DD	01eH
	DD	01H
	DD	00H
	DD	00H
	DD	00H
	DD	04c8H
	DD	09cH
	DD	01fH
	DD	01H
	DD	00H
	DD	00H
	DD	00H
	DD	04c9H
	DD	09cH
	DD	020H
	DD	01H
	DD	00H
	DD	00H
	DD	00H
	DD	04caH
	DD	09cH
	DD	021H
	DD	01H
	DD	00H
	DD	00H
	DD	00H
	DD	04cbH
	DD	09cH
	DD	022H
	DD	01H
	DD	00H
	DD	00H
	DD	00H
	DD	04a9H
	DD	09dH
	DD	00H
	DD	01H
	DD	00H
	DD	00H
	DD	00H
	DD	04cdH
	DD	09dH
	DD	01H
	DD	01H
	DD	00H
	DD	00H
	DD	00H
	DD	04ceH
	DD	09dH
	DD	02H
	DD	01H
	DD	00H
	DD	00H
	DD	00H
	DD	04cfH
	DD	09dH
	DD	03H
	DD	01H
	DD	00H
	DD	00H
	DD	00H
	DD	04d0H
	DD	09dH
	DD	04H
	DD	01H
	DD	00H
	DD	00H
	DD	00H
	DD	04d1H
	DD	09dH
	DD	05H
	DD	01H
	DD	00H
	DD	00H
	DD	00H
	DD	04d2H
	DD	09dH
	DD	06H
	DD	01H
	DD	00H
	DD	00H
	DD	00H
	DD	04d3H
	DD	09dH
	DD	07H
	DD	01H
	DD	00H
	DD	00H
	DD	00H
	DD	04d4H
	DD	09dH
	DD	08H
	DD	01H
	DD	00H
	DD	00H
	DD	00H
	DD	04d5H
	DD	09dH
	DD	09H
	DD	01H
	DD	00H
	DD	00H
	DD	00H
	DD	04d6H
	DD	09dH
	DD	0aH
	DD	01H
	DD	00H
	DD	00H
	DD	00H
	DD	04d7H
	DD	09dH
	DD	0bH
	DD	01H
	DD	00H
	DD	00H
	DD	00H
	DD	04d8H
	DD	09dH
	DD	0cH
	DD	01H
	DD	00H
	DD	00H
	DD	00H
	DD	04d9H
	DD	09dH
	DD	0dH
	DD	01H
	DD	00H
	DD	00H
	DD	00H
	DD	04daH
	DD	09dH
	DD	0eH
	DD	01H
	DD	00H
	DD	00H
	DD	00H
	DD	04dbH
	DD	09dH
	DD	0fH
	DD	01H
	DD	00H
	DD	00H
	DD	00H
	DD	04ccH
	DD	09dH
	DD	00H
	DD	01H
	DD	00H
	DD	00H
	DD	00H
	DD	04ddH
	DD	09dH
	DD	02H
	DD	01H
	DD	00H
	DD	00H
	DD	00H
	DD	04deH
	DD	09dH
	DD	04H
	DD	01H
	DD	00H
	DD	00H
	DD	00H
	DD	04dfH
	DD	09dH
	DD	06H
	DD	01H
	DD	00H
	DD	00H
	DD	00H
	DD	04e0H
	DD	09dH
	DD	08H
	DD	01H
	DD	00H
	DD	00H
	DD	00H
	DD	04e1H
	DD	09dH
	DD	0aH
	DD	01H
	DD	00H
	DD	00H
	DD	00H
	DD	04e2H
	DD	09dH
	DD	0cH
	DD	01H
	DD	00H
	DD	00H
	DD	00H
	DD	04e3H
	DD	09dH
	DD	0eH
	DD	01H
	DD	00H
	DD	00H
	DD	00H
	DD	04dcH
	DD	09eH
	DD	00H
	DD	01H
	DD	00H
	DD	00H
	DD	00H
	DD	04e5H
	DD	09eH
	DD	01H
	DD	01H
	DD	00H
	DD	00H
	DD	00H
	DD	04e6H
	DD	09eH
	DD	02H
	DD	01H
	DD	00H
	DD	00H
	DD	00H
	DD	04e7H
	DD	09eH
	DD	03H
	DD	01H
	DD	00H
	DD	00H
	DD	00H
	DD	04e8H
	DD	09eH
	DD	04H
	DD	01H
	DD	00H
	DD	00H
	DD	00H
	DD	04e9H
	DD	09eH
	DD	05H
	DD	01H
	DD	00H
	DD	00H
	DD	00H
	DD	04eaH
	DD	09eH
	DD	06H
	DD	01H
	DD	00H
	DD	00H
	DD	00H
	DD	04ebH
	DD	09eH
	DD	07H
	DD	01H
	DD	00H
	DD	00H
	DD	00H
	DD	04ecH
	DD	09eH
	DD	08H
	DD	01H
	DD	00H
	DD	00H
	DD	00H
	DD	04edH
	DD	09eH
	DD	09H
	DD	01H
	DD	00H
	DD	00H
	DD	00H
	DD	04eeH
	DD	09eH
	DD	0aH
	DD	01H
	DD	00H
	DD	00H
	DD	00H
	DD	04efH
	DD	09eH
	DD	0bH
	DD	01H
	DD	00H
	DD	00H
	DD	00H
	DD	04f0H
	DD	09eH
	DD	0cH
	DD	01H
	DD	00H
	DD	00H
	DD	00H
	DD	04f1H
	DD	09eH
	DD	0dH
	DD	01H
	DD	00H
	DD	00H
	DD	00H
	DD	04f2H
	DD	09eH
	DD	0eH
	DD	01H
	DD	00H
	DD	00H
	DD	00H
	DD	04f3H
	DD	09eH
	DD	0fH
	DD	01H
	DD	00H
	DD	00H
	DD	00H
	DD	04e4H
	DD	09eH
	DD	00H
	DD	01H
	DD	00H
	DD	00H
	DD	00H
	DD	04f5H
	DD	09eH
	DD	02H
	DD	01H
	DD	00H
	DD	00H
	DD	00H
	DD	04f6H
	DD	09eH
	DD	04H
	DD	01H
	DD	00H
	DD	00H
	DD	00H
	DD	04f7H
	DD	09eH
	DD	06H
	DD	01H
	DD	00H
	DD	00H
	DD	00H
	DD	04f8H
	DD	09eH
	DD	08H
	DD	01H
	DD	00H
	DD	00H
	DD	00H
	DD	04f9H
	DD	09eH
	DD	0aH
	DD	01H
	DD	00H
	DD	00H
	DD	00H
	DD	04faH
	DD	09eH
	DD	0cH
	DD	01H
	DD	00H
	DD	00H
	DD	00H
	DD	04fbH
	DD	09eH
	DD	0eH
	DD	01H
	DD	00H
	DD	00H
	DD	00H
	DD	04f4H
	DD	09fH
	DD	00H
	DD	01H
	DD	00H
	DD	00H
	DD	00H
	DD	04fdH
	DD	09fH
	DD	01H
	DD	01H
	DD	00H
	DD	00H
	DD	00H
	DD	04feH
	DD	09fH
	DD	02H
	DD	01H
	DD	00H
	DD	00H
	DD	00H
	DD	04ffH
	DD	09fH
	DD	03H
	DD	01H
	DD	00H
	DD	00H
	DD	00H
	DD	0500H
	DD	09fH
	DD	04H
	DD	01H
	DD	00H
	DD	00H
	DD	00H
	DD	0501H
	DD	09fH
	DD	05H
	DD	01H
	DD	00H
	DD	00H
	DD	00H
	DD	0502H
	DD	09fH
	DD	06H
	DD	01H
	DD	00H
	DD	00H
	DD	00H
	DD	0503H
	DD	09fH
	DD	07H
	DD	01H
	DD	00H
	DD	00H
	DD	00H
	DD	0504H
	DD	09fH
	DD	08H
	DD	01H
	DD	00H
	DD	00H
	DD	00H
	DD	0505H
	DD	09fH
	DD	09H
	DD	01H
	DD	00H
	DD	00H
	DD	00H
	DD	0506H
	DD	09fH
	DD	0aH
	DD	01H
	DD	00H
	DD	00H
	DD	00H
	DD	0507H
	DD	09fH
	DD	0bH
	DD	01H
	DD	00H
	DD	00H
	DD	00H
	DD	0508H
	DD	09fH
	DD	0cH
	DD	01H
	DD	00H
	DD	00H
	DD	00H
	DD	0509H
	DD	09fH
	DD	0dH
	DD	01H
	DD	00H
	DD	00H
	DD	00H
	DD	050aH
	DD	09fH
	DD	0eH
	DD	01H
	DD	00H
	DD	00H
	DD	00H
	DD	050bH
	DD	09fH
	DD	0fH
	DD	01H
	DD	00H
	DD	00H
	DD	00H
	DD	04fcH
	DD	09fH
	DD	00H
	DD	01H
	DD	00H
	DD	00H
	DD	00H
	DD	050dH
	DD	09fH
	DD	02H
	DD	01H
	DD	00H
	DD	00H
	DD	00H
	DD	050eH
	DD	09fH
	DD	04H
	DD	01H
	DD	00H
	DD	00H
	DD	00H
	DD	050fH
	DD	09fH
	DD	06H
	DD	01H
	DD	00H
	DD	00H
	DD	00H
	DD	0510H
	DD	09fH
	DD	08H
	DD	01H
	DD	00H
	DD	00H
	DD	00H
	DD	0511H
	DD	09fH
	DD	0aH
	DD	01H
	DD	00H
	DD	00H
	DD	00H
	DD	0512H
	DD	09fH
	DD	0cH
	DD	01H
	DD	00H
	DD	00H
	DD	00H
	DD	0513H
	DD	09fH
	DD	0eH
	DD	01H
	DD	00H
	DD	00H
	DD	00H
	DD	050cH
	DD	0a0H
	DD	00H
	DD	01H
	DD	00H
	DD	00H
	DD	00H
	DD	0515H
	DD	0a0H
	DD	01H
	DD	01H
	DD	00H
	DD	00H
	DD	00H
	DD	0516H
	DD	0a0H
	DD	02H
	DD	01H
	DD	00H
	DD	00H
	DD	00H
	DD	0517H
	DD	0a0H
	DD	03H
	DD	01H
	DD	00H
	DD	00H
	DD	00H
	DD	0518H
	DD	0a0H
	DD	04H
	DD	01H
	DD	00H
	DD	00H
	DD	00H
	DD	0519H
	DD	0a0H
	DD	05H
	DD	01H
	DD	00H
	DD	00H
	DD	00H
	DD	051aH
	DD	0a0H
	DD	06H
	DD	01H
	DD	00H
	DD	00H
	DD	00H
	DD	051bH
	DD	0a0H
	DD	07H
	DD	01H
	DD	00H
	DD	00H
	DD	00H
	DD	051cH
	DD	0a0H
	DD	08H
	DD	01H
	DD	00H
	DD	00H
	DD	00H
	DD	051dH
	DD	0a0H
	DD	09H
	DD	01H
	DD	00H
	DD	00H
	DD	00H
	DD	051eH
	DD	0a0H
	DD	0aH
	DD	01H
	DD	00H
	DD	00H
	DD	00H
	DD	051fH
	DD	0a0H
	DD	0bH
	DD	01H
	DD	00H
	DD	00H
	DD	00H
	DD	0520H
	DD	0a0H
	DD	0cH
	DD	01H
	DD	00H
	DD	00H
	DD	00H
	DD	0521H
	DD	0a0H
	DD	0dH
	DD	01H
	DD	00H
	DD	00H
	DD	00H
	DD	0522H
	DD	0a0H
	DD	0eH
	DD	01H
	DD	00H
	DD	00H
	DD	00H
	DD	0523H
	DD	0a0H
	DD	0fH
	DD	01H
	DD	00H
	DD	00H
	DD	00H
	DD	0514H
	DD	0a0H
	DD	00H
	DD	01H
	DD	00H
	DD	00H
	DD	00H
	DD	0525H
	DD	0a0H
	DD	02H
	DD	01H
	DD	00H
	DD	00H
	DD	00H
	DD	0526H
	DD	0a0H
	DD	04H
	DD	01H
	DD	00H
	DD	00H
	DD	00H
	DD	0527H
	DD	0a0H
	DD	06H
	DD	01H
	DD	00H
	DD	00H
	DD	00H
	DD	0528H
	DD	0a0H
	DD	08H
	DD	01H
	DD	00H
	DD	00H
	DD	00H
	DD	0529H
	DD	0a0H
	DD	0aH
	DD	01H
	DD	00H
	DD	00H
	DD	00H
	DD	052aH
	DD	0a0H
	DD	0cH
	DD	01H
	DD	00H
	DD	00H
	DD	00H
	DD	052bH
	DD	0a0H
	DD	0eH
	DD	01H
	DD	00H
	DD	00H
	DD	00H
	DD	0524H
	DD	0a1H
	DD	00H
	DD	01H
	DD	00H
	DD	00H
	DD	00H
	DD	052dH
	DD	0a1H
	DD	01H
	DD	01H
	DD	00H
	DD	00H
	DD	00H
	DD	052eH
	DD	0a1H
	DD	02H
	DD	01H
	DD	00H
	DD	00H
	DD	00H
	DD	052fH
	DD	0a1H
	DD	03H
	DD	01H
	DD	00H
	DD	00H
	DD	00H
	DD	0530H
	DD	0a1H
	DD	04H
	DD	01H
	DD	00H
	DD	00H
	DD	00H
	DD	0531H
	DD	0a1H
	DD	05H
	DD	01H
	DD	00H
	DD	00H
	DD	00H
	DD	0532H
	DD	0a1H
	DD	06H
	DD	01H
	DD	00H
	DD	00H
	DD	00H
	DD	0533H
	DD	0a1H
	DD	07H
	DD	01H
	DD	00H
	DD	00H
	DD	00H
	DD	0534H
	DD	0a1H
	DD	08H
	DD	01H
	DD	00H
	DD	00H
	DD	00H
	DD	0535H
	DD	0a1H
	DD	09H
	DD	01H
	DD	00H
	DD	00H
	DD	00H
	DD	0536H
	DD	0a1H
	DD	0aH
	DD	01H
	DD	00H
	DD	00H
	DD	00H
	DD	0537H
	DD	0a1H
	DD	0bH
	DD	01H
	DD	00H
	DD	00H
	DD	00H
	DD	0538H
	DD	0a1H
	DD	0cH
	DD	01H
	DD	00H
	DD	00H
	DD	00H
	DD	0539H
	DD	0a1H
	DD	0dH
	DD	01H
	DD	00H
	DD	00H
	DD	00H
	DD	053aH
	DD	0a1H
	DD	0eH
	DD	01H
	DD	00H
	DD	00H
	DD	00H
	DD	053bH
	DD	0a1H
	DD	0fH
	DD	01H
	DD	00H
	DD	00H
	DD	00H
	DD	052cH
	DD	0a1H
	DD	00H
	DD	01H
	DD	00H
	DD	00H
	DD	00H
	DD	053dH
	DD	0a1H
	DD	02H
	DD	01H
	DD	00H
	DD	00H
	DD	00H
	DD	053eH
	DD	0a1H
	DD	04H
	DD	01H
	DD	00H
	DD	00H
	DD	00H
	DD	053fH
	DD	0a1H
	DD	06H
	DD	01H
	DD	00H
	DD	00H
	DD	00H
	DD	0540H
	DD	0a1H
	DD	08H
	DD	01H
	DD	00H
	DD	00H
	DD	00H
	DD	0541H
	DD	0a1H
	DD	0aH
	DD	01H
	DD	00H
	DD	00H
	DD	00H
	DD	0542H
	DD	0a1H
	DD	0cH
	DD	01H
	DD	00H
	DD	00H
	DD	00H
	DD	0543H
	DD	0a1H
	DD	0eH
	DD	01H
	DD	00H
	DD	00H
	DD	00H
	DD	053cH
	DD	0a2H
	DD	00H
	DD	01H
	DD	00H
	DD	00H
	DD	00H
	DD	0545H
	DD	0a2H
	DD	01H
	DD	01H
	DD	00H
	DD	00H
	DD	00H
	DD	0546H
	DD	0a2H
	DD	02H
	DD	01H
	DD	00H
	DD	00H
	DD	00H
	DD	0547H
	DD	0a2H
	DD	03H
	DD	01H
	DD	00H
	DD	00H
	DD	00H
	DD	0548H
	DD	0a2H
	DD	04H
	DD	01H
	DD	00H
	DD	00H
	DD	00H
	DD	0549H
	DD	0a2H
	DD	05H
	DD	01H
	DD	00H
	DD	00H
	DD	00H
	DD	054aH
	DD	0a2H
	DD	06H
	DD	01H
	DD	00H
	DD	00H
	DD	00H
	DD	054bH
	DD	0a2H
	DD	07H
	DD	01H
	DD	00H
	DD	00H
	DD	00H
	DD	054cH
	DD	0a2H
	DD	08H
	DD	01H
	DD	00H
	DD	00H
	DD	00H
	DD	054dH
	DD	0a2H
	DD	09H
	DD	01H
	DD	00H
	DD	00H
	DD	00H
	DD	054eH
	DD	0a2H
	DD	0aH
	DD	01H
	DD	00H
	DD	00H
	DD	00H
	DD	054fH
	DD	0a2H
	DD	0bH
	DD	01H
	DD	00H
	DD	00H
	DD	00H
	DD	0550H
	DD	0a2H
	DD	0cH
	DD	01H
	DD	00H
	DD	00H
	DD	00H
	DD	0551H
	DD	0a2H
	DD	0dH
	DD	01H
	DD	00H
	DD	00H
	DD	00H
	DD	0552H
	DD	0a2H
	DD	0eH
	DD	01H
	DD	00H
	DD	00H
	DD	00H
	DD	0553H
	DD	0a2H
	DD	0fH
	DD	01H
	DD	00H
	DD	00H
	DD	00H
	DD	0544H
	DD	0a2H
	DD	00H
	DD	01H
	DD	00H
	DD	00H
	DD	00H
	DD	0555H
	DD	0a2H
	DD	02H
	DD	01H
	DD	00H
	DD	00H
	DD	00H
	DD	0556H
	DD	0a2H
	DD	04H
	DD	01H
	DD	00H
	DD	00H
	DD	00H
	DD	0557H
	DD	0a2H
	DD	06H
	DD	01H
	DD	00H
	DD	00H
	DD	00H
	DD	0558H
	DD	0a2H
	DD	08H
	DD	01H
	DD	00H
	DD	00H
	DD	00H
	DD	0559H
	DD	0a2H
	DD	0aH
	DD	01H
	DD	00H
	DD	00H
	DD	00H
	DD	055aH
	DD	0a2H
	DD	0cH
	DD	01H
	DD	00H
	DD	00H
	DD	00H
	DD	055bH
	DD	0a2H
	DD	0eH
	DD	01H
	DD	00H
	DD	00H
	DD	00H
	DD	0554H
	DD	097H
	DD	08000H
	DD	01H
	DD	FLAT:_A_ThrownRing
	DD	00H
	DD	00H
	DD	055dH
	DD	097H
	DD	08005H
	DD	01H
	DD	FLAT:_A_ThrownRing
	DD	00H
	DD	00H
	DD	055eH
	DD	097H
	DD	0800aH
	DD	01H
	DD	FLAT:_A_ThrownRing
	DD	00H
	DD	00H
	DD	055fH
	DD	097H
	DD	0800fH
	DD	01H
	DD	FLAT:_A_ThrownRing
	DD	00H
	DD	00H
	DD	0560H
	DD	097H
	DD	08014H
	DD	01H
	DD	FLAT:_A_ThrownRing
	DD	00H
	DD	00H
	DD	0561H
	DD	097H
	DD	08019H
	DD	01H
	DD	FLAT:_A_ThrownRing
	DD	00H
	DD	00H
	DD	0562H
	DD	097H
	DD	0801eH
	DD	01H
	DD	FLAT:_A_ThrownRing
	DD	00H
	DD	00H
	DD	055cH
	DD	0a3H
	DD	08000H
	DD	01H
	DD	FLAT:_A_ThrownRing
	DD	00H
	DD	00H
	DD	0564H
	DD	0a3H
	DD	08001H
	DD	01H
	DD	FLAT:_A_ThrownRing
	DD	00H
	DD	00H
	DD	0565H
	DD	0a3H
	DD	08002H
	DD	01H
	DD	FLAT:_A_ThrownRing
	DD	00H
	DD	00H
	DD	0566H
	DD	0a3H
	DD	08003H
	DD	01H
	DD	FLAT:_A_ThrownRing
	DD	00H
	DD	00H
	DD	0567H
	DD	0a3H
	DD	08004H
	DD	01H
	DD	FLAT:_A_ThrownRing
	DD	00H
	DD	00H
	DD	0568H
	DD	0a3H
	DD	08005H
	DD	01H
	DD	FLAT:_A_ThrownRing
	DD	00H
	DD	00H
	DD	0569H
	DD	0a3H
	DD	08006H
	DD	01H
	DD	FLAT:_A_ThrownRing
	DD	00H
	DD	00H
	DD	0563H
	DD	09aH
	DD	08000H
	DD	01H
	DD	FLAT:_A_ThrownRing
	DD	00H
	DD	00H
	DD	056bH
	DD	09aH
	DD	08005H
	DD	01H
	DD	FLAT:_A_ThrownRing
	DD	00H
	DD	00H
	DD	056cH
	DD	09aH
	DD	0800aH
	DD	01H
	DD	FLAT:_A_ThrownRing
	DD	00H
	DD	00H
	DD	056dH
	DD	09aH
	DD	0800fH
	DD	01H
	DD	FLAT:_A_ThrownRing
	DD	00H
	DD	00H
	DD	056eH
	DD	09aH
	DD	08014H
	DD	01H
	DD	FLAT:_A_ThrownRing
	DD	00H
	DD	00H
	DD	056fH
	DD	09aH
	DD	08019H
	DD	01H
	DD	FLAT:_A_ThrownRing
	DD	00H
	DD	00H
	DD	0570H
	DD	09aH
	DD	0801eH
	DD	01H
	DD	FLAT:_A_ThrownRing
	DD	00H
	DD	00H
	DD	056aH
	DD	0a4H
	DD	08000H
	DD	01H
	DD	FLAT:_A_GrenadeRing
	DD	00H
	DD	00H
	DD	0572H
	DD	0a4H
	DD	08001H
	DD	01H
	DD	FLAT:_A_GrenadeRing
	DD	00H
	DD	00H
	DD	0573H
	DD	0a4H
	DD	08002H
	DD	01H
	DD	FLAT:_A_GrenadeRing
	DD	00H
	DD	00H
	DD	0574H
	DD	0a4H
	DD	08003H
	DD	01H
	DD	FLAT:_A_GrenadeRing
	DD	00H
	DD	00H
	DD	0575H
	DD	0a4H
	DD	08004H
	DD	01H
	DD	FLAT:_A_GrenadeRing
	DD	00H
	DD	00H
	DD	0576H
	DD	0a4H
	DD	08005H
	DD	01H
	DD	FLAT:_A_GrenadeRing
	DD	00H
	DD	00H
	DD	0577H
	DD	0a4H
	DD	08006H
	DD	01H
	DD	FLAT:_A_GrenadeRing
	DD	00H
	DD	00H
	DD	0578H
	DD	0a4H
	DD	08007H
	DD	01H
	DD	FLAT:_A_GrenadeRing
	DD	00H
	DD	00H
	DD	0579H
	DD	0a4H
	DD	08008H
	DD	01H
	DD	FLAT:_A_GrenadeRing
	DD	00H
	DD	00H
	DD	057aH
	DD	0a4H
	DD	08009H
	DD	01H
	DD	FLAT:_A_GrenadeRing
	DD	00H
	DD	00H
	DD	057bH
	DD	0a4H
	DD	0800aH
	DD	01H
	DD	FLAT:_A_GrenadeRing
	DD	00H
	DD	00H
	DD	057cH
	DD	0a4H
	DD	0800bH
	DD	01H
	DD	FLAT:_A_GrenadeRing
	DD	00H
	DD	00H
	DD	057dH
	DD	0a4H
	DD	0800cH
	DD	01H
	DD	FLAT:_A_GrenadeRing
	DD	00H
	DD	00H
	DD	057eH
	DD	0a4H
	DD	0800dH
	DD	01H
	DD	FLAT:_A_GrenadeRing
	DD	00H
	DD	00H
	DD	057fH
	DD	0a4H
	DD	0800eH
	DD	01H
	DD	FLAT:_A_GrenadeRing
	DD	00H
	DD	00H
	DD	0580H
	DD	0a4H
	DD	0800fH
	DD	01H
	DD	FLAT:_A_GrenadeRing
	DD	00H
	DD	00H
	DD	0581H
	DD	0a4H
	DD	08010H
	DD	01H
	DD	FLAT:_A_GrenadeRing
	DD	00H
	DD	00H
	DD	0582H
	DD	0a4H
	DD	08011H
	DD	01H
	DD	FLAT:_A_GrenadeRing
	DD	00H
	DD	00H
	DD	0571H
	DD	0a5H
	DD	00H
	DD	01H
	DD	FLAT:_A_ThrownRing
	DD	00H
	DD	00H
	DD	0583H
	DD	0c1H
	DD	00H
	DD	01H
	DD	FLAT:_A_RingExplode
	DD	0cfH
	DD	00H
	DD	0669H
	DD	0a6H
	DD	08000H
	DD	05H
	DD	FLAT:_A_AttractChase
	DD	00H
	DD	00H
	DD	0586H
	DD	0a6H
	DD	08001H
	DD	05H
	DD	FLAT:_A_AttractChase
	DD	00H
	DD	00H
	DD	0587H
	DD	0a6H
	DD	08002H
	DD	05H
	DD	FLAT:_A_AttractChase
	DD	00H
	DD	00H
	DD	0585H
	DD	0a7H
	DD	08000H
	DD	05H
	DD	00H
	DD	00H
	DD	00H
	DD	0589H
	DD	0a7H
	DD	08001H
	DD	05H
	DD	00H
	DD	00H
	DD	00H
	DD	058aH
	DD	0a7H
	DD	08002H
	DD	05H
	DD	00H
	DD	00H
	DD	00H
	DD	058bH
	DD	0a7H
	DD	08003H
	DD	05H
	DD	00H
	DD	00H
	DD	00H
	DD	064fH
	DD	0a8H
	DD	00H
	DD	06H
	DD	FLAT:_A_Look
	DD	00H
	DD	00H
	DD	058dH
	DD	0a8H
	DD	01H
	DD	06H
	DD	FLAT:_A_Look
	DD	00H
	DD	00H
	DD	058cH
	DD	0a8H
	DD	00H
	DD	03H
	DD	FLAT:_A_Chase
	DD	00H
	DD	00H
	DD	058fH
	DD	0a8H
	DD	00H
	DD	03H
	DD	FLAT:_A_Chase
	DD	00H
	DD	00H
	DD	0590H
	DD	0a8H
	DD	01H
	DD	03H
	DD	FLAT:_A_Chase
	DD	00H
	DD	00H
	DD	0591H
	DD	0a8H
	DD	01H
	DD	03H
	DD	FLAT:_A_Chase
	DD	00H
	DD	00H
	DD	0592H
	DD	0a8H
	DD	00H
	DD	03H
	DD	FLAT:_A_Chase
	DD	00H
	DD	00H
	DD	0593H
	DD	0a8H
	DD	00H
	DD	03H
	DD	FLAT:_A_Chase
	DD	00H
	DD	00H
	DD	0594H
	DD	0a8H
	DD	01H
	DD	03H
	DD	FLAT:_A_Chase
	DD	00H
	DD	00H
	DD	0595H
	DD	0a8H
	DD	01H
	DD	03H
	DD	FLAT:_A_Chase
	DD	00H
	DD	00H
	DD	058eH
	DD	0a8H
	DD	02H
	DD	010H
	DD	FLAT:_A_Scream
	DD	00H
	DD	00H
	DD	064fH
	DD	0a9H
	DD	00H
	DD	06H
	DD	FLAT:_A_Look
	DD	00H
	DD	00H
	DD	0598H
	DD	0a9H
	DD	01H
	DD	06H
	DD	FLAT:_A_Look
	DD	00H
	DD	00H
	DD	0597H
	DD	0a9H
	DD	00H
	DD	03H
	DD	FLAT:_A_Chase
	DD	00H
	DD	00H
	DD	059aH
	DD	0a9H
	DD	00H
	DD	03H
	DD	FLAT:_A_Chase
	DD	00H
	DD	00H
	DD	059bH
	DD	0a9H
	DD	01H
	DD	03H
	DD	FLAT:_A_Chase
	DD	00H
	DD	00H
	DD	059cH
	DD	0a9H
	DD	01H
	DD	03H
	DD	FLAT:_A_Chase
	DD	00H
	DD	00H
	DD	059dH
	DD	0a9H
	DD	00H
	DD	03H
	DD	FLAT:_A_Chase
	DD	00H
	DD	00H
	DD	059eH
	DD	0a9H
	DD	00H
	DD	03H
	DD	FLAT:_A_Chase
	DD	00H
	DD	00H
	DD	059fH
	DD	0a9H
	DD	01H
	DD	03H
	DD	FLAT:_A_Chase
	DD	00H
	DD	00H
	DD	05a0H
	DD	0a9H
	DD	01H
	DD	03H
	DD	FLAT:_A_Chase
	DD	00H
	DD	00H
	DD	0599H
	DD	0a9H
	DD	02H
	DD	010H
	DD	FLAT:_A_Scream
	DD	00H
	DD	00H
	DD	064fH
	DD	0aaH
	DD	00H
	DD	03H
	DD	00H
	DD	00H
	DD	00H
	DD	05a3H
	DD	0aaH
	DD	01H
	DD	03H
	DD	00H
	DD	00H
	DD	00H
	DD	05a4H
	DD	0aaH
	DD	02H
	DD	03H
	DD	00H
	DD	00H
	DD	00H
	DD	05a5H
	DD	0aaH
	DD	03H
	DD	03H
	DD	00H
	DD	00H
	DD	00H
	DD	05a2H
	DD	0abH
	DD	08000H
	DD	03H
	DD	00H
	DD	00H
	DD	00H
	DD	05a7H
	DD	0abH
	DD	08001H
	DD	03H
	DD	00H
	DD	00H
	DD	00H
	DD	05a8H
	DD	0abH
	DD	08002H
	DD	03H
	DD	00H
	DD	00H
	DD	00H
	DD	05a9H
	DD	0abH
	DD	08003H
	DD	03H
	DD	00H
	DD	00H
	DD	00H
	DD	05a6H
	DD	0abH
	DD	08004H
	DD	03H
	DD	00H
	DD	00H
	DD	00H
	DD	05abH
	DD	0abH
	DD	08005H
	DD	03H
	DD	00H
	DD	00H
	DD	00H
	DD	05acH
	DD	0abH
	DD	08006H
	DD	03H
	DD	00H
	DD	00H
	DD	00H
	DD	00H
	DD	0acH
	DD	00H
	DD	0ffffffffH
	DD	00H
	DD	00H
	DD	00H
	DD	00H
	DD	0acH
	DD	00H
	DD	02H
	DD	00H
	DD	00H
	DD	00H
	DD	05afH
	DD	0acH
	DD	01H
	DD	02H
	DD	00H
	DD	00H
	DD	00H
	DD	05b0H
	DD	0acH
	DD	02H
	DD	02H
	DD	00H
	DD	00H
	DD	00H
	DD	05b1H
	DD	0acH
	DD	03H
	DD	02H
	DD	00H
	DD	00H
	DD	00H
	DD	05aeH
	DD	0adH
	DD	08000H
	DD	03H
	DD	FLAT:_A_FishJump
	DD	00H
	DD	00H
	DD	05b3H
	DD	0adH
	DD	08001H
	DD	03H
	DD	FLAT:_A_FishJump
	DD	00H
	DD	00H
	DD	05b4H
	DD	0adH
	DD	08002H
	DD	03H
	DD	FLAT:_A_FishJump
	DD	00H
	DD	00H
	DD	05b2H
	DD	0adH
	DD	08003H
	DD	03H
	DD	FLAT:_A_FishJump
	DD	00H
	DD	00H
	DD	05b6H
	DD	0adH
	DD	08004H
	DD	03H
	DD	FLAT:_A_FishJump
	DD	00H
	DD	00H
	DD	05b7H
	DD	0adH
	DD	08005H
	DD	03H
	DD	FLAT:_A_FishJump
	DD	00H
	DD	00H
	DD	05b5H
	DD	0aeH
	DD	00H
	DD	03H
	DD	00H
	DD	00H
	DD	00H
	DD	05b9H
	DD	0aeH
	DD	01H
	DD	03H
	DD	00H
	DD	00H
	DD	00H
	DD	05baH
	DD	0aeH
	DD	02H
	DD	03H
	DD	00H
	DD	00H
	DD	00H
	DD	05bbH
	DD	0aeH
	DD	03H
	DD	03H
	DD	00H
	DD	00H
	DD	00H
	DD	05b8H
	DD	0afH
	DD	00H
	DD	0ffffffffH
	DD	00H
	DD	00H
	DD	00H
	DD	00H
	DD	0afH
	DD	01H
	DD	018H
	DD	00H
	DD	00H
	DD	00H
	DD	05bcH
	DD	0b0H
	DD	00H
	DD	03H
	DD	00H
	DD	00H
	DD	00H
	DD	05bfH
	DD	0b0H
	DD	01H
	DD	03H
	DD	00H
	DD	00H
	DD	00H
	DD	05c0H
	DD	0b0H
	DD	02H
	DD	03H
	DD	00H
	DD	00H
	DD	00H
	DD	05beH
	DD	0b1H
	DD	00H
	DD	03H
	DD	00H
	DD	00H
	DD	00H
	DD	05c2H
	DD	0b1H
	DD	01H
	DD	03H
	DD	00H
	DD	00H
	DD	00H
	DD	05c3H
	DD	0b1H
	DD	02H
	DD	03H
	DD	00H
	DD	00H
	DD	00H
	DD	05c1H
	DD	0b2H
	DD	00H
	DD	0ffffffffH
	DD	00H
	DD	00H
	DD	00H
	DD	00H
	DD	0b3H
	DD	00H
	DD	0ffffffffH
	DD	00H
	DD	00H
	DD	00H
	DD	00H
	DD	0b4H
	DD	00H
	DD	0ffffffffH
	DD	00H
	DD	00H
	DD	00H
	DD	00H
	DD	0b5H
	DD	00H
	DD	0ffffffffH
	DD	00H
	DD	00H
	DD	00H
	DD	05c8H
	DD	0b5H
	DD	00H
	DD	0ffffffffH
	DD	00H
	DD	00H
	DD	00H
	DD	05c7H
	DD	0b6H
	DD	00H
	DD	01H
	DD	00H
	DD	00H
	DD	00H
	DD	05caH
	DD	0b6H
	DD	01H
	DD	01H
	DD	00H
	DD	00H
	DD	00H
	DD	05c9H
	DD	0b6H
	DD	02H
	DD	01H
	DD	00H
	DD	00H
	DD	00H
	DD	05ccH
	DD	0b6H
	DD	03H
	DD	01H
	DD	00H
	DD	00H
	DD	00H
	DD	05cbH
	DD	0b6H
	DD	04H
	DD	01H
	DD	00H
	DD	00H
	DD	00H
	DD	05ceH
	DD	0b6H
	DD	05H
	DD	01H
	DD	00H
	DD	00H
	DD	00H
	DD	05cdH
	DD	0b6H
	DD	06H
	DD	01H
	DD	00H
	DD	00H
	DD	00H
	DD	05d0H
	DD	0b6H
	DD	07H
	DD	01H
	DD	00H
	DD	00H
	DD	00H
	DD	05cfH
	DD	0b6H
	DD	08H
	DD	01H
	DD	00H
	DD	00H
	DD	00H
	DD	05d2H
	DD	0b6H
	DD	09H
	DD	01H
	DD	00H
	DD	00H
	DD	00H
	DD	05d1H
	DD	0b6H
	DD	0aH
	DD	01H
	DD	00H
	DD	00H
	DD	00H
	DD	05d4H
	DD	0b6H
	DD	0bH
	DD	01H
	DD	00H
	DD	00H
	DD	00H
	DD	05d3H
	DD	0b6H
	DD	0cH
	DD	01H
	DD	00H
	DD	00H
	DD	00H
	DD	05d6H
	DD	0b6H
	DD	0dH
	DD	01H
	DD	00H
	DD	00H
	DD	00H
	DD	05d5H
	DD	0b6H
	DD	0eH
	DD	01H
	DD	00H
	DD	00H
	DD	00H
	DD	05d8H
	DD	0b6H
	DD	0fH
	DD	01H
	DD	00H
	DD	00H
	DD	00H
	DD	05d7H
	DD	0b6H
	DD	010H
	DD	01H
	DD	00H
	DD	00H
	DD	00H
	DD	05daH
	DD	0b6H
	DD	011H
	DD	01H
	DD	00H
	DD	00H
	DD	00H
	DD	05d9H
	DD	0b7H
	DD	00H
	DD	01H
	DD	00H
	DD	00H
	DD	00H
	DD	05dcH
	DD	0b7H
	DD	01H
	DD	01H
	DD	00H
	DD	00H
	DD	00H
	DD	05ddH
	DD	0b7H
	DD	02H
	DD	01H
	DD	00H
	DD	00H
	DD	00H
	DD	05deH
	DD	0b7H
	DD	03H
	DD	01H
	DD	00H
	DD	00H
	DD	00H
	DD	05dfH
	DD	0b7H
	DD	04H
	DD	01H
	DD	00H
	DD	00H
	DD	00H
	DD	05e0H
	DD	0b7H
	DD	05H
	DD	01H
	DD	00H
	DD	00H
	DD	00H
	DD	05e1H
	DD	0b7H
	DD	06H
	DD	01H
	DD	00H
	DD	00H
	DD	00H
	DD	05e2H
	DD	0b7H
	DD	07H
	DD	01H
	DD	00H
	DD	00H
	DD	00H
	DD	05e3H
	DD	0b7H
	DD	08H
	DD	01H
	DD	00H
	DD	00H
	DD	00H
	DD	05e4H
	DD	0b7H
	DD	09H
	DD	01H
	DD	00H
	DD	00H
	DD	00H
	DD	05e5H
	DD	0b7H
	DD	0aH
	DD	01H
	DD	00H
	DD	00H
	DD	00H
	DD	05e6H
	DD	0b7H
	DD	0bH
	DD	01H
	DD	00H
	DD	00H
	DD	00H
	DD	05e7H
	DD	0b7H
	DD	0cH
	DD	01H
	DD	00H
	DD	00H
	DD	00H
	DD	05e8H
	DD	0b7H
	DD	0dH
	DD	01H
	DD	00H
	DD	00H
	DD	00H
	DD	05e9H
	DD	0b7H
	DD	0eH
	DD	01H
	DD	00H
	DD	00H
	DD	00H
	DD	05eaH
	DD	0b7H
	DD	0fH
	DD	01H
	DD	00H
	DD	00H
	DD	00H
	DD	05ebH
	DD	0b7H
	DD	00H
	DD	01H
	DD	00H
	DD	00H
	DD	00H
	DD	05ecH
	DD	0b7H
	DD	01H
	DD	01H
	DD	00H
	DD	00H
	DD	00H
	DD	05edH
	DD	0b7H
	DD	02H
	DD	01H
	DD	00H
	DD	00H
	DD	00H
	DD	05eeH
	DD	0b7H
	DD	03H
	DD	01H
	DD	00H
	DD	00H
	DD	00H
	DD	05efH
	DD	0b7H
	DD	04H
	DD	01H
	DD	00H
	DD	00H
	DD	00H
	DD	05f0H
	DD	0b7H
	DD	05H
	DD	01H
	DD	00H
	DD	00H
	DD	00H
	DD	05f1H
	DD	0b7H
	DD	06H
	DD	01H
	DD	00H
	DD	00H
	DD	00H
	DD	05f2H
	DD	0b7H
	DD	07H
	DD	01H
	DD	00H
	DD	00H
	DD	00H
	DD	05f3H
	DD	0b7H
	DD	08H
	DD	01H
	DD	00H
	DD	00H
	DD	00H
	DD	05f4H
	DD	0b7H
	DD	09H
	DD	01H
	DD	00H
	DD	00H
	DD	00H
	DD	05f5H
	DD	0b7H
	DD	0aH
	DD	01H
	DD	00H
	DD	00H
	DD	00H
	DD	05f6H
	DD	0b7H
	DD	0bH
	DD	01H
	DD	00H
	DD	00H
	DD	00H
	DD	05f7H
	DD	0b7H
	DD	0cH
	DD	01H
	DD	00H
	DD	00H
	DD	00H
	DD	05f8H
	DD	0b7H
	DD	0dH
	DD	01H
	DD	00H
	DD	00H
	DD	00H
	DD	05f9H
	DD	0b7H
	DD	0eH
	DD	01H
	DD	00H
	DD	00H
	DD	00H
	DD	05faH
	DD	0b7H
	DD	0fH
	DD	01H
	DD	00H
	DD	00H
	DD	00H
	DD	05c9H
	DD	0b8H
	DD	00H
	DD	02H
	DD	00H
	DD	00H
	DD	00H
	DD	05fcH
	DD	0b8H
	DD	01H
	DD	02H
	DD	00H
	DD	00H
	DD	00H
	DD	05fdH
	DD	0b8H
	DD	02H
	DD	02H
	DD	00H
	DD	00H
	DD	00H
	DD	05feH
	DD	0b8H
	DD	03H
	DD	02H
	DD	00H
	DD	00H
	DD	00H
	DD	05fbH
	DD	0b8H
	DD	04H
	DD	02H
	DD	00H
	DD	00H
	DD	00H
	DD	0600H
	DD	0b8H
	DD	05H
	DD	02H
	DD	00H
	DD	00H
	DD	00H
	DD	0601H
	DD	0b8H
	DD	06H
	DD	02H
	DD	00H
	DD	00H
	DD	00H
	DD	0602H
	DD	0b8H
	DD	07H
	DD	02H
	DD	00H
	DD	00H
	DD	00H
	DD	05ffH
	DD	0b8H
	DD	08H
	DD	02H
	DD	00H
	DD	00H
	DD	00H
	DD	0604H
	DD	0b8H
	DD	09H
	DD	02H
	DD	00H
	DD	00H
	DD	00H
	DD	0605H
	DD	0b8H
	DD	0aH
	DD	02H
	DD	00H
	DD	00H
	DD	00H
	DD	0606H
	DD	0b8H
	DD	0bH
	DD	02H
	DD	00H
	DD	00H
	DD	00H
	DD	0603H
	DD	0b8H
	DD	0cH
	DD	02H
	DD	00H
	DD	00H
	DD	00H
	DD	0608H
	DD	0b8H
	DD	0dH
	DD	02H
	DD	00H
	DD	00H
	DD	00H
	DD	0609H
	DD	0b8H
	DD	0eH
	DD	02H
	DD	00H
	DD	00H
	DD	00H
	DD	060aH
	DD	0b8H
	DD	0fH
	DD	02H
	DD	00H
	DD	00H
	DD	00H
	DD	0607H
	DD	0b8H
	DD	010H
	DD	02H
	DD	00H
	DD	00H
	DD	00H
	DD	060cH
	DD	0b8H
	DD	011H
	DD	02H
	DD	00H
	DD	00H
	DD	00H
	DD	060dH
	DD	0b8H
	DD	012H
	DD	02H
	DD	00H
	DD	00H
	DD	00H
	DD	060eH
	DD	0b8H
	DD	013H
	DD	02H
	DD	00H
	DD	00H
	DD	00H
	DD	060bH
	DD	0b8H
	DD	014H
	DD	02H
	DD	00H
	DD	00H
	DD	00H
	DD	0610H
	DD	0b8H
	DD	015H
	DD	02H
	DD	00H
	DD	00H
	DD	00H
	DD	0611H
	DD	0b8H
	DD	016H
	DD	02H
	DD	00H
	DD	00H
	DD	00H
	DD	0612H
	DD	0b8H
	DD	017H
	DD	02H
	DD	00H
	DD	00H
	DD	00H
	DD	060fH
	DD	0b8H
	DD	018H
	DD	02H
	DD	00H
	DD	00H
	DD	00H
	DD	0614H
	DD	0b8H
	DD	019H
	DD	02H
	DD	00H
	DD	00H
	DD	00H
	DD	0615H
	DD	0b8H
	DD	01aH
	DD	02H
	DD	00H
	DD	00H
	DD	00H
	DD	0616H
	DD	0b8H
	DD	01bH
	DD	02H
	DD	00H
	DD	00H
	DD	00H
	DD	0613H
	DD	0b8H
	DD	01cH
	DD	02H
	DD	00H
	DD	00H
	DD	00H
	DD	0618H
	DD	0b8H
	DD	01dH
	DD	02H
	DD	00H
	DD	00H
	DD	00H
	DD	0619H
	DD	0b8H
	DD	01eH
	DD	02H
	DD	00H
	DD	00H
	DD	00H
	DD	061aH
	DD	0b8H
	DD	01fH
	DD	02H
	DD	00H
	DD	00H
	DD	00H
	DD	0617H
	DD	0b8H
	DD	020H
	DD	02H
	DD	00H
	DD	00H
	DD	00H
	DD	061cH
	DD	0b8H
	DD	021H
	DD	02H
	DD	00H
	DD	00H
	DD	00H
	DD	061dH
	DD	0b8H
	DD	022H
	DD	02H
	DD	00H
	DD	00H
	DD	00H
	DD	061eH
	DD	0b8H
	DD	023H
	DD	02H
	DD	00H
	DD	00H
	DD	00H
	DD	061bH
	DD	0b9H
	DD	08000H
	DD	08cH
	DD	00H
	DD	00H
	DD	00H
	DD	0620H
	DD	0b9H
	DD	08001H
	DD	07H
	DD	00H
	DD	00H
	DD	00H
	DD	0621H
	DD	0b9H
	DD	08002H
	DD	07H
	DD	00H
	DD	00H
	DD	00H
	DD	0622H
	DD	0b9H
	DD	08003H
	DD	07H
	DD	00H
	DD	00H
	DD	00H
	DD	00H
	DD	0baH
	DD	00H
	DD	0ffffffffH
	DD	00H
	DD	00H
	DD	00H
	DD	00H
	DD	0baH
	DD	01H
	DD	0ffffffffH
	DD	00H
	DD	00H
	DD	00H
	DD	00H
	DD	0baH
	DD	02H
	DD	0ffffffffH
	DD	00H
	DD	00H
	DD	00H
	DD	00H
	DD	0baH
	DD	03H
	DD	0ffffffffH
	DD	00H
	DD	00H
	DD	00H
	DD	00H
	DD	0baH
	DD	04H
	DD	0ffffffffH
	DD	00H
	DD	00H
	DD	00H
	DD	00H
	DD	0baH
	DD	05H
	DD	0ffffffffH
	DD	00H
	DD	00H
	DD	00H
	DD	00H
	DD	0baH
	DD	06H
	DD	0ffffffffH
	DD	00H
	DD	00H
	DD	00H
	DD	00H
	DD	0baH
	DD	07H
	DD	0ffffffffH
	DD	00H
	DD	00H
	DD	00H
	DD	00H
	DD	0baH
	DD	08H
	DD	0ffffffffH
	DD	00H
	DD	00H
	DD	00H
	DD	00H
	DD	0baH
	DD	09H
	DD	0ffffffffH
	DD	00H
	DD	00H
	DD	00H
	DD	00H
	DD	0baH
	DD	0aH
	DD	0ffffffffH
	DD	00H
	DD	00H
	DD	00H
	DD	00H
	DD	0baH
	DD	0bH
	DD	0ffffffffH
	DD	00H
	DD	00H
	DD	00H
	DD	00H
	DD	0bbH
	DD	00H
	DD	0ffffffffH
	DD	00H
	DD	00H
	DD	00H
	DD	00H
	DD	0bcH
	DD	08000H
	DD	0ffffffffH
	DD	00H
	DD	00H
	DD	00H
	DD	00H
	DD	0bcH
	DD	08001H
	DD	0ffffffffH
	DD	00H
	DD	00H
	DD	00H
	DD	00H
	DD	0bcH
	DD	08002H
	DD	0ffffffffH
	DD	00H
	DD	00H
	DD	00H
	DD	00H
	DD	0bcH
	DD	08003H
	DD	0ffffffffH
	DD	00H
	DD	00H
	DD	00H
	DD	00H
	DD	0bcH
	DD	08004H
	DD	0ffffffffH
	DD	00H
	DD	00H
	DD	00H
	DD	00H
	DD	0bcH
	DD	08005H
	DD	0ffffffffH
	DD	00H
	DD	00H
	DD	00H
	DD	00H
	DD	0bcH
	DD	08006H
	DD	0ffffffffH
	DD	00H
	DD	00H
	DD	00H
	DD	00H
	DD	0bcH
	DD	08007H
	DD	0ffffffffH
	DD	00H
	DD	00H
	DD	00H
	DD	00H
	DD	0bcH
	DD	08008H
	DD	0ffffffffH
	DD	00H
	DD	00H
	DD	00H
	DD	00H
	DD	0bcH
	DD	08009H
	DD	0ffffffffH
	DD	00H
	DD	00H
	DD	00H
	DD	00H
	DD	0bcH
	DD	0800aH
	DD	0ffffffffH
	DD	00H
	DD	00H
	DD	00H
	DD	00H
	DD	0bcH
	DD	0800bH
	DD	0ffffffffH
	DD	00H
	DD	00H
	DD	00H
	DD	00H
	DD	0bcH
	DD	0800cH
	DD	0ffffffffH
	DD	00H
	DD	00H
	DD	00H
	DD	00H
	DD	0bcH
	DD	0800dH
	DD	0ffffffffH
	DD	00H
	DD	00H
	DD	00H
	DD	00H
	DD	0bcH
	DD	0800eH
	DD	0ffffffffH
	DD	00H
	DD	00H
	DD	00H
	DD	00H
	DD	0bcH
	DD	0800fH
	DD	0ffffffffH
	DD	00H
	DD	00H
	DD	00H
	DD	00H
	DD	0bcH
	DD	08010H
	DD	0ffffffffH
	DD	00H
	DD	00H
	DD	00H
	DD	00H
	DD	0bcH
	DD	08011H
	DD	0ffffffffH
	DD	00H
	DD	00H
	DD	00H
	DD	00H
	DD	0bcH
	DD	08012H
	DD	0ffffffffH
	DD	00H
	DD	00H
	DD	00H
	DD	00H
	DD	0bcH
	DD	08013H
	DD	0ffffffffH
	DD	00H
	DD	00H
	DD	00H
	DD	00H
	DD	030H
	DD	00H
	DD	0ffffffffH
	DD	00H
	DD	00H
	DD	00H
	DD	00H
	DD	0c1H
	DD	00H
	DD	0ffffffffH
	DD	00H
	DD	00H
	DD	00H
	DD	00H
	DD	0bdH
	DD	00H
	DD	0ffffffffH
	DD	00H
	DD	00H
	DD	00H
	DD	00H
	DD	0c1H
	DD	00H
	DD	0ffffffffH
	DD	00H
	DD	00H
	DD	00H
	DD	00H
	DD	0beH
	DD	00H
	DD	0ffffffffH
	DD	00H
	DD	00H
	DD	00H
	DD	00H
	DD	0c1H
	DD	00H
	DD	0ffffffffH
	DD	00H
	DD	00H
	DD	00H
	DD	00H
	DD	0bfH
	DD	00H
	DD	0ffffffffH
	DD	00H
	DD	00H
	DD	00H
	DD	00H
	DD	0c0H
	DD	00H
	DD	0ffffffffH
	DD	00H
	DD	00H
	DD	00H
	DD	00H
	DD	0c1H
	DD	00H
	DD	023H
	DD	00H
	DD	00H
	DD	00H
	DD	064dH
	DD	0c1H
	DD	00H
	DD	069H
	DD	FLAT:_A_Scream
	DD	00H
	DD	00H
	DD	064fH
	DD	0c1H
	DD	00H
	DD	0ffffffffH
	DD	00H
	DD	00H
	DD	00H
	DD	064eH
	DD	0c1H
	DD	00H
	DD	01H
	DD	00H
	DD	00H
	DD	00H
	DD	00H
	DD	0c2H
	DD	00H
	DD	04H
	DD	00H
	DD	00H
	DD	00H
	DD	0651H
	DD	0c2H
	DD	01H
	DD	04H
	DD	00H
	DD	00H
	DD	00H
	DD	0652H
	DD	0c2H
	DD	08002H
	DD	04H
	DD	00H
	DD	00H
	DD	00H
	DD	0653H
	DD	0c2H
	DD	03H
	DD	03H
	DD	00H
	DD	00H
	DD	00H
	DD	0654H
	DD	0c2H
	DD	04H
	DD	03H
	DD	00H
	DD	00H
	DD	00H
	DD	0655H
	DD	0c2H
	DD	05H
	DD	03H
	DD	00H
	DD	00H
	DD	00H
	DD	0656H
	DD	0c2H
	DD	06H
	DD	03H
	DD	00H
	DD	00H
	DD	00H
	DD	0657H
	DD	0c2H
	DD	07H
	DD	03H
	DD	00H
	DD	00H
	DD	00H
	DD	0658H
	DD	0c2H
	DD	08H
	DD	010H
	DD	00H
	DD	00H
	DD	00H
	DD	05c7H
	DD	0c3H
	DD	00H
	DD	01H
	DD	00H
	DD	00H
	DD	00H
	DD	065aH
	DD	0c3H
	DD	01H
	DD	01H
	DD	00H
	DD	00H
	DD	00H
	DD	065bH
	DD	0c3H
	DD	02H
	DD	01H
	DD	00H
	DD	00H
	DD	00H
	DD	065cH
	DD	0c3H
	DD	03H
	DD	01H
	DD	00H
	DD	00H
	DD	00H
	DD	065dH
	DD	0c3H
	DD	00H
	DD	01H
	DD	00H
	DD	00H
	DD	00H
	DD	065eH
	DD	0c3H
	DD	01H
	DD	01H
	DD	00H
	DD	00H
	DD	00H
	DD	065fH
	DD	0c3H
	DD	02H
	DD	01H
	DD	00H
	DD	00H
	DD	00H
	DD	0660H
	DD	0c3H
	DD	03H
	DD	01H
	DD	00H
	DD	00H
	DD	00H
	DD	0661H
	DD	0c3H
	DD	00H
	DD	01H
	DD	00H
	DD	00H
	DD	00H
	DD	0662H
	DD	0c3H
	DD	01H
	DD	01H
	DD	00H
	DD	00H
	DD	00H
	DD	0663H
	DD	0c3H
	DD	02H
	DD	01H
	DD	00H
	DD	00H
	DD	00H
	DD	0664H
	DD	0c3H
	DD	03H
	DD	01H
	DD	00H
	DD	00H
	DD	00H
	DD	0665H
	DD	0c3H
	DD	00H
	DD	01H
	DD	00H
	DD	00H
	DD	00H
	DD	0666H
	DD	0c3H
	DD	01H
	DD	01H
	DD	00H
	DD	00H
	DD	00H
	DD	0667H
	DD	0c3H
	DD	02H
	DD	01H
	DD	00H
	DD	00H
	DD	00H
	DD	0668H
	DD	0c3H
	DD	03H
	DD	01H
	DD	00H
	DD	00H
	DD	00H
	DD	00H
	DD	0c4H
	DD	00H
	DD	01H
	DD	FLAT:_A_Scream
	DD	00H
	DD	00H
	DD	066aH
	DD	0c4H
	DD	01H
	DD	05H
	DD	00H
	DD	00H
	DD	00H
	DD	066bH
	DD	0c4H
	DD	02H
	DD	05H
	DD	00H
	DD	00H
	DD	00H
	DD	066cH
	DD	0c4H
	DD	03H
	DD	05H
	DD	00H
	DD	00H
	DD	00H
	DD	064fH
	DD	0c5H
	DD	00H
	DD	03H
	DD	FLAT:_A_Scream
	DD	00H
	DD	00H
	DD	066eH
	DD	0c5H
	DD	01H
	DD	03H
	DD	00H
	DD	00H
	DD	00H
	DD	066fH
	DD	0c5H
	DD	02H
	DD	03H
	DD	00H
	DD	00H
	DD	00H
	DD	0670H
	DD	0c5H
	DD	03H
	DD	03H
	DD	00H
	DD	00H
	DD	00H
	DD	0671H
	DD	0c5H
	DD	04H
	DD	03H
	DD	00H
	DD	00H
	DD	00H
	DD	0672H
	DD	0c5H
	DD	05H
	DD	03H
	DD	00H
	DD	00H
	DD	00H
	DD	064fH
	DD	0c6H
	DD	00H
	DD	0ffffffffH
	DD	00H
	DD	00H
	DD	00H
	DD	064fH
	DD	0c7H
	DD	00H
	DD	0ffffffffH
	DD	00H
	DD	00H
	DD	00H
	DD	064fH
	DD	0c8H
	DD	00H
	DD	0ffffffffH
	DD	00H
	DD	00H
	DD	00H
	DD	064fH
	DD	0c9H
	DD	00H
	DD	0ffffffffH
	DD	00H
	DD	00H
	DD	00H
	DD	064fH
	DD	0caH
	DD	00H
	DD	0ffffffffH
	DD	00H
	DD	00H
	DD	00H
	DD	064fH
	DD	0cbH
	DD	00H
	DD	0ffffffffH
	DD	00H
	DD	00H
	DD	00H
	DD	064fH
	DD	0ccH
	DD	00H
	DD	0ffffffffH
	DD	00H
	DD	00H
	DD	00H
	DD	064fH
	DD	0cdH
	DD	00H
	DD	0ffffffffH
	DD	00H
	DD	00H
	DD	00H
	DD	064fH
	DD	0ceH
	DD	00H
	DD	0ffffffffH
	DD	00H
	DD	00H
	DD	00H
	DD	064fH
	DD	0cfH
	DD	00H
	DD	0ffffffffH
	DD	00H
	DD	00H
	DD	00H
	DD	064fH
	DD	0c1H
	DD	00H
	DD	01H
	DD	FLAT:_A_RockSpawn
	DD	00H
	DD	00H
	DD	067dH
	DD	0d0H
	DD	00H
	DD	02H
	DD	00H
	DD	00H
	DD	00H
	DD	067fH
	DD	0d0H
	DD	01H
	DD	02H
	DD	00H
	DD	00H
	DD	00H
	DD	0680H
	DD	0d0H
	DD	02H
	DD	02H
	DD	00H
	DD	00H
	DD	00H
	DD	0681H
	DD	0d0H
	DD	03H
	DD	02H
	DD	00H
	DD	00H
	DD	00H
	DD	0682H
	DD	0d0H
	DD	04H
	DD	02H
	DD	00H
	DD	00H
	DD	00H
	DD	067eH
	DD	0d1H
	DD	00H
	DD	02H
	DD	00H
	DD	00H
	DD	00H
	DD	0684H
	DD	0d1H
	DD	01H
	DD	02H
	DD	00H
	DD	00H
	DD	00H
	DD	0685H
	DD	0d1H
	DD	02H
	DD	02H
	DD	00H
	DD	00H
	DD	00H
	DD	0686H
	DD	0d1H
	DD	03H
	DD	02H
	DD	00H
	DD	00H
	DD	00H
	DD	0687H
	DD	0d1H
	DD	04H
	DD	02H
	DD	00H
	DD	00H
	DD	00H
	DD	0683H
	DD	0d2H
	DD	00H
	DD	02H
	DD	00H
	DD	00H
	DD	00H
	DD	0689H
	DD	0d2H
	DD	01H
	DD	02H
	DD	00H
	DD	00H
	DD	00H
	DD	068aH
	DD	0d2H
	DD	02H
	DD	02H
	DD	00H
	DD	00H
	DD	00H
	DD	068bH
	DD	0d2H
	DD	03H
	DD	02H
	DD	00H
	DD	00H
	DD	00H
	DD	068cH
	DD	0d2H
	DD	04H
	DD	02H
	DD	00H
	DD	00H
	DD	00H
	DD	0688H
	DD	0d3H
	DD	00H
	DD	02H
	DD	00H
	DD	00H
	DD	00H
	DD	068eH
	DD	0d3H
	DD	01H
	DD	02H
	DD	00H
	DD	00H
	DD	00H
	DD	068fH
	DD	0d3H
	DD	02H
	DD	02H
	DD	00H
	DD	00H
	DD	00H
	DD	0690H
	DD	0d3H
	DD	03H
	DD	02H
	DD	00H
	DD	00H
	DD	00H
	DD	0691H
	DD	0d3H
	DD	04H
	DD	02H
	DD	00H
	DD	00H
	DD	00H
	DD	068dH
	DD	0d4H
	DD	00H
	DD	02H
	DD	00H
	DD	00H
	DD	00H
	DD	0693H
	DD	0d4H
	DD	01H
	DD	02H
	DD	00H
	DD	00H
	DD	00H
	DD	0694H
	DD	0d4H
	DD	02H
	DD	02H
	DD	00H
	DD	00H
	DD	00H
	DD	0695H
	DD	0d4H
	DD	03H
	DD	02H
	DD	00H
	DD	00H
	DD	00H
	DD	0696H
	DD	0d4H
	DD	04H
	DD	02H
	DD	00H
	DD	00H
	DD	00H
	DD	0692H
	DD	0d5H
	DD	00H
	DD	02H
	DD	00H
	DD	00H
	DD	00H
	DD	0698H
	DD	0d5H
	DD	01H
	DD	02H
	DD	00H
	DD	00H
	DD	00H
	DD	0699H
	DD	0d5H
	DD	02H
	DD	02H
	DD	00H
	DD	00H
	DD	00H
	DD	069aH
	DD	0d5H
	DD	03H
	DD	02H
	DD	00H
	DD	00H
	DD	00H
	DD	069bH
	DD	0d5H
	DD	04H
	DD	02H
	DD	00H
	DD	00H
	DD	00H
	DD	0697H
	DD	0d6H
	DD	00H
	DD	02H
	DD	00H
	DD	00H
	DD	00H
	DD	069dH
	DD	0d6H
	DD	01H
	DD	02H
	DD	00H
	DD	00H
	DD	00H
	DD	069eH
	DD	0d6H
	DD	02H
	DD	02H
	DD	00H
	DD	00H
	DD	00H
	DD	069fH
	DD	0d6H
	DD	03H
	DD	02H
	DD	00H
	DD	00H
	DD	00H
	DD	06a0H
	DD	0d6H
	DD	04H
	DD	02H
	DD	00H
	DD	00H
	DD	00H
	DD	069cH
	DD	0d7H
	DD	00H
	DD	02H
	DD	00H
	DD	00H
	DD	00H
	DD	06a2H
	DD	0d7H
	DD	01H
	DD	02H
	DD	00H
	DD	00H
	DD	00H
	DD	06a3H
	DD	0d7H
	DD	02H
	DD	02H
	DD	00H
	DD	00H
	DD	00H
	DD	06a4H
	DD	0d7H
	DD	03H
	DD	02H
	DD	00H
	DD	00H
	DD	00H
	DD	06a5H
	DD	0d7H
	DD	04H
	DD	02H
	DD	00H
	DD	00H
	DD	00H
	DD	06a1H
	DD	0d8H
	DD	00H
	DD	02H
	DD	00H
	DD	00H
	DD	00H
	DD	06a7H
	DD	0d8H
	DD	01H
	DD	02H
	DD	00H
	DD	00H
	DD	00H
	DD	06a8H
	DD	0d8H
	DD	02H
	DD	02H
	DD	00H
	DD	00H
	DD	00H
	DD	06a9H
	DD	0d8H
	DD	03H
	DD	02H
	DD	00H
	DD	00H
	DD	00H
	DD	06aaH
	DD	0d8H
	DD	04H
	DD	02H
	DD	00H
	DD	00H
	DD	00H
	DD	06a6H
	DD	0d9H
	DD	00H
	DD	02H
	DD	00H
	DD	00H
	DD	00H
	DD	06acH
	DD	0d9H
	DD	01H
	DD	02H
	DD	00H
	DD	00H
	DD	00H
	DD	06adH
	DD	0d9H
	DD	02H
	DD	02H
	DD	00H
	DD	00H
	DD	00H
	DD	06aeH
	DD	0d9H
	DD	03H
	DD	02H
	DD	00H
	DD	00H
	DD	00H
	DD	06afH
	DD	0d9H
	DD	04H
	DD	02H
	DD	00H
	DD	00H
	DD	00H
	DD	06abH
	DD	0daH
	DD	00H
	DD	02H
	DD	00H
	DD	00H
	DD	00H
	DD	06b1H
	DD	0daH
	DD	01H
	DD	02H
	DD	00H
	DD	00H
	DD	00H
	DD	06b2H
	DD	0daH
	DD	02H
	DD	02H
	DD	00H
	DD	00H
	DD	00H
	DD	06b3H
	DD	0daH
	DD	03H
	DD	02H
	DD	00H
	DD	00H
	DD	00H
	DD	06b4H
	DD	0daH
	DD	04H
	DD	02H
	DD	00H
	DD	00H
	DD	00H
	DD	06b0H
	DD	0dbH
	DD	00H
	DD	02H
	DD	00H
	DD	00H
	DD	00H
	DD	06b6H
	DD	0dbH
	DD	01H
	DD	02H
	DD	00H
	DD	00H
	DD	00H
	DD	06b7H
	DD	0dbH
	DD	02H
	DD	02H
	DD	00H
	DD	00H
	DD	00H
	DD	06b8H
	DD	0dbH
	DD	03H
	DD	02H
	DD	00H
	DD	00H
	DD	00H
	DD	06b9H
	DD	0dbH
	DD	04H
	DD	02H
	DD	00H
	DD	00H
	DD	00H
	DD	06b5H
	DD	0dcH
	DD	00H
	DD	02H
	DD	00H
	DD	00H
	DD	00H
	DD	06bbH
	DD	0dcH
	DD	01H
	DD	02H
	DD	00H
	DD	00H
	DD	00H
	DD	06bcH
	DD	0dcH
	DD	02H
	DD	02H
	DD	00H
	DD	00H
	DD	00H
	DD	06bdH
	DD	0dcH
	DD	03H
	DD	02H
	DD	00H
	DD	00H
	DD	00H
	DD	06beH
	DD	0dcH
	DD	04H
	DD	02H
	DD	00H
	DD	00H
	DD	00H
	DD	06baH
	DD	0ddH
	DD	00H
	DD	02H
	DD	00H
	DD	00H
	DD	00H
	DD	06c0H
	DD	0ddH
	DD	01H
	DD	02H
	DD	00H
	DD	00H
	DD	00H
	DD	06c1H
	DD	0ddH
	DD	02H
	DD	02H
	DD	00H
	DD	00H
	DD	00H
	DD	06c2H
	DD	0ddH
	DD	03H
	DD	02H
	DD	00H
	DD	00H
	DD	00H
	DD	06c3H
	DD	0ddH
	DD	04H
	DD	02H
	DD	00H
	DD	00H
	DD	00H
	DD	06bfH
	DD	0deH
	DD	00H
	DD	02H
	DD	00H
	DD	00H
	DD	00H
	DD	06c5H
	DD	0deH
	DD	01H
	DD	02H
	DD	00H
	DD	00H
	DD	00H
	DD	06c6H
	DD	0deH
	DD	02H
	DD	02H
	DD	00H
	DD	00H
	DD	00H
	DD	06c7H
	DD	0deH
	DD	03H
	DD	02H
	DD	00H
	DD	00H
	DD	00H
	DD	06c8H
	DD	0deH
	DD	04H
	DD	02H
	DD	00H
	DD	00H
	DD	00H
	DD	06c4H
	DD	0dfH
	DD	00H
	DD	02H
	DD	00H
	DD	00H
	DD	00H
	DD	06caH
	DD	0dfH
	DD	01H
	DD	02H
	DD	00H
	DD	00H
	DD	00H
	DD	06cbH
	DD	0dfH
	DD	02H
	DD	02H
	DD	00H
	DD	00H
	DD	00H
	DD	06ccH
	DD	0dfH
	DD	03H
	DD	02H
	DD	00H
	DD	00H
	DD	00H
	DD	06cdH
	DD	0dfH
	DD	04H
	DD	02H
	DD	00H
	DD	00H
	DD	00H
	DD	06c9H
	DD	0e3H
	DD	00H
	DD	05H
	DD	FLAT:_A_Look
	DD	00H
	DD	00H
	DD	06ceH
	DD	0e3H
	DD	00H
	DD	03H
	DD	FLAT:_A_Chase
	DD	00H
	DD	00H
	DD	06d0H
	DD	0e3H
	DD	01H
	DD	03H
	DD	FLAT:_A_Chase
	DD	00H
	DD	00H
	DD	06d1H
	DD	0e3H
	DD	02H
	DD	03H
	DD	FLAT:_A_Chase
	DD	00H
	DD	00H
	DD	06cfH
	DD	0e4H
	DD	00H
	DD	02H
	DD	FLAT:_A_Look
	DD	00H
	DD	00H
	DD	06d3H
	DD	0e4H
	DD	01H
	DD	02H
	DD	FLAT:_A_Look
	DD	00H
	DD	00H
	DD	06d2H
	DD	0e4H
	DD	00H
	DD	02H
	DD	FLAT:_A_BuzzFly
	DD	00H
	DD	00H
	DD	06d5H
	DD	0e4H
	DD	01H
	DD	02H
	DD	FLAT:_A_BuzzFly
	DD	00H
	DD	00H
	DD	06d4H
	DD	0e5H
	DD	00H
	DD	02H
	DD	FLAT:_A_Look
	DD	00H
	DD	00H
	DD	06d6H
	DD	0e5H
	DD	01H
	DD	02H
	DD	FLAT:_A_BuzzFly
	DD	00H
	DD	00H
	DD	06d8H
	DD	0e5H
	DD	00H
	DD	02H
	DD	FLAT:_A_BuzzFly
	DD	00H
	DD	00H
	DD	06d7H
	DD	0e6H
	DD	00H
	DD	02H
	DD	FLAT:_A_Look
	DD	00H
	DD	00H
	DD	06d9H
	DD	0e6H
	DD	00H
	DD	02H
	DD	FLAT:_A_BuzzFly
	DD	00H
	DD	00H
	DD	06daH
	DD	0e7H
	DD	00H
	DD	02H
	DD	FLAT:_A_BunnyHop
	DD	07H
	DD	02H
	DD	06dcH
	DD	0e7H
	DD	01H
	DD	02H
	DD	FLAT:_A_BunnyHop
	DD	07H
	DD	0fffffffeH
	DD	06dbH
	DD	0e7H
	DD	00H
	DD	02H
	DD	FLAT:_A_BunnyHop
	DD	04H
	DD	02H
	DD	06deH
	DD	0e7H
	DD	01H
	DD	02H
	DD	FLAT:_A_BunnyHop
	DD	04H
	DD	0fffffffeH
	DD	06ddH
	DD	0e8H
	DD	00H
	DD	02H
	DD	FLAT:_A_BunnyHop
	DD	07H
	DD	00H
	DD	06dfH
	DD	0eaH
	DD	00H
	DD	0ffffffffH
	DD	00H
	DD	00H
	DD	00H
	DD	06e0H
	DD	0e9H
	DD	00H
	DD	010H
	DD	FLAT:_A_MoveAbsolute
	DD	00H
	DD	05H
	DD	06e2H
	DD	0e9H
	DD	00H
	DD	010H
	DD	FLAT:_A_MoveAbsolute
	DD	0b4H
	DD	05H
	DD	06e3H
	DD	0e9H
	DD	00H
	DD	01H
	DD	FLAT:_A_MoveAbsolute
	DD	00H
	DD	05H
	DD	06e4H
	DD	0e9H
	DD	00H
	DD	07H
	DD	FLAT:_A_MoveAbsolute
	DD	00H
	DD	05H
	DD	06e5H
	DD	0e9H
	DD	00H
	DD	08H
	DD	FLAT:_A_MoveAbsolute
	DD	0b4H
	DD	05H
	DD	06e1H
	DD	0ebH
	DD	00H
	DD	010H
	DD	FLAT:_A_MoveAbsolute
	DD	0b4H
	DD	05H
	DD	06e7H
	DD	0ebH
	DD	00H
	DD	010H
	DD	FLAT:_A_MoveAbsolute
	DD	00H
	DD	05H
	DD	06e6H
	DD	0ecH
	DD	00H
	DD	04H
	DD	FLAT:_A_MoveAbsolute
	DD	00H
	DD	07H
	DD	06e9H
	DD	0ecH
	DD	01H
	DD	04H
	DD	FLAT:_A_MoveAbsolute
	DD	00H
	DD	07H
	DD	06eaH
	DD	0ecH
	DD	00H
	DD	04H
	DD	FLAT:_A_MoveAbsolute
	DD	00H
	DD	07H
	DD	06ebH
	DD	0ecH
	DD	01H
	DD	04H
	DD	FLAT:_A_MoveAbsolute
	DD	0b4H
	DD	07H
	DD	06ecH
	DD	0ecH
	DD	00H
	DD	04H
	DD	FLAT:_A_MoveAbsolute
	DD	0b4H
	DD	07H
	DD	06edH
	DD	0ecH
	DD	01H
	DD	04H
	DD	FLAT:_A_MoveAbsolute
	DD	0b4H
	DD	07H
	DD	06e8H
	DD	0edH
	DD	00H
	DD	08H
	DD	FLAT:_A_MoveAbsolute
	DD	00H
	DD	05H
	DD	06efH
	DD	0edH
	DD	01H
	DD	08H
	DD	FLAT:_A_MoveAbsolute
	DD	00H
	DD	0fffffffbH
	DD	06eeH
	DD	0eeH
	DD	00H
	DD	08H
	DD	FLAT:_A_MoveAbsolute
	DD	00H
	DD	05H
	DD	06f1H
	DD	0eeH
	DD	01H
	DD	08H
	DD	FLAT:_A_MoveAbsolute
	DD	00H
	DD	0fffffffbH
	DD	06f0H
	DD	0efH
	DD	00H
	DD	023H
	DD	FLAT:_A_ZThrust
	DD	04H
	DD	010001H
	DD	06f3H
	DD	0efH
	DD	00H
	DD	023H
	DD	FLAT:_A_ZThrust
	DD	0fffffffcH
	DD	010001H
	DD	06f2H
	DD	0f0H
	DD	00H
	DD	04H
	DD	00H
	DD	00H
	DD	00H
	DD	06f5H
	DD	0f0H
	DD	01H
	DD	04H
	DD	00H
	DD	00H
	DD	00H
	DD	06f6H
	DD	0f0H
	DD	02H
	DD	04H
	DD	00H
	DD	00H
	DD	00H
	DD	06f4H
	DD	0f1H
	DD	00H
	DD	02H
	DD	FLAT:_A_MoveAbsolute
	DD	00H
	DD	07H
	DD	06f8H
	DD	0f1H
	DD	01H
	DD	02H
	DD	FLAT:_A_MoveAbsolute
	DD	00H
	DD	07H
	DD	06f9H
	DD	0f1H
	DD	00H
	DD	02H
	DD	FLAT:_A_MoveAbsolute
	DD	00H
	DD	07H
	DD	06faH
	DD	0f1H
	DD	01H
	DD	02H
	DD	FLAT:_A_MoveAbsolute
	DD	0b4H
	DD	07H
	DD	06fbH
	DD	0f1H
	DD	00H
	DD	02H
	DD	FLAT:_A_MoveAbsolute
	DD	0b4H
	DD	07H
	DD	06fcH
	DD	0f1H
	DD	01H
	DD	02H
	DD	FLAT:_A_MoveAbsolute
	DD	0b4H
	DD	07H
	DD	06f7H
	DD	0f2H
	DD	00H
	DD	02H
	DD	FLAT:_A_Look
	DD	00H
	DD	00H
	DD	06fdH
	DD	0f2H
	DD	00H
	DD	02H
	DD	FLAT:_A_BuzzFly
	DD	00H
	DD	00H
	DD	06feH
	DD	0c1H
	DD	00H
	DD	01H
	DD	00H
	DD	00H
	DD	00H
	DD	064fH
	ORG $+21504
_sprnames DB	'PLAY', 00H
	DB	'POSS', 00H
	DB	'SPOS', 00H
	DB	'FISH', 00H
	DB	'BUZZ', 00H
	DB	'RBUZ', 00H
	DB	'JETB', 00H
	DB	'JETG', 00H
	DB	'CCOM', 00H
	DB	'DETN', 00H
	DB	'SKIM', 00H
	DB	'TRET', 00H
	DB	'TURR', 00H
	DB	'SHRP', 00H
	DB	'JJAW', 00H
	DB	'SNLR', 00H
	DB	'VLTR', 00H
	DB	'PNTY', 00H
	DB	'ARCH', 00H
	DB	'CBFS', 00H
	DB	'SPSH', 00H
	DB	'ESHI', 00H
	DB	'GSNP', 00H
	DB	'MNUS', 00H
	DB	'BPLD', 00H
	DB	'JETF', 00H
	DB	'EGGM', 00H
	DB	'EGGN', 00H
	DB	'TNKA', 00H
	DB	'TNKB', 00H
	DB	'SPNK', 00H
	DB	'GOOP', 00H
	DB	'EGGO', 00H
	DB	'PRPL', 00H
	DB	'EGGP', 00H
	DB	'EGGQ', 00H
	DB	'EGGR', 00H
	DB	'BRAK', 00H
	DB	'BGOO', 00H
	DB	'BMSL', 00H
	DB	'EGGT', 00H
	DB	'METL', 00H
	DB	'RING', 00H
	DB	'TRNG', 00H
	DB	'EMMY', 00H
	DB	'TOKE', 00H
	DB	'RFLG', 00H
	DB	'BFLG', 00H
	DB	'NWNG', 00H
	DB	'EMBM', 00H
	DB	'CEMG', 00H
	DB	'EMER', 00H
	DB	'FANS', 00H
	DB	'BUBL', 00H
	DB	'SIGN', 00H
	DB	'STEM', 00H
	DB	'SPIK', 00H
	DB	'SFLM', 00H
	DB	'DSPK', 00H
	DB	'USPK', 00H
	DB	'STPT', 00H
	DB	'BMNE', 00H
	DB	'SRBX', 00H
	DB	'RRBX', 00H
	DB	'BRBX', 00H
	DB	'SHTV', 00H
	DB	'PINV', 00H
	DB	'YLTV', 00H
	DB	'BLTV', 00H
	DB	'BKTV', 00H
	DB	'WHTV', 00H
	DB	'GRTV', 00H
	DB	'EGGB', 00H
	DB	'MIXU', 00H
	DB	'RECY', 00H
	DB	'QUES', 00H
	DB	'GBTV', 00H
	DB	'MTEX', 00H
	DB	'MISL', 00H
	DB	'TORP', 00H
	DB	'MINE', 00H
	DB	'JBUL', 00H
	DB	'TRLS', 00H
	DB	'CBLL', 00H
	DB	'AROW', 00H
	DB	'FWR1', 00H
	DB	'FWR2', 00H
	DB	'FWR3', 00H
	DB	'FWR4', 00H
	DB	'BUS1', 00H
	DB	'BUS2', 00H
	DB	'THZP', 00H
	DB	'ALRM', 00H
	DB	'GARG', 00H
	DB	'SEWE', 00H
	DB	'DRIP', 00H
	DB	'CRL1', 00H
	DB	'CRL2', 00H
	DB	'CRL3', 00H
	DB	'BCRY', 00H
	DB	'CHAN', 00H
	DB	'FLAM', 00H
	DB	'ESTA', 00H
	DB	'SMCH', 00H
	DB	'BMCH', 00H
	DB	'SMCE', 00H
	DB	'BMCE', 00H
	DB	'BTBL', 00H
	DB	'STBL', 00H
	DB	'CACT', 00H
	DB	'FLME', 00H
	DB	'XMS1', 00H
	DB	'XMS2', 00H
	DB	'XMS3', 00H
	DB	'DBAL', 00H
	DB	'THOK', 00H
	DB	'SORB', 00H
	DB	'IVSP', 00H
	DB	'SSPK', 00H
	DB	'BIRD', 00H
	DB	'BUNY', 00H
	DB	'MOUS', 00H
	DB	'CHIC', 00H
	DB	'COWZ', 00H
	DB	'SPRY', 00H
	DB	'SPRR', 00H
	DB	'SPRB', 00H
	DB	'SUDY', 00H
	DB	'SUDR', 00H
	DB	'YSPR', 00H
	DB	'RSPR', 00H
	DB	'YSUD', 00H
	DB	'RSUD', 00H
	DB	'RAIN', 00H
	DB	'SNO1', 00H
	DB	'SPLH', 00H
	DB	'SPLA', 00H
	DB	'SMOK', 00H
	DB	'BUBP', 00H
	DB	'BUBO', 00H
	DB	'BUBN', 00H
	DB	'BUBM', 00H
	DB	'POPP', 00H
	DB	'TFOG', 00H
	DB	'SEED', 00H
	DB	'PRTL', 00H
	DB	'SCOR', 00H
	DB	'DRWN', 00H
	DB	'TTAG', 00H
	DB	'GFLG', 00H
	DB	'RRNG', 00H
	DB	'RNGB', 00H
	DB	'RNGR', 00H
	DB	'RNGA', 00H
	DB	'RNGE', 00H
	DB	'RNGS', 00H
	DB	'RNGG', 00H
	DB	'PIKB', 00H
	DB	'PIKR', 00H
	DB	'PIKA', 00H
	DB	'PIKE', 00H
	DB	'PIKS', 00H
	DB	'PIKG', 00H
	DB	'TAUT', 00H
	DB	'TGRE', 00H
	DB	'TSCR', 00H
	DB	'COIN', 00H
	DB	'CPRK', 00H
	DB	'GOOM', 00H
	DB	'BGOM', 00H
	DB	'FFWR', 00H
	DB	'FBLL', 00H
	DB	'SHLL', 00H
	DB	'PUMA', 00H
	DB	'HAMM', 00H
	DB	'KOOP', 00H
	DB	'BFLM', 00H
	DB	'MAXE', 00H
	DB	'MUS1', 00H
	DB	'MUS2', 00H
	DB	'TOAD', 00H
	DB	'NDRN', 00H
	DB	'SUPE', 00H
	DB	'SUPZ', 00H
	DB	'NDRL', 00H
	DB	'NSPK', 00H
	DB	'NBMP', 00H
	DB	'HOOP', 00H
	DB	'NSCR', 00H
	DB	'NPRA', 00H
	DB	'NPRB', 00H
	DB	'NPRC', 00H
	DB	'CAPS', 00H
	DB	'DISS', 00H
	DB	'SUPT', 00H
	DB	'SPRK', 00H
	DB	'XPLD', 00H
	DB	'WPLD', 00H
	DB	'STG0', 00H
	DB	'STG1', 00H
	DB	'STG2', 00H
	DB	'STG3', 00H
	DB	'STG4', 00H
	DB	'STG5', 00H
	DB	'STG6', 00H
	DB	'STG7', 00H
	DB	'STG8', 00H
	DB	'STG9', 00H
	DB	'ROIA', 00H
	DB	'ROIB', 00H
	DB	'ROIC', 00H
	DB	'ROID', 00H
	DB	'ROIE', 00H
	DB	'ROIF', 00H
	DB	'ROIG', 00H
	DB	'ROIH', 00H
	DB	'ROII', 00H
	DB	'ROIJ', 00H
	DB	'ROIK', 00H
	DB	'ROIL', 00H
	DB	'ROIM', 00H
	DB	'ROIN', 00H
	DB	'ROIO', 00H
	DB	'ROIP', 00H
	DB	'BBAL', 00H
	DB	'GWLG', 00H
	DB	'GWLR', 00H
	DB	'SRBA', 00H
	DB	'SRBB', 00H
	DB	'SRBC', 00H
	DB	'SRBD', 00H
	DB	'SRBE', 00H
	DB	'SRBF', 00H
	DB	'SRBG', 00H
	DB	'PXVI', 00H
	DB	'SRBH', 00H
	DB	'SRBI', 00H
	DB	'SRBJ', 00H
	DB	'SRBK', 00H
	DB	'SRBL', 00H
	DB	'SRBM', 00H
	DB	'SRBN', 00H
	DB	'SRBO', 00H
	ORG $+645
	ORG $+4
_mobjinfo DD	0ffffffffH
	DD	01H
	DD	01H
	DD	04H
	DD	00H
	DD	00H
	DD	0e4H
	DD	021H
	DD	09dH
	DD	00H
	DD	00H
	DD	0cH
	DD	022H
	DD	022H
	DD	00H
	DD	01H
	DD	0100000H
	DD	0380000H
	DD	00H
	DD	03e8H
	DD	09dH
	DD	00H
	DD	06H
	DD	09dH
	DD	064H
	DD	03fH
	DD	01H
	DD	041H
	DD	00H
	DD	020H
	DD	00H
	DD	00H
	DD	0c8H
	DD	00H
	DD	00H
	DD	00H
	DD	0669H
	DD	00H
	DD	077H
	DD	03H
	DD	0180000H
	DD	0200000H
	DD	00H
	DD	064H
	DD	00H
	DD	00H
	DD	01000005H
	DD	00H
	DD	065H
	DD	047H
	DD	01H
	DD	049H
	DD	00H
	DD	020H
	DD	00H
	DD	00H
	DD	0aaH
	DD	00H
	DD	00H
	DD	00H
	DD	0669H
	DD	00H
	DD	077H
	DD	03H
	DD	0180000H
	DD	0200000H
	DD	00H
	DD	064H
	DD	00H
	DD	00H
	DD	01000005H
	DD	00H
	DD	066H
	DD	050H
	DD	01H
	DD	04fH
	DD	00H
	DD	08H
	DD	00H
	DD	00H
	DD	00H
	DD	00H
	DD	051H
	DD	00H
	DD	0669H
	DD	052H
	DD	077H
	DD	00H
	DD	080000H
	DD	01c0000H
	DD	00H
	DD	064H
	DD	01H
	DD	00H
	DD	01000005H
	DD	00H
	DD	067H
	DD	053H
	DD	01H
	DD	055H
	DD	00H
	DD	02H
	DD	00H
	DD	00H
	DD	0c00H
	DD	00H
	DD	00H
	DD	00H
	DD	0669H
	DD	00H
	DD	077H
	DD	040000H
	DD	0140000H
	DD	0180000H
	DD	00H
	DD	064H
	DD	00H
	DD	00H
	DD	01000a05H
	DD	00H
	DD	068H
	DD	057H
	DD	01H
	DD	059H
	DD	00H
	DD	02H
	DD	00H
	DD	00H
	DD	0c00H
	DD	00H
	DD	00H
	DD	00H
	DD	0669H
	DD	00H
	DD	077H
	DD	080000H
	DD	0140000H
	DD	0180000H
	DD	00H
	DD	064H
	DD	00H
	DD	00H
	DD	01000a05H
	DD	00H
	DD	069H
	DD	05bH
	DD	01H
	DD	05dH
	DD	00H
	DD	020H
	DD	094H
	DD	00H
	DD	0c8H
	DD	00H
	DD	00H
	DD	00H
	DD	0669H
	DD	00H
	DD	077H
	DD	010000H
	DD	0140000H
	DD	0200000H
	DD	00H
	DD	064H
	DD	00H
	DD	00H
	DD	01000a05H
	DD	06eH
	DD	06aH
	DD	05fH
	DD	01H
	DD	061H
	DD	00H
	DD	05H
	DD	090H
	DD	00H
	DD	0c00H
	DD	00H
	DD	00H
	DD	063H
	DD	0669H
	DD	00H
	DD	077H
	DD	010000H
	DD	0140000H
	DD	0200000H
	DD	00H
	DD	064H
	DD	00H
	DD	00H
	DD	01000a05H
	DD	06fH
	DD	06bH
	DD	065H
	DD	02H
	DD	067H
	DD	00H
	DD	046H
	DD	00H
	DD	065H
	DD	0c8H
	DD	02eH
	DD	00H
	DD	00H
	DD	0669H
	DD	00H
	DD	077H
	DD	03H
	DD	0100000H
	DD	0200000H
	DD	00H
	DD	064H
	DD	00H
	DD	00H
	DD	01000805H
	DD	00H
	DD	06cH
	DD	069H
	DD	01H
	DD	06aH
	DD	00H
	DD	01H
	DD	02dH
	DD	00H
	DD	0c00H
	DD	00H
	DD	00H
	DD	00H
	DD	064fH
	DD	078H
	DD	077H
	DD	010000H
	DD	0140000H
	DD	0200000H
	DD	00H
	DD	064H
	DD	01H
	DD	00H
	DD	01010204H
	DD	0aaaaaabH
	DD	06dH
	DD	079H
	DD	01H
	DD	00H
	DD	00H
	DD	08H
	DD	094H
	DD	00H
	DD	00H
	DD	00H
	DD	07bH
	DD	00H
	DD	0669H
	DD	00H
	DD	077H
	DD	08H
	DD	0100000H
	DD	0180000H
	DD	00H
	DD	064H
	DD	00H
	DD	00H
	DD	01000205H
	DD	06eH
	DD	06eH
	DD	07dH
	DD	03e8H
	DD	00H
	DD	00H
	DD	08H
	DD	0e7H
	DD	00H
	DD	00H
	DD	045H
	DD	00H
	DD	00H
	DD	07fH
	DD	00H
	DD	077H
	DD	00H
	DD	0100000H
	DD	0200000H
	DD	00H
	DD	070H
	DD	01H
	DD	0e8H
	DD	010H
	DD	00H
	DD	06fH
	DD	088H
	DD	01H
	DD	089H
	DD	00H
	DD	00H
	DD	0e7H
	DD	00H
	DD	0400H
	DD	00H
	DD	00H
	DD	00H
	DD	0669H
	DD	00H
	DD	077H
	DD	00H
	DD	0c0000H
	DD	0400000H
	DD	00H
	DD	064H
	DD	00H
	DD	00H
	DD	01000005H
	DD	06fH
	DD	070H
	DD	09aH
	DD	01H
	DD	09bH
	DD	00H
	DD	069H
	DD	0cfH
	DD	00H
	DD	0afH
	DD	00H
	DD	00H
	DD	09cH
	DD	0669H
	DD	0a0H
	DD	077H
	DD	02H
	DD	0100000H
	DD	0180000H
	DD	00H
	DD	064H
	DD	00H
	DD	00H
	DD	01040005H
	DD	0a7H
	DD	071H
	DD	0a8H
	DD	01H
	DD	0b0H
	DD	00H
	DD	08cH
	DD	00H
	DD	00H
	DD	00H
	DD	00H
	DD	00H
	DD	00H
	DD	0669H
	DD	00H
	DD	077H
	DD	08H
	DD	0c0000H
	DD	0140000H
	DD	00H
	DD	064H
	DD	00H
	DD	00H
	DD	01004a05H
	DD	00H
	DD	072H
	DD	0c0H
	DD	01H
	DD	00H
	DD	00H
	DD	02H
	DD	00H
	DD	00H
	DD	00H
	DD	00H
	DD	00H
	DD	00H
	DD	0669H
	DD	00H
	DD	077H
	DD	010000H
	DD	0180000H
	DD	0300000H
	DD	00H
	DD	064H
	DD	00H
	DD	00H
	DD	01000a05H
	DD	00H
	DD	073H
	DD	0c1H
	DD	01H
	DD	0c2H
	DD	00H
	DD	02H
	DD	00H
	DD	00H
	DD	00H
	DD	00H
	DD	00H
	DD	0c6H
	DD	0669H
	DD	00H
	DD	077H
	DD	03H
	DD	0c0000H
	DD	0180000H
	DD	00H
	DD	023H
	DD	00H
	DD	0105H
	DD	01000205H
	DD	00H
	DD	074H
	DD	0cbH
	DD	01H
	DD	0cbH
	DD	00H
	DD	06H
	DD	00H
	DD	00H
	DD	04H
	DD	00H
	DD	00H
	DD	00H
	DD	0669H
	DD	00H
	DD	077H
	DD	050000H
	DD	040000H
	DD	080000H
	DD	00H
	DD	012H
	DD	080H
	DD	00H
	DD	01000a05H
	DD	00H
	DD	0ffffffffH
	DD	0ccH
	DD	03e8H
	DD	00H
	DD	00H
	DD	08H
	DD	00H
	DD	00H
	DD	00H
	DD	00H
	DD	00H
	DD	00H
	DD	064fH
	DD	00H
	DD	00H
	DD	040000H
	DD	040000H
	DD	080000H
	DD	00H
	DD	064H
	DD	01H
	DD	00H
	DD	0201H
	DD	00H
	DD	075H
	DD	0cdH
	DD	01H
	DD	0ceH
	DD	00H
	DD	023H
	DD	00H
	DD	0d0H
	DD	00H
	DD	00H
	DD	00H
	DD	0cfH
	DD	0669H
	DD	0d1H
	DD	077H
	DD	00H
	DD	0180000H
	DD	0200000H
	DD	00H
	DD	064H
	DD	00H
	DD	00H
	DD	01000005H
	DD	0d2H
	DD	076H
	DD	0d3H
	DD	01H
	DD	0d3H
	DD	00H
	DD	023H
	DD	00H
	DD	00H
	DD	00H
	DD	00H
	DD	0d9H
	DD	00H
	DD	0669H
	DD	00H
	DD	077H
	DD	03H
	DD	0200000H
	DD	0400000H
	DD	00H
	DD	064H
	DD	00H
	DD	00H
	DD	01000005H
	DD	00H
	DD	077H
	DD	0ddH
	DD	01H
	DD	0deH
	DD	00H
	DD	023H
	DD	00H
	DD	0e2H
	DD	00H
	DD	00H
	DD	0e5H
	DD	00H
	DD	0669H
	DD	00H
	DD	077H
	DD	06H
	DD	0100000H
	DD	0300000H
	DD	00H
	DD	064H
	DD	00H
	DD	00H
	DD	00H
	DD	00H
	DD	0ffffffffH
	DD	0e9H
	DD	01H
	DD	0e9H
	DD	00H
	DD	023H
	DD	00H
	DD	00H
	DD	00H
	DD	00H
	DD	00H
	DD	00H
	DD	0669H
	DD	00H
	DD	077H
	DD	03H
	DD	0180000H
	DD	0800000H
	DD	00H
	DD	064H
	DD	00H
	DD	00H
	DD	0201H
	DD	00H
	DD	078H
	DD	0eaH
	DD	01H
	DD	0ebH
	DD	00H
	DD	020H
	DD	00H
	DD	00H
	DD	0c8H
	DD	00H
	DD	00H
	DD	00H
	DD	0669H
	DD	00H
	DD	077H
	DD	03H
	DD	0180000H
	DD	0180000H
	DD	00H
	DD	064H
	DD	00H
	DD	00H
	DD	01000005H
	DD	00H
	DD	079H
	DD	0efH
	DD	01H
	DD	0f0H
	DD	00H
	DD	020H
	DD	0c0H
	DD	00H
	DD	0c8H
	DD	00H
	DD	0faH
	DD	0f1H
	DD	0669H
	DD	00H
	DD	077H
	DD	0cH
	DD	0180000H
	DD	0200000H
	DD	00H
	DD	064H
	DD	00H
	DD	0106H
	DD	01000005H
	DD	0f2H
	DD	0ffffffffH
	DD	0102H
	DD	03e8H
	DD	00H
	DD	00H
	DD	08H
	DD	00H
	DD	00H
	DD	00H
	DD	00H
	DD	00H
	DD	00H
	DD	00H
	DD	00H
	DD	00H
	DD	01H
	DD	080000H
	DD	0100000H
	DD	00H
	DD	04H
	DD	00H
	DD	00H
	DD	01210H
	DD	00H
	DD	0122H
	DD	00H
	DD	03e8H
	DD	00H
	DD	00H
	DD	08H
	DD	00H
	DD	00H
	DD	00H
	DD	00H
	DD	00H
	DD	00H
	DD	00H
	DD	00H
	DD	00H
	DD	01H
	DD	020000H
	DD	040000H
	DD	00H
	DD	04H
	DD	00H
	DD	00H
	DD	0218H
	DD	00H
	DD	0123H
	DD	00H
	DD	03e8H
	DD	00H
	DD	00H
	DD	08H
	DD	00H
	DD	00H
	DD	00H
	DD	00H
	DD	00H
	DD	00H
	DD	00H
	DD	00H
	DD	00H
	DD	01H
	DD	080000H
	DD	0100000H
	DD	00H
	DD	04H
	DD	00H
	DD	00H
	DD	018H
	DD	00H
	DD	0124H
	DD	00H
	DD	03e8H
	DD	00H
	DD	00H
	DD	08H
	DD	00H
	DD	00H
	DD	00H
	DD	00H
	DD	00H
	DD	00H
	DD	00H
	DD	00H
	DD	00H
	DD	01H
	DD	020000H
	DD	040000H
	DD	00H
	DD	04H
	DD	00H
	DD	00H
	DD	0218H
	DD	00H
	DD	0c8H
	DD	010bH
	DD	08H
	DD	010bH
	DD	00H
	DD	08H
	DD	00H
	DD	0122H
	DD	09dH
	DD	02eH
	DD	010cH
	DD	0116H
	DD	0124H
	DD	0132H
	DD	02cH
	DD	04H
	DD	0180000H
	DD	0340000H
	DD	00H
	DD	00H
	DD	02H
	DD	0e3H
	DD	04285H
	DD	0120H
	DD	0ffffffffH
	DD	0109H
	DD	03e8H
	DD	00H
	DD	00H
	DD	08H
	DD	00H
	DD	00H
	DD	00H
	DD	00H
	DD	00H
	DD	00H
	DD	00H
	DD	00H
	DD	00H
	DD	01H
	DD	040000H
	DD	040000H
	DD	00H
	DD	04H
	DD	00H
	DD	00H
	DD	0801210H
	DD	00H
	DD	0c9H
	DD	0134H
	DD	08H
	DD	0134H
	DD	00H
	DD	08H
	DD	04cH
	DD	0139H
	DD	023H
	DD	02eH
	DD	0134H
	DD	0134H
	DD	013bH
	DD	0149H
	DD	02cH
	DD	020000H
	DD	0180000H
	DD	0300000H
	DD	00H
	DD	00H
	DD	02H
	DD	076H
	DD	0285H
	DD	0135H
	DD	0ffffffffH
	DD	014bH
	DD	01H
	DD	00H
	DD	00H
	DD	08H
	DD	00H
	DD	00H
	DD	00H
	DD	00H
	DD	00H
	DD	00H
	DD	064fH
	DD	00H
	DD	00H
	DD	00H
	DD	080000H
	DD	0400000H
	DD	00H
	DD	064H
	DD	01H
	DD	00H
	DD	010H
	DD	00H
	DD	0ffffffffH
	DD	014cH
	DD	01H
	DD	00H
	DD	00H
	DD	08H
	DD	00H
	DD	00H
	DD	00H
	DD	00H
	DD	00H
	DD	00H
	DD	064fH
	DD	00H
	DD	00H
	DD	00H
	DD	080000H
	DD	0400000H
	DD	00H
	DD	064H
	DD	01H
	DD	00H
	DD	010H
	DD	00H
	DD	0ffffffffH
	DD	014dH
	DD	01H
	DD	00H
	DD	00H
	DD	08H
	DD	00H
	DD	00H
	DD	00H
	DD	00H
	DD	00H
	DD	00H
	DD	064fH
	DD	00H
	DD	00H
	DD	00H
	DD	080000H
	DD	0180000H
	DD	00H
	DD	064H
	DD	01H
	DD	00H
	DD	010H
	DD	00H
	DD	0ffffffffH
	DD	014eH
	DD	03e8H
	DD	00H
	DD	00H
	DD	08H
	DD	00H
	DD	00H
	DD	00H
	DD	04aH
	DD	0150H
	DD	00H
	DD	00H
	DD	00H
	DD	00H
	DD	01H
	DD	040000H
	DD	040000H
	DD	00H
	DD	04H
	DD	00H
	DD	00H
	DD	01H
	DD	00H
	DD	0caH
	DD	0151H
	DD	08H
	DD	0151H
	DD	00H
	DD	00H
	DD	00H
	DD	016eH
	DD	025H
	DD	02eH
	DD	0151H
	DD	0152H
	DD	0170H
	DD	017eH
	DD	02cH
	DD	080000H
	DD	0200000H
	DD	0500000H
	DD	00H
	DD	00H
	DD	02H
	DD	0e3H
	DD	0285H
	DD	016dH
	DD	0ffffffffH
	DD	0180H
	DD	03e8H
	DD	00H
	DD	00H
	DD	08H
	DD	00H
	DD	00H
	DD	00H
	DD	00H
	DD	00H
	DD	00H
	DD	00H
	DD	00H
	DD	00H
	DD	01H
	DD	040000H
	DD	040000H
	DD	00H
	DD	04H
	DD	00H
	DD	00H
	DD	0801210H
	DD	00H
	DD	0cbH
	DD	0187H
	DD	08H
	DD	0187H
	DD	00H
	DD	08H
	DD	00H
	DD	0187H
	DD	09dH
	DD	02eH
	DD	0187H
	DD	0187H
	DD	0187H
	DD	0187H
	DD	02cH
	DD	04H
	DD	0180000H
	DD	0340000H
	DD	00H
	DD	00H
	DD	02H
	DD	0e3H
	DD	0285H
	DD	0187H
	DD	0ceH
	DD	0188H
	DD	08H
	DD	018aH
	DD	00H
	DD	0118H
	DD	00H
	DD	0192H
	DD	00H
	DD	00H
	DD	01b5H
	DD	01beH
	DD	01b9H
	DD	01c1H
	DD	00H
	DD	01H
	DD	0300000H
	DD	0a00000H
	DD	00H
	DD	00H
	DD	01H
	DD	00H
	DD	081H
	DD	01c2H
	DD	0ffffffffH
	DD	01c7H
	DD	08H
	DD	064fH
	DD	00H
	DD	00H
	DD	00H
	DD	064fH
	DD	00H
	DD	00H
	DD	064fH
	DD	064fH
	DD	064fH
	DD	064fH
	DD	00H
	DD	01H
	DD	0300000H
	DD	0200000H
	DD	00H
	DD	00H
	DD	01H
	DD	00H
	DD	0242H
	DD	064fH
	DD	0ffffffffH
	DD	01c8H
	DD	03e8H
	DD	00H
	DD	00H
	DD	08H
	DD	00H
	DD	00H
	DD	00H
	DD	00H
	DD	00H
	DD	00H
	DD	01caH
	DD	00H
	DD	04aH
	DD	01e0000H
	DD	0b0000H
	DD	080000H
	DD	00H
	DD	064H
	DD	00H
	DD	00H
	DD	010210H
	DD	00H
	DD	0ffffffffH
	DD	01cfH
	DD	03e8H
	DD	00H
	DD	00H
	DD	08H
	DD	00H
	DD	00H
	DD	00H
	DD	00H
	DD	00H
	DD	00H
	DD	0102H
	DD	00H
	DD	0120H
	DD	0a0000H
	DD	0180000H
	DD	0180000H
	DD	00H
	DD	064H
	DD	01H
	DD	00H
	DD	010210H
	DD	00H
	DD	012cH
	DD	01d0H
	DD	03e8H
	DD	00H
	DD	00H
	DD	02cH
	DD	00H
	DD	00H
	DD	00H
	DD	00H
	DD	00H
	DD	00H
	DD	00H
	DD	00H
	DD	00H
	DD	03c0000H
	DD	0100000H
	DD	0180000H
	DD	00H
	DD	064H
	DD	00H
	DD	00H
	DD	0a01H
	DD	00H
	DD	0ffffffffH
	DD	01d0H
	DD	03e8H
	DD	00H
	DD	00H
	DD	02cH
	DD	00H
	DD	00H
	DD	02bH
	DD	00H
	DD	00H
	DD	00H
	DD	00H
	DD	00H
	DD	00H
	DD	03c0000H
	DD	0100000H
	DD	0180000H
	DD	00H
	DD	064H
	DD	00H
	DD	00H
	DD	0801H
	DD	00H
	DD	0ffffffffH
	DD	01e8H
	DD	03e8H
	DD	00H
	DD	00H
	DD	02fH
	DD	00H
	DD	00H
	DD	00H
	DD	00H
	DD	00H
	DD	00H
	DD	00H
	DD	00H
	DD	00H
	DD	03c0000H
	DD	0100000H
	DD	0180000H
	DD	00H
	DD	064H
	DD	00H
	DD	00H
	DD	0a01H
	DD	00H
	DD	0ffffffffH
	DD	01e9H
	DD	03e8H
	DD	00H
	DD	00H
	DD	08H
	DD	00H
	DD	00H
	DD	02H
	DD	00H
	DD	00H
	DD	00H
	DD	064fH
	DD	00H
	DD	00H
	DD	00H
	DD	020000H
	DD	040000H
	DD	00H
	DD	064H
	DD	00H
	DD	00H
	DD	02000200H
	DD	00H
	DD	0ffffffffH
	DD	01e8H
	DD	03e8H
	DD	00H
	DD	00H
	DD	02fH
	DD	00H
	DD	00H
	DD	02dH
	DD	00H
	DD	00H
	DD	00H
	DD	00H
	DD	00H
	DD	00H
	DD	03c0000H
	DD	0100000H
	DD	0180000H
	DD	00H
	DD	064H
	DD	00H
	DD	00H
	DD	0801H
	DD	00H
	DD	0134H
	DD	01f0H
	DD	03e8H
	DD	00H
	DD	00H
	DD	02cH
	DD	00H
	DD	00H
	DD	00H
	DD	00H
	DD	00H
	DD	00H
	DD	00H
	DD	00H
	DD	00H
	DD	03c0000H
	DD	0100000H
	DD	0180000H
	DD	00H
	DD	064H
	DD	00H
	DD	00H
	DD	0a01H
	DD	00H
	DD	0135H
	DD	01f0H
	DD	03e8H
	DD	00H
	DD	00H
	DD	02cH
	DD	00H
	DD	00H
	DD	00H
	DD	00H
	DD	00H
	DD	00H
	DD	00H
	DD	00H
	DD	00H
	DD	03c0000H
	DD	0100000H
	DD	0180000H
	DD	00H
	DD	064H
	DD	00H
	DD	00H
	DD	0a01H
	DD	00H
	DD	0138H
	DD	0208H
	DD	03e8H
	DD	00H
	DD	00H
	DD	08H
	DD	00H
	DD	00H
	DD	00H
	DD	00H
	DD	00H
	DD	00H
	DD	00H
	DD	00H
	DD	00H
	DD	00H
	DD	080000H
	DD	0100000H
	DD	00H
	DD	064H
	DD	00H
	DD	00H
	DD	0201H
	DD	00H
	DD	0ffffffffH
	DD	020fH
	DD	03e8H
	DD	00H
	DD	00H
	DD	08H
	DD	00H
	DD	00H
	DD	00H
	DD	00H
	DD	00H
	DD	00H
	DD	00H
	DD	00H
	DD	00H
	DD	08H
	DD	080000H
	DD	0100000H
	DD	00H
	DD	010H
	DD	00H
	DD	00H
	DD	0201H
	DD	00H
	DD	0136H
	DD	0210H
	DD	03e8H
	DD	00H
	DD	00H
	DD	08H
	DD	00H
	DD	00H
	DD	00H
	DD	00H
	DD	00H
	DD	00H
	DD	00H
	DD	00H
	DD	00H
	DD	08H
	DD	0180000H
	DD	0400000H
	DD	00H
	DD	010H
	DD	00H
	DD	00H
	DD	01H
	DD	00H
	DD	0137H
	DD	0211H
	DD	03e8H
	DD	00H
	DD	00H
	DD	08H
	DD	00H
	DD	00H
	DD	00H
	DD	00H
	DD	00H
	DD	00H
	DD	00H
	DD	00H
	DD	00H
	DD	08H
	DD	0180000H
	DD	0400000H
	DD	00H
	DD	010H
	DD	00H
	DD	00H
	DD	01H
	DD	00H
	DD	0ffffffffH
	DD	0212H
	DD	03e8H
	DD	00H
	DD	00H
	DD	08H
	DD	00H
	DD	00H
	DD	00H
	DD	00H
	DD	00H
	DD	00H
	DD	00H
	DD	00H
	DD	00H
	DD	01H
	DD	080000H
	DD	0100000H
	DD	00H
	DD	04H
	DD	00H
	DD	00H
	DD	0201H
	DD	00H
	DD	0139H
	DD	0213H
	DD	03e8H
	DD	00H
	DD	00H
	DD	08H
	DD	00H
	DD	00H
	DD	00H
	DD	00H
	DD	00H
	DD	00H
	DD	00H
	DD	00H
	DD	029H
	DD	01H
	DD	0100000H
	DD	0200000H
	DD	00H
	DD	010H
	DD	00H
	DD	00H
	DD	0201H
	DD	00H
	DD	013aH
	DD	0214H
	DD	03e8H
	DD	00H
	DD	00H
	DD	08H
	DD	00H
	DD	00H
	DD	00H
	DD	00H
	DD	00H
	DD	00H
	DD	00H
	DD	00H
	DD	029H
	DD	02H
	DD	0100000H
	DD	0200000H
	DD	00H
	DD	010H
	DD	00H
	DD	00H
	DD	0201H
	DD	00H
	DD	013bH
	DD	0215H
	DD	03e8H
	DD	00H
	DD	00H
	DD	08H
	DD	00H
	DD	00H
	DD	00H
	DD	00H
	DD	00H
	DD	00H
	DD	00H
	DD	00H
	DD	029H
	DD	04H
	DD	0100000H
	DD	0200000H
	DD	00H
	DD	010H
	DD	00H
	DD	00H
	DD	0201H
	DD	00H
	DD	013cH
	DD	0216H
	DD	03e8H
	DD	00H
	DD	00H
	DD	08H
	DD	00H
	DD	00H
	DD	00H
	DD	00H
	DD	00H
	DD	00H
	DD	00H
	DD	00H
	DD	029H
	DD	08H
	DD	0100000H
	DD	0200000H
	DD	00H
	DD	010H
	DD	00H
	DD	00H
	DD	0201H
	DD	00H
	DD	013dH
	DD	0217H
	DD	03e8H
	DD	00H
	DD	00H
	DD	08H
	DD	00H
	DD	00H
	DD	00H
	DD	00H
	DD	00H
	DD	00H
	DD	00H
	DD	00H
	DD	029H
	DD	010H
	DD	0100000H
	DD	0200000H
	DD	00H
	DD	010H
	DD	00H
	DD	00H
	DD	0201H
	DD	00H
	DD	013eH
	DD	0218H
	DD	03e8H
	DD	00H
	DD	00H
	DD	08H
	DD	00H
	DD	00H
	DD	00H
	DD	00H
	DD	00H
	DD	00H
	DD	00H
	DD	00H
	DD	029H
	DD	020H
	DD	0100000H
	DD	0200000H
	DD	00H
	DD	010H
	DD	00H
	DD	00H
	DD	0201H
	DD	00H
	DD	013fH
	DD	0219H
	DD	03e8H
	DD	00H
	DD	00H
	DD	08H
	DD	00H
	DD	00H
	DD	00H
	DD	00H
	DD	00H
	DD	00H
	DD	00H
	DD	00H
	DD	029H
	DD	040H
	DD	0100000H
	DD	0200000H
	DD	00H
	DD	010H
	DD	00H
	DD	00H
	DD	0201H
	DD	00H
	DD	0140H
	DD	021aH
	DD	03e8H
	DD	00H
	DD	00H
	DD	08H
	DD	00H
	DD	00H
	DD	00H
	DD	00H
	DD	00H
	DD	00H
	DD	00H
	DD	00H
	DD	029H
	DD	08H
	DD	0100000H
	DD	0200000H
	DD	00H
	DD	04H
	DD	00H
	DD	00H
	DD	0201H
	DD	00H
	DD	0143H
	DD	064eH
	DD	03e8H
	DD	00H
	DD	00H
	DD	00H
	DD	00H
	DD	00H
	DD	00H
	DD	00H
	DD	00H
	DD	00H
	DD	00H
	DD	00H
	DD	00H
	DD	00H
	DD	08H
	DD	08H
	DD	00H
	DD	0aH
	DD	00H
	DD	00H
	DD	0218H
	DD	00H
	DD	0ffffffffH
	DD	0213H
	DD	03e8H
	DD	00H
	DD	00H
	DD	00H
	DD	00H
	DD	00H
	DD	00H
	DD	00H
	DD	00H
	DD	00H
	DD	00H
	DD	00H
	DD	029H
	DD	03c0000H
	DD	0100000H
	DD	0300000H
	DD	00H
	DD	064H
	DD	00H
	DD	00H
	DD	0801H
	DD	00H
	DD	021cH
	DD	021bH
	DD	03e8H
	DD	00H
	DD	00H
	DD	08H
	DD	00H
	DD	00H
	DD	00H
	DD	00H
	DD	00H
	DD	00H
	DD	00H
	DD	00H
	DD	00H
	DD	050000H
	DD	0100000H
	DD	080000H
	DD	00H
	DD	064H
	DD	00H
	DD	00H
	DD	02H
	DD	00H
	DD	01f4H
	DD	0220H
	DD	03e8H
	DD	00H
	DD	00H
	DD	08H
	DD	00H
	DD	00H
	DD	00H
	DD	00H
	DD	00H
	DD	00H
	DD	00H
	DD	00H
	DD	00H
	DD	00H
	DD	080000H
	DD	080000H
	DD	00H
	DD	064H
	DD	00H
	DD	00H
	DD	02001010H
	DD	00H
	DD	01f5H
	DD	0255H
	DD	03e8H
	DD	03eH
	DD	05cH
	DD	08H
	DD	00H
	DD	00H
	DD	00H
	DD	00H
	DD	00H
	DD	00H
	DD	00H
	DD	00H
	DD	00H
	DD	08H
	DD	080000H
	DD	0200000H
	DD	00H
	DD	010H
	DD	00H
	DD	00H
	DD	02001000H
	DD	00H
	DD	021dH
	DD	0257H
	DD	03e8H
	DD	00H
	DD	00H
	DD	08H
	DD	00H
	DD	00H
	DD	00H
	DD	0dcH
	DD	00H
	DD	00H
	DD	00H
	DD	00H
	DD	0dbH
	DD	0140000H
	DD	0200000H
	DD	010000H
	DD	00H
	DD	010H
	DD	00H
	DD	00H
	DD	02H
	DD	00H
	DD	0ffffffffH
	DD	025fH
	DD	03e8H
	DD	00H
	DD	00H
	DD	08H
	DD	00H
	DD	00H
	DD	00H
	DD	00H
	DD	00H
	DD	00H
	DD	064fH
	DD	00H
	DD	00H
	DD	0a0000H
	DD	040000H
	DD	080000H
	DD	00H
	DD	064H
	DD	01H
	DD	00H
	DD	0201H
	DD	00H
	DD	0209H
	DD	025fH
	DD	03e8H
	DD	00H
	DD	00H
	DD	08H
	DD	00H
	DD	00H
	DD	00H
	DD	00H
	DD	00H
	DD	00H
	DD	064fH
	DD	00H
	DD	00H
	DD	0a0000H
	DD	0c0000H
	DD	0180000H
	DD	00H
	DD	064H
	DD	01H
	DD	00H
	DD	0201H
	DD	00H
	DD	0ffffffffH
	DD	0267H
	DD	01H
	DD	00H
	DD	00H
	DD	08H
	DD	00H
	DD	00H
	DD	00H
	DD	00H
	DD	00H
	DD	00H
	DD	064fH
	DD	00H
	DD	00H
	DD	00H
	DD	080000H
	DD	0e0000H
	DD	00H
	DD	064H
	DD	01H
	DD	00H
	DD	0410210H
	DD	00H
	DD	020aH
	DD	026dH
	DD	03e8H
	DD	00H
	DD	00H
	DD	08H
	DD	00H
	DD	00H
	DD	00H
	DD	00H
	DD	00H
	DD	00H
	DD	00H
	DD	00H
	DD	00H
	DD	08H
	DD	080000H
	DD	02a0000H
	DD	00H
	DD	04H
	DD	00H
	DD	00H
	DD	0102H
	DD	00H
	DD	020bH
	DD	026eH
	DD	03e8H
	DD	00H
	DD	00H
	DD	08H
	DD	00H
	DD	00H
	DD	00H
	DD	00H
	DD	00H
	DD	00H
	DD	00H
	DD	00H
	DD	00H
	DD	08H
	DD	080000H
	DD	02a0000H
	DD	00H
	DD	04H
	DD	00H
	DD	00H
	DD	02800210H
	DD	00H
	DD	01f6H
	DD	026fH
	DD	01H
	DD	0270H
	DD	00H
	DD	08H
	DD	00H
	DD	0272H
	DD	00H
	DD	0ddH
	DD	00H
	DD	00H
	DD	00H
	DD	00H
	DD	00H
	DD	08H
	DD	0400000H
	DD	0500000H
	DD	00H
	DD	04H
	DD	00H
	DD	00H
	DD	02001H
	DD	00H
	DD	020cH
	DD	0291H
	DD	01H
	DD	00H
	DD	00H
	DD	08H
	DD	00H
	DD	00H
	DD	023H
	DD	00H
	DD	00H
	DD	00H
	DD	064fH
	DD	00H
	DD	00H
	DD	020000H
	DD	0100000H
	DD	0200000H
	DD	00H
	DD	010fH
	DD	040H
	DD	048H
	DD	0201H
	DD	00H
	DD	020fH
	DD	0291H
	DD	01H
	DD	00H
	DD	00H
	DD	08H
	DD	00H
	DD	00H
	DD	023H
	DD	00H
	DD	00H
	DD	00H
	DD	064fH
	DD	00H
	DD	0120H
	DD	020000H
	DD	0100000H
	DD	0200000H
	DD	00H
	DD	019H
	DD	040H
	DD	048H
	DD	0201H
	DD	00H
	DD	020dH
	DD	0299H
	DD	01H
	DD	00H
	DD	00H
	DD	046H
	DD	00H
	DD	00H
	DD	023H
	DD	00H
	DD	00H
	DD	00H
	DD	0669H
	DD	00H
	DD	00H
	DD	00H
	DD	020000H
	DD	040000H
	DD	00H
	DD	00H
	DD	01H
	DD	077H
	DD	0218H
	DD	00H
	DD	0190H
	DD	029cH
	DD	01H
	DD	00H
	DD	00H
	DD	08H
	DD	00H
	DD	029cH
	DD	00H
	DD	00H
	DD	00H
	DD	00H
	DD	029eH
	DD	00H
	DD	077H
	DD	05fH
	DD	0100000H
	DD	0200000H
	DD	00H
	DD	064H
	DD	060H
	DD	00H
	DD	0100006H
	DD	00H
	DD	019eH
	DD	02a0H
	DD	01H
	DD	00H
	DD	00H
	DD	08H
	DD	00H
	DD	02a0H
	DD	00H
	DD	00H
	DD	00H
	DD	00H
	DD	029eH
	DD	00H
	DD	077H
	DD	05fH
	DD	0100000H
	DD	0200000H
	DD	00H
	DD	064H
	DD	060H
	DD	00H
	DD	0100006H
	DD	00H
	DD	019fH
	DD	02a2H
	DD	01H
	DD	00H
	DD	00H
	DD	08H
	DD	00H
	DD	02a2H
	DD	00H
	DD	00H
	DD	00H
	DD	00H
	DD	029eH
	DD	00H
	DD	077H
	DD	05fH
	DD	0100000H
	DD	0200000H
	DD	00H
	DD	064H
	DD	060H
	DD	00H
	DD	0100006H
	DD	00H
	DD	0197H
	DD	02a4H
	DD	01H
	DD	00H
	DD	00H
	DD	08H
	DD	00H
	DD	02a4H
	DD	00H
	DD	00H
	DD	00H
	DD	00H
	DD	02a6H
	DD	00H
	DD	077H
	DD	05fH
	DD	0100000H
	DD	0200000H
	DD	00H
	DD	064H
	DD	061H
	DD	00H
	DD	0100006H
	DD	00H
	DD	0198H
	DD	02a8H
	DD	01H
	DD	00H
	DD	00H
	DD	08H
	DD	00H
	DD	02a8H
	DD	00H
	DD	00H
	DD	00H
	DD	00H
	DD	02aaH
	DD	00H
	DD	077H
	DD	05fH
	DD	0100000H
	DD	0200000H
	DD	00H
	DD	064H
	DD	062H
	DD	00H
	DD	0100006H
	DD	00H
	DD	0199H
	DD	03aH
	DD	01H
	DD	00H
	DD	00H
	DD	08H
	DD	00H
	DD	03aH
	DD	00H
	DD	00H
	DD	00H
	DD	00H
	DD	02acH
	DD	00H
	DD	077H
	DD	05fH
	DD	0100000H
	DD	0200000H
	DD	00H
	DD	064H
	DD	063H
	DD	00H
	DD	080100006H
	DD	00H
	DD	0192H
	DD	02adH
	DD	01H
	DD	00H
	DD	00H
	DD	08H
	DD	00H
	DD	02adH
	DD	00H
	DD	00H
	DD	00H
	DD	00H
	DD	02afH
	DD	00H
	DD	077H
	DD	05fH
	DD	0100000H
	DD	0200000H
	DD	00H
	DD	064H
	DD	064H
	DD	00H
	DD	0100006H
	DD	00H
	DD	0193H
	DD	02b1H
	DD	01H
	DD	00H
	DD	00H
	DD	08H
	DD	00H
	DD	02b1H
	DD	00H
	DD	00H
	DD	00H
	DD	00H
	DD	02b3H
	DD	00H
	DD	077H
	DD	05fH
	DD	0100000H
	DD	0200000H
	DD	00H
	DD	064H
	DD	065H
	DD	00H
	DD	0100006H
	DD	00H
	DD	0194H
	DD	02b5H
	DD	01H
	DD	00H
	DD	00H
	DD	08H
	DD	00H
	DD	02b5H
	DD	00H
	DD	00H
	DD	00H
	DD	00H
	DD	02b7H
	DD	00H
	DD	077H
	DD	05fH
	DD	0100000H
	DD	0200000H
	DD	00H
	DD	064H
	DD	066H
	DD	00H
	DD	0100006H
	DD	00H
	DD	0195H
	DD	02b9H
	DD	01H
	DD	00H
	DD	00H
	DD	08H
	DD	00H
	DD	02b9H
	DD	00H
	DD	00H
	DD	00H
	DD	00H
	DD	02bbH
	DD	00H
	DD	077H
	DD	05fH
	DD	0100000H
	DD	0200000H
	DD	00H
	DD	064H
	DD	067H
	DD	00H
	DD	0100006H
	DD	00H
	DD	0196H
	DD	02bdH
	DD	01H
	DD	00H
	DD	00H
	DD	08H
	DD	00H
	DD	02bdH
	DD	00H
	DD	00H
	DD	00H
	DD	00H
	DD	02bfH
	DD	00H
	DD	077H
	DD	05fH
	DD	0100000H
	DD	0200000H
	DD	00H
	DD	064H
	DD	068H
	DD	00H
	DD	0100006H
	DD	00H
	DD	019aH
	DD	02c1H
	DD	01H
	DD	00H
	DD	00H
	DD	08H
	DD	00H
	DD	02c1H
	DD	00H
	DD	00H
	DD	00H
	DD	00H
	DD	02c3H
	DD	00H
	DD	077H
	DD	05fH
	DD	0100000H
	DD	0200000H
	DD	00H
	DD	064H
	DD	069H
	DD	00H
	DD	0100006H
	DD	00H
	DD	019bH
	DD	02c5H
	DD	01H
	DD	00H
	DD	00H
	DD	08H
	DD	00H
	DD	02c5H
	DD	00H
	DD	00H
	DD	00H
	DD	00H
	DD	02c7H
	DD	00H
	DD	077H
	DD	05fH
	DD	0100000H
	DD	0200000H
	DD	00H
	DD	064H
	DD	06aH
	DD	00H
	DD	0100006H
	DD	00H
	DD	01a0H
	DD	02c9H
	DD	01H
	DD	00H
	DD	00H
	DD	08H
	DD	00H
	DD	02c9H
	DD	00H
	DD	00H
	DD	00H
	DD	00H
	DD	02cbH
	DD	00H
	DD	077H
	DD	05fH
	DD	0100000H
	DD	0200000H
	DD	00H
	DD	064H
	DD	05cH
	DD	00H
	DD	0100006H
	DD	00H
	DD	0ffffffffH
	DD	02cbH
	DD	01H
	DD	00H
	DD	00H
	DD	08H
	DD	00H
	DD	00H
	DD	00H
	DD	00H
	DD	00H
	DD	00H
	DD	064fH
	DD	00H
	DD	00H
	DD	020000H
	DD	080000H
	DD	0e0000H
	DD	00H
	DD	064H
	DD	03e0000H
	DD	00H
	DD	02009210H
	DD	00H
	DD	019cH
	DD	02cdH
	DD	01H
	DD	00H
	DD	00H
	DD	08H
	DD	00H
	DD	02cdH
	DD	00H
	DD	00H
	DD	00H
	DD	00H
	DD	02cfH
	DD	00H
	DD	077H
	DD	05fH
	DD	0100000H
	DD	0200000H
	DD	00H
	DD	064H
	DD	00H
	DD	00H
	DD	0100006H
	DD	00H
	DD	019dH
	DD	02d0H
	DD	01H
	DD	00H
	DD	00H
	DD	08H
	DD	00H
	DD	02d0H
	DD	00H
	DD	00H
	DD	00H
	DD	00H
	DD	02d2H
	DD	00H
	DD	077H
	DD	05fH
	DD	0100000H
	DD	0200000H
	DD	00H
	DD	064H
	DD	06bH
	DD	029H
	DD	0100006H
	DD	00H
	DD	0ffffffffH
	DD	02d4H
	DD	01H
	DD	00H
	DD	00H
	DD	08H
	DD	00H
	DD	02d4H
	DD	00H
	DD	00H
	DD	00H
	DD	00H
	DD	064fH
	DD	00H
	DD	00H
	DD	00H
	DD	080000H
	DD	080000H
	DD	00H
	DD	064H
	DD	00H
	DD	00H
	DD	01000H
	DD	00H
	DD	0ffffffffH
	DD	029eH
	DD	01H
	DD	00H
	DD	053H
	DD	0aH
	DD	00H
	DD	00H
	DD	00H
	DD	00H
	DD	00H
	DD	00H
	DD	064fH
	DD	00H
	DD	00H
	DD	020000H
	DD	080000H
	DD	0e0000H
	DD	00H
	DD	064H
	DD	03e0000H
	DD	00H
	DD	02009210H
	DD	00H
	DD	0ffffffffH
	DD	02a6H
	DD	01H
	DD	00H
	DD	00H
	DD	08H
	DD	00H
	DD	00H
	DD	00H
	DD	00H
	DD	00H
	DD	00H
	DD	064fH
	DD	00H
	DD	00H
	DD	020000H
	DD	080000H
	DD	0e0000H
	DD	00H
	DD	064H
	DD	03e0000H
	DD	00H
	DD	02009210H
	DD	00H
	DD	0ffffffffH
	DD	02aaH
	DD	01H
	DD	00H
	DD	00H
	DD	08H
	DD	00H
	DD	00H
	DD	00H
	DD	00H
	DD	00H
	DD	00H
	DD	064fH
	DD	00H
	DD	00H
	DD	020000H
	DD	080000H
	DD	0e0000H
	DD	00H
	DD	064H
	DD	03e0000H
	DD	00H
	DD	02009210H
	DD	00H
	DD	0ffffffffH
	DD	03cH
	DD	01H
	DD	00H
	DD	00H
	DD	08H
	DD	00H
	DD	00H
	DD	00H
	DD	00H
	DD	00H
	DD	00H
	DD	064fH
	DD	00H
	DD	00H
	DD	020000H
	DD	080000H
	DD	0e0000H
	DD	00H
	DD	064H
	DD	03e0000H
	DD	00H
	DD	02009210H
	DD	00H
	DD	0ffffffffH
	DD	02afH
	DD	01H
	DD	00H
	DD	0d0H
	DD	08H
	DD	00H
	DD	00H
	DD	00H
	DD	00H
	DD	00H
	DD	00H
	DD	064fH
	DD	00H
	DD	00H
	DD	020000H
	DD	080000H
	DD	0e0000H
	DD	00H
	DD	064H
	DD	03e0000H
	DD	00H
	DD	02009210H
	DD	00H
	DD	0ffffffffH
	DD	02b3H
	DD	01H
	DD	00H
	DD	0d0H
	DD	08H
	DD	00H
	DD	00H
	DD	00H
	DD	00H
	DD	00H
	DD	00H
	DD	064fH
	DD	00H
	DD	00H
	DD	020000H
	DD	080000H
	DD	0e0000H
	DD	00H
	DD	064H
	DD	03e0000H
	DD	00H
	DD	02009210H
	DD	00H
	DD	0ffffffffH
	DD	02b7H
	DD	01H
	DD	00H
	DD	0d0H
	DD	08H
	DD	00H
	DD	00H
	DD	00H
	DD	00H
	DD	00H
	DD	00H
	DD	064fH
	DD	00H
	DD	00H
	DD	020000H
	DD	080000H
	DD	0e0000H
	DD	00H
	DD	064H
	DD	03e0000H
	DD	00H
	DD	02009210H
	DD	00H
	DD	0ffffffffH
	DD	02bbH
	DD	01H
	DD	00H
	DD	0d0H
	DD	08H
	DD	00H
	DD	00H
	DD	00H
	DD	00H
	DD	00H
	DD	00H
	DD	064fH
	DD	00H
	DD	00H
	DD	020000H
	DD	080000H
	DD	0e0000H
	DD	00H
	DD	064H
	DD	03e0000H
	DD	00H
	DD	02009210H
	DD	00H
	DD	0ffffffffH
	DD	02bfH
	DD	01H
	DD	00H
	DD	0d0H
	DD	08H
	DD	00H
	DD	00H
	DD	00H
	DD	00H
	DD	00H
	DD	00H
	DD	064fH
	DD	00H
	DD	00H
	DD	020000H
	DD	080000H
	DD	0e0000H
	DD	00H
	DD	064H
	DD	03e0000H
	DD	00H
	DD	02009210H
	DD	00H
	DD	0ffffffffH
	DD	02c3H
	DD	01H
	DD	00H
	DD	00H
	DD	08H
	DD	00H
	DD	00H
	DD	00H
	DD	00H
	DD	00H
	DD	00H
	DD	064fH
	DD	00H
	DD	00H
	DD	020000H
	DD	080000H
	DD	0e0000H
	DD	00H
	DD	064H
	DD	03e0000H
	DD	00H
	DD	02009210H
	DD	00H
	DD	0ffffffffH
	DD	02c7H
	DD	01H
	DD	00H
	DD	00H
	DD	08H
	DD	00H
	DD	00H
	DD	00H
	DD	00H
	DD	00H
	DD	00H
	DD	064fH
	DD	00H
	DD	00H
	DD	020000H
	DD	080000H
	DD	0e0000H
	DD	00H
	DD	064H
	DD	03e0000H
	DD	00H
	DD	02009210H
	DD	00H
	DD	0ffffffffH
	DD	02d2H
	DD	01H
	DD	00H
	DD	00H
	DD	08H
	DD	00H
	DD	00H
	DD	00H
	DD	00H
	DD	00H
	DD	00H
	DD	064fH
	DD	00H
	DD	00H
	DD	020000H
	DD	080000H
	DD	0e0000H
	DD	00H
	DD	064H
	DD	03e0000H
	DD	00H
	DD	02009210H
	DD	00H
	DD	0ffffffffH
	DD	02d9H
	DD	03e8H
	DD	00H
	DD	07fH
	DD	08H
	DD	00H
	DD	00H
	DD	00H
	DD	00H
	DD	00H
	DD	00H
	DD	00H
	DD	00H
	DD	00H
	DD	0140000H
	DD	0b0000H
	DD	080000H
	DD	00H
	DD	064H
	DD	014H
	DD	00H
	DD	010210H
	DD	00H
	DD	0ffffffffH
	DD	02daH
	DD	03e8H
	DD	00H
	DD	07fH
	DD	08H
	DD	00H
	DD	00H
	DD	00H
	DD	00H
	DD	00H
	DD	00H
	DD	00H
	DD	00H
	DD	00H
	DD	0140000H
	DD	0b0000H
	DD	080000H
	DD	00H
	DD	064H
	DD	014H
	DD	00H
	DD	010210H
	DD	00H
	DD	0ffffffffH
	DD	02dbH
	DD	01H
	DD	00H
	DD	00H
	DD	08H
	DD	00H
	DD	00H
	DD	00H
	DD	00H
	DD	00H
	DD	00H
	DD	02dcH
	DD	02dcH
	DD	02cH
	DD	00H
	DD	080000H
	DD	0a0000H
	DD	00H
	DD	064H
	DD	040H
	DD	00H
	DD	010010H
	DD	00H
	DD	0ffffffffH
	DD	02e0H
	DD	01H
	DD	00H
	DD	00H
	DD	020H
	DD	00H
	DD	00H
	DD	0c8H
	DD	00H
	DD	00H
	DD	00H
	DD	0669H
	DD	00H
	DD	00H
	DD	0140000H
	DD	040000H
	DD	080000H
	DD	00H
	DD	064H
	DD	01H
	DD	00H
	DD	010210H
	DD	00H
	DD	0ffffffffH
	DD	02e2H
	DD	03e8H
	DD	00H
	DD	00H
	DD	08H
	DD	00H
	DD	00H
	DD	00H
	DD	00H
	DD	00H
	DD	00H
	DD	02e3H
	DD	00H
	DD	0e9H
	DD	0320000H
	DD	0c0000H
	DD	0180000H
	DD	00H
	DD	064H
	DD	01H
	DD	00H
	DD	010210H
	DD	00H
	DD	0ffffffffH
	DD	02e5H
	DD	01H
	DD	00H
	DD	0122H
	DD	020H
	DD	00H
	DD	00H
	DD	0c8H
	DD	00H
	DD	00H
	DD	00H
	DD	0669H
	DD	00H
	DD	02cH
	DD	0100000H
	DD	0100000H
	DD	0200000H
	DD	00H
	DD	064H
	DD	01H
	DD	00H
	DD	010010H
	DD	00H
	DD	020eH
	DD	02e5H
	DD	01H
	DD	00H
	DD	00H
	DD	020H
	DD	00H
	DD	00H
	DD	0c8H
	DD	00H
	DD	00H
	DD	00H
	DD	0669H
	DD	00H
	DD	00H
	DD	0100000H
	DD	0140000H
	DD	0280000H
	DD	00H
	DD	064H
	DD	01H
	DD	00H
	DD	0842H
	DD	00H
	DD	0ffffffffH
	DD	02e6H
	DD	01H
	DD	00H
	DD	00H
	DD	020H
	DD	00H
	DD	00H
	DD	0c8H
	DD	00H
	DD	00H
	DD	00H
	DD	064fH
	DD	02e8H
	DD	00H
	DD	0100000H
	DD	040000H
	DD	080000H
	DD	00H
	DD	064H
	DD	01H
	DD	00H
	DD	010210H
	DD	02e7H
	DD	0320H
	DD	02e9H
	DD	03e8H
	DD	00H
	DD	00H
	DD	08H
	DD	00H
	DD	00H
	DD	00H
	DD	00H
	DD	00H
	DD	00H
	DD	00H
	DD	00H
	DD	00H
	DD	00H
	DD	0100000H
	DD	0280000H
	DD	00H
	DD	064H
	DD	00H
	DD	00H
	DD	02001000H
	DD	00H
	DD	0321H
	DD	02ebH
	DD	03e8H
	DD	00H
	DD	00H
	DD	08H
	DD	00H
	DD	00H
	DD	00H
	DD	00H
	DD	00H
	DD	00H
	DD	00H
	DD	00H
	DD	00H
	DD	00H
	DD	0100000H
	DD	0600000H
	DD	00H
	DD	064H
	DD	00H
	DD	00H
	DD	02001000H
	DD	00H
	DD	0322H
	DD	02edH
	DD	03e8H
	DD	00H
	DD	00H
	DD	08H
	DD	00H
	DD	00H
	DD	00H
	DD	00H
	DD	00H
	DD	00H
	DD	00H
	DD	00H
	DD	00H
	DD	00H
	DD	080000H
	DD	0200000H
	DD	00H
	DD	064H
	DD	00H
	DD	00H
	DD	02001000H
	DD	00H
	DD	0324H
	DD	02eeH
	DD	03e8H
	DD	00H
	DD	00H
	DD	08H
	DD	00H
	DD	00H
	DD	00H
	DD	00H
	DD	00H
	DD	00H
	DD	00H
	DD	00H
	DD	00H
	DD	00H
	DD	0100000H
	DD	0200000H
	DD	00H
	DD	064H
	DD	00H
	DD	00H
	DD	02001000H
	DD	00H
	DD	0325H
	DD	02efH
	DD	03e8H
	DD	00H
	DD	00H
	DD	08H
	DD	00H
	DD	00H
	DD	00H
	DD	00H
	DD	00H
	DD	00H
	DD	00H
	DD	00H
	DD	00H
	DD	00H
	DD	0100000H
	DD	0200000H
	DD	00H
	DD	064H
	DD	00H
	DD	00H
	DD	02001000H
	DD	00H
	DD	0384H
	DD	02f0H
	DD	03e8H
	DD	00H
	DD	00H
	DD	08H
	DD	00H
	DD	00H
	DD	00H
	DD	00H
	DD	00H
	DD	00H
	DD	00H
	DD	00H
	DD	00H
	DD	08H
	DD	080000H
	DD	0200000H
	DD	00H
	DD	010H
	DD	00H
	DD	00H
	DD	02001000H
	DD	00H
	DD	0385H
	DD	02f4H
	DD	03e8H
	DD	00H
	DD	00H
	DD	08H
	DD	00H
	DD	00H
	DD	00H
	DD	00H
	DD	00H
	DD	00H
	DD	00H
	DD	00H
	DD	01H
	DD	01H
	DD	080000H
	DD	0100000H
	DD	00H
	DD	04H
	DD	00H
	DD	00H
	DD	0302H
	DD	00H
	DD	03e8H
	DD	02f5H
	DD	03e8H
	DD	00H
	DD	00H
	DD	08H
	DD	00H
	DD	00H
	DD	00H
	DD	00H
	DD	00H
	DD	00H
	DD	00H
	DD	00H
	DD	00H
	DD	0150000H
	DD	0100000H
	DD	0280000H
	DD	00H
	DD	064H
	DD	01H
	DD	0daH
	DD	0842H
	DD	00H
	DD	03e9H
	DD	02f6H
	DD	03e8H
	DD	00H
	DD	00H
	DD	08H
	DD	00H
	DD	00H
	DD	00H
	DD	00H
	DD	00H
	DD	00H
	DD	00H
	DD	00H
	DD	00H
	DD	00H
	DD	0180000H
	DD	0380000H
	DD	00H
	DD	064H
	DD	00H
	DD	00H
	DD	02001000H
	DD	00H
	DD	03eaH
	DD	02fcH
	DD	03e8H
	DD	00H
	DD	00H
	DD	08H
	DD	00H
	DD	00H
	DD	00H
	DD	00H
	DD	00H
	DD	00H
	DD	00H
	DD	00H
	DD	00H
	DD	00H
	DD	010000H
	DD	0f0000H
	DD	00H
	DD	04H
	DD	00H
	DD	00H
	DD	01310H
	DD	00H
	DD	0ffffffffH
	DD	0300H
	DD	03e8H
	DD	00H
	DD	00H
	DD	08H
	DD	00H
	DD	00H
	DD	00H
	DD	00H
	DD	00H
	DD	00H
	DD	0301H
	DD	00H
	DD	0f3H
	DD	00H
	DD	020000H
	DD	080000H
	DD	00H
	DD	08H
	DD	00H
	DD	00H
	DD	02000001H
	DD	00H
	DD	03ebH
	DD	0303H
	DD	03e8H
	DD	00H
	DD	00H
	DD	08H
	DD	00H
	DD	00H
	DD	00H
	DD	00H
	DD	00H
	DD	00H
	DD	00H
	DD	00H
	DD	00H
	DD	00H
	DD	080000H
	DD	0100000H
	DD	00H
	DD	04H
	DD	00H
	DD	00H
	DD	02001000H
	DD	00H
	DD	03ecH
	DD	0304H
	DD	03e8H
	DD	00H
	DD	00H
	DD	08H
	DD	00H
	DD	00H
	DD	00H
	DD	00H
	DD	00H
	DD	00H
	DD	00H
	DD	00H
	DD	00H
	DD	00H
	DD	080000H
	DD	0100000H
	DD	00H
	DD	04H
	DD	00H
	DD	00H
	DD	02001000H
	DD	00H
	DD	03edH
	DD	0305H
	DD	03e8H
	DD	00H
	DD	00H
	DD	08H
	DD	00H
	DD	00H
	DD	00H
	DD	00H
	DD	00H
	DD	00H
	DD	00H
	DD	00H
	DD	00H
	DD	00H
	DD	080000H
	DD	0100000H
	DD	00H
	DD	04H
	DD	00H
	DD	00H
	DD	02001000H
	DD	00H
	DD	03eeH
	DD	0306H
	DD	03e8H
	DD	00H
	DD	00H
	DD	08H
	DD	00H
	DD	00H
	DD	00H
	DD	00H
	DD	00H
	DD	00H
	DD	00H
	DD	00H
	DD	00H
	DD	00H
	DD	080000H
	DD	0100000H
	DD	00H
	DD	04H
	DD	00H
	DD	00H
	DD	02001000H
	DD	00H
	DD	044cH
	DD	0307H
	DD	03e8H
	DD	00H
	DD	00H
	DD	08H
	DD	00H
	DD	00H
	DD	00H
	DD	00H
	DD	00H
	DD	00H
	DD	00H
	DD	00H
	DD	00H
	DD	08H
	DD	040000H
	DD	0800000H
	DD	00H
	DD	010H
	DD	00H
	DD	00H
	DD	02001310H
	DD	00H
	DD	044dH
	DD	0308H
	DD	03e8H
	DD	00H
	DD	00H
	DD	08H
	DD	00H
	DD	00H
	DD	00H
	DD	00H
	DD	00H
	DD	00H
	DD	064fH
	DD	00H
	DD	00H
	DD	00H
	DD	080000H
	DD	0200000H
	DD	00H
	DD	064H
	DD	00H
	DD	00H
	DD	0400201H
	DD	00H
	DD	044eH
	DD	030cH
	DD	03e8H
	DD	00H
	DD	00H
	DD	08H
	DD	00H
	DD	00H
	DD	00H
	DD	00H
	DD	00H
	DD	00H
	DD	00H
	DD	00H
	DD	00H
	DD	00H
	DD	0200000H
	DD	0f00000H
	DD	00H
	DD	064H
	DD	01H
	DD	00H
	DD	02000042H
	DD	00H
	DD	0450H
	DD	00H
	DD	03e8H
	DD	00H
	DD	00H
	DD	00H
	DD	00H
	DD	00H
	DD	00H
	DD	00H
	DD	00H
	DD	00H
	DD	00H
	DD	00H
	DD	00H
	DD	0a0000H
	DD	0800000H
	DD	010000H
	DD	00H
	DD	02710H
	DD	00H
	DD	00H
	DD	0801218H
	DD	00H
	DD	0451H
	DD	00H
	DD	03e8H
	DD	00H
	DD	00H
	DD	00H
	DD	00H
	DD	00H
	DD	00H
	DD	00H
	DD	00H
	DD	00H
	DD	00H
	DD	00H
	DD	00H
	DD	0a0000H
	DD	0800000H
	DD	010000H
	DD	00H
	DD	02710H
	DD	00H
	DD	00H
	DD	0801218H
	DD	00H
	DD	0452H
	DD	00H
	DD	03e8H
	DD	00H
	DD	00H
	DD	00H
	DD	00H
	DD	00H
	DD	00H
	DD	00H
	DD	00H
	DD	00H
	DD	00H
	DD	00H
	DD	00H
	DD	0a0000H
	DD	0800000H
	DD	010000H
	DD	00H
	DD	02710H
	DD	00H
	DD	00H
	DD	0801218H
	DD	00H
	DD	0453H
	DD	00H
	DD	03e8H
	DD	00H
	DD	00H
	DD	00H
	DD	00H
	DD	00H
	DD	00H
	DD	00H
	DD	00H
	DD	00H
	DD	00H
	DD	00H
	DD	00H
	DD	0a0000H
	DD	0800000H
	DD	010000H
	DD	00H
	DD	0c8H
	DD	00H
	DD	00H
	DD	0801218H
	DD	00H
	DD	0ffffffffH
	DD	030dH
	DD	03e8H
	DD	00H
	DD	00H
	DD	08H
	DD	00H
	DD	00H
	DD	00H
	DD	00H
	DD	00H
	DD	00H
	DD	00H
	DD	00H
	DD	00H
	DD	0180000H
	DD	0180000H
	DD	0300000H
	DD	00H
	DD	064H
	DD	01H
	DD	00H
	DD	0800201H
	DD	00H
	DD	0ffffffffH
	DD	030eH
	DD	03e8H
	DD	00H
	DD	00H
	DD	08H
	DD	00H
	DD	00H
	DD	00H
	DD	00H
	DD	00H
	DD	00H
	DD	00H
	DD	00H
	DD	00H
	DD	0300000H
	DD	0300000H
	DD	0600000H
	DD	00H
	DD	064H
	DD	01H
	DD	00H
	DD	0800201H
	DD	00H
	DD	0ffffffffH
	DD	030fH
	DD	03e8H
	DD	00H
	DD	00H
	DD	08H
	DD	00H
	DD	00H
	DD	00H
	DD	00H
	DD	00H
	DD	00H
	DD	00H
	DD	00H
	DD	00H
	DD	0180000H
	DD	0110000H
	DD	0220000H
	DD	00H
	DD	064H
	DD	01H
	DD	069H
	DD	0800201H
	DD	00H
	DD	0ffffffffH
	DD	0310H
	DD	03e8H
	DD	00H
	DD	00H
	DD	08H
	DD	00H
	DD	00H
	DD	00H
	DD	00H
	DD	00H
	DD	00H
	DD	00H
	DD	00H
	DD	00H
	DD	0300000H
	DD	0220000H
	DD	0440000H
	DD	00H
	DD	064H
	DD	01H
	DD	069H
	DD	0800201H
	DD	00H
	DD	044fH
	DD	0311H
	DD	03e8H
	DD	00H
	DD	00H
	DD	08H
	DD	00H
	DD	00H
	DD	00H
	DD	00H
	DD	00H
	DD	00H
	DD	00H
	DD	00H
	DD	00H
	DD	00H
	DD	0100000H
	DD	0280000H
	DD	00H
	DD	064H
	DD	00H
	DD	00H
	DD	02001000H
	DD	00H
	DD	04b0H
	DD	0312H
	DD	03e8H
	DD	0313H
	DD	00H
	DD	08H
	DD	00H
	DD	00H
	DD	00H
	DD	00H
	DD	00H
	DD	00H
	DD	00H
	DD	00H
	DD	00H
	DD	00H
	DD	0180000H
	DD	0300000H
	DD	00H
	DD	064H
	DD	01H
	DD	0a4H
	DD	040001H
	DD	00H
	DD	04b1H
	DD	031bH
	DD	03e8H
	DD	031cH
	DD	00H
	DD	08H
	DD	00H
	DD	00H
	DD	00H
	DD	00H
	DD	00H
	DD	00H
	DD	00H
	DD	00H
	DD	00H
	DD	00H
	DD	0c0000H
	DD	0180000H
	DD	00H
	DD	064H
	DD	01H
	DD	0a4H
	DD	040001H
	DD	00H
	DD	04b3H
	DD	0324H
	DD	03e8H
	DD	00H
	DD	00H
	DD	08H
	DD	00H
	DD	00H
	DD	00H
	DD	00H
	DD	00H
	DD	00H
	DD	00H
	DD	00H
	DD	00H
	DD	00H
	DD	0100000H
	DD	0200000H
	DD	00H
	DD	064H
	DD	00H
	DD	00H
	DD	02001000H
	DD	00H
	DD	04b4H
	DD	0325H
	DD	03e8H
	DD	00H
	DD	00H
	DD	08H
	DD	00H
	DD	00H
	DD	00H
	DD	00H
	DD	00H
	DD	00H
	DD	00H
	DD	00H
	DD	00H
	DD	00H
	DD	0100000H
	DD	0400000H
	DD	00H
	DD	064H
	DD	00H
	DD	00H
	DD	02001000H
	DD	00H
	DD	04b5H
	DD	0326H
	DD	03e8H
	DD	00H
	DD	00H
	DD	08H
	DD	00H
	DD	00H
	DD	00H
	DD	00H
	DD	00H
	DD	00H
	DD	00H
	DD	00H
	DD	00H
	DD	00H
	DD	0100000H
	DD	0200000H
	DD	00H
	DD	064H
	DD	00H
	DD	00H
	DD	02001000H
	DD	00H
	DD	04b6H
	DD	0327H
	DD	03e8H
	DD	00H
	DD	00H
	DD	08H
	DD	00H
	DD	00H
	DD	00H
	DD	00H
	DD	00H
	DD	00H
	DD	00H
	DD	00H
	DD	00H
	DD	00H
	DD	0100000H
	DD	0500000H
	DD	00H
	DD	064H
	DD	00H
	DD	00H
	DD	02001000H
	DD	00H
	DD	0514H
	DD	0328H
	DD	03e8H
	DD	00H
	DD	00H
	DD	08H
	DD	00H
	DD	00H
	DD	00H
	DD	00H
	DD	00H
	DD	00H
	DD	00H
	DD	00H
	DD	00H
	DD	00H
	DD	0100000H
	DD	0280000H
	DD	00H
	DD	064H
	DD	00H
	DD	00H
	DD	02001218H
	DD	00H
	DD	0515H
	DD	0328H
	DD	03e8H
	DD	00H
	DD	00H
	DD	08H
	DD	00H
	DD	00H
	DD	00H
	DD	00H
	DD	00H
	DD	00H
	DD	00H
	DD	00H
	DD	00H
	DD	00H
	DD	0100000H
	DD	0280000H
	DD	00H
	DD	064H
	DD	00H
	DD	00H
	DD	02001218H
	DD	00H
	DD	0ffffffffH
	DD	032bH
	DD	03e8H
	DD	00H
	DD	00H
	DD	08H
	DD	00H
	DD	00H
	DD	00H
	DD	00H
	DD	00H
	DD	00H
	DD	064fH
	DD	00H
	DD	00H
	DD	050000H
	DD	080000H
	DD	080000H
	DD	00H
	DD	064H
	DD	00H
	DD	00H
	DD	0410200H
	DD	00H
	DD	073aH
	DD	032eH
	DD	03e8H
	DD	00H
	DD	00H
	DD	08H
	DD	00H
	DD	00H
	DD	00H
	DD	00H
	DD	00H
	DD	00H
	DD	00H
	DD	00H
	DD	00H
	DD	00H
	DD	0100000H
	DD	0280000H
	DD	00H
	DD	064H
	DD	00H
	DD	00H
	DD	02001010H
	DD	00H
	DD	073bH
	DD	032fH
	DD	03e8H
	DD	00H
	DD	00H
	DD	08H
	DD	00H
	DD	00H
	DD	00H
	DD	00H
	DD	00H
	DD	00H
	DD	00H
	DD	00H
	DD	00H
	DD	08H
	DD	080000H
	DD	0200000H
	DD	00H
	DD	010H
	DD	00H
	DD	00H
	DD	02001010H
	DD	00H
	DD	073cH
	DD	0330H
	DD	03e8H
	DD	00H
	DD	00H
	DD	08H
	DD	00H
	DD	00H
	DD	00H
	DD	00H
	DD	00H
	DD	00H
	DD	00H
	DD	00H
	DD	00H
	DD	0190000H
	DD	0100000H
	DD	0280000H
	DD	00H
	DD	064H
	DD	01H
	DD	00H
	DD	0842H
	DD	00H
	DD	0753H
	DD	0331H
	DD	03e8H
	DD	00H
	DD	00H
	DD	08H
	DD	00H
	DD	00H
	DD	00H
	DD	00H
	DD	00H
	DD	00H
	DD	00H
	DD	00H
	DD	00H
	DD	08H
	DD	0100000H
	DD	0360000H
	DD	00H
	DD	010H
	DD	00H
	DD	00H
	DD	02001310H
	DD	00H
	DD	0754H
	DD	0337H
	DD	03e8H
	DD	00H
	DD	00H
	DD	08H
	DD	00H
	DD	00H
	DD	00H
	DD	00H
	DD	00H
	DD	00H
	DD	00H
	DD	00H
	DD	00H
	DD	00H
	DD	0140000H
	DD	0600000H
	DD	00H
	DD	064H
	DD	01H
	DD	00H
	DD	02000042H
	DD	00H
	DD	0ffffffffH
	DD	0338H
	DD	03e8H
	DD	00H
	DD	00H
	DD	08H
	DD	00H
	DD	00H
	DD	00H
	DD	00H
	DD	00H
	DD	00H
	DD	00H
	DD	00H
	DD	00H
	DD	08H
	DD	0200000H
	DD	0400000H
	DD	00H
	DD	010H
	DD	00H
	DD	00H
	DD	02001210H
	DD	00H
	DD	0ffffffffH
	DD	0339H
	DD	03e8H
	DD	00H
	DD	00H
	DD	00H
	DD	00H
	DD	00H
	DD	0cH
	DD	00H
	DD	00H
	DD	00H
	DD	00H
	DD	00H
	DD	00H
	DD	0bH
	DD	0400000H
	DD	0400000H
	DD	01H
	DD	010H
	DD	00H
	DD	00H
	DD	02001210H
	DD	00H
	DD	0ffffffffH
	DD	0339H
	DD	03e8H
	DD	00H
	DD	00H
	DD	08H
	DD	00H
	DD	00H
	DD	0eH
	DD	00H
	DD	00H
	DD	00H
	DD	00H
	DD	00H
	DD	00H
	DD	09H
	DD	0400000H
	DD	0400000H
	DD	01H
	DD	010H
	DD	00H
	DD	00H
	DD	02001210H
	DD	00H
	DD	0ffffffffH
	DD	0339H
	DD	03e8H
	DD	00H
	DD	00H
	DD	08H
	DD	00H
	DD	00H
	DD	07H
	DD	00H
	DD	00H
	DD	00H
	DD	00H
	DD	00H
	DD	00H
	DD	04H
	DD	0400000H
	DD	0400000H
	DD	01H
	DD	010H
	DD	00H
	DD	00H
	DD	02001210H
	DD	00H
	DD	0ffffffffH
	DD	0339H
	DD	03e8H
	DD	00H
	DD	00H
	DD	08H
	DD	00H
	DD	00H
	DD	06H
	DD	00H
	DD	00H
	DD	00H
	DD	00H
	DD	00H
	DD	00H
	DD	0aH
	DD	0400000H
	DD	0400000H
	DD	01H
	DD	010H
	DD	00H
	DD	00H
	DD	02001210H
	DD	00H
	DD	0ffffffffH
	DD	0339H
	DD	03e8H
	DD	00H
	DD	00H
	DD	08H
	DD	00H
	DD	00H
	DD	0dH
	DD	00H
	DD	00H
	DD	00H
	DD	00H
	DD	00H
	DD	00H
	DD	03H
	DD	0400000H
	DD	0400000H
	DD	01H
	DD	010H
	DD	00H
	DD	00H
	DD	02001210H
	DD	00H
	DD	0ffffffffH
	DD	0341H
	DD	03e8H
	DD	00H
	DD	00H
	DD	08H
	DD	00H
	DD	00H
	DD	00H
	DD	00H
	DD	00H
	DD	00H
	DD	00H
	DD	00H
	DD	00H
	DD	08H
	DD	0400000H
	DD	0400000H
	DD	00H
	DD	010H
	DD	00H
	DD	00H
	DD	01210H
	DD	00H
	DD	0ffffffffH
	DD	0361H
	DD	01H
	DD	00H
	DD	00H
	DD	08H
	DD	00H
	DD	00H
	DD	00H
	DD	00H
	DD	00H
	DD	00H
	DD	00H
	DD	00H
	DD	00H
	DD	00H
	DD	080000H
	DD	080000H
	DD	00H
	DD	064H
	DD	00H
	DD	00H
	DD	02001210H
	DD	00H
	DD	0ffffffffH
	DD	0366H
	DD	03e8H
	DD	0366H
	DD	00H
	DD	08H
	DD	00H
	DD	00H
	DD	00H
	DD	00H
	DD	00H
	DD	00H
	DD	00H
	DD	00H
	DD	00H
	DD	08H
	DD	0100000H
	DD	0100000H
	DD	00H
	DD	010H
	DD	00H
	DD	00H
	DD	040004200H
	DD	00H
	DD	0ffffffffH
	DD	0369H
	DD	03e8H
	DD	0369H
	DD	00H
	DD	08H
	DD	00H
	DD	00H
	DD	00H
	DD	00H
	DD	00H
	DD	00H
	DD	00H
	DD	00H
	DD	00H
	DD	08H
	DD	0100000H
	DD	0100000H
	DD	00H
	DD	010H
	DD	00H
	DD	00H
	DD	040004000H
	DD	00H
	DD	0ffffffffH
	DD	0373H
	DD	01H
	DD	00H
	DD	00H
	DD	01H
	DD	00H
	DD	00H
	DD	0c8H
	DD	00H
	DD	00H
	DD	00H
	DD	00H
	DD	00H
	DD	00H
	DD	0140000H
	DD	040000H
	DD	040000H
	DD	00H
	DD	064H
	DD	00H
	DD	00H
	DD	040000000H
	DD	00H
	DD	0ffffffffH
	DD	0375H
	DD	03e8H
	DD	0375H
	DD	00H
	DD	00H
	DD	00H
	DD	00H
	DD	00H
	DD	00H
	DD	00H
	DD	00H
	DD	00H
	DD	00H
	DD	00H
	DD	01H
	DD	0100000H
	DD	0100000H
	DD	00H
	DD	010H
	DD	00H
	DD	00H
	DD	040004000H
	DD	00H
	DD	0ffffffffH
	DD	0379H
	DD	01H
	DD	00H
	DD	00H
	DD	01H
	DD	00H
	DD	00H
	DD	0c8H
	DD	00H
	DD	00H
	DD	00H
	DD	00H
	DD	00H
	DD	00H
	DD	04H
	DD	040000H
	DD	040000H
	DD	00H
	DD	064H
	DD	00H
	DD	00H
	DD	040000000H
	DD	00H
	DD	0226H
	DD	037dH
	DD	03e8H
	DD	037eH
	DD	00H
	DD	08H
	DD	00H
	DD	00H
	DD	00H
	DD	0d8H
	DD	00H
	DD	00H
	DD	00H
	DD	00H
	DD	00H
	DD	0140000H
	DD	0140000H
	DD	0100000H
	DD	00H
	DD	064H
	DD	00H
	DD	00H
	DD	020002H
	DD	00H
	DD	0227H
	DD	0382H
	DD	03e8H
	DD	0383H
	DD	00H
	DD	08H
	DD	00H
	DD	00H
	DD	00H
	DD	0d8H
	DD	00H
	DD	00H
	DD	00H
	DD	00H
	DD	00H
	DD	0200000H
	DD	0140000H
	DD	0100000H
	DD	00H
	DD	064H
	DD	00H
	DD	00H
	DD	020002H
	DD	00H
	DD	0228H
	DD	0387H
	DD	03e8H
	DD	0388H
	DD	00H
	DD	08H
	DD	00H
	DD	00H
	DD	00H
	DD	0d8H
	DD	00H
	DD	00H
	DD	00H
	DD	00H
	DD	00H
	DD	0b0000H
	DD	0140000H
	DD	0100000H
	DD	00H
	DD	064H
	DD	00H
	DD	00H
	DD	020002H
	DD	00H
	DD	0229H
	DD	038cH
	DD	03e8H
	DD	038dH
	DD	00H
	DD	08H
	DD	00H
	DD	00H
	DD	00H
	DD	0d8H
	DD	00H
	DD	00H
	DD	00H
	DD	00H
	DD	00H
	DD	0ffec0000H
	DD	0140000H
	DD	0100000H
	DD	00H
	DD	064H
	DD	00H
	DD	00H
	DD	020302H
	DD	00H
	DD	022aH
	DD	0391H
	DD	03e8H
	DD	0392H
	DD	00H
	DD	08H
	DD	00H
	DD	00H
	DD	00H
	DD	0d8H
	DD	00H
	DD	00H
	DD	00H
	DD	00H
	DD	00H
	DD	0ffe00000H
	DD	0140000H
	DD	0100000H
	DD	00H
	DD	064H
	DD	00H
	DD	00H
	DD	020302H
	DD	00H
	DD	022bH
	DD	0396H
	DD	01H
	DD	0397H
	DD	00H
	DD	08H
	DD	00H
	DD	00H
	DD	00H
	DD	0d8H
	DD	00H
	DD	00H
	DD	00H
	DD	00H
	DD	00H
	DD	0140000H
	DD	0100000H
	DD	0100000H
	DD	00H
	DD	064H
	DD	0140000H
	DD	00H
	DD	020002H
	DD	00H
	DD	022cH
	DD	039eH
	DD	01H
	DD	039fH
	DD	00H
	DD	08H
	DD	00H
	DD	00H
	DD	00H
	DD	0d8H
	DD	00H
	DD	00H
	DD	00H
	DD	00H
	DD	00H
	DD	0200000H
	DD	0100000H
	DD	0100000H
	DD	00H
	DD	064H
	DD	0200000H
	DD	00H
	DD	020002H
	DD	00H
	DD	022dH
	DD	03a6H
	DD	01H
	DD	03a7H
	DD	00H
	DD	08H
	DD	00H
	DD	00H
	DD	00H
	DD	0d8H
	DD	00H
	DD	00H
	DD	00H
	DD	00H
	DD	00H
	DD	0ffec0000H
	DD	0100000H
	DD	0100000H
	DD	00H
	DD	064H
	DD	0140000H
	DD	00H
	DD	020302H
	DD	00H
	DD	022eH
	DD	03aeH
	DD	01H
	DD	03afH
	DD	00H
	DD	08H
	DD	00H
	DD	00H
	DD	00H
	DD	0d8H
	DD	00H
	DD	00H
	DD	00H
	DD	00H
	DD	00H
	DD	0ffe00000H
	DD	0100000H
	DD	0100000H
	DD	00H
	DD	064H
	DD	0200000H
	DD	00H
	DD	020302H
	DD	00H
	DD	0ffffffffH
	DD	03b6H
	DD	03e8H
	DD	00H
	DD	00H
	DD	08H
	DD	00H
	DD	00H
	DD	00H
	DD	00H
	DD	00H
	DD	00H
	DD	00H
	DD	00H
	DD	00H
	DD	0ffe80000H
	DD	010000H
	DD	080000H
	DD	00H
	DD	04H
	DD	00H
	DD	00H
	DD	010H
	DD	00H
	DD	0ffffffffH
	DD	03b8H
	DD	03e8H
	DD	00H
	DD	00H
	DD	08H
	DD	00H
	DD	00H
	DD	00H
	DD	00H
	DD	00H
	DD	00H
	DD	00H
	DD	00H
	DD	00H
	DD	0fffe0000H
	DD	040000H
	DD	040000H
	DD	00H
	DD	04H
	DD	00H
	DD	00H
	DD	010H
	DD	00H
	DD	0ffffffffH
	DD	03bbH
	DD	03e8H
	DD	00H
	DD	00H
	DD	08H
	DD	00H
	DD	00H
	DD	00H
	DD	00H
	DD	00H
	DD	00H
	DD	00H
	DD	00H
	DD	00H
	DD	00H
	DD	060000H
	DD	010000H
	DD	00H
	DD	064H
	DD	01H
	DD	00H
	DD	02001210H
	DD	00H
	DD	0ffffffffH
	DD	03c7H
	DD	03e8H
	DD	00H
	DD	00H
	DD	08H
	DD	00H
	DD	00H
	DD	00H
	DD	00H
	DD	00H
	DD	00H
	DD	00H
	DD	00H
	DD	00H
	DD	00H
	DD	0140000H
	DD	0100000H
	DD	00H
	DD	064H
	DD	00H
	DD	00H
	DD	02001210H
	DD	00H
	DD	0ffffffffH
	DD	03ccH
	DD	03e8H
	DD	00H
	DD	00H
	DD	08H
	DD	00H
	DD	00H
	DD	00H
	DD	00H
	DD	00H
	DD	00H
	DD	00H
	DD	00H
	DD	00H
	DD	08H
	DD	040000H
	DD	040000H
	DD	00H
	DD	010H
	DD	00H
	DD	00H
	DD	02001210H
	DD	00H
	DD	0ffffffffH
	DD	03ceH
	DD	03e8H
	DD	00H
	DD	00H
	DD	08H
	DD	00H
	DD	00H
	DD	00H
	DD	00H
	DD	00H
	DD	00H
	DD	00H
	DD	00H
	DD	00H
	DD	08H
	DD	080000H
	DD	080000H
	DD	00H
	DD	010H
	DD	00H
	DD	00H
	DD	02001210H
	DD	00H
	DD	0ffffffffH
	DD	03d0H
	DD	03e8H
	DD	00H
	DD	00H
	DD	08H
	DD	00H
	DD	00H
	DD	00H
	DD	00H
	DD	00H
	DD	00H
	DD	00H
	DD	00H
	DD	00H
	DD	08H
	DD	080000H
	DD	0c0000H
	DD	00H
	DD	010H
	DD	00H
	DD	00H
	DD	02000201H
	DD	00H
	DD	0ffffffffH
	DD	03d2H
	DD	03e8H
	DD	00H
	DD	00H
	DD	08H
	DD	00H
	DD	00H
	DD	00H
	DD	00H
	DD	00H
	DD	00H
	DD	00H
	DD	00H
	DD	00H
	DD	08H
	DD	0100000H
	DD	0100000H
	DD	00H
	DD	010H
	DD	00H
	DD	00H
	DD	02001210H
	DD	00H
	DD	0ffffffffH
	DD	03d3H
	DD	01H
	DD	00H
	DD	00H
	DD	08H
	DD	00H
	DD	00H
	DD	00H
	DD	00H
	DD	00H
	DD	00H
	DD	064fH
	DD	00H
	DD	00H
	DD	00H
	DD	0100000H
	DD	0200000H
	DD	00H
	DD	064H
	DD	01H
	DD	00H
	DD	01210H
	DD	00H
	DD	0ffffffffH
	DD	03e1H
	DD	03e8H
	DD	00H
	DD	00H
	DD	08H
	DD	00H
	DD	00H
	DD	00H
	DD	00H
	DD	00H
	DD	00H
	DD	00H
	DD	00H
	DD	00H
	DD	0fffe0000H
	DD	040000H
	DD	040000H
	DD	00H
	DD	04H
	DD	00H
	DD	00H
	DD	0210H
	DD	00H
	DD	0ffffffffH
	DD	03e2H
	DD	03e8H
	DD	00H
	DD	00H
	DD	08H
	DD	00H
	DD	00H
	DD	00H
	DD	00H
	DD	00H
	DD	00H
	DD	00H
	DD	00H
	DD	00H
	DD	040000H
	DD	040000H
	DD	040000H
	DD	00H
	DD	04H
	DD	00H
	DD	00H
	DD	0801210H
	DD	00H
	DD	02f5H
	DD	03e3H
	DD	03e8H
	DD	00H
	DD	00H
	DD	08H
	DD	00H
	DD	00H
	DD	00H
	DD	00H
	DD	00H
	DD	00H
	DD	00H
	DD	00H
	DD	00H
	DD	08H
	DD	010000H
	DD	010000H
	DD	00H
	DD	010H
	DD	00H
	DD	00H
	DD	0801218H
	DD	00H
	DD	0ffffffffH
	DD	03e4H
	DD	01H
	DD	00H
	DD	00H
	DD	08H
	DD	00H
	DD	00H
	DD	00H
	DD	00H
	DD	00H
	DD	00H
	DD	00H
	DD	00H
	DD	00H
	DD	030000H
	DD	080000H
	DD	080000H
	DD	00H
	DD	064H
	DD	00H
	DD	00H
	DD	02001210H
	DD	00H
	DD	0ffffffffH
	DD	03e8H
	DD	03e8H
	DD	00H
	DD	00H
	DD	08H
	DD	00H
	DD	00H
	DD	00H
	DD	00H
	DD	00H
	DD	00H
	DD	00H
	DD	00H
	DD	00H
	DD	08H
	DD	080000H
	DD	080000H
	DD	00H
	DD	010H
	DD	00H
	DD	00H
	DD	02001210H
	DD	00H
	DD	0ffffffffH
	DD	0213H
	DD	03e8H
	DD	00H
	DD	00H
	DD	08H
	DD	00H
	DD	00H
	DD	00H
	DD	00H
	DD	00H
	DD	00H
	DD	00H
	DD	00H
	DD	00H
	DD	08H
	DD	080000H
	DD	0100000H
	DD	00H
	DD	010H
	DD	00H
	DD	00H
	DD	02001210H
	DD	00H
	DD	0ffffffffH
	DD	03eeH
	DD	03e8H
	DD	00H
	DD	00H
	DD	08H
	DD	00H
	DD	00H
	DD	00H
	DD	00H
	DD	00H
	DD	00H
	DD	00H
	DD	00H
	DD	00H
	DD	08H
	DD	0100000H
	DD	0200000H
	DD	00H
	DD	010H
	DD	00H
	DD	00H
	DD	02001210H
	DD	00H
	DD	0ffffffffH
	DD	03efH
	DD	03e8H
	DD	00H
	DD	00H
	DD	08H
	DD	00H
	DD	00H
	DD	00H
	DD	00H
	DD	00H
	DD	00H
	DD	00H
	DD	00H
	DD	00H
	DD	08H
	DD	0400000H
	DD	0200000H
	DD	00H
	DD	010H
	DD	00H
	DD	00H
	DD	02001210H
	DD	00H
	DD	0ffffffffH
	DD	03f1H
	DD	03e8H
	DD	00H
	DD	00H
	DD	08H
	DD	00H
	DD	00H
	DD	00H
	DD	00H
	DD	00H
	DD	00H
	DD	00H
	DD	00H
	DD	00H
	DD	08H
	DD	0400000H
	DD	0200000H
	DD	00H
	DD	010H
	DD	00H
	DD	00H
	DD	02001210H
	DD	00H
	DD	02bcH
	DD	00H
	DD	023H
	DD	00H
	DD	0cH
	DD	08H
	DD	00H
	DD	00H
	DD	00H
	DD	00H
	DD	00H
	DD	00H
	DD	00H
	DD	00H
	DD	00H
	DD	00H
	DD	0100000H
	DD	0100000H
	DD	00H
	DD	064H
	DD	00H
	DD	00H
	DD	0618H
	DD	00H
	DD	02bdH
	DD	00H
	DD	023H
	DD	00H
	DD	0dH
	DD	08H
	DD	00H
	DD	00H
	DD	00H
	DD	00H
	DD	00H
	DD	00H
	DD	00H
	DD	00H
	DD	00H
	DD	00H
	DD	0100000H
	DD	0100000H
	DD	00H
	DD	064H
	DD	00H
	DD	00H
	DD	0618H
	DD	00H
	DD	02beH
	DD	00H
	DD	023H
	DD	00H
	DD	0eH
	DD	08H
	DD	00H
	DD	00H
	DD	00H
	DD	00H
	DD	00H
	DD	00H
	DD	00H
	DD	00H
	DD	00H
	DD	00H
	DD	0100000H
	DD	0100000H
	DD	00H
	DD	064H
	DD	00H
	DD	00H
	DD	0618H
	DD	00H
	DD	02bfH
	DD	00H
	DD	023H
	DD	00H
	DD	0fH
	DD	08H
	DD	00H
	DD	00H
	DD	00H
	DD	00H
	DD	00H
	DD	00H
	DD	00H
	DD	00H
	DD	00H
	DD	00H
	DD	0100000H
	DD	0100000H
	DD	00H
	DD	064H
	DD	00H
	DD	00H
	DD	0618H
	DD	00H
	DD	02c0H
	DD	00H
	DD	023H
	DD	00H
	DD	010H
	DD	08H
	DD	00H
	DD	00H
	DD	00H
	DD	00H
	DD	00H
	DD	00H
	DD	00H
	DD	00H
	DD	00H
	DD	00H
	DD	0100000H
	DD	0100000H
	DD	00H
	DD	064H
	DD	00H
	DD	00H
	DD	0618H
	DD	00H
	DD	02c1H
	DD	00H
	DD	023H
	DD	00H
	DD	011H
	DD	08H
	DD	00H
	DD	00H
	DD	00H
	DD	00H
	DD	00H
	DD	00H
	DD	00H
	DD	00H
	DD	00H
	DD	00H
	DD	0100000H
	DD	0100000H
	DD	00H
	DD	064H
	DD	00H
	DD	00H
	DD	0618H
	DD	00H
	DD	02c2H
	DD	00H
	DD	023H
	DD	00H
	DD	012H
	DD	08H
	DD	00H
	DD	00H
	DD	00H
	DD	00H
	DD	00H
	DD	00H
	DD	00H
	DD	00H
	DD	00H
	DD	00H
	DD	0100000H
	DD	0100000H
	DD	00H
	DD	064H
	DD	00H
	DD	00H
	DD	0618H
	DD	00H
	DD	02c3H
	DD	00H
	DD	023H
	DD	00H
	DD	013H
	DD	08H
	DD	00H
	DD	00H
	DD	00H
	DD	00H
	DD	00H
	DD	00H
	DD	00H
	DD	00H
	DD	00H
	DD	00H
	DD	0100000H
	DD	0100000H
	DD	00H
	DD	064H
	DD	00H
	DD	00H
	DD	0618H
	DD	00H
	DD	02c4H
	DD	00H
	DD	0200H
	DD	00H
	DD	0bH
	DD	00H
	DD	00H
	DD	00H
	DD	0ffH
	DD	00H
	DD	00H
	DD	00H
	DD	00H
	DD	00H
	DD	00H
	DD	00H
	DD	080000H
	DD	0100000H
	DD	00H
	DD	03e8H
	DD	00H
	DD	00H
	DD	0618H
	DD	00H
	DD	02c5H
	DD	00H
	DD	0dcH
	DD	00H
	DD	0aH
	DD	00H
	DD	00H
	DD	00H
	DD	0ffH
	DD	00H
	DD	00H
	DD	00H
	DD	00H
	DD	00H
	DD	00H
	DD	00H
	DD	080000H
	DD	0100000H
	DD	00H
	DD	03e8H
	DD	00H
	DD	00H
	DD	0618H
	DD	00H
	DD	0ffffffffH
	DD	03f3H
	DD	03e8H
	DD	00H
	DD	0e4H
	DD	00H
	DD	00H
	DD	00H
	DD	00H
	DD	00H
	DD	00H
	DD	00H
	DD	0659H
	DD	00H
	DD	053H
	DD	03c0000H
	DD	0100000H
	DD	0180000H
	DD	00H
	DD	064H
	DD	01H
	DD	00H
	DD	010210H
	DD	00H
	DD	012dH
	DD	03faH
	DD	0aH
	DD	00H
	DD	00H
	DD	00H
	DD	00H
	DD	00H
	DD	00H
	DD	00H
	DD	00H
	DD	00H
	DD	00H
	DD	00H
	DD	00H
	DD	03c0000H
	DD	0180000H
	DD	0180000H
	DD	00H
	DD	064H
	DD	00H
	DD	00H
	DD	0a01H
	DD	00H
	DD	012eH
	DD	041dH
	DD	05H
	DD	00H
	DD	00H
	DD	00H
	DD	00H
	DD	00H
	DD	00H
	DD	00H
	DD	00H
	DD	00H
	DD	00H
	DD	00H
	DD	00H
	DD	03c0000H
	DD	0180000H
	DD	0180000H
	DD	00H
	DD	064H
	DD	00H
	DD	00H
	DD	0a01H
	DD	00H
	DD	0130H
	DD	0440H
	DD	01eH
	DD	00H
	DD	00H
	DD	00H
	DD	00H
	DD	00H
	DD	00H
	DD	00H
	DD	00H
	DD	00H
	DD	00H
	DD	00H
	DD	00H
	DD	03c0000H
	DD	0180000H
	DD	0180000H
	DD	00H
	DD	064H
	DD	00H
	DD	00H
	DD	0a01H
	DD	00H
	DD	0131H
	DD	0463H
	DD	05H
	DD	00H
	DD	00H
	DD	00H
	DD	00H
	DD	00H
	DD	00H
	DD	00H
	DD	064fH
	DD	064fH
	DD	064fH
	DD	064fH
	DD	00H
	DD	03c0000H
	DD	0180000H
	DD	0180000H
	DD	00H
	DD	064H
	DD	00H
	DD	00H
	DD	0a01H
	DD	00H
	DD	0132H
	DD	0486H
	DD	0aH
	DD	00H
	DD	00H
	DD	00H
	DD	00H
	DD	00H
	DD	00H
	DD	00H
	DD	00H
	DD	00H
	DD	00H
	DD	00H
	DD	00H
	DD	03c0000H
	DD	0180000H
	DD	0180000H
	DD	00H
	DD	064H
	DD	00H
	DD	00H
	DD	0a01H
	DD	00H
	DD	0133H
	DD	04a9H
	DD	05H
	DD	00H
	DD	00H
	DD	00H
	DD	00H
	DD	00H
	DD	00H
	DD	00H
	DD	064fH
	DD	064fH
	DD	064fH
	DD	064fH
	DD	00H
	DD	03c0000H
	DD	0180000H
	DD	0180000H
	DD	00H
	DD	064H
	DD	00H
	DD	00H
	DD	0a01H
	DD	00H
	DD	014aH
	DD	04ccH
	DD	01H
	DD	00H
	DD	00H
	DD	0aH
	DD	00H
	DD	00H
	DD	01H
	DD	00H
	DD	00H
	DD	00H
	DD	00H
	DD	00H
	DD	00H
	DD	03c0000H
	DD	0180000H
	DD	0180000H
	DD	00H
	DD	064H
	DD	046H
	DD	00H
	DD	0a01H
	DD	04dcH
	DD	014bH
	DD	04e4H
	DD	01H
	DD	00H
	DD	00H
	DD	05H
	DD	00H
	DD	00H
	DD	02H
	DD	00H
	DD	00H
	DD	00H
	DD	00H
	DD	00H
	DD	00H
	DD	03c0000H
	DD	0180000H
	DD	0180000H
	DD	00H
	DD	064H
	DD	046H
	DD	00H
	DD	0a01H
	DD	04f4H
	DD	014cH
	DD	04fcH
	DD	01H
	DD	00H
	DD	00H
	DD	01eH
	DD	00H
	DD	00H
	DD	04H
	DD	00H
	DD	00H
	DD	00H
	DD	00H
	DD	00H
	DD	00H
	DD	03c0000H
	DD	0180000H
	DD	0180000H
	DD	00H
	DD	064H
	DD	046H
	DD	00H
	DD	0a01H
	DD	050cH
	DD	014dH
	DD	0514H
	DD	01H
	DD	00H
	DD	00H
	DD	05H
	DD	00H
	DD	00H
	DD	08H
	DD	00H
	DD	00H
	DD	00H
	DD	00H
	DD	00H
	DD	00H
	DD	03c0000H
	DD	0180000H
	DD	0180000H
	DD	00H
	DD	064H
	DD	046H
	DD	00H
	DD	0a01H
	DD	0524H
	DD	014eH
	DD	052cH
	DD	01H
	DD	00H
	DD	00H
	DD	0aH
	DD	00H
	DD	00H
	DD	08H
	DD	00H
	DD	00H
	DD	00H
	DD	00H
	DD	00H
	DD	00H
	DD	03c0000H
	DD	0180000H
	DD	0180000H
	DD	00H
	DD	064H
	DD	046H
	DD	00H
	DD	0a01H
	DD	053cH
	DD	014fH
	DD	0544H
	DD	01H
	DD	00H
	DD	00H
	DD	05H
	DD	00H
	DD	00H
	DD	08H
	DD	00H
	DD	00H
	DD	00H
	DD	00H
	DD	00H
	DD	00H
	DD	03c0000H
	DD	0180000H
	DD	0180000H
	DD	00H
	DD	064H
	DD	046H
	DD	00H
	DD	0a01H
	DD	0554H
	DD	0ffffffffH
	DD	055cH
	DD	03e8H
	DD	00H
	DD	0e4H
	DD	08H
	DD	00H
	DD	00H
	DD	00H
	DD	00H
	DD	00H
	DD	00H
	DD	0659H
	DD	00H
	DD	053H
	DD	03c0000H
	DD	0100000H
	DD	0180000H
	DD	00H
	DD	064H
	DD	01H
	DD	022H
	DD	050210H
	DD	00H
	DD	0ffffffffH
	DD	0563H
	DD	03e8H
	DD	00H
	DD	0e4H
	DD	08H
	DD	00H
	DD	00H
	DD	00H
	DD	00H
	DD	00H
	DD	00H
	DD	0659H
	DD	00H
	DD	053H
	DD	03c0000H
	DD	0100000H
	DD	0180000H
	DD	00H
	DD	064H
	DD	01H
	DD	00H
	DD	010210H
	DD	00H
	DD	0ffffffffH
	DD	0583H
	DD	03e8H
	DD	00H
	DD	0e4H
	DD	08H
	DD	00H
	DD	00H
	DD	00H
	DD	00H
	DD	00H
	DD	00H
	DD	0659H
	DD	00H
	DD	053H
	DD	03c0000H
	DD	0100000H
	DD	0180000H
	DD	00H
	DD	064H
	DD	01H
	DD	00H
	DD	010210H
	DD	00H
	DD	0ffffffffH
	DD	056aH
	DD	03e8H
	DD	00H
	DD	0e4H
	DD	08H
	DD	00H
	DD	00H
	DD	0c00000H
	DD	00H
	DD	00H
	DD	00H
	DD	0584H
	DD	00H
	DD	077H
	DD	03c0000H
	DD	0100000H
	DD	0180000H
	DD	00H
	DD	064H
	DD	01H
	DD	00H
	DD	010210H
	DD	00H
	DD	0ffffffffH
	DD	0571H
	DD	03e8H
	DD	00H
	DD	0e4H
	DD	08H
	DD	00H
	DD	00H
	DD	0800000H
	DD	00H
	DD	00H
	DD	00H
	DD	0584H
	DD	00H
	DD	077H
	DD	03c0000H
	DD	0100000H
	DD	0180000H
	DD	00H
	DD	0f5H
	DD	01H
	DD	048H
	DD	040014814H
	DD	00H
	DD	0708H
	DD	0585H
	DD	03e8H
	DD	00H
	DD	00H
	DD	0e2H
	DD	00H
	DD	00H
	DD	00H
	DD	00H
	DD	00H
	DD	00H
	DD	00H
	DD	00H
	DD	00H
	DD	03c0000H
	DD	0100000H
	DD	0180000H
	DD	00H
	DD	064H
	DD	00H
	DD	00H
	DD	0a01H
	DD	00H
	DD	0ffffffffH
	DD	0585H
	DD	03e8H
	DD	00H
	DD	00H
	DD	0e2H
	DD	00H
	DD	00H
	DD	0e1H
	DD	00H
	DD	00H
	DD	00H
	DD	00H
	DD	00H
	DD	00H
	DD	03c0000H
	DD	0100000H
	DD	0180000H
	DD	00H
	DD	064H
	DD	00H
	DD	00H
	DD	0801H
	DD	00H
	DD	0ffffffffH
	DD	0588H
	DD	03e8H
	DD	00H
	DD	00H
	DD	08H
	DD	00H
	DD	00H
	DD	00H
	DD	00H
	DD	00H
	DD	00H
	DD	00H
	DD	00H
	DD	00H
	DD	08H
	DD	0200000H
	DD	0200000H
	DD	00H
	DD	010H
	DD	00H
	DD	00H
	DD	02001210H
	DD	00H
	DD	0709H
	DD	058cH
	DD	01H
	DD	058eH
	DD	00H
	DD	020H
	DD	00H
	DD	00H
	DD	0c8H
	DD	00H
	DD	00H
	DD	00H
	DD	0596H
	DD	00H
	DD	077H
	DD	06H
	DD	0180000H
	DD	0200000H
	DD	00H
	DD	064H
	DD	00H
	DD	00H
	DD	01000005H
	DD	00H
	DD	070aH
	DD	0597H
	DD	01H
	DD	0599H
	DD	00H
	DD	020H
	DD	00H
	DD	00H
	DD	0aaH
	DD	00H
	DD	00H
	DD	00H
	DD	05a1H
	DD	00H
	DD	077H
	DD	06H
	DD	0180000H
	DD	0200000H
	DD	00H
	DD	064H
	DD	00H
	DD	00H
	DD	01000005H
	DD	00H
	DD	070bH
	DD	05a2H
	DD	03e8H
	DD	00H
	DD	00H
	DD	08H
	DD	00H
	DD	00H
	DD	00H
	DD	00H
	DD	00H
	DD	00H
	DD	064fH
	DD	00H
	DD	00H
	DD	00H
	DD	0100000H
	DD	0200000H
	DD	00H
	DD	064H
	DD	00H
	DD	00H
	DD	01H
	DD	00H
	DD	0ffffffffH
	DD	05a6H
	DD	03e8H
	DD	05aaH
	DD	00H
	DD	08H
	DD	00H
	DD	00H
	DD	00H
	DD	00H
	DD	05aaH
	DD	05aaH
	DD	05aaH
	DD	05aaH
	DD	00H
	DD	0a0000H
	DD	040000H
	DD	080000H
	DD	00H
	DD	064H
	DD	01H
	DD	00H
	DD	0400010H
	DD	00H
	DD	070cH
	DD	05adH
	DD	01H
	DD	00H
	DD	00H
	DD	08H
	DD	00H
	DD	00H
	DD	00H
	DD	00H
	DD	00H
	DD	00H
	DD	00H
	DD	00H
	DD	00H
	DD	0140000H
	DD	080000H
	DD	0100000H
	DD	00H
	DD	064H
	DD	01H
	DD	0e6H
	DD	040005H
	DD	00H
	DD	070dH
	DD	05b2H
	DD	03e8H
	DD	05b2H
	DD	00H
	DD	08H
	DD	00H
	DD	00H
	DD	00H
	DD	00H
	DD	05b5H
	DD	00H
	DD	064fH
	DD	05b7H
	DD	00H
	DD	00H
	DD	080000H
	DD	0100000H
	DD	00H
	DD	064H
	DD	00H
	DD	00H
	DD	0400001H
	DD	00H
	DD	0ffffffffH
	DD	05b8H
	DD	03e8H
	DD	00H
	DD	00H
	DD	08H
	DD	00H
	DD	00H
	DD	00H
	DD	00H
	DD	00H
	DD	00H
	DD	064fH
	DD	00H
	DD	00H
	DD	00H
	DD	040000H
	DD	080000H
	DD	00H
	DD	064H
	DD	00H
	DD	00H
	DD	01H
	DD	00H
	DD	070eH
	DD	05bcH
	DD	03e8H
	DD	00H
	DD	00H
	DD	08H
	DD	00H
	DD	00H
	DD	00H
	DD	00H
	DD	00H
	DD	00H
	DD	064fH
	DD	064fH
	DD	00H
	DD	00H
	DD	0100000H
	DD	0300000H
	DD	00H
	DD	064H
	DD	00H
	DD	00H
	DD	01H
	DD	00H
	DD	0ffffffffH
	DD	05beH
	DD	03e8H
	DD	00H
	DD	00H
	DD	08H
	DD	00H
	DD	00H
	DD	00H
	DD	00H
	DD	00H
	DD	00H
	DD	064fH
	DD	00H
	DD	00H
	DD	050000H
	DD	080000H
	DD	080000H
	DD	00H
	DD	064H
	DD	00H
	DD	00H
	DD	0410200H
	DD	00H
	DD	070fH
	DD	05c1H
	DD	03e8H
	DD	00H
	DD	00H
	DD	08H
	DD	00H
	DD	00H
	DD	00H
	DD	00H
	DD	00H
	DD	00H
	DD	064fH
	DD	00H
	DD	00H
	DD	00H
	DD	080000H
	DD	0100000H
	DD	00H
	DD	064H
	DD	00H
	DD	00H
	DD	01H
	DD	00H
	DD	0710H
	DD	05c4H
	DD	03e8H
	DD	00H
	DD	00H
	DD	08H
	DD	00H
	DD	00H
	DD	00H
	DD	00H
	DD	00H
	DD	00H
	DD	00H
	DD	00H
	DD	00H
	DD	00H
	DD	0100000H
	DD	0200000H
	DD	00H
	DD	064H
	DD	00H
	DD	00H
	DD	02001010H
	DD	00H
	DD	0711H
	DD	05c5H
	DD	03e8H
	DD	00H
	DD	00H
	DD	08H
	DD	00H
	DD	00H
	DD	00H
	DD	00H
	DD	00H
	DD	00H
	DD	00H
	DD	00H
	DD	00H
	DD	00H
	DD	0100000H
	DD	0200000H
	DD	00H
	DD	064H
	DD	00H
	DD	00H
	DD	02001010H
	DD	00H
	DD	0712H
	DD	05c6H
	DD	03e8H
	DD	00H
	DD	00H
	DD	08H
	DD	00H
	DD	00H
	DD	00H
	DD	00H
	DD	00H
	DD	00H
	DD	00H
	DD	00H
	DD	00H
	DD	00H
	DD	080000H
	DD	0200000H
	DD	00H
	DD	064H
	DD	00H
	DD	00H
	DD	02001010H
	DD	00H
	DD	06a4H
	DD	00H
	DD	03e8H
	DD	00H
	DD	00H
	DD	08H
	DD	00H
	DD	00H
	DD	00H
	DD	00H
	DD	00H
	DD	00H
	DD	00H
	DD	00H
	DD	00H
	DD	0a0000H
	DD	01000000H
	DD	010000H
	DD	00H
	DD	064H
	DD	00H
	DD	00H
	DD	01018H
	DD	00H
	DD	06a5H
	DD	00H
	DD	03e8H
	DD	00H
	DD	00H
	DD	08H
	DD	00H
	DD	00H
	DD	00H
	DD	00H
	DD	00H
	DD	00H
	DD	00H
	DD	00H
	DD	00H
	DD	0aH
	DD	0100000H
	DD	01H
	DD	00H
	DD	064H
	DD	00H
	DD	00H
	DD	01018H
	DD	00H
	DD	06a6H
	DD	00H
	DD	03e8H
	DD	00H
	DD	00H
	DD	08H
	DD	00H
	DD	00H
	DD	00H
	DD	00H
	DD	00H
	DD	00H
	DD	00H
	DD	00H
	DD	00H
	DD	0aH
	DD	0200000H
	DD	01H
	DD	00H
	DD	064H
	DD	00H
	DD	00H
	DD	01018H
	DD	00H
	DD	06a7H
	DD	05c7H
	DD	078H
	DD	00H
	DD	00H
	DD	00H
	DD	00H
	DD	00H
	DD	0ffH
	DD	00H
	DD	00H
	DD	00H
	DD	00H
	DD	00H
	DD	00H
	DD	00H
	DD	0100000H
	DD	0380000H
	DD	00H
	DD	03e8H
	DD	00H
	DD	00H
	DD	01H
	DD	00H
	DD	0ffffffffH
	DD	05c9H
	DD	03e8H
	DD	00H
	DD	00H
	DD	00H
	DD	00H
	DD	05c9H
	DD	0ffH
	DD	00H
	DD	00H
	DD	00H
	DD	05c9H
	DD	00H
	DD	00H
	DD	00H
	DD	0100000H
	DD	0380000H
	DD	00H
	DD	03e8H
	DD	00H
	DD	00H
	DD	01210H
	DD	00H
	DD	0ffffffffH
	DD	061fH
	DD	03e8H
	DD	00H
	DD	00H
	DD	08H
	DD	00H
	DD	00H
	DD	00H
	DD	00H
	DD	00H
	DD	00H
	DD	064fH
	DD	00H
	DD	00H
	DD	00H
	DD	020000H
	DD	040000H
	DD	00H
	DD	064H
	DD	00H
	DD	00H
	DD	02000201H
	DD	00H
	DD	06a8H
	DD	0623H
	DD	01H
	DD	00H
	DD	06aH
	DD	08H
	DD	00H
	DD	00H
	DD	00H
	DD	00H
	DD	00H
	DD	00H
	DD	00H
	DD	00H
	DD	00H
	DD	05208H
	DD	0200000H
	DD	0400000H
	DD	00H
	DD	064H
	DD	00H
	DD	00H
	DD	02000201H
	DD	00H
	DD	0ffffffffH
	DD	062fH
	DD	03e8H
	DD	00H
	DD	00H
	DD	08H
	DD	00H
	DD	00H
	DD	00H
	DD	00H
	DD	00H
	DD	00H
	DD	00H
	DD	00H
	DD	00H
	DD	01H
	DD	080000H
	DD	0100000H
	DD	00H
	DD	04H
	DD	00H
	DD	00H
	DD	02001210H
	DD	00H
	DD	0ffffffffH
	DD	00H
	DD	03e8H
	DD	00H
	DD	00H
	DD	08H
	DD	00H
	DD	00H
	DD	00H
	DD	00H
	DD	00H
	DD	00H
	DD	00H
	DD	00H
	DD	00H
	DD	01H
	DD	080000H
	DD	0100000H
	DD	00H
	DD	04H
	DD	00H
	DD	00H
	DD	0201209H
	DD	00H
	DD	0ffffffffH
	DD	00H
	DD	03e8H
	DD	00H
	DD	00H
	DD	08H
	DD	00H
	DD	00H
	DD	00H
	DD	00H
	DD	00H
	DD	00H
	DD	00H
	DD	00H
	DD	00H
	DD	01H
	DD	020000H
	DD	040000H
	DD	00H
	DD	04H
	DD	00H
	DD	00H
	DD	0218H
	DD	00H
	DD	0ffffffffH
	DD	0630H
	DD	03e8H
	DD	00H
	DD	00H
	DD	08H
	DD	00H
	DD	00H
	DD	00H
	DD	00H
	DD	00H
	DD	00H
	DD	00H
	DD	063aH
	DD	00H
	DD	01H
	DD	080000H
	DD	080000H
	DD	00H
	DD	04H
	DD	00H
	DD	00H
	DD	01210H
	DD	00H
	DD	06aaH
	DD	0644H
	DD	03e8H
	DD	00H
	DD	00H
	DD	08H
	DD	00H
	DD	00H
	DD	00H
	DD	00H
	DD	00H
	DD	00H
	DD	00H
	DD	00H
	DD	00H
	DD	01H
	DD	0c0000H
	DD	0180000H
	DD	00H
	DD	04H
	DD	00H
	DD	00H
	DD	0a01H
	DD	00H
	DD	06abH
	DD	0645H
	DD	03e8H
	DD	0646H
	DD	00H
	DD	00H
	DD	00H
	DD	00H
	DD	0ffH
	DD	00H
	DD	00H
	DD	00H
	DD	064fH
	DD	00H
	DD	00H
	DD	00H
	DD	0100000H
	DD	0200000H
	DD	00H
	DD	03e8H
	DD	00H
	DD	00H
	DD	0200H
	DD	00H
	DD	06acH
	DD	0647H
	DD	03e8H
	DD	0648H
	DD	00H
	DD	00H
	DD	00H
	DD	00H
	DD	0ffH
	DD	00H
	DD	00H
	DD	00H
	DD	064fH
	DD	00H
	DD	00H
	DD	00H
	DD	0100000H
	DD	0200000H
	DD	00H
	DD	03e8H
	DD	00H
	DD	00H
	DD	0200H
	DD	00H
	DD	06adH
	DD	0649H
	DD	03e8H
	DD	064aH
	DD	00H
	DD	00H
	DD	00H
	DD	00H
	DD	0ffH
	DD	00H
	DD	00H
	DD	00H
	DD	064fH
	DD	00H
	DD	00H
	DD	00H
	DD	0100000H
	DD	0200000H
	DD	00H
	DD	03e8H
	DD	00H
	DD	00H
	DD	0200H
	DD	00H
	DD	06aeH
	DD	064bH
	DD	014H
	DD	00H
	DD	00H
	DD	00H
	DD	00H
	DD	00H
	DD	00H
	DD	00H
	DD	00H
	DD	00H
	DD	00H
	DD	00H
	DD	00H
	DD	00H
	DD	0480000H
	DD	0900000H
	DD	00H
	DD	064H
	DD	01H
	DD	00H
	DD	04201H
	DD	00H
	DD	02eeH
	DD	00H
	DD	03e8H
	DD	00H
	DD	00H
	DD	08H
	DD	00H
	DD	00H
	DD	00H
	DD	00H
	DD	00H
	DD	00H
	DD	00H
	DD	00H
	DD	00H
	DD	01H
	DD	080000H
	DD	0100000H
	DD	00H
	DD	04H
	DD	00H
	DD	00H
	DD	0218H
	DD	00H
	DD	02efH
	DD	064eH
	DD	03e8H
	DD	00H
	DD	00H
	DD	08H
	DD	00H
	DD	00H
	DD	00H
	DD	00H
	DD	00H
	DD	00H
	DD	00H
	DD	00H
	DD	00H
	DD	00H
	DD	08H
	DD	08H
	DD	00H
	DD	0aH
	DD	00H
	DD	00H
	DD	0210H
	DD	00H
	DD	02f0H
	DD	064eH
	DD	03e8H
	DD	00H
	DD	00H
	DD	08H
	DD	00H
	DD	00H
	DD	00H
	DD	00H
	DD	00H
	DD	00H
	DD	00H
	DD	00H
	DD	00H
	DD	00H
	DD	08H
	DD	08H
	DD	00H
	DD	0aH
	DD	00H
	DD	00H
	DD	0210H
	DD	00H
	DD	0ffffffffH
	DD	064cH
	DD	03e8H
	DD	064cH
	DD	00H
	DD	01H
	DD	00H
	DD	00H
	DD	0c8H
	DD	00H
	DD	00H
	DD	00H
	DD	064fH
	DD	00H
	DD	02bH
	DD	03H
	DD	010000H
	DD	010000H
	DD	00H
	DD	064H
	DD	00H
	DD	00H
	DD	02001010H
	DD	00H
	DD	0ffffffffH
	DD	064fH
	DD	03e8H
	DD	00H
	DD	00H
	DD	08H
	DD	00H
	DD	00H
	DD	00H
	DD	00H
	DD	00H
	DD	00H
	DD	00H
	DD	00H
	DD	00H
	DD	08H
	DD	010000H
	DD	010000H
	DD	00H
	DD	010H
	DD	00H
	DD	00H
	DD	02001218H
	DD	00H
	DD	02f1H
	DD	00H
	DD	03e8H
	DD	00H
	DD	00H
	DD	00H
	DD	00H
	DD	00H
	DD	00H
	DD	00H
	DD	00H
	DD	00H
	DD	00H
	DD	00H
	DD	00H
	DD	00H
	DD	010000H
	DD	020000H
	DD	00H
	DD	064H
	DD	00H
	DD	00H
	DD	0801218H
	DD	00H
	DD	02f2H
	DD	064eH
	DD	03e8H
	DD	00H
	DD	00H
	DD	08H
	DD	00H
	DD	00H
	DD	00H
	DD	00H
	DD	00H
	DD	00H
	DD	00H
	DD	00H
	DD	00H
	DD	00H
	DD	08H
	DD	08H
	DD	00H
	DD	0aH
	DD	00H
	DD	00H
	DD	0210H
	DD	00H
	DD	02f3H
	DD	064eH
	DD	03e8H
	DD	00H
	DD	00H
	DD	08H
	DD	00H
	DD	00H
	DD	00H
	DD	00H
	DD	00H
	DD	00H
	DD	00H
	DD	00H
	DD	00H
	DD	00H
	DD	08H
	DD	08H
	DD	00H
	DD	0aH
	DD	00H
	DD	00H
	DD	0210H
	DD	00H
	DD	0ffffffffH
	DD	0338H
	DD	01H
	DD	00H
	DD	00H
	DD	00H
	DD	00H
	DD	00H
	DD	03H
	DD	00H
	DD	00H
	DD	00H
	DD	00H
	DD	00H
	DD	00H
	DD	00H
	DD	010000H
	DD	010000H
	DD	00H
	DD	03e8H
	DD	08H
	DD	00H
	DD	0801210H
	DD	00H
	DD	02f8H
	DD	00H
	DD	01H
	DD	00H
	DD	00H
	DD	00H
	DD	00H
	DD	00H
	DD	03H
	DD	00H
	DD	00H
	DD	00H
	DD	00H
	DD	00H
	DD	00H
	DD	00H
	DD	010000H
	DD	010000H
	DD	00H
	DD	03e8H
	DD	08H
	DD	00H
	DD	01218H
	DD	00H
	DD	02f9H
	DD	00H
	DD	01H
	DD	00H
	DD	00H
	DD	00H
	DD	00H
	DD	00H
	DD	03H
	DD	00H
	DD	00H
	DD	00H
	DD	00H
	DD	00H
	DD	00H
	DD	00H
	DD	010000H
	DD	010000H
	DD	00H
	DD	03e8H
	DD	08H
	DD	00H
	DD	01218H
	DD	00H
	DD	02faH
	DD	00H
	DD	01H
	DD	00H
	DD	00H
	DD	00H
	DD	00H
	DD	00H
	DD	03H
	DD	00H
	DD	00H
	DD	00H
	DD	00H
	DD	00H
	DD	00H
	DD	00H
	DD	010000H
	DD	010000H
	DD	00H
	DD	03e8H
	DD	08H
	DD	00H
	DD	01218H
	DD	00H
	DD	0ffffffffH
	DD	0659H
	DD	03e8H
	DD	00H
	DD	00H
	DD	08H
	DD	00H
	DD	00H
	DD	00H
	DD	00H
	DD	00H
	DD	00H
	DD	00H
	DD	00H
	DD	00H
	DD	08H
	DD	0200000H
	DD	0200000H
	DD	01H
	DD	010H
	DD	00H
	DD	00H
	DD	02001210H
	DD	00H
	DD	0ffffffffH
	DD	0669H
	DD	01H
	DD	00H
	DD	00H
	DD	020H
	DD	00H
	DD	00H
	DD	0c8H
	DD	00H
	DD	00H
	DD	00H
	DD	064fH
	DD	00H
	DD	00H
	DD	010000H
	DD	080000H
	DD	0100000H
	DD	00H
	DD	064H
	DD	00H
	DD	00H
	DD	02001210H
	DD	00H
	DD	0ffffffffH
	DD	066dH
	DD	01H
	DD	00H
	DD	00H
	DD	020H
	DD	00H
	DD	00H
	DD	0c8H
	DD	00H
	DD	00H
	DD	00H
	DD	064fH
	DD	00H
	DD	00H
	DD	010000H
	DD	0100000H
	DD	0200000H
	DD	00H
	DD	064H
	DD	00H
	DD	00H
	DD	02001210H
	DD	00H
	DD	076cH
	DD	0673H
	DD	03e8H
	DD	00H
	DD	00H
	DD	08H
	DD	00H
	DD	00H
	DD	00H
	DD	00H
	DD	00H
	DD	00H
	DD	00H
	DD	00H
	DD	00H
	DD	00H
	DD	0100000H
	DD	0280000H
	DD	00H
	DD	064H
	DD	00H
	DD	00H
	DD	02001000H
	DD	00H
	DD	076dH
	DD	0674H
	DD	03e8H
	DD	00H
	DD	00H
	DD	08H
	DD	00H
	DD	00H
	DD	00H
	DD	00H
	DD	00H
	DD	00H
	DD	00H
	DD	00H
	DD	00H
	DD	00H
	DD	0100000H
	DD	0280000H
	DD	00H
	DD	064H
	DD	00H
	DD	00H
	DD	02001000H
	DD	00H
	DD	076eH
	DD	0675H
	DD	03e8H
	DD	00H
	DD	00H
	DD	08H
	DD	00H
	DD	00H
	DD	00H
	DD	00H
	DD	00H
	DD	00H
	DD	00H
	DD	00H
	DD	00H
	DD	00H
	DD	0100000H
	DD	0280000H
	DD	00H
	DD	064H
	DD	00H
	DD	00H
	DD	02001000H
	DD	00H
	DD	076fH
	DD	0676H
	DD	03e8H
	DD	00H
	DD	00H
	DD	08H
	DD	00H
	DD	00H
	DD	00H
	DD	00H
	DD	00H
	DD	00H
	DD	00H
	DD	00H
	DD	00H
	DD	00H
	DD	0100000H
	DD	0280000H
	DD	00H
	DD	064H
	DD	00H
	DD	00H
	DD	02001000H
	DD	00H
	DD	0770H
	DD	0677H
	DD	03e8H
	DD	00H
	DD	00H
	DD	08H
	DD	00H
	DD	00H
	DD	00H
	DD	00H
	DD	00H
	DD	00H
	DD	00H
	DD	00H
	DD	00H
	DD	00H
	DD	0100000H
	DD	0280000H
	DD	00H
	DD	064H
	DD	00H
	DD	00H
	DD	02001000H
	DD	00H
	DD	0771H
	DD	0678H
	DD	03e8H
	DD	00H
	DD	00H
	DD	08H
	DD	00H
	DD	00H
	DD	00H
	DD	00H
	DD	00H
	DD	00H
	DD	00H
	DD	00H
	DD	00H
	DD	00H
	DD	0100000H
	DD	0280000H
	DD	00H
	DD	064H
	DD	00H
	DD	00H
	DD	02001000H
	DD	00H
	DD	0772H
	DD	0679H
	DD	03e8H
	DD	00H
	DD	00H
	DD	08H
	DD	00H
	DD	00H
	DD	00H
	DD	00H
	DD	00H
	DD	00H
	DD	00H
	DD	00H
	DD	00H
	DD	00H
	DD	0100000H
	DD	0280000H
	DD	00H
	DD	064H
	DD	00H
	DD	00H
	DD	02001000H
	DD	00H
	DD	0773H
	DD	067aH
	DD	03e8H
	DD	00H
	DD	00H
	DD	08H
	DD	00H
	DD	00H
	DD	00H
	DD	00H
	DD	00H
	DD	00H
	DD	00H
	DD	00H
	DD	00H
	DD	00H
	DD	0100000H
	DD	0280000H
	DD	00H
	DD	064H
	DD	00H
	DD	00H
	DD	02001000H
	DD	00H
	DD	0774H
	DD	067bH
	DD	03e8H
	DD	00H
	DD	00H
	DD	08H
	DD	00H
	DD	00H
	DD	00H
	DD	00H
	DD	00H
	DD	00H
	DD	00H
	DD	00H
	DD	00H
	DD	00H
	DD	0100000H
	DD	0280000H
	DD	00H
	DD	064H
	DD	00H
	DD	00H
	DD	02001000H
	DD	00H
	DD	0775H
	DD	067cH
	DD	03e8H
	DD	00H
	DD	00H
	DD	08H
	DD	00H
	DD	00H
	DD	00H
	DD	00H
	DD	00H
	DD	00H
	DD	00H
	DD	00H
	DD	00H
	DD	00H
	DD	0100000H
	DD	0280000H
	DD	00H
	DD	064H
	DD	00H
	DD	00H
	DD	02001000H
	DD	00H
	DD	04b2H
	DD	067dH
	DD	03e8H
	DD	00H
	DD	00H
	DD	00H
	DD	00H
	DD	00H
	DD	0ffH
	DD	00H
	DD	00H
	DD	00H
	DD	064fH
	DD	00H
	DD	00H
	DD	00H
	DD	080000H
	DD	0100000H
	DD	00H
	DD	03e8H
	DD	00H
	DD	00H
	DD	0218H
	DD	00H
	DD	0ffffffffH
	DD	067eH
	DD	03e8H
	DD	00H
	DD	0bH
	DD	00H
	DD	00H
	DD	00H
	DD	0ffH
	DD	00H
	DD	00H
	DD	00H
	DD	064fH
	DD	00H
	DD	00H
	DD	00H
	DD	080000H
	DD	0100000H
	DD	00H
	DD	04H
	DD	00H
	DD	0100H
	DD	040001H
	DD	00H
	DD	0ffffffffH
	DD	067eH
	DD	03e8H
	DD	00H
	DD	0bH
	DD	00H
	DD	00H
	DD	00H
	DD	0ffH
	DD	00H
	DD	00H
	DD	00H
	DD	064fH
	DD	00H
	DD	00H
	DD	00H
	DD	080000H
	DD	0100000H
	DD	00H
	DD	03e8H
	DD	00H
	DD	00H
	DD	010H
	DD	00H
	DD	0ffffffffH
	DD	0683H
	DD	03e8H
	DD	00H
	DD	0bH
	DD	00H
	DD	00H
	DD	00H
	DD	0ffH
	DD	00H
	DD	00H
	DD	00H
	DD	064fH
	DD	00H
	DD	00H
	DD	00H
	DD	080000H
	DD	0100000H
	DD	00H
	DD	03e8H
	DD	00H
	DD	00H
	DD	010H
	DD	00H
	DD	0ffffffffH
	DD	0688H
	DD	03e8H
	DD	00H
	DD	0bH
	DD	00H
	DD	00H
	DD	00H
	DD	0ffH
	DD	00H
	DD	00H
	DD	00H
	DD	064fH
	DD	00H
	DD	00H
	DD	00H
	DD	080000H
	DD	0100000H
	DD	00H
	DD	03e8H
	DD	00H
	DD	00H
	DD	010H
	DD	00H
	DD	0ffffffffH
	DD	068dH
	DD	03e8H
	DD	00H
	DD	0bH
	DD	00H
	DD	00H
	DD	00H
	DD	0ffH
	DD	00H
	DD	00H
	DD	00H
	DD	064fH
	DD	00H
	DD	00H
	DD	00H
	DD	080000H
	DD	0100000H
	DD	00H
	DD	03e8H
	DD	00H
	DD	00H
	DD	010H
	DD	00H
	DD	0ffffffffH
	DD	0692H
	DD	03e8H
	DD	00H
	DD	0bH
	DD	00H
	DD	00H
	DD	00H
	DD	0ffH
	DD	00H
	DD	00H
	DD	00H
	DD	064fH
	DD	00H
	DD	00H
	DD	00H
	DD	080000H
	DD	0100000H
	DD	00H
	DD	03e8H
	DD	00H
	DD	00H
	DD	010H
	DD	00H
	DD	0ffffffffH
	DD	0697H
	DD	03e8H
	DD	00H
	DD	0bH
	DD	00H
	DD	00H
	DD	00H
	DD	0ffH
	DD	00H
	DD	00H
	DD	00H
	DD	064fH
	DD	00H
	DD	00H
	DD	00H
	DD	080000H
	DD	0100000H
	DD	00H
	DD	03e8H
	DD	00H
	DD	00H
	DD	010H
	DD	00H
	DD	0ffffffffH
	DD	069cH
	DD	03e8H
	DD	00H
	DD	0bH
	DD	00H
	DD	00H
	DD	00H
	DD	0ffH
	DD	00H
	DD	00H
	DD	00H
	DD	064fH
	DD	00H
	DD	00H
	DD	00H
	DD	080000H
	DD	0100000H
	DD	00H
	DD	03e8H
	DD	00H
	DD	00H
	DD	010H
	DD	00H
	DD	0ffffffffH
	DD	06a1H
	DD	03e8H
	DD	00H
	DD	0bH
	DD	00H
	DD	00H
	DD	00H
	DD	0ffH
	DD	00H
	DD	00H
	DD	00H
	DD	064fH
	DD	00H
	DD	00H
	DD	00H
	DD	080000H
	DD	0100000H
	DD	00H
	DD	03e8H
	DD	00H
	DD	00H
	DD	010H
	DD	00H
	DD	0ffffffffH
	DD	06a6H
	DD	03e8H
	DD	00H
	DD	0bH
	DD	00H
	DD	00H
	DD	00H
	DD	0ffH
	DD	00H
	DD	00H
	DD	00H
	DD	064fH
	DD	00H
	DD	00H
	DD	00H
	DD	080000H
	DD	0100000H
	DD	00H
	DD	03e8H
	DD	00H
	DD	00H
	DD	010H
	DD	00H
	DD	0ffffffffH
	DD	06abH
	DD	03e8H
	DD	00H
	DD	0bH
	DD	00H
	DD	00H
	DD	00H
	DD	0ffH
	DD	00H
	DD	00H
	DD	00H
	DD	064fH
	DD	00H
	DD	00H
	DD	00H
	DD	080000H
	DD	0100000H
	DD	00H
	DD	03e8H
	DD	00H
	DD	00H
	DD	010H
	DD	00H
	DD	0ffffffffH
	DD	06b0H
	DD	03e8H
	DD	00H
	DD	0bH
	DD	00H
	DD	00H
	DD	00H
	DD	0ffH
	DD	00H
	DD	00H
	DD	00H
	DD	064fH
	DD	00H
	DD	00H
	DD	00H
	DD	080000H
	DD	0100000H
	DD	00H
	DD	03e8H
	DD	00H
	DD	00H
	DD	010H
	DD	00H
	DD	0ffffffffH
	DD	06b5H
	DD	03e8H
	DD	00H
	DD	0bH
	DD	00H
	DD	00H
	DD	00H
	DD	0ffH
	DD	00H
	DD	00H
	DD	00H
	DD	064fH
	DD	00H
	DD	00H
	DD	00H
	DD	080000H
	DD	0100000H
	DD	00H
	DD	03e8H
	DD	00H
	DD	00H
	DD	010H
	DD	00H
	DD	0ffffffffH
	DD	06baH
	DD	03e8H
	DD	00H
	DD	0bH
	DD	00H
	DD	00H
	DD	00H
	DD	0ffH
	DD	00H
	DD	00H
	DD	00H
	DD	064fH
	DD	00H
	DD	00H
	DD	00H
	DD	080000H
	DD	0100000H
	DD	00H
	DD	03e8H
	DD	00H
	DD	00H
	DD	010H
	DD	00H
	DD	0ffffffffH
	DD	06bfH
	DD	03e8H
	DD	00H
	DD	0bH
	DD	00H
	DD	00H
	DD	00H
	DD	0ffH
	DD	00H
	DD	00H
	DD	00H
	DD	064fH
	DD	00H
	DD	00H
	DD	00H
	DD	080000H
	DD	0100000H
	DD	00H
	DD	03e8H
	DD	00H
	DD	00H
	DD	010H
	DD	00H
	DD	0ffffffffH
	DD	06c4H
	DD	03e8H
	DD	00H
	DD	0bH
	DD	00H
	DD	00H
	DD	00H
	DD	0ffH
	DD	00H
	DD	00H
	DD	00H
	DD	064fH
	DD	00H
	DD	00H
	DD	00H
	DD	080000H
	DD	0100000H
	DD	00H
	DD	03e8H
	DD	00H
	DD	00H
	DD	010H
	DD	00H
	DD	0ffffffffH
	DD	06c9H
	DD	03e8H
	DD	00H
	DD	0bH
	DD	00H
	DD	00H
	DD	00H
	DD	0ffH
	DD	00H
	DD	00H
	DD	00H
	DD	064fH
	DD	00H
	DD	00H
	DD	00H
	DD	080000H
	DD	0100000H
	DD	00H
	DD	03e8H
	DD	00H
	DD	00H
	DD	010H
	DD	00H
	DD	0fa0H
	DD	06ceH
	DD	01H
	DD	06cfH
	DD	00H
	DD	020H
	DD	00H
	DD	00H
	DD	0c8H
	DD	00H
	DD	00H
	DD	00H
	DD	0669H
	DD	00H
	DD	077H
	DD	03H
	DD	0140000H
	DD	0280000H
	DD	00H
	DD	064H
	DD	00H
	DD	00H
	DD	01000005H
	DD	00H
	DD	0fa1H
	DD	06d2H
	DD	01H
	DD	06d4H
	DD	00H
	DD	02H
	DD	00H
	DD	00H
	DD	0c00H
	DD	00H
	DD	00H
	DD	00H
	DD	0669H
	DD	00H
	DD	077H
	DD	040000H
	DD	0110000H
	DD	0280000H
	DD	00H
	DD	064H
	DD	00H
	DD	00H
	DD	01000a05H
	DD	00H
	DD	0fa2H
	DD	06d6H
	DD	01H
	DD	06d7H
	DD	00H
	DD	02H
	DD	00H
	DD	00H
	DD	0c00H
	DD	00H
	DD	00H
	DD	00H
	DD	0669H
	DD	00H
	DD	077H
	DD	040000H
	DD	0160000H
	DD	0200000H
	DD	00H
	DD	064H
	DD	00H
	DD	00H
	DD	01000a05H
	DD	00H
	DD	0fa3H
	DD	06d9H
	DD	01H
	DD	06daH
	DD	00H
	DD	02H
	DD	00H
	DD	00H
	DD	0c00H
	DD	00H
	DD	00H
	DD	00H
	DD	0669H
	DD	00H
	DD	077H
	DD	040000H
	DD	0140000H
	DD	0280000H
	DD	00H
	DD	064H
	DD	00H
	DD	00H
	DD	01000a05H
	DD	00H
	DD	0fa4H
	DD	06dbH
	DD	01H
	DD	06dbH
	DD	00H
	DD	02H
	DD	00H
	DD	00H
	DD	0c00H
	DD	00H
	DD	00H
	DD	00H
	DD	0669H
	DD	00H
	DD	077H
	DD	010000H
	DD	0140000H
	DD	0200000H
	DD	00H
	DD	064H
	DD	00H
	DD	00H
	DD	01000005H
	DD	00H
	DD	0fa5H
	DD	06ddH
	DD	01H
	DD	06ddH
	DD	00H
	DD	02H
	DD	00H
	DD	00H
	DD	0c00H
	DD	00H
	DD	00H
	DD	00H
	DD	0669H
	DD	00H
	DD	077H
	DD	010000H
	DD	0140000H
	DD	0200000H
	DD	00H
	DD	064H
	DD	00H
	DD	00H
	DD	01000005H
	DD	00H
	DD	0fa6H
	DD	06dfH
	DD	01H
	DD	06dfH
	DD	00H
	DD	02H
	DD	00H
	DD	00H
	DD	0c00H
	DD	00H
	DD	00H
	DD	00H
	DD	0669H
	DD	00H
	DD	077H
	DD	010000H
	DD	0a0000H
	DD	0220000H
	DD	00H
	DD	064H
	DD	00H
	DD	00H
	DD	01000005H
	DD	00H
	DD	0fa7H
	DD	06e1H
	DD	01H
	DD	06e1H
	DD	00H
	DD	020H
	DD	00H
	DD	00H
	DD	0c8H
	DD	00H
	DD	00H
	DD	00H
	DD	0669H
	DD	00H
	DD	077H
	DD	010000H
	DD	0180000H
	DD	0200000H
	DD	00H
	DD	064H
	DD	00H
	DD	00H
	DD	01004205H
	DD	00H
	DD	0ffffffffH
	DD	06e0H
	DD	03e8H
	DD	06e0H
	DD	00H
	DD	02H
	DD	00H
	DD	00H
	DD	0c00H
	DD	00H
	DD	00H
	DD	00H
	DD	064fH
	DD	00H
	DD	077H
	DD	010000H
	DD	0140000H
	DD	0200000H
	DD	00H
	DD	064H
	DD	00H
	DD	00H
	DD	01210H
	DD	00H
	DD	0fa8H
	DD	06e6H
	DD	01H
	DD	06e6H
	DD	00H
	DD	020H
	DD	00H
	DD	00H
	DD	0c8H
	DD	00H
	DD	00H
	DD	00H
	DD	0669H
	DD	00H
	DD	077H
	DD	03H
	DD	0180000H
	DD	0200000H
	DD	00H
	DD	064H
	DD	00H
	DD	00H
	DD	01004305H
	DD	00H
	DD	0fa9H
	DD	06e8H
	DD	01H
	DD	06e8H
	DD	00H
	DD	020H
	DD	00H
	DD	00H
	DD	0c8H
	DD	00H
	DD	00H
	DD	00H
	DD	0669H
	DD	00H
	DD	077H
	DD	03H
	DD	0150000H
	DD	0450000H
	DD	00H
	DD	064H
	DD	00H
	DD	00H
	DD	01004205H
	DD	00H
	DD	0faaH
	DD	06eeH
	DD	01H
	DD	06eeH
	DD	00H
	DD	020H
	DD	00H
	DD	00H
	DD	0c8H
	DD	00H
	DD	00H
	DD	00H
	DD	0669H
	DD	00H
	DD	077H
	DD	03H
	DD	0240000H
	DD	03e0000H
	DD	00H
	DD	064H
	DD	00H
	DD	00H
	DD	01004205H
	DD	00H
	DD	0fabH
	DD	06f0H
	DD	01H
	DD	06f0H
	DD	00H
	DD	020H
	DD	00H
	DD	00H
	DD	0c8H
	DD	00H
	DD	00H
	DD	00H
	DD	0669H
	DD	00H
	DD	077H
	DD	03H
	DD	02c0000H
	DD	02d0000H
	DD	00H
	DD	064H
	DD	00H
	DD	00H
	DD	01004205H
	DD	00H
	DD	0facH
	DD	06f2H
	DD	01H
	DD	06f2H
	DD	00H
	DD	020H
	DD	00H
	DD	00H
	DD	0c8H
	DD	00H
	DD	00H
	DD	00H
	DD	0669H
	DD	00H
	DD	077H
	DD	03H
	DD	0a0000H
	DD	0350000H
	DD	00H
	DD	064H
	DD	00H
	DD	00H
	DD	01004203H
	DD	00H
	DD	0fadH
	DD	06f4H
	DD	03e8H
	DD	00H
	DD	00H
	DD	08H
	DD	00H
	DD	00H
	DD	00H
	DD	00H
	DD	00H
	DD	00H
	DD	00H
	DD	00H
	DD	00H
	DD	0150000H
	DD	0100000H
	DD	0280000H
	DD	00H
	DD	064H
	DD	01H
	DD	00H
	DD	0842H
	DD	00H
	DD	0faeH
	DD	06f7H
	DD	01H
	DD	06f7H
	DD	00H
	DD	020H
	DD	00H
	DD	00H
	DD	0c8H
	DD	00H
	DD	00H
	DD	00H
	DD	0669H
	DD	00H
	DD	077H
	DD	03H
	DD	0150000H
	DD	0450000H
	DD	00H
	DD	064H
	DD	00H
	DD	00H
	DD	01004205H
	DD	00H
	DD	0fafH
	DD	06fdH
	DD	01H
	DD	06feH
	DD	00H
	DD	02H
	DD	00H
	DD	00H
	DD	0c00H
	DD	00H
	DD	00H
	DD	00H
	DD	0669H
	DD	00H
	DD	077H
	DD	040000H
	DD	0110000H
	DD	0280000H
	DD	00H
	DD	064H
	DD	00H
	DD	00H
	DD	01000a05H
	DD	00H
	DD	0ffffffffH
	DD	06ffH
	DD	03e8H
	DD	00H
	DD	00H
	DD	08H
	DD	00H
	DD	00H
	DD	00H
	DD	00H
	DD	00H
	DD	00H
	DD	064fH
	DD	00H
	DD	00H
	DD	03c0000H
	DD	01e0000H
	DD	0280000H
	DD	00H
	DD	064H
	DD	00H
	DD	00H
	DD	010218H
	DD	00H
	ORG $+12288
_DATA	ENDS
PUBLIC	_P_PatchInfoTables
PUBLIC	_P_BackupTables
PUBLIC	_P_ResetData
EXTRN	_memset:PROC
EXTRN	_M_Memcpy:DWORD
_BSS	SEGMENT
_sprnamesbackup DB 0744H DUP (?)
_statesbackup DB 011800H DUP (?)
_mobjinfobackup DB 0a740H DUP (?)
_BSS	ENDS
; Function compile flags: /Odtp /ZI
; File C:\Users\RafaTheFox\Downloads\SRB2-Public-master\src\info.c
;	COMDAT _P_ResetData
_TEXT	SEGMENT
_flags$ = 8						; size = 4
_P_ResetData PROC					; COMDAT

; 10985: {

  00000	55		 push	 ebp
  00001	8b ec		 mov	 ebp, esp
  00003	83 ec 40	 sub	 esp, 64			; 00000040H
  00006	53		 push	 ebx
  00007	56		 push	 esi
  00008	57		 push	 edi

; 10986: 	if (flags & 1)

  00009	8b 45 08	 mov	 eax, DWORD PTR _flags$[ebp]
  0000c	83 e0 01	 and	 eax, 1
  0000f	74 18		 je	 SHORT $LN2@P_ResetDat

; 10987: 		M_Memcpy(sprnames, sprnamesbackup, sizeof(sprnamesbackup));

  00011	68 44 07 00 00	 push	 1860			; 00000744H
  00016	68 00 00 00 00	 push	 OFFSET _sprnamesbackup
  0001b	68 00 00 00 00	 push	 OFFSET _sprnames
  00020	ff 15 00 00 00
	00		 call	 DWORD PTR _M_Memcpy
  00026	83 c4 0c	 add	 esp, 12			; 0000000cH
$LN2@P_ResetDat:

; 10988: 
; 10989: 	if (flags & 2)

  00029	8b 45 08	 mov	 eax, DWORD PTR _flags$[ebp]
  0002c	83 e0 02	 and	 eax, 2
  0002f	74 18		 je	 SHORT $LN3@P_ResetDat

; 10990: 		M_Memcpy(states, statesbackup, sizeof(statesbackup));

  00031	68 00 18 01 00	 push	 71680			; 00011800H
  00036	68 00 00 00 00	 push	 OFFSET _statesbackup
  0003b	68 00 00 00 00	 push	 OFFSET _states
  00040	ff 15 00 00 00
	00		 call	 DWORD PTR _M_Memcpy
  00046	83 c4 0c	 add	 esp, 12			; 0000000cH
$LN3@P_ResetDat:

; 10991: 
; 10992: 	if (flags & 4)

  00049	8b 45 08	 mov	 eax, DWORD PTR _flags$[ebp]
  0004c	83 e0 04	 and	 eax, 4
  0004f	74 18		 je	 SHORT $LN4@P_ResetDat

; 10993: 		M_Memcpy(mobjinfo, mobjinfobackup, sizeof(mobjinfobackup));

  00051	68 40 a7 00 00	 push	 42816			; 0000a740H
  00056	68 00 00 00 00	 push	 OFFSET _mobjinfobackup
  0005b	68 00 00 00 00	 push	 OFFSET _mobjinfo
  00060	ff 15 00 00 00
	00		 call	 DWORD PTR _M_Memcpy
  00066	83 c4 0c	 add	 esp, 12			; 0000000cH
$LN4@P_ResetDat:

; 10994: }

  00069	5f		 pop	 edi
  0006a	5e		 pop	 esi
  0006b	5b		 pop	 ebx
  0006c	8b e5		 mov	 esp, ebp
  0006e	5d		 pop	 ebp
  0006f	c3		 ret	 0
_P_ResetData ENDP
_TEXT	ENDS
; Function compile flags: /Odtp /ZI
; File C:\Users\RafaTheFox\Downloads\SRB2-Public-master\src\info.c
;	COMDAT _P_BackupTables
_TEXT	SEGMENT
_P_BackupTables PROC					; COMDAT

; 10978: {

  00000	55		 push	 ebp
  00001	8b ec		 mov	 ebp, esp
  00003	83 ec 40	 sub	 esp, 64			; 00000040H
  00006	53		 push	 ebx
  00007	56		 push	 esi
  00008	57		 push	 edi

; 10979: 	M_Memcpy(sprnamesbackup, sprnames, sizeof(sprnames));

  00009	68 44 07 00 00	 push	 1860			; 00000744H
  0000e	68 00 00 00 00	 push	 OFFSET _sprnames
  00013	68 00 00 00 00	 push	 OFFSET _sprnamesbackup
  00018	ff 15 00 00 00
	00		 call	 DWORD PTR _M_Memcpy
  0001e	83 c4 0c	 add	 esp, 12			; 0000000cH

; 10980: 	M_Memcpy(statesbackup, states, sizeof(states));

  00021	68 00 18 01 00	 push	 71680			; 00011800H
  00026	68 00 00 00 00	 push	 OFFSET _states
  0002b	68 00 00 00 00	 push	 OFFSET _statesbackup
  00030	ff 15 00 00 00
	00		 call	 DWORD PTR _M_Memcpy
  00036	83 c4 0c	 add	 esp, 12			; 0000000cH

; 10981: 	M_Memcpy(mobjinfobackup, mobjinfo, sizeof(mobjinfo));

  00039	68 40 a7 00 00	 push	 42816			; 0000a740H
  0003e	68 00 00 00 00	 push	 OFFSET _mobjinfo
  00043	68 00 00 00 00	 push	 OFFSET _mobjinfobackup
  00048	ff 15 00 00 00
	00		 call	 DWORD PTR _M_Memcpy
  0004e	83 c4 0c	 add	 esp, 12			; 0000000cH

; 10982: }

  00051	5f		 pop	 edi
  00052	5e		 pop	 esi
  00053	5b		 pop	 ebx
  00054	8b e5		 mov	 esp, ebp
  00056	5d		 pop	 ebp
  00057	c3		 ret	 0
_P_BackupTables ENDP
_TEXT	ENDS
; Function compile flags: /Odtp /ZI
; File C:\Users\RafaTheFox\Downloads\SRB2-Public-master\src\info.c
;	COMDAT _P_PatchInfoTables
_TEXT	SEGMENT
_tempname$ = -8						; size = 4
_i$ = -4						; size = 4
_P_PatchInfoTables PROC					; COMDAT

; 10903: {

  00000	55		 push	 ebp
  00001	8b ec		 mov	 ebp, esp
  00003	83 ec 48	 sub	 esp, 72			; 00000048H
  00006	53		 push	 ebx
  00007	56		 push	 esi
  00008	57		 push	 edi

; 10904: 	INT32 i;
; 10905: 	char *tempname;
; 10906: 
; 10907: #if NUMSPRITEFREESLOTS > 1000
; 10908: "Update P_PatchInfoTables, you big dumb head"
; 10909: #endif
; 10910: 
; 10911: 	// empty out free slots
; 10912: 	for (i = SPR_FIRSTFREESLOT; i <= SPR_LASTFREESLOT; i++)

  00009	c7 45 fc f3 00
	00 00		 mov	 DWORD PTR _i$[ebp], 243	; 000000f3H
  00010	eb 09		 jmp	 SHORT $LN4@P_PatchInf
$LN2@P_PatchInf:
  00012	8b 45 fc	 mov	 eax, DWORD PTR _i$[ebp]
  00015	83 c0 01	 add	 eax, 1
  00018	89 45 fc	 mov	 DWORD PTR _i$[ebp], eax
$LN4@P_PatchInf:
  0001b	81 7d fc 72 01
	00 00		 cmp	 DWORD PTR _i$[ebp], 370	; 00000172H
  00022	0f 8f a2 00 00
	00		 jg	 $LN3@P_PatchInf

; 10913: 	{
; 10914: 		tempname = sprnames[i];

  00028	6b 45 fc 05	 imul	 eax, DWORD PTR _i$[ebp], 5
  0002c	05 00 00 00 00	 add	 eax, OFFSET _sprnames
  00031	89 45 f8	 mov	 DWORD PTR _tempname$[ebp], eax

; 10915: 		tempname[0] = 'F';

  00034	b8 01 00 00 00	 mov	 eax, 1
  00039	6b c8 00	 imul	 ecx, eax, 0
  0003c	8b 55 f8	 mov	 edx, DWORD PTR _tempname$[ebp]
  0003f	c6 04 0a 46	 mov	 BYTE PTR [edx+ecx], 70	; 00000046H

; 10916: 		tempname[1] = (char)('0' + (char)((i-SPR_FIRSTFREESLOT+1)/100));

  00043	8b 45 fc	 mov	 eax, DWORD PTR _i$[ebp]
  00046	2d f2 00 00 00	 sub	 eax, 242		; 000000f2H
  0004b	99		 cdq
  0004c	b9 64 00 00 00	 mov	 ecx, 100		; 00000064H
  00051	f7 f9		 idiv	 ecx
  00053	0f be d0	 movsx	 edx, al
  00056	83 c2 30	 add	 edx, 48			; 00000030H
  00059	b8 01 00 00 00	 mov	 eax, 1
  0005e	c1 e0 00	 shl	 eax, 0
  00061	8b 4d f8	 mov	 ecx, DWORD PTR _tempname$[ebp]
  00064	88 14 01	 mov	 BYTE PTR [ecx+eax], dl

; 10917: 		tempname[2] = (char)('0' + (char)(((i-SPR_FIRSTFREESLOT+1)/10)%10));

  00067	8b 45 fc	 mov	 eax, DWORD PTR _i$[ebp]
  0006a	2d f2 00 00 00	 sub	 eax, 242		; 000000f2H
  0006f	99		 cdq
  00070	b9 0a 00 00 00	 mov	 ecx, 10			; 0000000aH
  00075	f7 f9		 idiv	 ecx
  00077	99		 cdq
  00078	b9 0a 00 00 00	 mov	 ecx, 10			; 0000000aH
  0007d	f7 f9		 idiv	 ecx
  0007f	0f be d2	 movsx	 edx, dl
  00082	83 c2 30	 add	 edx, 48			; 00000030H
  00085	b8 01 00 00 00	 mov	 eax, 1
  0008a	d1 e0		 shl	 eax, 1
  0008c	8b 4d f8	 mov	 ecx, DWORD PTR _tempname$[ebp]
  0008f	88 14 01	 mov	 BYTE PTR [ecx+eax], dl

; 10918: 		tempname[3] = (char)('0' + (char)((i-SPR_FIRSTFREESLOT+1)%10));

  00092	8b 45 fc	 mov	 eax, DWORD PTR _i$[ebp]
  00095	2d f2 00 00 00	 sub	 eax, 242		; 000000f2H
  0009a	99		 cdq
  0009b	b9 0a 00 00 00	 mov	 ecx, 10			; 0000000aH
  000a0	f7 f9		 idiv	 ecx
  000a2	0f be d2	 movsx	 edx, dl
  000a5	83 c2 30	 add	 edx, 48			; 00000030H
  000a8	b8 01 00 00 00	 mov	 eax, 1
  000ad	6b c8 03	 imul	 ecx, eax, 3
  000b0	8b 45 f8	 mov	 eax, DWORD PTR _tempname$[ebp]
  000b3	88 14 08	 mov	 BYTE PTR [eax+ecx], dl

; 10919: 		tempname[4] = '\0';

  000b6	b8 01 00 00 00	 mov	 eax, 1
  000bb	c1 e0 02	 shl	 eax, 2
  000be	8b 4d f8	 mov	 ecx, DWORD PTR _tempname$[ebp]
  000c1	c6 04 01 00	 mov	 BYTE PTR [ecx+eax], 0

; 10920: 	}

  000c5	e9 48 ff ff ff	 jmp	 $LN2@P_PatchInf
$LN3@P_PatchInf:

; 10921: 	sprnames[i][0] = '\0'; // i == NUMSPRITES

  000ca	6b 45 fc 05	 imul	 eax, DWORD PTR _i$[ebp], 5
  000ce	b9 01 00 00 00	 mov	 ecx, 1
  000d3	6b d1 00	 imul	 edx, ecx, 0
  000d6	c6 84 10 00 00
	00 00 00	 mov	 BYTE PTR _sprnames[eax+edx], 0

; 10922: 	memset(&states[S_FIRSTFREESLOT], 0, sizeof (state_t) * NUMSTATEFREESLOTS);

  000de	68 00 54 00 00	 push	 21504			; 00005400H
  000e3	6a 00		 push	 0
  000e5	b8 1c 00 00 00	 mov	 eax, 28			; 0000001cH
  000ea	69 c8 00 07 00
	00		 imul	 ecx, eax, 1792
  000f0	81 c1 00 00 00
	00		 add	 ecx, OFFSET _states
  000f6	51		 push	 ecx
  000f7	e8 00 00 00 00	 call	 _memset
  000fc	83 c4 0c	 add	 esp, 12			; 0000000cH

; 10923: 	memset(&mobjinfo[MT_FIRSTFREESLOT], 0, sizeof (mobjinfo_t) * NUMMOBJFREESLOTS);

  000ff	68 00 30 00 00	 push	 12288			; 00003000H
  00104	6a 00		 push	 0
  00106	b8 60 00 00 00	 mov	 eax, 96			; 00000060H
  0010b	69 c8 3e 01 00
	00		 imul	 ecx, eax, 318
  00111	81 c1 00 00 00
	00		 add	 ecx, OFFSET _mobjinfo
  00117	51		 push	 ecx
  00118	e8 00 00 00 00	 call	 _memset
  0011d	83 c4 0c	 add	 esp, 12			; 0000000cH

; 10924: 	for (i = MT_FIRSTFREESLOT; i <= MT_LASTFREESLOT; i++)

  00120	c7 45 fc 3e 01
	00 00		 mov	 DWORD PTR _i$[ebp], 318	; 0000013eH
  00127	eb 09		 jmp	 SHORT $LN7@P_PatchInf
$LN5@P_PatchInf:
  00129	8b 45 fc	 mov	 eax, DWORD PTR _i$[ebp]
  0012c	83 c0 01	 add	 eax, 1
  0012f	89 45 fc	 mov	 DWORD PTR _i$[ebp], eax
$LN7@P_PatchInf:
  00132	81 7d fc bd 01
	00 00		 cmp	 DWORD PTR _i$[ebp], 445	; 000001bdH
  00139	7f 10		 jg	 SHORT $LN6@P_PatchInf

; 10925: 		mobjinfo[i].doomednum = -1;

  0013b	6b 45 fc 60	 imul	 eax, DWORD PTR _i$[ebp], 96
  0013f	c7 80 00 00 00
	00 ff ff ff ff	 mov	 DWORD PTR _mobjinfo[eax], -1
  00149	eb de		 jmp	 SHORT $LN5@P_PatchInf
$LN6@P_PatchInf:

; 10926: 
; 10927: #if NEWTICRATERATIO != 1
; 10928: 	for (i = 0; i < MT_FIRSTFREESLOT; i++)
; 10929: 	{
; 10930: 		// Check fields against size to ensure a better guess
; 10931: 		// that this field is used for momentum.
; 10932: 		if (mobjinfo[i].spawnhealth >= FRACUNIT)
; 10933: 			mobjinfo[i].spawnhealth *= NEWTICRATERATIO;
; 10934: 
; 10935: 		if (mobjinfo[i].seestate >= FRACUNIT)
; 10936: 			mobjinfo[i].seestate *= NEWTICRATERATIO;
; 10937: 
; 10938: 		if (mobjinfo[i].reactiontime >= FRACUNIT)
; 10939: 			mobjinfo[i].reactiontime *= NEWTICRATERATIO;
; 10940: 
; 10941: 		if (mobjinfo[i].painstate >= FRACUNIT)
; 10942: 			mobjinfo[i].painstate *= NEWTICRATERATIO;
; 10943: 
; 10944: 		if (mobjinfo[i].painchance >= FRACUNIT)
; 10945: 			mobjinfo[i].painchance *= NEWTICRATERATIO;
; 10946: 
; 10947: 		if (mobjinfo[i].meleestate >= FRACUNIT)
; 10948: 			mobjinfo[i].meleestate *= NEWTICRATERATIO;
; 10949: 
; 10950: 		if (mobjinfo[i].missilestate >= FRACUNIT)
; 10951: 			mobjinfo[i].missilestate *= NEWTICRATERATIO;
; 10952: 
; 10953: 		if (mobjinfo[i].deathstate >= FRACUNIT)
; 10954: 			mobjinfo[i].deathstate *= NEWTICRATERATIO;
; 10955: 
; 10956: 		if (mobjinfo[i].xdeathstate >= FRACUNIT)
; 10957: 			mobjinfo[i].xdeathstate *= NEWTICRATERATIO;
; 10958: 
; 10959: 		// We really don't need to check this one...
; 10960: 		mobjinfo[i].speed *= NEWTICRATERATIO;
; 10961: 
; 10962: 		if (mobjinfo[i].mass >= FRACUNIT)
; 10963: 			mobjinfo[i].mass *= NEWTICRATERATIO;
; 10964: 
; 10965: 		if (mobjinfo[i].damage >= FRACUNIT)
; 10966: 			mobjinfo[i].damage *= NEWTICRATERATIO;
; 10967: 
; 10968: 		if (mobjinfo[i].raisestate >= FRACUNIT)
; 10969: 			mobjinfo[i].raisestate *= NEWTICRATERATIO;
; 10970: 	}
; 10971: 
; 10972: 	for (i = 0; i < NUMSTATES; i++)
; 10973: 		states[i].tics *= NEWTICRATERATIO;
; 10974: #endif
; 10975: }

  0014b	5f		 pop	 edi
  0014c	5e		 pop	 esi
  0014d	5b		 pop	 ebx
  0014e	8b e5		 mov	 esp, ebp
  00150	5d		 pop	 ebp
  00151	c3		 ret	 0
_P_PatchInfoTables ENDP
_TEXT	ENDS
END
