; Listing generated by Microsoft (R) Optimizing Compiler Version 19.41.34123.0 

	TITLE	C:\Users\RafaTheFox\Desktop\SRB2-Public-master (1)\SRB2-Public-master\objs\VC10\Win32\Debug\m_fixed.obj
	.686P
	.XMM
	include listing.inc
	.model	flat

INCLUDELIB LIBCMTD
INCLUDELIB OLDNAMES

_DATA	SEGMENT
COMM	_ATTRPACK:DWORD
_DATA	ENDS
PUBLIC	_FixedSqrt
PUBLIC	_FixedHypot
PUBLIC	_FV_Load
PUBLIC	_FV_Copy
PUBLIC	_FV_AddEx
PUBLIC	_FV_Add
PUBLIC	_FV_SubEx
PUBLIC	_FV_Sub
PUBLIC	_FV_MulEx
PUBLIC	_FV_Mul
PUBLIC	_FV_DivideEx
PUBLIC	_FV_Divide
PUBLIC	_FV_Midpoint
PUBLIC	_FV_Distance
PUBLIC	_FV_Magnitude
PUBLIC	_FV_NormalizeEx
PUBLIC	_FV_Normalize
PUBLIC	_FV_NegateEx
PUBLIC	_FV_Negate
PUBLIC	_FV_Equal
PUBLIC	_FV_Dot
PUBLIC	_FV_Cross
PUBLIC	_FV_ClosestPointOnLine
PUBLIC	_FV_ClosestPointOnTriangle
PUBLIC	_FV_Point2Vec
PUBLIC	_FV_Normal
PUBLIC	_FV_PlaneDistance
PUBLIC	_FV_IntersectedPlane
PUBLIC	_FV_PlaneIntersection
PUBLIC	_FV_IntersectRaySphere
PUBLIC	_FV_IntersectionPoint
PUBLIC	_FV_PointOnLineSide
PUBLIC	_FV_PointInsideBox
PUBLIC	_FM_LoadIdentity
PUBLIC	_FM_CreateObjectMatrix
PUBLIC	_FM_MultMatrixVec
PUBLIC	_FM_MultMatrix
PUBLIC	_FM_Translate
PUBLIC	_FM_Scale
PUBLIC	__real@47800000
EXTRN	_memset:PROC
EXTRN	_abs:PROC
EXTRN	_sqrt:PROC
EXTRN	_hypot:PROC
EXTRN	_FixedMul:PROC
EXTRN	_FixedDiv2:PROC
EXTRN	@__security_check_cookie@4:PROC
EXTRN	_M_Memcpy:DWORD
EXTRN	___security_cookie:DWORD
EXTRN	__fltused:DWORD
;	COMDAT __real@47800000
CONST	SEGMENT
__real@47800000 DD 047800000r			; 65536
CONST	ENDS
;	COMDAT voltbl
voltbl	SEGMENT
_volmd	DB	010H
	DB	076H
voltbl	ENDS
;	COMDAT voltbl
voltbl	SEGMENT
_volmd	DB	010H
	DB	0a6H
voltbl	ENDS
;	COMDAT voltbl
voltbl	SEGMENT
_volmd	DW	010H
	DW	010dH
voltbl	ENDS
;	COMDAT voltbl
voltbl	SEGMENT
_volmd	DW	0dH
	DW	01bbH
voltbl	ENDS
;	COMDAT voltbl
voltbl	SEGMENT
_volmd	DW	0dH
	DW	011aH
voltbl	ENDS
;	COMDAT voltbl
voltbl	SEGMENT
_volmd	DW	0dH
	DW	01a9H
voltbl	ENDS
;	COMDAT voltbl
voltbl	SEGMENT
_volmd	DB	0dH
	DB	0a3H
voltbl	ENDS
;	COMDAT voltbl
voltbl	SEGMENT
_volmd	DB	0dH
	DB	081H
voltbl	ENDS
;	COMDAT voltbl
voltbl	SEGMENT
_volmd	DW	010H
	DW	01c2H
voltbl	ENDS
;	COMDAT voltbl
voltbl	SEGMENT
_volmd	DW	0dH
	DW	0111H
voltbl	ENDS
; Function compile flags: /Odtp /ZI
; File C:\Users\RafaTheFox\Desktop\SRB2-Public-master (1)\SRB2-Public-master\src\m_fixed.c
;	COMDAT _FM_Scale
_TEXT	SEGMENT
_scale$ = -68						; size = 64
__$ArrayPad$ = -4					; size = 4
_dest$ = 8						; size = 4
_x$ = 12						; size = 4
_y$ = 16						; size = 4
_z$ = 20						; size = 4
_FM_Scale PROC						; COMDAT

; 732  : {

  00000	55		 push	 ebp
  00001	8b ec		 mov	 ebp, esp
  00003	81 ec 84 00 00
	00		 sub	 esp, 132		; 00000084H
  00009	a1 00 00 00 00	 mov	 eax, DWORD PTR ___security_cookie
  0000e	33 c5		 xor	 eax, ebp
  00010	89 45 fc	 mov	 DWORD PTR __$ArrayPad$[ebp], eax
  00013	53		 push	 ebx
  00014	56		 push	 esi
  00015	57		 push	 edi

; 733  : 	matrix_t scale;
; 734  : #define M(row,col)  scale.m[col * 4 + row]
; 735  : 
; 736  : 	memset(&scale, 0x00, sizeof(matrix_t));

  00016	6a 40		 push	 64			; 00000040H
  00018	6a 00		 push	 0
  0001a	8d 45 bc	 lea	 eax, DWORD PTR _scale$[ebp]
  0001d	50		 push	 eax
  0001e	e8 00 00 00 00	 call	 _memset
  00023	83 c4 0c	 add	 esp, 12			; 0000000cH

; 737  : 
; 738  : 	M(3, 3) = FRACUNIT;

  00026	b8 04 00 00 00	 mov	 eax, 4
  0002b	6b c8 0f	 imul	 ecx, eax, 15
  0002e	c7 44 0d bc 00
	00 01 00	 mov	 DWORD PTR _scale$[ebp+ecx], 65536 ; 00010000H

; 739  : 	M(0, 0) = x;

  00036	b8 04 00 00 00	 mov	 eax, 4
  0003b	6b c8 00	 imul	 ecx, eax, 0
  0003e	8b 55 0c	 mov	 edx, DWORD PTR _x$[ebp]
  00041	89 54 0d bc	 mov	 DWORD PTR _scale$[ebp+ecx], edx

; 740  : 	M(1, 1) = y;

  00045	b8 04 00 00 00	 mov	 eax, 4
  0004a	6b c8 05	 imul	 ecx, eax, 5
  0004d	8b 55 10	 mov	 edx, DWORD PTR _y$[ebp]
  00050	89 54 0d bc	 mov	 DWORD PTR _scale$[ebp+ecx], edx

; 741  : 	M(2, 2) = z;

  00054	b8 04 00 00 00	 mov	 eax, 4
  00059	6b c8 0a	 imul	 ecx, eax, 10
  0005c	8b 55 14	 mov	 edx, DWORD PTR _z$[ebp]
  0005f	89 54 0d bc	 mov	 DWORD PTR _scale$[ebp+ecx], edx

; 742  : 
; 743  : 	FM_MultMatrix(dest, &scale);

  00063	8d 45 bc	 lea	 eax, DWORD PTR _scale$[ebp]
  00066	50		 push	 eax
  00067	8b 4d 08	 mov	 ecx, DWORD PTR _dest$[ebp]
  0006a	51		 push	 ecx
  0006b	e8 00 00 00 00	 call	 _FM_MultMatrix
  00070	83 c4 08	 add	 esp, 8

; 744  : #undef M
; 745  : }

  00073	5f		 pop	 edi
  00074	5e		 pop	 esi
  00075	5b		 pop	 ebx
  00076	8b 4d fc	 mov	 ecx, DWORD PTR __$ArrayPad$[ebp]
  00079	33 cd		 xor	 ecx, ebp
  0007b	e8 00 00 00 00	 call	 @__security_check_cookie@4
  00080	8b e5		 mov	 esp, ebp
  00082	5d		 pop	 ebp
  00083	c3		 ret	 0
_FM_Scale ENDP
_TEXT	ENDS
; Function compile flags: /Odtp /ZI
; File C:\Users\RafaTheFox\Desktop\SRB2-Public-master (1)\SRB2-Public-master\src\m_fixed.c
;	COMDAT _FM_Translate
_TEXT	SEGMENT
_trans$ = -68						; size = 64
__$ArrayPad$ = -4					; size = 4
_dest$ = 8						; size = 4
_x$ = 12						; size = 4
_y$ = 16						; size = 4
_z$ = 20						; size = 4
_FM_Translate PROC					; COMDAT

; 711  : {

  00000	55		 push	 ebp
  00001	8b ec		 mov	 ebp, esp
  00003	81 ec 84 00 00
	00		 sub	 esp, 132		; 00000084H
  00009	a1 00 00 00 00	 mov	 eax, DWORD PTR ___security_cookie
  0000e	33 c5		 xor	 eax, ebp
  00010	89 45 fc	 mov	 DWORD PTR __$ArrayPad$[ebp], eax
  00013	53		 push	 ebx
  00014	56		 push	 esi
  00015	57		 push	 edi

; 712  : 	matrix_t trans;
; 713  : #define M(row,col)  trans.m[col * 4 + row]
; 714  : 
; 715  : 	memset(&trans, 0x00, sizeof(matrix_t));

  00016	6a 40		 push	 64			; 00000040H
  00018	6a 00		 push	 0
  0001a	8d 45 bc	 lea	 eax, DWORD PTR _trans$[ebp]
  0001d	50		 push	 eax
  0001e	e8 00 00 00 00	 call	 _memset
  00023	83 c4 0c	 add	 esp, 12			; 0000000cH

; 716  : 
; 717  : 	M(0, 0) = M(1, 1) = M(2, 2) = M(3, 3) = FRACUNIT;

  00026	b8 04 00 00 00	 mov	 eax, 4
  0002b	6b c8 0f	 imul	 ecx, eax, 15
  0002e	c7 44 0d bc 00
	00 01 00	 mov	 DWORD PTR _trans$[ebp+ecx], 65536 ; 00010000H
  00036	ba 04 00 00 00	 mov	 edx, 4
  0003b	6b c2 0a	 imul	 eax, edx, 10
  0003e	c7 44 05 bc 00
	00 01 00	 mov	 DWORD PTR _trans$[ebp+eax], 65536 ; 00010000H
  00046	b9 04 00 00 00	 mov	 ecx, 4
  0004b	6b d1 05	 imul	 edx, ecx, 5
  0004e	c7 44 15 bc 00
	00 01 00	 mov	 DWORD PTR _trans$[ebp+edx], 65536 ; 00010000H
  00056	b8 04 00 00 00	 mov	 eax, 4
  0005b	6b c8 00	 imul	 ecx, eax, 0
  0005e	c7 44 0d bc 00
	00 01 00	 mov	 DWORD PTR _trans$[ebp+ecx], 65536 ; 00010000H

; 718  : 	M(0, 3) = x;

  00066	b8 04 00 00 00	 mov	 eax, 4
  0006b	6b c8 0c	 imul	 ecx, eax, 12
  0006e	8b 55 0c	 mov	 edx, DWORD PTR _x$[ebp]
  00071	89 54 0d bc	 mov	 DWORD PTR _trans$[ebp+ecx], edx

; 719  : 	M(1, 3) = y;

  00075	b8 04 00 00 00	 mov	 eax, 4
  0007a	6b c8 0d	 imul	 ecx, eax, 13
  0007d	8b 55 10	 mov	 edx, DWORD PTR _y$[ebp]
  00080	89 54 0d bc	 mov	 DWORD PTR _trans$[ebp+ecx], edx

; 720  : 	M(2, 3) = z;

  00084	b8 04 00 00 00	 mov	 eax, 4
  00089	6b c8 0e	 imul	 ecx, eax, 14
  0008c	8b 55 14	 mov	 edx, DWORD PTR _z$[ebp]
  0008f	89 54 0d bc	 mov	 DWORD PTR _trans$[ebp+ecx], edx

; 721  : 
; 722  : 	FM_MultMatrix(dest, &trans);

  00093	8d 45 bc	 lea	 eax, DWORD PTR _trans$[ebp]
  00096	50		 push	 eax
  00097	8b 4d 08	 mov	 ecx, DWORD PTR _dest$[ebp]
  0009a	51		 push	 ecx
  0009b	e8 00 00 00 00	 call	 _FM_MultMatrix
  000a0	83 c4 08	 add	 esp, 8

; 723  : #undef M
; 724  : }

  000a3	5f		 pop	 edi
  000a4	5e		 pop	 esi
  000a5	5b		 pop	 ebx
  000a6	8b 4d fc	 mov	 ecx, DWORD PTR __$ArrayPad$[ebp]
  000a9	33 cd		 xor	 ecx, ebp
  000ab	e8 00 00 00 00	 call	 @__security_check_cookie@4
  000b0	8b e5		 mov	 esp, ebp
  000b2	5d		 pop	 ebp
  000b3	c3		 ret	 0
_FM_Translate ENDP
_TEXT	ENDS
; Function compile flags: /Odtp /ZI
; File C:\Users\RafaTheFox\Desktop\SRB2-Public-master (1)\SRB2-Public-master\src\m_fixed.c
;	COMDAT _FM_MultMatrix
_TEXT	SEGMENT
_j$ = -70						; size = 1
_i$ = -69						; size = 1
_result$ = -68						; size = 64
__$ArrayPad$ = -4					; size = 4
_dest$ = 8						; size = 4
_multme$ = 12						; size = 4
_FM_MultMatrix PROC					; COMDAT

; 685  : {

  00000	55		 push	 ebp
  00001	8b ec		 mov	 ebp, esp
  00003	81 ec 88 00 00
	00		 sub	 esp, 136		; 00000088H
  00009	a1 00 00 00 00	 mov	 eax, DWORD PTR ___security_cookie
  0000e	33 c5		 xor	 eax, ebp
  00010	89 45 fc	 mov	 DWORD PTR __$ArrayPad$[ebp], eax
  00013	53		 push	 ebx
  00014	56		 push	 esi
  00015	57		 push	 edi

; 686  : 	matrix_t result;
; 687  : 	UINT8 i, j;
; 688  : #define M(row,col)  multme->m[col * 4 + row]
; 689  : #define D(row,col)  dest->m[col * 4 + row]
; 690  : #define R(row,col)  result.m[col * 4 + row]
; 691  : 
; 692  : 	for (i = 0; i < 4; i++)

  00016	c6 45 bb 00	 mov	 BYTE PTR _i$[ebp], 0
  0001a	eb 08		 jmp	 SHORT $LN4@FM_MultMat
$LN2@FM_MultMat:
  0001c	8a 45 bb	 mov	 al, BYTE PTR _i$[ebp]
  0001f	04 01		 add	 al, 1
  00021	88 45 bb	 mov	 BYTE PTR _i$[ebp], al
$LN4@FM_MultMat:
  00024	0f b6 45 bb	 movzx	 eax, BYTE PTR _i$[ebp]
  00028	83 f8 04	 cmp	 eax, 4
  0002b	0f 8d c6 00 00
	00		 jge	 $LN3@FM_MultMat

; 693  : 	{
; 694  : 		for (j = 0; j < 4; j++)

  00031	c6 45 ba 00	 mov	 BYTE PTR _j$[ebp], 0
  00035	eb 08		 jmp	 SHORT $LN7@FM_MultMat
$LN5@FM_MultMat:
  00037	8a 45 ba	 mov	 al, BYTE PTR _j$[ebp]
  0003a	04 01		 add	 al, 1
  0003c	88 45 ba	 mov	 BYTE PTR _j$[ebp], al
$LN7@FM_MultMat:
  0003f	0f b6 45 ba	 movzx	 eax, BYTE PTR _j$[ebp]
  00043	83 f8 04	 cmp	 eax, 4
  00046	0f 8d a6 00 00
	00		 jge	 $LN6@FM_MultMat

; 695  : 			R(i, j) = FixedMul(D(i, 0),M(0, j)) + FixedMul(D(i, 1),M(1, j)) + FixedMul(D(i, 2),M(2, j)) + FixedMul(D(i, 3),M(3, j));

  0004c	0f b6 45 ba	 movzx	 eax, BYTE PTR _j$[ebp]
  00050	c1 e0 02	 shl	 eax, 2
  00053	8b 4d 0c	 mov	 ecx, DWORD PTR _multme$[ebp]
  00056	8b 14 81	 mov	 edx, DWORD PTR [ecx+eax*4]
  00059	52		 push	 edx
  0005a	0f b6 45 bb	 movzx	 eax, BYTE PTR _i$[ebp]
  0005e	8b 4d 08	 mov	 ecx, DWORD PTR _dest$[ebp]
  00061	8b 14 81	 mov	 edx, DWORD PTR [ecx+eax*4]
  00064	52		 push	 edx
  00065	e8 00 00 00 00	 call	 _FixedMul
  0006a	83 c4 08	 add	 esp, 8
  0006d	8b f0		 mov	 esi, eax
  0006f	0f b6 45 ba	 movzx	 eax, BYTE PTR _j$[ebp]
  00073	c1 e0 02	 shl	 eax, 2
  00076	8b 4d 0c	 mov	 ecx, DWORD PTR _multme$[ebp]
  00079	8b 54 81 04	 mov	 edx, DWORD PTR [ecx+eax*4+4]
  0007d	52		 push	 edx
  0007e	0f b6 45 bb	 movzx	 eax, BYTE PTR _i$[ebp]
  00082	8b 4d 08	 mov	 ecx, DWORD PTR _dest$[ebp]
  00085	8b 54 81 10	 mov	 edx, DWORD PTR [ecx+eax*4+16]
  00089	52		 push	 edx
  0008a	e8 00 00 00 00	 call	 _FixedMul
  0008f	83 c4 08	 add	 esp, 8
  00092	03 f0		 add	 esi, eax
  00094	0f b6 45 ba	 movzx	 eax, BYTE PTR _j$[ebp]
  00098	c1 e0 02	 shl	 eax, 2
  0009b	8b 4d 0c	 mov	 ecx, DWORD PTR _multme$[ebp]
  0009e	8b 54 81 08	 mov	 edx, DWORD PTR [ecx+eax*4+8]
  000a2	52		 push	 edx
  000a3	0f b6 45 bb	 movzx	 eax, BYTE PTR _i$[ebp]
  000a7	8b 4d 08	 mov	 ecx, DWORD PTR _dest$[ebp]
  000aa	8b 54 81 20	 mov	 edx, DWORD PTR [ecx+eax*4+32]
  000ae	52		 push	 edx
  000af	e8 00 00 00 00	 call	 _FixedMul
  000b4	83 c4 08	 add	 esp, 8
  000b7	03 f0		 add	 esi, eax
  000b9	0f b6 45 ba	 movzx	 eax, BYTE PTR _j$[ebp]
  000bd	c1 e0 02	 shl	 eax, 2
  000c0	8b 4d 0c	 mov	 ecx, DWORD PTR _multme$[ebp]
  000c3	8b 54 81 0c	 mov	 edx, DWORD PTR [ecx+eax*4+12]
  000c7	52		 push	 edx
  000c8	0f b6 45 bb	 movzx	 eax, BYTE PTR _i$[ebp]
  000cc	8b 4d 08	 mov	 ecx, DWORD PTR _dest$[ebp]
  000cf	8b 54 81 30	 mov	 edx, DWORD PTR [ecx+eax*4+48]
  000d3	52		 push	 edx
  000d4	e8 00 00 00 00	 call	 _FixedMul
  000d9	83 c4 08	 add	 esp, 8
  000dc	03 f0		 add	 esi, eax
  000de	0f b6 45 ba	 movzx	 eax, BYTE PTR _j$[ebp]
  000e2	0f b6 4d bb	 movzx	 ecx, BYTE PTR _i$[ebp]
  000e6	8d 14 81	 lea	 edx, DWORD PTR [ecx+eax*4]
  000e9	89 74 95 bc	 mov	 DWORD PTR _result$[ebp+edx*4], esi
  000ed	e9 45 ff ff ff	 jmp	 $LN5@FM_MultMat
$LN6@FM_MultMat:

; 696  : 	}

  000f2	e9 25 ff ff ff	 jmp	 $LN2@FM_MultMat
$LN3@FM_MultMat:

; 697  : 
; 698  : 	M_Memcpy(dest, &result, sizeof(matrix_t));

  000f7	6a 40		 push	 64			; 00000040H
  000f9	8d 45 bc	 lea	 eax, DWORD PTR _result$[ebp]
  000fc	50		 push	 eax
  000fd	8b 4d 08	 mov	 ecx, DWORD PTR _dest$[ebp]
  00100	51		 push	 ecx
  00101	ff 15 00 00 00
	00		 call	 DWORD PTR _M_Memcpy
  00107	83 c4 0c	 add	 esp, 12			; 0000000cH

; 699  : 
; 700  : #undef R
; 701  : #undef D
; 702  : #undef M
; 703  : }

  0010a	5f		 pop	 edi
  0010b	5e		 pop	 esi
  0010c	5b		 pop	 ebx
  0010d	8b 4d fc	 mov	 ecx, DWORD PTR __$ArrayPad$[ebp]
  00110	33 cd		 xor	 ecx, ebp
  00112	e8 00 00 00 00	 call	 @__security_check_cookie@4
  00117	8b e5		 mov	 esp, ebp
  00119	5d		 pop	 ebp
  0011a	c3		 ret	 0
_FM_MultMatrix ENDP
_TEXT	ENDS
; Function compile flags: /Odtp /ZI
; File C:\Users\RafaTheFox\Desktop\SRB2-Public-master (1)\SRB2-Public-master\src\m_fixed.c
;	COMDAT _FM_MultMatrixVec
_TEXT	SEGMENT
_matrix$ = 8						; size = 4
_vec$ = 12						; size = 4
_out$ = 16						; size = 4
_FM_MultMatrixVec PROC					; COMDAT

; 660  : {

  00000	55		 push	 ebp
  00001	8b ec		 mov	 ebp, esp
  00003	83 ec 40	 sub	 esp, 64			; 00000040H
  00006	53		 push	 ebx
  00007	56		 push	 esi
  00008	57		 push	 edi

; 661  : #define M(row,col)  matrix->m[col * 4 + row]
; 662  : 	out->x = FixedMul(vec->x,M(0, 0))

  00009	b8 04 00 00 00	 mov	 eax, 4
  0000e	6b c8 00	 imul	 ecx, eax, 0
  00011	8b 55 08	 mov	 edx, DWORD PTR _matrix$[ebp]
  00014	8b 04 0a	 mov	 eax, DWORD PTR [edx+ecx]
  00017	50		 push	 eax
  00018	8b 4d 0c	 mov	 ecx, DWORD PTR _vec$[ebp]
  0001b	8b 11		 mov	 edx, DWORD PTR [ecx]
  0001d	52		 push	 edx
  0001e	e8 00 00 00 00	 call	 _FixedMul
  00023	83 c4 08	 add	 esp, 8
  00026	8b f0		 mov	 esi, eax
  00028	b8 04 00 00 00	 mov	 eax, 4
  0002d	c1 e0 02	 shl	 eax, 2
  00030	8b 4d 08	 mov	 ecx, DWORD PTR _matrix$[ebp]
  00033	8b 14 01	 mov	 edx, DWORD PTR [ecx+eax]
  00036	52		 push	 edx
  00037	8b 45 0c	 mov	 eax, DWORD PTR _vec$[ebp]
  0003a	8b 48 04	 mov	 ecx, DWORD PTR [eax+4]
  0003d	51		 push	 ecx
  0003e	e8 00 00 00 00	 call	 _FixedMul
  00043	83 c4 08	 add	 esp, 8
  00046	03 f0		 add	 esi, eax
  00048	ba 04 00 00 00	 mov	 edx, 4
  0004d	c1 e2 03	 shl	 edx, 3
  00050	8b 45 08	 mov	 eax, DWORD PTR _matrix$[ebp]
  00053	8b 0c 10	 mov	 ecx, DWORD PTR [eax+edx]
  00056	51		 push	 ecx
  00057	8b 55 0c	 mov	 edx, DWORD PTR _vec$[ebp]
  0005a	8b 42 08	 mov	 eax, DWORD PTR [edx+8]
  0005d	50		 push	 eax
  0005e	e8 00 00 00 00	 call	 _FixedMul
  00063	83 c4 08	 add	 esp, 8
  00066	03 f0		 add	 esi, eax
  00068	b9 04 00 00 00	 mov	 ecx, 4
  0006d	6b d1 0c	 imul	 edx, ecx, 12
  00070	8b 45 08	 mov	 eax, DWORD PTR _matrix$[ebp]
  00073	03 34 10	 add	 esi, DWORD PTR [eax+edx]
  00076	8b 4d 10	 mov	 ecx, DWORD PTR _out$[ebp]
  00079	89 31		 mov	 DWORD PTR [ecx], esi

; 663  : 	       + FixedMul(vec->y,M(0, 1))
; 664  : 	       + FixedMul(vec->z,M(0, 2))
; 665  : 	       + M(0, 3);
; 666  : 
; 667  : 	out->y = FixedMul(vec->x,M(1, 0))

  0007b	b8 04 00 00 00	 mov	 eax, 4
  00080	c1 e0 00	 shl	 eax, 0
  00083	8b 4d 08	 mov	 ecx, DWORD PTR _matrix$[ebp]
  00086	8b 14 01	 mov	 edx, DWORD PTR [ecx+eax]
  00089	52		 push	 edx
  0008a	8b 45 0c	 mov	 eax, DWORD PTR _vec$[ebp]
  0008d	8b 08		 mov	 ecx, DWORD PTR [eax]
  0008f	51		 push	 ecx
  00090	e8 00 00 00 00	 call	 _FixedMul
  00095	83 c4 08	 add	 esp, 8
  00098	8b f0		 mov	 esi, eax
  0009a	ba 04 00 00 00	 mov	 edx, 4
  0009f	6b c2 05	 imul	 eax, edx, 5
  000a2	8b 4d 08	 mov	 ecx, DWORD PTR _matrix$[ebp]
  000a5	8b 14 01	 mov	 edx, DWORD PTR [ecx+eax]
  000a8	52		 push	 edx
  000a9	8b 45 0c	 mov	 eax, DWORD PTR _vec$[ebp]
  000ac	8b 48 04	 mov	 ecx, DWORD PTR [eax+4]
  000af	51		 push	 ecx
  000b0	e8 00 00 00 00	 call	 _FixedMul
  000b5	83 c4 08	 add	 esp, 8
  000b8	03 f0		 add	 esi, eax
  000ba	ba 04 00 00 00	 mov	 edx, 4
  000bf	6b c2 09	 imul	 eax, edx, 9
  000c2	8b 4d 08	 mov	 ecx, DWORD PTR _matrix$[ebp]
  000c5	8b 14 01	 mov	 edx, DWORD PTR [ecx+eax]
  000c8	52		 push	 edx
  000c9	8b 45 0c	 mov	 eax, DWORD PTR _vec$[ebp]
  000cc	8b 48 08	 mov	 ecx, DWORD PTR [eax+8]
  000cf	51		 push	 ecx
  000d0	e8 00 00 00 00	 call	 _FixedMul
  000d5	83 c4 08	 add	 esp, 8
  000d8	03 f0		 add	 esi, eax
  000da	ba 04 00 00 00	 mov	 edx, 4
  000df	6b c2 0d	 imul	 eax, edx, 13
  000e2	8b 4d 08	 mov	 ecx, DWORD PTR _matrix$[ebp]
  000e5	03 34 01	 add	 esi, DWORD PTR [ecx+eax]
  000e8	8b 55 10	 mov	 edx, DWORD PTR _out$[ebp]
  000eb	89 72 04	 mov	 DWORD PTR [edx+4], esi

; 668  : 	       + FixedMul(vec->y,M(1, 1))
; 669  : 	       + FixedMul(vec->z,M(1, 2))
; 670  : 	       + M(1, 3);
; 671  : 
; 672  : 	out->z = FixedMul(vec->x,M(2, 0))

  000ee	b8 04 00 00 00	 mov	 eax, 4
  000f3	d1 e0		 shl	 eax, 1
  000f5	8b 4d 08	 mov	 ecx, DWORD PTR _matrix$[ebp]
  000f8	8b 14 01	 mov	 edx, DWORD PTR [ecx+eax]
  000fb	52		 push	 edx
  000fc	8b 45 0c	 mov	 eax, DWORD PTR _vec$[ebp]
  000ff	8b 08		 mov	 ecx, DWORD PTR [eax]
  00101	51		 push	 ecx
  00102	e8 00 00 00 00	 call	 _FixedMul
  00107	83 c4 08	 add	 esp, 8
  0010a	8b f0		 mov	 esi, eax
  0010c	ba 04 00 00 00	 mov	 edx, 4
  00111	6b c2 06	 imul	 eax, edx, 6
  00114	8b 4d 08	 mov	 ecx, DWORD PTR _matrix$[ebp]
  00117	8b 14 01	 mov	 edx, DWORD PTR [ecx+eax]
  0011a	52		 push	 edx
  0011b	8b 45 0c	 mov	 eax, DWORD PTR _vec$[ebp]
  0011e	8b 48 04	 mov	 ecx, DWORD PTR [eax+4]
  00121	51		 push	 ecx
  00122	e8 00 00 00 00	 call	 _FixedMul
  00127	83 c4 08	 add	 esp, 8
  0012a	03 f0		 add	 esi, eax
  0012c	ba 04 00 00 00	 mov	 edx, 4
  00131	6b c2 0a	 imul	 eax, edx, 10
  00134	8b 4d 08	 mov	 ecx, DWORD PTR _matrix$[ebp]
  00137	8b 14 01	 mov	 edx, DWORD PTR [ecx+eax]
  0013a	52		 push	 edx
  0013b	8b 45 0c	 mov	 eax, DWORD PTR _vec$[ebp]
  0013e	8b 48 08	 mov	 ecx, DWORD PTR [eax+8]
  00141	51		 push	 ecx
  00142	e8 00 00 00 00	 call	 _FixedMul
  00147	83 c4 08	 add	 esp, 8
  0014a	03 f0		 add	 esi, eax
  0014c	ba 04 00 00 00	 mov	 edx, 4
  00151	6b c2 0e	 imul	 eax, edx, 14
  00154	8b 4d 08	 mov	 ecx, DWORD PTR _matrix$[ebp]
  00157	03 34 01	 add	 esi, DWORD PTR [ecx+eax]
  0015a	8b 55 10	 mov	 edx, DWORD PTR _out$[ebp]
  0015d	89 72 08	 mov	 DWORD PTR [edx+8], esi

; 673  : 	       + FixedMul(vec->y,M(2, 1))
; 674  : 	       + FixedMul(vec->z,M(2, 2))
; 675  : 	       + M(2, 3);
; 676  : #undef M
; 677  : }

  00160	5f		 pop	 edi
  00161	5e		 pop	 esi
  00162	5b		 pop	 ebx
  00163	8b e5		 mov	 esp, ebp
  00165	5d		 pop	 ebp
  00166	c3		 ret	 0
_FM_MultMatrixVec ENDP
_TEXT	ENDS
; Function compile flags: /Odtp /ZI
; File C:\Users\RafaTheFox\Desktop\SRB2-Public-master (1)\SRB2-Public-master\src\m_fixed.c
;	COMDAT _FM_CreateObjectMatrix
_TEXT	SEGMENT
_basevec$ = -40						; size = 12
_upvec$ = -28						; size = 12
_upcross$ = -16						; size = 12
__$ArrayPad$ = -4					; size = 4
_matrix$ = 8						; size = 4
_x$ = 12						; size = 4
_y$ = 16						; size = 4
_z$ = 20						; size = 4
_anglex$ = 24						; size = 4
_angley$ = 28						; size = 4
_anglez$ = 32						; size = 4
_upx$ = 36						; size = 4
_upy$ = 40						; size = 4
_upz$ = 44						; size = 4
_radius$ = 48						; size = 4
_FM_CreateObjectMatrix PROC				; COMDAT

; 621  : {

  00000	55		 push	 ebp
  00001	8b ec		 mov	 ebp, esp
  00003	83 ec 68	 sub	 esp, 104		; 00000068H
  00006	a1 00 00 00 00	 mov	 eax, DWORD PTR ___security_cookie
  0000b	33 c5		 xor	 eax, ebp
  0000d	89 45 fc	 mov	 DWORD PTR __$ArrayPad$[ebp], eax
  00010	53		 push	 ebx
  00011	56		 push	 esi
  00012	57		 push	 edi

; 622  : 	vector_t upcross;
; 623  : 	vector_t upvec;
; 624  : 	vector_t basevec;
; 625  : 
; 626  : 	FV_Load(&upvec, upx, upy, upz);

  00013	8b 45 2c	 mov	 eax, DWORD PTR _upz$[ebp]
  00016	50		 push	 eax
  00017	8b 4d 28	 mov	 ecx, DWORD PTR _upy$[ebp]
  0001a	51		 push	 ecx
  0001b	8b 55 24	 mov	 edx, DWORD PTR _upx$[ebp]
  0001e	52		 push	 edx
  0001f	8d 45 e4	 lea	 eax, DWORD PTR _upvec$[ebp]
  00022	50		 push	 eax
  00023	e8 00 00 00 00	 call	 _FV_Load
  00028	83 c4 10	 add	 esp, 16			; 00000010H

; 627  : 	FV_Load(&basevec, anglex, angley, anglez);

  0002b	8b 45 20	 mov	 eax, DWORD PTR _anglez$[ebp]
  0002e	50		 push	 eax
  0002f	8b 4d 1c	 mov	 ecx, DWORD PTR _angley$[ebp]
  00032	51		 push	 ecx
  00033	8b 55 18	 mov	 edx, DWORD PTR _anglex$[ebp]
  00036	52		 push	 edx
  00037	8d 45 d8	 lea	 eax, DWORD PTR _basevec$[ebp]
  0003a	50		 push	 eax
  0003b	e8 00 00 00 00	 call	 _FV_Load
  00040	83 c4 10	 add	 esp, 16			; 00000010H

; 628  : 	FV_Cross(&upvec, &basevec, &upcross);

  00043	8d 45 f0	 lea	 eax, DWORD PTR _upcross$[ebp]
  00046	50		 push	 eax
  00047	8d 4d d8	 lea	 ecx, DWORD PTR _basevec$[ebp]
  0004a	51		 push	 ecx
  0004b	8d 55 e4	 lea	 edx, DWORD PTR _upvec$[ebp]
  0004e	52		 push	 edx
  0004f	e8 00 00 00 00	 call	 _FV_Cross
  00054	83 c4 0c	 add	 esp, 12			; 0000000cH

; 629  : 	FV_Normalize(&upcross);

  00057	8d 45 f0	 lea	 eax, DWORD PTR _upcross$[ebp]
  0005a	50		 push	 eax
  0005b	e8 00 00 00 00	 call	 _FV_Normalize
  00060	83 c4 04	 add	 esp, 4

; 630  : 
; 631  : 	FM_LoadIdentity(matrix);

  00063	8b 45 08	 mov	 eax, DWORD PTR _matrix$[ebp]
  00066	50		 push	 eax
  00067	e8 00 00 00 00	 call	 _FM_LoadIdentity
  0006c	83 c4 04	 add	 esp, 4

; 632  : 
; 633  : 	matrix->m[0] = upcross.x;

  0006f	b8 04 00 00 00	 mov	 eax, 4
  00074	6b c8 00	 imul	 ecx, eax, 0
  00077	8b 55 08	 mov	 edx, DWORD PTR _matrix$[ebp]
  0007a	8b 45 f0	 mov	 eax, DWORD PTR _upcross$[ebp]
  0007d	89 04 0a	 mov	 DWORD PTR [edx+ecx], eax

; 634  : 	matrix->m[1] = upcross.y;

  00080	b8 04 00 00 00	 mov	 eax, 4
  00085	c1 e0 00	 shl	 eax, 0
  00088	8b 4d 08	 mov	 ecx, DWORD PTR _matrix$[ebp]
  0008b	8b 55 f4	 mov	 edx, DWORD PTR _upcross$[ebp+4]
  0008e	89 14 01	 mov	 DWORD PTR [ecx+eax], edx

; 635  : 	matrix->m[2] = upcross.z;

  00091	b8 04 00 00 00	 mov	 eax, 4
  00096	d1 e0		 shl	 eax, 1
  00098	8b 4d 08	 mov	 ecx, DWORD PTR _matrix$[ebp]
  0009b	8b 55 f8	 mov	 edx, DWORD PTR _upcross$[ebp+8]
  0009e	89 14 01	 mov	 DWORD PTR [ecx+eax], edx

; 636  : 	matrix->m[3] = 0*FRACUNIT;

  000a1	b8 04 00 00 00	 mov	 eax, 4
  000a6	6b c8 03	 imul	 ecx, eax, 3
  000a9	8b 55 08	 mov	 edx, DWORD PTR _matrix$[ebp]
  000ac	c7 04 0a 00 00
	00 00		 mov	 DWORD PTR [edx+ecx], 0

; 637  : 
; 638  : 	matrix->m[4] = upx;

  000b3	b8 04 00 00 00	 mov	 eax, 4
  000b8	c1 e0 02	 shl	 eax, 2
  000bb	8b 4d 08	 mov	 ecx, DWORD PTR _matrix$[ebp]
  000be	8b 55 24	 mov	 edx, DWORD PTR _upx$[ebp]
  000c1	89 14 01	 mov	 DWORD PTR [ecx+eax], edx

; 639  : 	matrix->m[5] = upy;

  000c4	b8 04 00 00 00	 mov	 eax, 4
  000c9	6b c8 05	 imul	 ecx, eax, 5
  000cc	8b 55 08	 mov	 edx, DWORD PTR _matrix$[ebp]
  000cf	8b 45 28	 mov	 eax, DWORD PTR _upy$[ebp]
  000d2	89 04 0a	 mov	 DWORD PTR [edx+ecx], eax

; 640  : 	matrix->m[6] = upz;

  000d5	b8 04 00 00 00	 mov	 eax, 4
  000da	6b c8 06	 imul	 ecx, eax, 6
  000dd	8b 55 08	 mov	 edx, DWORD PTR _matrix$[ebp]
  000e0	8b 45 2c	 mov	 eax, DWORD PTR _upz$[ebp]
  000e3	89 04 0a	 mov	 DWORD PTR [edx+ecx], eax

; 641  : 	matrix->m[7] = 0;

  000e6	b8 04 00 00 00	 mov	 eax, 4
  000eb	6b c8 07	 imul	 ecx, eax, 7
  000ee	8b 55 08	 mov	 edx, DWORD PTR _matrix$[ebp]
  000f1	c7 04 0a 00 00
	00 00		 mov	 DWORD PTR [edx+ecx], 0

; 642  : 
; 643  : 	matrix->m[8] = anglex;

  000f8	b8 04 00 00 00	 mov	 eax, 4
  000fd	c1 e0 03	 shl	 eax, 3
  00100	8b 4d 08	 mov	 ecx, DWORD PTR _matrix$[ebp]
  00103	8b 55 18	 mov	 edx, DWORD PTR _anglex$[ebp]
  00106	89 14 01	 mov	 DWORD PTR [ecx+eax], edx

; 644  : 	matrix->m[9] = angley;

  00109	b8 04 00 00 00	 mov	 eax, 4
  0010e	6b c8 09	 imul	 ecx, eax, 9
  00111	8b 55 08	 mov	 edx, DWORD PTR _matrix$[ebp]
  00114	8b 45 1c	 mov	 eax, DWORD PTR _angley$[ebp]
  00117	89 04 0a	 mov	 DWORD PTR [edx+ecx], eax

; 645  : 	matrix->m[10] = anglez;

  0011a	b8 04 00 00 00	 mov	 eax, 4
  0011f	6b c8 0a	 imul	 ecx, eax, 10
  00122	8b 55 08	 mov	 edx, DWORD PTR _matrix$[ebp]
  00125	8b 45 20	 mov	 eax, DWORD PTR _anglez$[ebp]
  00128	89 04 0a	 mov	 DWORD PTR [edx+ecx], eax

; 646  : 	matrix->m[11] = 0;

  0012b	b8 04 00 00 00	 mov	 eax, 4
  00130	6b c8 0b	 imul	 ecx, eax, 11
  00133	8b 55 08	 mov	 edx, DWORD PTR _matrix$[ebp]
  00136	c7 04 0a 00 00
	00 00		 mov	 DWORD PTR [edx+ecx], 0

; 647  : 
; 648  : 	matrix->m[12] = x - FixedMul(upx,radius);

  0013d	8b 45 30	 mov	 eax, DWORD PTR _radius$[ebp]
  00140	50		 push	 eax
  00141	8b 4d 24	 mov	 ecx, DWORD PTR _upx$[ebp]
  00144	51		 push	 ecx
  00145	e8 00 00 00 00	 call	 _FixedMul
  0014a	83 c4 08	 add	 esp, 8
  0014d	8b 55 0c	 mov	 edx, DWORD PTR _x$[ebp]
  00150	2b d0		 sub	 edx, eax
  00152	b8 04 00 00 00	 mov	 eax, 4
  00157	6b c8 0c	 imul	 ecx, eax, 12
  0015a	8b 45 08	 mov	 eax, DWORD PTR _matrix$[ebp]
  0015d	89 14 08	 mov	 DWORD PTR [eax+ecx], edx

; 649  : 	matrix->m[13] = y - FixedMul(upy,radius);

  00160	8b 45 30	 mov	 eax, DWORD PTR _radius$[ebp]
  00163	50		 push	 eax
  00164	8b 4d 28	 mov	 ecx, DWORD PTR _upy$[ebp]
  00167	51		 push	 ecx
  00168	e8 00 00 00 00	 call	 _FixedMul
  0016d	83 c4 08	 add	 esp, 8
  00170	8b 55 10	 mov	 edx, DWORD PTR _y$[ebp]
  00173	2b d0		 sub	 edx, eax
  00175	b8 04 00 00 00	 mov	 eax, 4
  0017a	6b c8 0d	 imul	 ecx, eax, 13
  0017d	8b 45 08	 mov	 eax, DWORD PTR _matrix$[ebp]
  00180	89 14 08	 mov	 DWORD PTR [eax+ecx], edx

; 650  : 	matrix->m[14] = z - FixedMul(upz,radius);

  00183	8b 45 30	 mov	 eax, DWORD PTR _radius$[ebp]
  00186	50		 push	 eax
  00187	8b 4d 2c	 mov	 ecx, DWORD PTR _upz$[ebp]
  0018a	51		 push	 ecx
  0018b	e8 00 00 00 00	 call	 _FixedMul
  00190	83 c4 08	 add	 esp, 8
  00193	8b 55 14	 mov	 edx, DWORD PTR _z$[ebp]
  00196	2b d0		 sub	 edx, eax
  00198	b8 04 00 00 00	 mov	 eax, 4
  0019d	6b c8 0e	 imul	 ecx, eax, 14
  001a0	8b 45 08	 mov	 eax, DWORD PTR _matrix$[ebp]
  001a3	89 14 08	 mov	 DWORD PTR [eax+ecx], edx

; 651  : 	matrix->m[15] = FRACUNIT;

  001a6	b8 04 00 00 00	 mov	 eax, 4
  001ab	6b c8 0f	 imul	 ecx, eax, 15
  001ae	8b 55 08	 mov	 edx, DWORD PTR _matrix$[ebp]
  001b1	c7 04 0a 00 00
	01 00		 mov	 DWORD PTR [edx+ecx], 65536 ; 00010000H

; 652  : }

  001b8	5f		 pop	 edi
  001b9	5e		 pop	 esi
  001ba	5b		 pop	 ebx
  001bb	8b 4d fc	 mov	 ecx, DWORD PTR __$ArrayPad$[ebp]
  001be	33 cd		 xor	 ecx, ebp
  001c0	e8 00 00 00 00	 call	 @__security_check_cookie@4
  001c5	8b e5		 mov	 esp, ebp
  001c7	5d		 pop	 ebp
  001c8	c3		 ret	 0
_FM_CreateObjectMatrix ENDP
_TEXT	ENDS
; Function compile flags: /Odtp /ZI
; File C:\Users\RafaTheFox\Desktop\SRB2-Public-master (1)\SRB2-Public-master\src\m_fixed.c
;	COMDAT _FM_LoadIdentity
_TEXT	SEGMENT
_matrix$ = 8						; size = 4
_FM_LoadIdentity PROC					; COMDAT

; 603  : {

  00000	55		 push	 ebp
  00001	8b ec		 mov	 ebp, esp
  00003	83 ec 40	 sub	 esp, 64			; 00000040H
  00006	53		 push	 ebx
  00007	56		 push	 esi
  00008	57		 push	 edi

; 604  : #define M(row,col)  matrix->m[col * 4 + row]
; 605  : 	memset(matrix, 0x00, sizeof(matrix_t));

  00009	6a 40		 push	 64			; 00000040H
  0000b	6a 00		 push	 0
  0000d	8b 45 08	 mov	 eax, DWORD PTR _matrix$[ebp]
  00010	50		 push	 eax
  00011	e8 00 00 00 00	 call	 _memset
  00016	83 c4 0c	 add	 esp, 12			; 0000000cH

; 606  : 
; 607  : 	M(0, 0) = FRACUNIT;

  00019	b8 04 00 00 00	 mov	 eax, 4
  0001e	6b c8 00	 imul	 ecx, eax, 0
  00021	8b 55 08	 mov	 edx, DWORD PTR _matrix$[ebp]
  00024	c7 04 0a 00 00
	01 00		 mov	 DWORD PTR [edx+ecx], 65536 ; 00010000H

; 608  : 	M(1, 1) = FRACUNIT;

  0002b	b8 04 00 00 00	 mov	 eax, 4
  00030	6b c8 05	 imul	 ecx, eax, 5
  00033	8b 55 08	 mov	 edx, DWORD PTR _matrix$[ebp]
  00036	c7 04 0a 00 00
	01 00		 mov	 DWORD PTR [edx+ecx], 65536 ; 00010000H

; 609  : 	M(2, 2) = FRACUNIT;

  0003d	b8 04 00 00 00	 mov	 eax, 4
  00042	6b c8 0a	 imul	 ecx, eax, 10
  00045	8b 55 08	 mov	 edx, DWORD PTR _matrix$[ebp]
  00048	c7 04 0a 00 00
	01 00		 mov	 DWORD PTR [edx+ecx], 65536 ; 00010000H

; 610  : 	M(3, 3) = FRACUNIT;

  0004f	b8 04 00 00 00	 mov	 eax, 4
  00054	6b c8 0f	 imul	 ecx, eax, 15
  00057	8b 55 08	 mov	 edx, DWORD PTR _matrix$[ebp]
  0005a	c7 04 0a 00 00
	01 00		 mov	 DWORD PTR [edx+ecx], 65536 ; 00010000H

; 611  : #undef M
; 612  : }

  00061	5f		 pop	 edi
  00062	5e		 pop	 esi
  00063	5b		 pop	 ebx
  00064	8b e5		 mov	 esp, ebp
  00066	5d		 pop	 ebp
  00067	c3		 ret	 0
_FM_LoadIdentity ENDP
_TEXT	ENDS
; Function compile flags: /Odtp /ZI
; File C:\Users\RafaTheFox\Desktop\SRB2-Public-master (1)\SRB2-Public-master\src\m_fixed.c
;	COMDAT _FV_PointInsideBox
_TEXT	SEGMENT
_lastLine$ = -28					; size = 24
__$ArrayPad$ = -4					; size = 4
_point$ = 8						; size = 4
_box$ = 12						; size = 4
_FV_PointInsideBox PROC					; COMDAT

; 583  : {

  00000	55		 push	 ebp
  00001	8b ec		 mov	 ebp, esp
  00003	83 ec 5c	 sub	 esp, 92			; 0000005cH
  00006	a1 00 00 00 00	 mov	 eax, DWORD PTR ___security_cookie
  0000b	33 c5		 xor	 eax, ebp
  0000d	89 45 fc	 mov	 DWORD PTR __$ArrayPad$[ebp], eax
  00010	53		 push	 ebx
  00011	56		 push	 esi
  00012	57		 push	 edi

; 584  : 	vector_t lastLine[2];
; 585  : 
; 586  : 	FV_Load(&lastLine[0], box[3].x, box[3].y, box[3].z);

  00013	b8 0c 00 00 00	 mov	 eax, 12			; 0000000cH
  00018	6b c8 03	 imul	 ecx, eax, 3
  0001b	8b 55 0c	 mov	 edx, DWORD PTR _box$[ebp]
  0001e	8b 44 0a 08	 mov	 eax, DWORD PTR [edx+ecx+8]
  00022	50		 push	 eax
  00023	b9 0c 00 00 00	 mov	 ecx, 12			; 0000000cH
  00028	6b d1 03	 imul	 edx, ecx, 3
  0002b	8b 45 0c	 mov	 eax, DWORD PTR _box$[ebp]
  0002e	8b 4c 10 04	 mov	 ecx, DWORD PTR [eax+edx+4]
  00032	51		 push	 ecx
  00033	ba 0c 00 00 00	 mov	 edx, 12			; 0000000cH
  00038	6b c2 03	 imul	 eax, edx, 3
  0003b	8b 4d 0c	 mov	 ecx, DWORD PTR _box$[ebp]
  0003e	8b 14 01	 mov	 edx, DWORD PTR [ecx+eax]
  00041	52		 push	 edx
  00042	b8 0c 00 00 00	 mov	 eax, 12			; 0000000cH
  00047	6b c8 00	 imul	 ecx, eax, 0
  0004a	8d 54 0d e4	 lea	 edx, DWORD PTR _lastLine$[ebp+ecx]
  0004e	52		 push	 edx
  0004f	e8 00 00 00 00	 call	 _FV_Load
  00054	83 c4 10	 add	 esp, 16			; 00000010H

; 587  : 	FV_Load(&lastLine[1], box[0].x, box[0].y, box[0].z);

  00057	b8 0c 00 00 00	 mov	 eax, 12			; 0000000cH
  0005c	6b c8 00	 imul	 ecx, eax, 0
  0005f	8b 55 0c	 mov	 edx, DWORD PTR _box$[ebp]
  00062	8b 44 0a 08	 mov	 eax, DWORD PTR [edx+ecx+8]
  00066	50		 push	 eax
  00067	b9 0c 00 00 00	 mov	 ecx, 12			; 0000000cH
  0006c	6b d1 00	 imul	 edx, ecx, 0
  0006f	8b 45 0c	 mov	 eax, DWORD PTR _box$[ebp]
  00072	8b 4c 10 04	 mov	 ecx, DWORD PTR [eax+edx+4]
  00076	51		 push	 ecx
  00077	ba 0c 00 00 00	 mov	 edx, 12			; 0000000cH
  0007c	6b c2 00	 imul	 eax, edx, 0
  0007f	8b 4d 0c	 mov	 ecx, DWORD PTR _box$[ebp]
  00082	8b 14 01	 mov	 edx, DWORD PTR [ecx+eax]
  00085	52		 push	 edx
  00086	b8 0c 00 00 00	 mov	 eax, 12			; 0000000cH
  0008b	c1 e0 00	 shl	 eax, 0
  0008e	8d 4c 05 e4	 lea	 ecx, DWORD PTR _lastLine$[ebp+eax]
  00092	51		 push	 ecx
  00093	e8 00 00 00 00	 call	 _FV_Load
  00098	83 c4 10	 add	 esp, 16			; 00000010H

; 588  : 
; 589  : 	if (FV_PointOnLineSide(point, &box[0])
; 590  : 		|| FV_PointOnLineSide(point, &box[1])
; 591  : 		|| FV_PointOnLineSide(point, &box[2])
; 592  : 		|| FV_PointOnLineSide(point, lastLine))

  0009b	b8 0c 00 00 00	 mov	 eax, 12			; 0000000cH
  000a0	6b c8 00	 imul	 ecx, eax, 0
  000a3	03 4d 0c	 add	 ecx, DWORD PTR _box$[ebp]
  000a6	51		 push	 ecx
  000a7	8b 55 08	 mov	 edx, DWORD PTR _point$[ebp]
  000aa	52		 push	 edx
  000ab	e8 00 00 00 00	 call	 _FV_PointOnLineSide
  000b0	83 c4 08	 add	 esp, 8
  000b3	0f b6 c0	 movzx	 eax, al
  000b6	85 c0		 test	 eax, eax
  000b8	75 54		 jne	 SHORT $LN3@FV_PointIn
  000ba	b8 0c 00 00 00	 mov	 eax, 12			; 0000000cH
  000bf	c1 e0 00	 shl	 eax, 0
  000c2	03 45 0c	 add	 eax, DWORD PTR _box$[ebp]
  000c5	50		 push	 eax
  000c6	8b 4d 08	 mov	 ecx, DWORD PTR _point$[ebp]
  000c9	51		 push	 ecx
  000ca	e8 00 00 00 00	 call	 _FV_PointOnLineSide
  000cf	83 c4 08	 add	 esp, 8
  000d2	0f b6 d0	 movzx	 edx, al
  000d5	85 d2		 test	 edx, edx
  000d7	75 35		 jne	 SHORT $LN3@FV_PointIn
  000d9	b8 0c 00 00 00	 mov	 eax, 12			; 0000000cH
  000de	d1 e0		 shl	 eax, 1
  000e0	03 45 0c	 add	 eax, DWORD PTR _box$[ebp]
  000e3	50		 push	 eax
  000e4	8b 4d 08	 mov	 ecx, DWORD PTR _point$[ebp]
  000e7	51		 push	 ecx
  000e8	e8 00 00 00 00	 call	 _FV_PointOnLineSide
  000ed	83 c4 08	 add	 esp, 8
  000f0	0f b6 d0	 movzx	 edx, al
  000f3	85 d2		 test	 edx, edx
  000f5	75 17		 jne	 SHORT $LN3@FV_PointIn
  000f7	8d 45 e4	 lea	 eax, DWORD PTR _lastLine$[ebp]
  000fa	50		 push	 eax
  000fb	8b 4d 08	 mov	 ecx, DWORD PTR _point$[ebp]
  000fe	51		 push	 ecx
  000ff	e8 00 00 00 00	 call	 _FV_PointOnLineSide
  00104	83 c4 08	 add	 esp, 8
  00107	0f b6 d0	 movzx	 edx, al
  0010a	85 d2		 test	 edx, edx
  0010c	74 04		 je	 SHORT $LN2@FV_PointIn
$LN3@FV_PointIn:

; 593  : 		return false;

  0010e	33 c0		 xor	 eax, eax
  00110	eb 05		 jmp	 SHORT $LN1@FV_PointIn
$LN2@FV_PointIn:

; 594  : 
; 595  : 	return true;

  00112	b8 01 00 00 00	 mov	 eax, 1
$LN1@FV_PointIn:

; 596  : }

  00117	5f		 pop	 edi
  00118	5e		 pop	 esi
  00119	5b		 pop	 ebx
  0011a	8b 4d fc	 mov	 ecx, DWORD PTR __$ArrayPad$[ebp]
  0011d	33 cd		 xor	 ecx, ebp
  0011f	e8 00 00 00 00	 call	 @__security_check_cookie@4
  00124	8b e5		 mov	 esp, ebp
  00126	5d		 pop	 ebp
  00127	c3		 ret	 0
_FV_PointInsideBox ENDP
_TEXT	ENDS
; Function compile flags: /Odtp /ZI
; File C:\Users\RafaTheFox\Desktop\SRB2-Public-master (1)\SRB2-Public-master\src\m_fixed.c
;	COMDAT _FV_PointOnLineSide
_TEXT	SEGMENT
tv128 = -73						; size = 1
_s2$ = -8						; size = 4
_s1$ = -4						; size = 4
_point$ = 8						; size = 4
_line$ = 12						; size = 4
_FV_PointOnLineSide PROC				; COMDAT

; 569  : {

  00000	55		 push	 ebp
  00001	8b ec		 mov	 ebp, esp
  00003	83 ec 4c	 sub	 esp, 76			; 0000004cH
  00006	53		 push	 ebx
  00007	56		 push	 esi
  00008	57		 push	 edi

; 570  : 	fixed_t s1 = FixedMul((point->y - line[0].y),(line[1].x - line[0].x));

  00009	b8 0c 00 00 00	 mov	 eax, 12			; 0000000cH
  0000e	c1 e0 00	 shl	 eax, 0
  00011	b9 0c 00 00 00	 mov	 ecx, 12			; 0000000cH
  00016	6b d1 00	 imul	 edx, ecx, 0
  00019	8b 4d 0c	 mov	 ecx, DWORD PTR _line$[ebp]
  0001c	8b 75 0c	 mov	 esi, DWORD PTR _line$[ebp]
  0001f	8b 04 01	 mov	 eax, DWORD PTR [ecx+eax]
  00022	2b 04 16	 sub	 eax, DWORD PTR [esi+edx]
  00025	50		 push	 eax
  00026	b9 0c 00 00 00	 mov	 ecx, 12			; 0000000cH
  0002b	6b d1 00	 imul	 edx, ecx, 0
  0002e	8b 45 08	 mov	 eax, DWORD PTR _point$[ebp]
  00031	8b 4d 0c	 mov	 ecx, DWORD PTR _line$[ebp]
  00034	8b 40 04	 mov	 eax, DWORD PTR [eax+4]
  00037	2b 44 11 04	 sub	 eax, DWORD PTR [ecx+edx+4]
  0003b	50		 push	 eax
  0003c	e8 00 00 00 00	 call	 _FixedMul
  00041	83 c4 08	 add	 esp, 8
  00044	89 45 fc	 mov	 DWORD PTR _s1$[ebp], eax

; 571  : 	fixed_t s2 = FixedMul((point->x - line[0].x),(line[1].y - line[0].y));

  00047	b8 0c 00 00 00	 mov	 eax, 12			; 0000000cH
  0004c	c1 e0 00	 shl	 eax, 0
  0004f	b9 0c 00 00 00	 mov	 ecx, 12			; 0000000cH
  00054	6b d1 00	 imul	 edx, ecx, 0
  00057	8b 4d 0c	 mov	 ecx, DWORD PTR _line$[ebp]
  0005a	8b 75 0c	 mov	 esi, DWORD PTR _line$[ebp]
  0005d	8b 44 01 04	 mov	 eax, DWORD PTR [ecx+eax+4]
  00061	2b 44 16 04	 sub	 eax, DWORD PTR [esi+edx+4]
  00065	50		 push	 eax
  00066	b9 0c 00 00 00	 mov	 ecx, 12			; 0000000cH
  0006b	6b d1 00	 imul	 edx, ecx, 0
  0006e	8b 45 08	 mov	 eax, DWORD PTR _point$[ebp]
  00071	8b 4d 0c	 mov	 ecx, DWORD PTR _line$[ebp]
  00074	8b 00		 mov	 eax, DWORD PTR [eax]
  00076	2b 04 11	 sub	 eax, DWORD PTR [ecx+edx]
  00079	50		 push	 eax
  0007a	e8 00 00 00 00	 call	 _FixedMul
  0007f	83 c4 08	 add	 esp, 8
  00082	89 45 f8	 mov	 DWORD PTR _s2$[ebp], eax

; 572  : 	return (UINT8)(s1 - s2 < 0);

  00085	8b 45 fc	 mov	 eax, DWORD PTR _s1$[ebp]
  00088	2b 45 f8	 sub	 eax, DWORD PTR _s2$[ebp]
  0008b	79 06		 jns	 SHORT $LN3@FV_PointOn
  0008d	c6 45 b7 01	 mov	 BYTE PTR tv128[ebp], 1
  00091	eb 04		 jmp	 SHORT $LN4@FV_PointOn
$LN3@FV_PointOn:
  00093	c6 45 b7 00	 mov	 BYTE PTR tv128[ebp], 0
$LN4@FV_PointOn:
  00097	0f b6 45 b7	 movzx	 eax, BYTE PTR tv128[ebp]

; 573  : }

  0009b	5f		 pop	 edi
  0009c	5e		 pop	 esi
  0009d	5b		 pop	 ebx
  0009e	8b e5		 mov	 esp, ebp
  000a0	5d		 pop	 ebp
  000a1	c3		 ret	 0
_FV_PointOnLineSide ENDP
_TEXT	ENDS
; Function compile flags: /Odtp /ZI
; File C:\Users\RafaTheFox\Desktop\SRB2-Public-master (1)\SRB2-Public-master\src\m_fixed.c
;	COMDAT _FV_IntersectionPoint
_TEXT	SEGMENT
_dist$ = -28						; size = 4
_Denominator$ = -24					; size = 4
_Numerator$ = -20					; size = 4
_vLineDir$ = -16					; size = 12
__$ArrayPad$ = -4					; size = 4
_vNormal$ = 8						; size = 4
_vLine$ = 12						; size = 4
_distance$ = 16						; size = 4
_ReturnVec$ = 20					; size = 4
_FV_IntersectionPoint PROC				; COMDAT

; 497  : {

  00000	55		 push	 ebp
  00001	8b ec		 mov	 ebp, esp
  00003	83 ec 5c	 sub	 esp, 92			; 0000005cH
  00006	a1 00 00 00 00	 mov	 eax, DWORD PTR ___security_cookie
  0000b	33 c5		 xor	 eax, ebp
  0000d	89 45 fc	 mov	 DWORD PTR __$ArrayPad$[ebp], eax
  00010	53		 push	 ebx
  00011	56		 push	 esi
  00012	57		 push	 edi

; 498  : 	vector_t vLineDir; // Variables to hold the point and the line's direction
; 499  : 	fixed_t Numerator = 0, Denominator = 0, dist = 0;

  00013	c7 45 ec 00 00
	00 00		 mov	 DWORD PTR _Numerator$[ebp], 0
  0001a	c7 45 e8 00 00
	00 00		 mov	 DWORD PTR _Denominator$[ebp], 0
  00021	c7 45 e4 00 00
	00 00		 mov	 DWORD PTR _dist$[ebp], 0

; 500  : 
; 501  : 	// Here comes the confusing part.  We need to find the 3D point that is actually
; 502  : 	// on the plane.  Here are some steps to do that:
; 503  : 
; 504  : 	// 1)  First we need to get the vector of our line, Then normalize it so it's a length of 1
; 505  : 	FV_Point2Vec(&vLine[1], &vLine[0], &vLineDir);		// Get the Vector of the line

  00028	8d 45 f0	 lea	 eax, DWORD PTR _vLineDir$[ebp]
  0002b	50		 push	 eax
  0002c	b9 0c 00 00 00	 mov	 ecx, 12			; 0000000cH
  00031	6b d1 00	 imul	 edx, ecx, 0
  00034	03 55 0c	 add	 edx, DWORD PTR _vLine$[ebp]
  00037	52		 push	 edx
  00038	b8 0c 00 00 00	 mov	 eax, 12			; 0000000cH
  0003d	c1 e0 00	 shl	 eax, 0
  00040	03 45 0c	 add	 eax, DWORD PTR _vLine$[ebp]
  00043	50		 push	 eax
  00044	e8 00 00 00 00	 call	 _FV_Point2Vec
  00049	83 c4 0c	 add	 esp, 12			; 0000000cH

; 506  : 	FV_NormalizeEx(&vLineDir, &vLineDir);				// Normalize the lines vector

  0004c	8d 45 f0	 lea	 eax, DWORD PTR _vLineDir$[ebp]
  0004f	50		 push	 eax
  00050	8d 4d f0	 lea	 ecx, DWORD PTR _vLineDir$[ebp]
  00053	51		 push	 ecx
  00054	e8 00 00 00 00	 call	 _FV_NormalizeEx
  00059	83 c4 08	 add	 esp, 8

; 507  : 
; 508  : 
; 509  : 	// 2) Use the plane equation (distance = Ax + By + Cz + D) to find the distance from one of our points to the plane.
; 510  : 	//    Here I just chose a arbitrary point as the point to find that distance.  You notice we negate that
; 511  : 	//    distance.  We negate the distance because we want to eventually go BACKWARDS from our point to the plane.
; 512  : 	//    By doing this is will basically bring us back to the plane to find our intersection point.
; 513  : 	Numerator = - (FixedMul(vNormal->x, vLine[0].x) +		// Use the plane equation with the normal and the line

  0005c	b8 0c 00 00 00	 mov	 eax, 12			; 0000000cH
  00061	6b c8 00	 imul	 ecx, eax, 0
  00064	8b 55 0c	 mov	 edx, DWORD PTR _vLine$[ebp]
  00067	8b 04 0a	 mov	 eax, DWORD PTR [edx+ecx]
  0006a	50		 push	 eax
  0006b	8b 4d 08	 mov	 ecx, DWORD PTR _vNormal$[ebp]
  0006e	8b 11		 mov	 edx, DWORD PTR [ecx]
  00070	52		 push	 edx
  00071	e8 00 00 00 00	 call	 _FixedMul
  00076	83 c4 08	 add	 esp, 8
  00079	8b f0		 mov	 esi, eax
  0007b	b8 0c 00 00 00	 mov	 eax, 12			; 0000000cH
  00080	6b c8 00	 imul	 ecx, eax, 0
  00083	8b 55 0c	 mov	 edx, DWORD PTR _vLine$[ebp]
  00086	8b 44 0a 04	 mov	 eax, DWORD PTR [edx+ecx+4]
  0008a	50		 push	 eax
  0008b	8b 4d 08	 mov	 ecx, DWORD PTR _vNormal$[ebp]
  0008e	8b 51 04	 mov	 edx, DWORD PTR [ecx+4]
  00091	52		 push	 edx
  00092	e8 00 00 00 00	 call	 _FixedMul
  00097	83 c4 08	 add	 esp, 8
  0009a	03 f0		 add	 esi, eax
  0009c	b8 0c 00 00 00	 mov	 eax, 12			; 0000000cH
  000a1	6b c8 00	 imul	 ecx, eax, 0
  000a4	8b 55 0c	 mov	 edx, DWORD PTR _vLine$[ebp]
  000a7	8b 44 0a 08	 mov	 eax, DWORD PTR [edx+ecx+8]
  000ab	50		 push	 eax
  000ac	8b 4d 08	 mov	 ecx, DWORD PTR _vNormal$[ebp]
  000af	8b 51 08	 mov	 edx, DWORD PTR [ecx+8]
  000b2	52		 push	 edx
  000b3	e8 00 00 00 00	 call	 _FixedMul
  000b8	83 c4 08	 add	 esp, 8
  000bb	03 75 10	 add	 esi, DWORD PTR _distance$[ebp]
  000be	03 c6		 add	 eax, esi
  000c0	f7 d8		 neg	 eax
  000c2	89 45 ec	 mov	 DWORD PTR _Numerator$[ebp], eax

; 514  : 				   FixedMul(vNormal->y, vLine[0].y) +
; 515  : 				   FixedMul(vNormal->z, vLine[0].z) + distance);
; 516  : 
; 517  : 	// 3) If we take the dot product between our line vector and the normal of the polygon,
; 518  : 	//    this will give us the cosine of the angle between the 2 (since they are both normalized - length 1).
; 519  : 	//    We will then divide our Numerator by this value to find the offset towards the plane from our arbitrary point.
; 520  : 	Denominator = FV_Dot(vNormal, &vLineDir);		// Get the dot product of the line's vector and the normal of the plane

  000c5	8d 45 f0	 lea	 eax, DWORD PTR _vLineDir$[ebp]
  000c8	50		 push	 eax
  000c9	8b 4d 08	 mov	 ecx, DWORD PTR _vNormal$[ebp]
  000cc	51		 push	 ecx
  000cd	e8 00 00 00 00	 call	 _FV_Dot
  000d2	83 c4 08	 add	 esp, 8
  000d5	89 45 e8	 mov	 DWORD PTR _Denominator$[ebp], eax

; 521  : 
; 522  : 	// Since we are using division, we need to make sure we don't get a divide by zero error
; 523  : 	// If we do get a 0, that means that there are INFINITE points because the the line is
; 524  : 	// on the plane (the normal is perpendicular to the line - (Normal.Vector = 0)).
; 525  : 	// In this case, we should just return any point on the line.
; 526  : 
; 527  : 	if( Denominator == 0*FRACUNIT) // Check so we don't divide by zero

  000d8	83 7d e8 00	 cmp	 DWORD PTR _Denominator$[ebp], 0
  000dc	75 45		 jne	 SHORT $LN2@FV_Interse

; 528  : 	{
; 529  : 		ReturnVec->x = vLine[0].x;

  000de	b8 0c 00 00 00	 mov	 eax, 12			; 0000000cH
  000e3	6b c8 00	 imul	 ecx, eax, 0
  000e6	8b 55 14	 mov	 edx, DWORD PTR _ReturnVec$[ebp]
  000e9	8b 45 0c	 mov	 eax, DWORD PTR _vLine$[ebp]
  000ec	8b 0c 08	 mov	 ecx, DWORD PTR [eax+ecx]
  000ef	89 0a		 mov	 DWORD PTR [edx], ecx

; 530  : 		ReturnVec->y = vLine[0].y;

  000f1	b8 0c 00 00 00	 mov	 eax, 12			; 0000000cH
  000f6	6b c8 00	 imul	 ecx, eax, 0
  000f9	8b 55 14	 mov	 edx, DWORD PTR _ReturnVec$[ebp]
  000fc	8b 45 0c	 mov	 eax, DWORD PTR _vLine$[ebp]
  000ff	8b 4c 08 04	 mov	 ecx, DWORD PTR [eax+ecx+4]
  00103	89 4a 04	 mov	 DWORD PTR [edx+4], ecx

; 531  : 		ReturnVec->z = vLine[0].z;

  00106	b8 0c 00 00 00	 mov	 eax, 12			; 0000000cH
  0010b	6b c8 00	 imul	 ecx, eax, 0
  0010e	8b 55 14	 mov	 edx, DWORD PTR _ReturnVec$[ebp]
  00111	8b 45 0c	 mov	 eax, DWORD PTR _vLine$[ebp]
  00114	8b 4c 08 08	 mov	 ecx, DWORD PTR [eax+ecx+8]
  00118	89 4a 08	 mov	 DWORD PTR [edx+8], ecx

; 532  : 		return ReturnVec;	// Return an arbitrary point on the line

  0011b	8b 45 14	 mov	 eax, DWORD PTR _ReturnVec$[ebp]
  0011e	e9 83 00 00 00	 jmp	 $LN1@FV_Interse
$LN2@FV_Interse:

; 533  : 	}
; 534  : 
; 535  : 	// We divide the (distance from the point to the plane) by (the dot product)
; 536  : 	// to get the distance (dist) that we need to move from our arbitrary point.  We need
; 537  : 	// to then times this distance (dist) by our line's vector (direction).  When you times
; 538  : 	// a scalar (single number) by a vector you move along that vector.  That is what we are
; 539  : 	// doing.  We are moving from our arbitrary point we chose from the line BACK to the plane
; 540  : 	// along the lines vector.  It seems logical to just get the numerator, which is the distance
; 541  : 	// from the point to the line, and then just move back that much along the line's vector.
; 542  : 	// Well, the distance from the plane means the SHORTEST distance.  What about in the case that
; 543  : 	// the line is almost parallel with the polygon, but doesn't actually intersect it until half
; 544  : 	// way down the line's length.  The distance from the plane is short, but the distance from
; 545  : 	// the actual intersection point is pretty long.  If we divide the distance by the dot product
; 546  : 	// of our line vector and the normal of the plane, we get the correct length.  Cool huh?
; 547  : 
; 548  : 	dist = FixedDiv(Numerator, Denominator);				// Divide to get the multiplying (percentage) factor

  00123	8b 45 e8	 mov	 eax, DWORD PTR _Denominator$[ebp]
  00126	50		 push	 eax
  00127	8b 4d ec	 mov	 ecx, DWORD PTR _Numerator$[ebp]
  0012a	51		 push	 ecx
  0012b	e8 00 00 00 00	 call	 _FixedDiv
  00130	83 c4 08	 add	 esp, 8
  00133	89 45 e4	 mov	 DWORD PTR _dist$[ebp], eax

; 549  : 
; 550  : 	// Now, like we said above, we times the dist by the vector, then add our arbitrary point.
; 551  : 	// This essentially moves the point along the vector to a certain distance.  This now gives
; 552  : 	// us the intersection point.  Yay!
; 553  : 
; 554  : 	// Return the intersection point
; 555  : 	ReturnVec->x = vLine[0].x + FixedMul(vLineDir.x, dist);

  00136	b8 0c 00 00 00	 mov	 eax, 12			; 0000000cH
  0013b	6b f0 00	 imul	 esi, eax, 0
  0013e	8b 4d e4	 mov	 ecx, DWORD PTR _dist$[ebp]
  00141	51		 push	 ecx
  00142	8b 55 f0	 mov	 edx, DWORD PTR _vLineDir$[ebp]
  00145	52		 push	 edx
  00146	e8 00 00 00 00	 call	 _FixedMul
  0014b	83 c4 08	 add	 esp, 8
  0014e	8b 4d 0c	 mov	 ecx, DWORD PTR _vLine$[ebp]
  00151	03 04 31	 add	 eax, DWORD PTR [ecx+esi]
  00154	8b 55 14	 mov	 edx, DWORD PTR _ReturnVec$[ebp]
  00157	89 02		 mov	 DWORD PTR [edx], eax

; 556  : 	ReturnVec->y = vLine[0].y + FixedMul(vLineDir.y, dist);

  00159	b8 0c 00 00 00	 mov	 eax, 12			; 0000000cH
  0015e	6b f0 00	 imul	 esi, eax, 0
  00161	8b 4d e4	 mov	 ecx, DWORD PTR _dist$[ebp]
  00164	51		 push	 ecx
  00165	8b 55 f4	 mov	 edx, DWORD PTR _vLineDir$[ebp+4]
  00168	52		 push	 edx
  00169	e8 00 00 00 00	 call	 _FixedMul
  0016e	83 c4 08	 add	 esp, 8
  00171	8b 4d 0c	 mov	 ecx, DWORD PTR _vLine$[ebp]
  00174	03 44 31 04	 add	 eax, DWORD PTR [ecx+esi+4]
  00178	8b 55 14	 mov	 edx, DWORD PTR _ReturnVec$[ebp]
  0017b	89 42 04	 mov	 DWORD PTR [edx+4], eax

; 557  : 	ReturnVec->z = vLine[0].z + FixedMul(vLineDir.z, dist);

  0017e	b8 0c 00 00 00	 mov	 eax, 12			; 0000000cH
  00183	6b f0 00	 imul	 esi, eax, 0
  00186	8b 4d e4	 mov	 ecx, DWORD PTR _dist$[ebp]
  00189	51		 push	 ecx
  0018a	8b 55 f8	 mov	 edx, DWORD PTR _vLineDir$[ebp+8]
  0018d	52		 push	 edx
  0018e	e8 00 00 00 00	 call	 _FixedMul
  00193	83 c4 08	 add	 esp, 8
  00196	8b 4d 0c	 mov	 ecx, DWORD PTR _vLine$[ebp]
  00199	03 44 31 08	 add	 eax, DWORD PTR [ecx+esi+8]
  0019d	8b 55 14	 mov	 edx, DWORD PTR _ReturnVec$[ebp]
  001a0	89 42 08	 mov	 DWORD PTR [edx+8], eax

; 558  : 	return ReturnVec;

  001a3	8b 45 14	 mov	 eax, DWORD PTR _ReturnVec$[ebp]
$LN1@FV_Interse:

; 559  : }

  001a6	5f		 pop	 edi
  001a7	5e		 pop	 esi
  001a8	5b		 pop	 ebx
  001a9	8b 4d fc	 mov	 ecx, DWORD PTR __$ArrayPad$[ebp]
  001ac	33 cd		 xor	 ecx, ebp
  001ae	e8 00 00 00 00	 call	 @__security_check_cookie@4
  001b3	8b e5		 mov	 esp, ebp
  001b5	5d		 pop	 ebp
  001b6	c3		 ret	 0
_FV_IntersectionPoint ENDP
_TEXT	ENDS
; Function compile flags: /Odtp /ZI
; File C:\Users\RafaTheFox\Desktop\SRB2-Public-master (1)\SRB2-Public-master\src\m_fixed.c
;	COMDAT _FV_IntersectRaySphere
_TEXT	SEGMENT
_d$ = -28						; size = 4
_v$ = -24						; size = 4
_c$ = -20						; size = 4
_Q$ = -16						; size = 12
__$ArrayPad$ = -4					; size = 4
_rO$ = 8						; size = 4
_rV$ = 12						; size = 4
_sO$ = 16						; size = 4
_sR$ = 20						; size = 4
_FV_IntersectRaySphere PROC				; COMDAT

; 474  : {

  00000	55		 push	 ebp
  00001	8b ec		 mov	 ebp, esp
  00003	83 ec 5c	 sub	 esp, 92			; 0000005cH
  00006	a1 00 00 00 00	 mov	 eax, DWORD PTR ___security_cookie
  0000b	33 c5		 xor	 eax, ebp
  0000d	89 45 fc	 mov	 DWORD PTR __$ArrayPad$[ebp], eax
  00010	53		 push	 ebx
  00011	56		 push	 esi
  00012	57		 push	 edi

; 475  : 	vector_t Q;
; 476  : 	fixed_t c, v, d;
; 477  : 	FV_SubEx(sO, rO, &Q);

  00013	8d 45 f0	 lea	 eax, DWORD PTR _Q$[ebp]
  00016	50		 push	 eax
  00017	8b 4d 08	 mov	 ecx, DWORD PTR _rO$[ebp]
  0001a	51		 push	 ecx
  0001b	8b 55 10	 mov	 edx, DWORD PTR _sO$[ebp]
  0001e	52		 push	 edx
  0001f	e8 00 00 00 00	 call	 _FV_SubEx
  00024	83 c4 0c	 add	 esp, 12			; 0000000cH

; 478  : 
; 479  : 	c = FV_Magnitude(&Q);

  00027	8d 45 f0	 lea	 eax, DWORD PTR _Q$[ebp]
  0002a	50		 push	 eax
  0002b	e8 00 00 00 00	 call	 _FV_Magnitude
  00030	83 c4 04	 add	 esp, 4
  00033	89 45 ec	 mov	 DWORD PTR _c$[ebp], eax

; 480  : 	v = FV_Dot(&Q, rV);

  00036	8b 45 0c	 mov	 eax, DWORD PTR _rV$[ebp]
  00039	50		 push	 eax
  0003a	8d 4d f0	 lea	 ecx, DWORD PTR _Q$[ebp]
  0003d	51		 push	 ecx
  0003e	e8 00 00 00 00	 call	 _FV_Dot
  00043	83 c4 08	 add	 esp, 8
  00046	89 45 e8	 mov	 DWORD PTR _v$[ebp], eax

; 481  : 	d = FixedMul(sR, sR) - (FixedMul(c,c) - FixedMul(v,v));

  00049	8b 45 14	 mov	 eax, DWORD PTR _sR$[ebp]
  0004c	50		 push	 eax
  0004d	8b 4d 14	 mov	 ecx, DWORD PTR _sR$[ebp]
  00050	51		 push	 ecx
  00051	e8 00 00 00 00	 call	 _FixedMul
  00056	83 c4 08	 add	 esp, 8
  00059	8b f0		 mov	 esi, eax
  0005b	8b 55 ec	 mov	 edx, DWORD PTR _c$[ebp]
  0005e	52		 push	 edx
  0005f	8b 45 ec	 mov	 eax, DWORD PTR _c$[ebp]
  00062	50		 push	 eax
  00063	e8 00 00 00 00	 call	 _FixedMul
  00068	83 c4 08	 add	 esp, 8
  0006b	8b f8		 mov	 edi, eax
  0006d	8b 4d e8	 mov	 ecx, DWORD PTR _v$[ebp]
  00070	51		 push	 ecx
  00071	8b 55 e8	 mov	 edx, DWORD PTR _v$[ebp]
  00074	52		 push	 edx
  00075	e8 00 00 00 00	 call	 _FixedMul
  0007a	83 c4 08	 add	 esp, 8
  0007d	2b f8		 sub	 edi, eax
  0007f	2b f7		 sub	 esi, edi
  00081	89 75 e4	 mov	 DWORD PTR _d$[ebp], esi

; 482  : 
; 483  : 	// If there was no intersection, return -1
; 484  : 	if (d < 0*FRACUNIT)

  00084	79 07		 jns	 SHORT $LN2@FV_Interse

; 485  : 		return (-1*FRACUNIT);

  00086	b8 00 00 ff ff	 mov	 eax, -65536		; ffff0000H
  0008b	eb 13		 jmp	 SHORT $LN1@FV_Interse
$LN2@FV_Interse:

; 486  : 
; 487  : 	// Return the distance to the [first] intersecting point
; 488  : 	return (v - FixedSqrt(d));

  0008d	8b 45 e4	 mov	 eax, DWORD PTR _d$[ebp]
  00090	50		 push	 eax
  00091	e8 00 00 00 00	 call	 _FixedSqrt
  00096	83 c4 04	 add	 esp, 4
  00099	8b 4d e8	 mov	 ecx, DWORD PTR _v$[ebp]
  0009c	2b c8		 sub	 ecx, eax
  0009e	8b c1		 mov	 eax, ecx
$LN1@FV_Interse:

; 489  : }

  000a0	5f		 pop	 edi
  000a1	5e		 pop	 esi
  000a2	5b		 pop	 ebx
  000a3	8b 4d fc	 mov	 ecx, DWORD PTR __$ArrayPad$[ebp]
  000a6	33 cd		 xor	 ecx, ebp
  000a8	e8 00 00 00 00	 call	 @__security_check_cookie@4
  000ad	8b e5		 mov	 esp, ebp
  000af	5d		 pop	 ebp
  000b0	c3		 ret	 0
_FV_IntersectRaySphere ENDP
_TEXT	ENDS
; Function compile flags: /Odtp /ZI
; File C:\Users\RafaTheFox\Desktop\SRB2-Public-master (1)\SRB2-Public-master\src\m_fixed.c
;	COMDAT _FV_PlaneIntersection
_TEXT	SEGMENT
_denom$ = -12						; size = 4
_number$ = -8						; size = 4
_d$ = -4						; size = 4
_pOrigin$ = 8						; size = 4
_pNormal$ = 12						; size = 4
_rOrigin$ = 16						; size = 4
_rVector$ = 20						; size = 4
_FV_PlaneIntersection PROC				; COMDAT

; 457  : {

  00000	55		 push	 ebp
  00001	8b ec		 mov	 ebp, esp
  00003	83 ec 4c	 sub	 esp, 76			; 0000004cH
  00006	53		 push	 ebx
  00007	56		 push	 esi
  00008	57		 push	 edi

; 458  :   fixed_t d = -(FV_Dot(pNormal, pOrigin));

  00009	8b 45 08	 mov	 eax, DWORD PTR _pOrigin$[ebp]
  0000c	50		 push	 eax
  0000d	8b 4d 0c	 mov	 ecx, DWORD PTR _pNormal$[ebp]
  00010	51		 push	 ecx
  00011	e8 00 00 00 00	 call	 _FV_Dot
  00016	83 c4 08	 add	 esp, 8
  00019	f7 d8		 neg	 eax
  0001b	89 45 fc	 mov	 DWORD PTR _d$[ebp], eax

; 459  :   fixed_t number = FV_Dot(pNormal,rOrigin) + d;

  0001e	8b 45 10	 mov	 eax, DWORD PTR _rOrigin$[ebp]
  00021	50		 push	 eax
  00022	8b 4d 0c	 mov	 ecx, DWORD PTR _pNormal$[ebp]
  00025	51		 push	 ecx
  00026	e8 00 00 00 00	 call	 _FV_Dot
  0002b	83 c4 08	 add	 esp, 8
  0002e	03 45 fc	 add	 eax, DWORD PTR _d$[ebp]
  00031	89 45 f8	 mov	 DWORD PTR _number$[ebp], eax

; 460  :   fixed_t denom = FV_Dot(pNormal,rVector);

  00034	8b 45 14	 mov	 eax, DWORD PTR _rVector$[ebp]
  00037	50		 push	 eax
  00038	8b 4d 0c	 mov	 ecx, DWORD PTR _pNormal$[ebp]
  0003b	51		 push	 ecx
  0003c	e8 00 00 00 00	 call	 _FV_Dot
  00041	83 c4 08	 add	 esp, 8
  00044	89 45 f4	 mov	 DWORD PTR _denom$[ebp], eax

; 461  :   return -FixedDiv(number, denom);

  00047	8b 45 f4	 mov	 eax, DWORD PTR _denom$[ebp]
  0004a	50		 push	 eax
  0004b	8b 4d f8	 mov	 ecx, DWORD PTR _number$[ebp]
  0004e	51		 push	 ecx
  0004f	e8 00 00 00 00	 call	 _FixedDiv
  00054	83 c4 08	 add	 esp, 8
  00057	f7 d8		 neg	 eax

; 462  : }

  00059	5f		 pop	 edi
  0005a	5e		 pop	 esi
  0005b	5b		 pop	 ebx
  0005c	8b e5		 mov	 esp, ebp
  0005e	5d		 pop	 ebp
  0005f	c3		 ret	 0
_FV_PlaneIntersection ENDP
_TEXT	ENDS
; Function compile flags: /Odtp /ZI
; File C:\Users\RafaTheFox\Desktop\SRB2-Public-master (1)\SRB2-Public-master\src\m_fixed.c
;	COMDAT _FV_IntersectedPlane
_TEXT	SEGMENT
_distance2$ = -8					; size = 4
_distance1$ = -4					; size = 4
_a_triangle$ = 8					; size = 4
_a_line$ = 12						; size = 4
_a_normal$ = 16						; size = 4
_originDistance$ = 20					; size = 4
_FV_IntersectedPlane PROC				; COMDAT

; 427  : {

  00000	55		 push	 ebp
  00001	8b ec		 mov	 ebp, esp
  00003	83 ec 48	 sub	 esp, 72			; 00000048H
  00006	53		 push	 ebx
  00007	56		 push	 esi
  00008	57		 push	 edi

; 428  : 	fixed_t distance1 = 0, distance2 = 0;

  00009	c7 45 fc 00 00
	00 00		 mov	 DWORD PTR _distance1$[ebp], 0
  00010	c7 45 f8 00 00
	00 00		 mov	 DWORD PTR _distance2$[ebp], 0

; 429  : 
; 430  : 	FV_Normal(a_triangle, a_normal);

  00017	8b 45 10	 mov	 eax, DWORD PTR _a_normal$[ebp]
  0001a	50		 push	 eax
  0001b	8b 4d 08	 mov	 ecx, DWORD PTR _a_triangle$[ebp]
  0001e	51		 push	 ecx
  0001f	e8 00 00 00 00	 call	 _FV_Normal
  00024	83 c4 08	 add	 esp, 8

; 431  : 
; 432  : 	*originDistance = FV_PlaneDistance(a_normal, &a_triangle[0]);

  00027	b8 0c 00 00 00	 mov	 eax, 12			; 0000000cH
  0002c	6b c8 00	 imul	 ecx, eax, 0
  0002f	03 4d 08	 add	 ecx, DWORD PTR _a_triangle$[ebp]
  00032	51		 push	 ecx
  00033	8b 55 10	 mov	 edx, DWORD PTR _a_normal$[ebp]
  00036	52		 push	 edx
  00037	e8 00 00 00 00	 call	 _FV_PlaneDistance
  0003c	83 c4 08	 add	 esp, 8
  0003f	8b 4d 14	 mov	 ecx, DWORD PTR _originDistance$[ebp]
  00042	89 01		 mov	 DWORD PTR [ecx], eax

; 433  : 
; 434  : 	distance1 = (FixedMul(a_normal->x, a_line[0].x)  + FixedMul(a_normal->y, a_line[0].y)

  00044	b8 0c 00 00 00	 mov	 eax, 12			; 0000000cH
  00049	6b c8 00	 imul	 ecx, eax, 0
  0004c	8b 55 0c	 mov	 edx, DWORD PTR _a_line$[ebp]
  0004f	8b 04 0a	 mov	 eax, DWORD PTR [edx+ecx]
  00052	50		 push	 eax
  00053	8b 4d 10	 mov	 ecx, DWORD PTR _a_normal$[ebp]
  00056	8b 11		 mov	 edx, DWORD PTR [ecx]
  00058	52		 push	 edx
  00059	e8 00 00 00 00	 call	 _FixedMul
  0005e	83 c4 08	 add	 esp, 8
  00061	8b f0		 mov	 esi, eax
  00063	b8 0c 00 00 00	 mov	 eax, 12			; 0000000cH
  00068	6b c8 00	 imul	 ecx, eax, 0
  0006b	8b 55 0c	 mov	 edx, DWORD PTR _a_line$[ebp]
  0006e	8b 44 0a 04	 mov	 eax, DWORD PTR [edx+ecx+4]
  00072	50		 push	 eax
  00073	8b 4d 10	 mov	 ecx, DWORD PTR _a_normal$[ebp]
  00076	8b 51 04	 mov	 edx, DWORD PTR [ecx+4]
  00079	52		 push	 edx
  0007a	e8 00 00 00 00	 call	 _FixedMul
  0007f	83 c4 08	 add	 esp, 8
  00082	03 f0		 add	 esi, eax
  00084	b8 0c 00 00 00	 mov	 eax, 12			; 0000000cH
  00089	6b c8 00	 imul	 ecx, eax, 0
  0008c	8b 55 0c	 mov	 edx, DWORD PTR _a_line$[ebp]
  0008f	8b 44 0a 08	 mov	 eax, DWORD PTR [edx+ecx+8]
  00093	50		 push	 eax
  00094	8b 4d 10	 mov	 ecx, DWORD PTR _a_normal$[ebp]
  00097	8b 51 08	 mov	 edx, DWORD PTR [ecx+8]
  0009a	52		 push	 edx
  0009b	e8 00 00 00 00	 call	 _FixedMul
  000a0	83 c4 08	 add	 esp, 8
  000a3	03 f0		 add	 esi, eax
  000a5	8b 45 14	 mov	 eax, DWORD PTR _originDistance$[ebp]
  000a8	03 30		 add	 esi, DWORD PTR [eax]
  000aa	89 75 fc	 mov	 DWORD PTR _distance1$[ebp], esi

; 435  : 				+ FixedMul(a_normal->z, a_line[0].z)) + *originDistance;
; 436  : 
; 437  : 	distance2 = (FixedMul(a_normal->x, a_line[1].x)  + FixedMul(a_normal->y, a_line[1].y)

  000ad	b8 0c 00 00 00	 mov	 eax, 12			; 0000000cH
  000b2	c1 e0 00	 shl	 eax, 0
  000b5	8b 4d 0c	 mov	 ecx, DWORD PTR _a_line$[ebp]
  000b8	8b 14 01	 mov	 edx, DWORD PTR [ecx+eax]
  000bb	52		 push	 edx
  000bc	8b 45 10	 mov	 eax, DWORD PTR _a_normal$[ebp]
  000bf	8b 08		 mov	 ecx, DWORD PTR [eax]
  000c1	51		 push	 ecx
  000c2	e8 00 00 00 00	 call	 _FixedMul
  000c7	83 c4 08	 add	 esp, 8
  000ca	8b f0		 mov	 esi, eax
  000cc	ba 0c 00 00 00	 mov	 edx, 12			; 0000000cH
  000d1	c1 e2 00	 shl	 edx, 0
  000d4	8b 45 0c	 mov	 eax, DWORD PTR _a_line$[ebp]
  000d7	8b 4c 10 04	 mov	 ecx, DWORD PTR [eax+edx+4]
  000db	51		 push	 ecx
  000dc	8b 55 10	 mov	 edx, DWORD PTR _a_normal$[ebp]
  000df	8b 42 04	 mov	 eax, DWORD PTR [edx+4]
  000e2	50		 push	 eax
  000e3	e8 00 00 00 00	 call	 _FixedMul
  000e8	83 c4 08	 add	 esp, 8
  000eb	03 f0		 add	 esi, eax
  000ed	b9 0c 00 00 00	 mov	 ecx, 12			; 0000000cH
  000f2	c1 e1 00	 shl	 ecx, 0
  000f5	8b 55 0c	 mov	 edx, DWORD PTR _a_line$[ebp]
  000f8	8b 44 0a 08	 mov	 eax, DWORD PTR [edx+ecx+8]
  000fc	50		 push	 eax
  000fd	8b 4d 10	 mov	 ecx, DWORD PTR _a_normal$[ebp]
  00100	8b 51 08	 mov	 edx, DWORD PTR [ecx+8]
  00103	52		 push	 edx
  00104	e8 00 00 00 00	 call	 _FixedMul
  00109	83 c4 08	 add	 esp, 8
  0010c	03 f0		 add	 esi, eax
  0010e	8b 45 14	 mov	 eax, DWORD PTR _originDistance$[ebp]
  00111	03 30		 add	 esi, DWORD PTR [eax]
  00113	89 75 f8	 mov	 DWORD PTR _distance2$[ebp], esi

; 438  : 				+ FixedMul(a_normal->z, a_line[1].z)) + *originDistance;
; 439  : 
; 440  : 	// Positive or zero number means no intersection
; 441  : 	if (FixedMul(distance1, distance2) >= 0)

  00116	8b 45 f8	 mov	 eax, DWORD PTR _distance2$[ebp]
  00119	50		 push	 eax
  0011a	8b 4d fc	 mov	 ecx, DWORD PTR _distance1$[ebp]
  0011d	51		 push	 ecx
  0011e	e8 00 00 00 00	 call	 _FixedMul
  00123	83 c4 08	 add	 esp, 8
  00126	85 c0		 test	 eax, eax
  00128	7c 04		 jl	 SHORT $LN2@FV_Interse

; 442  : 		return false;

  0012a	33 c0		 xor	 eax, eax
  0012c	eb 05		 jmp	 SHORT $LN1@FV_Interse
$LN2@FV_Interse:

; 443  : 
; 444  : 	return true;

  0012e	b8 01 00 00 00	 mov	 eax, 1
$LN1@FV_Interse:

; 445  : }

  00133	5f		 pop	 edi
  00134	5e		 pop	 esi
  00135	5b		 pop	 ebx
  00136	8b e5		 mov	 esp, ebp
  00138	5d		 pop	 ebp
  00139	c3		 ret	 0
_FV_IntersectedPlane ENDP
_TEXT	ENDS
; Function compile flags: /Odtp /ZI
; File C:\Users\RafaTheFox\Desktop\SRB2-Public-master (1)\SRB2-Public-master\src\m_fixed.c
;	COMDAT _FV_PlaneDistance
_TEXT	SEGMENT
_a_normal$ = 8						; size = 4
_a_point$ = 12						; size = 4
_FV_PlaneDistance PROC					; COMDAT

; 422  : {

  00000	55		 push	 ebp
  00001	8b ec		 mov	 ebp, esp
  00003	83 ec 40	 sub	 esp, 64			; 00000040H
  00006	53		 push	 ebx
  00007	56		 push	 esi
  00008	57		 push	 edi

; 423  : 	return -(FixedMul(a_normal->x, a_point->x) + FixedMul(a_normal->y, a_point->y) + FixedMul(a_normal->z, a_point->z));

  00009	8b 45 0c	 mov	 eax, DWORD PTR _a_point$[ebp]
  0000c	8b 08		 mov	 ecx, DWORD PTR [eax]
  0000e	51		 push	 ecx
  0000f	8b 55 08	 mov	 edx, DWORD PTR _a_normal$[ebp]
  00012	8b 02		 mov	 eax, DWORD PTR [edx]
  00014	50		 push	 eax
  00015	e8 00 00 00 00	 call	 _FixedMul
  0001a	83 c4 08	 add	 esp, 8
  0001d	8b f0		 mov	 esi, eax
  0001f	8b 4d 0c	 mov	 ecx, DWORD PTR _a_point$[ebp]
  00022	8b 51 04	 mov	 edx, DWORD PTR [ecx+4]
  00025	52		 push	 edx
  00026	8b 45 08	 mov	 eax, DWORD PTR _a_normal$[ebp]
  00029	8b 48 04	 mov	 ecx, DWORD PTR [eax+4]
  0002c	51		 push	 ecx
  0002d	e8 00 00 00 00	 call	 _FixedMul
  00032	83 c4 08	 add	 esp, 8
  00035	03 f0		 add	 esi, eax
  00037	8b 55 0c	 mov	 edx, DWORD PTR _a_point$[ebp]
  0003a	8b 42 08	 mov	 eax, DWORD PTR [edx+8]
  0003d	50		 push	 eax
  0003e	8b 4d 08	 mov	 ecx, DWORD PTR _a_normal$[ebp]
  00041	8b 51 08	 mov	 edx, DWORD PTR [ecx+8]
  00044	52		 push	 edx
  00045	e8 00 00 00 00	 call	 _FixedMul
  0004a	83 c4 08	 add	 esp, 8
  0004d	03 f0		 add	 esi, eax
  0004f	f7 de		 neg	 esi
  00051	8b c6		 mov	 eax, esi

; 424  : }

  00053	5f		 pop	 edi
  00054	5e		 pop	 esi
  00055	5b		 pop	 ebx
  00056	8b e5		 mov	 esp, ebp
  00058	5d		 pop	 ebp
  00059	c3		 ret	 0
_FV_PlaneDistance ENDP
_TEXT	ENDS
; Function compile flags: /Odtp /ZI
; File C:\Users\RafaTheFox\Desktop\SRB2-Public-master (1)\SRB2-Public-master\src\m_fixed.c
;	COMDAT _FV_Normal
_TEXT	SEGMENT
_a_2$ = -28						; size = 12
_a_1$ = -16						; size = 12
__$ArrayPad$ = -4					; size = 4
_a_triangle$ = 8					; size = 4
_a_normal$ = 12						; size = 4
_FV_Normal PROC						; COMDAT

; 404  : {

  00000	55		 push	 ebp
  00001	8b ec		 mov	 ebp, esp
  00003	83 ec 5c	 sub	 esp, 92			; 0000005cH
  00006	a1 00 00 00 00	 mov	 eax, DWORD PTR ___security_cookie
  0000b	33 c5		 xor	 eax, ebp
  0000d	89 45 fc	 mov	 DWORD PTR __$ArrayPad$[ebp], eax
  00010	53		 push	 ebx
  00011	56		 push	 esi
  00012	57		 push	 edi

; 405  : 	vector_t a_1;
; 406  : 	vector_t a_2;
; 407  : 
; 408  : 	FV_Point2Vec(&a_triangle[2], &a_triangle[0], &a_1);

  00013	8d 45 f0	 lea	 eax, DWORD PTR _a_1$[ebp]
  00016	50		 push	 eax
  00017	b9 0c 00 00 00	 mov	 ecx, 12			; 0000000cH
  0001c	6b d1 00	 imul	 edx, ecx, 0
  0001f	03 55 08	 add	 edx, DWORD PTR _a_triangle$[ebp]
  00022	52		 push	 edx
  00023	b8 0c 00 00 00	 mov	 eax, 12			; 0000000cH
  00028	d1 e0		 shl	 eax, 1
  0002a	03 45 08	 add	 eax, DWORD PTR _a_triangle$[ebp]
  0002d	50		 push	 eax
  0002e	e8 00 00 00 00	 call	 _FV_Point2Vec
  00033	83 c4 0c	 add	 esp, 12			; 0000000cH

; 409  : 	FV_Point2Vec(&a_triangle[1], &a_triangle[0], &a_2);

  00036	8d 45 e4	 lea	 eax, DWORD PTR _a_2$[ebp]
  00039	50		 push	 eax
  0003a	b9 0c 00 00 00	 mov	 ecx, 12			; 0000000cH
  0003f	6b d1 00	 imul	 edx, ecx, 0
  00042	03 55 08	 add	 edx, DWORD PTR _a_triangle$[ebp]
  00045	52		 push	 edx
  00046	b8 0c 00 00 00	 mov	 eax, 12			; 0000000cH
  0004b	c1 e0 00	 shl	 eax, 0
  0004e	03 45 08	 add	 eax, DWORD PTR _a_triangle$[ebp]
  00051	50		 push	 eax
  00052	e8 00 00 00 00	 call	 _FV_Point2Vec
  00057	83 c4 0c	 add	 esp, 12			; 0000000cH

; 410  : 
; 411  : 	FV_Cross(&a_1, &a_2, a_normal);

  0005a	8b 45 0c	 mov	 eax, DWORD PTR _a_normal$[ebp]
  0005d	50		 push	 eax
  0005e	8d 4d e4	 lea	 ecx, DWORD PTR _a_2$[ebp]
  00061	51		 push	 ecx
  00062	8d 55 f0	 lea	 edx, DWORD PTR _a_1$[ebp]
  00065	52		 push	 edx
  00066	e8 00 00 00 00	 call	 _FV_Cross
  0006b	83 c4 0c	 add	 esp, 12			; 0000000cH

; 412  : 
; 413  : 	FV_NormalizeEx(a_normal, a_normal);

  0006e	8b 45 0c	 mov	 eax, DWORD PTR _a_normal$[ebp]
  00071	50		 push	 eax
  00072	8b 4d 0c	 mov	 ecx, DWORD PTR _a_normal$[ebp]
  00075	51		 push	 ecx
  00076	e8 00 00 00 00	 call	 _FV_NormalizeEx
  0007b	83 c4 08	 add	 esp, 8

; 414  : }

  0007e	5f		 pop	 edi
  0007f	5e		 pop	 esi
  00080	5b		 pop	 ebx
  00081	8b 4d fc	 mov	 ecx, DWORD PTR __$ArrayPad$[ebp]
  00084	33 cd		 xor	 ecx, ebp
  00086	e8 00 00 00 00	 call	 @__security_check_cookie@4
  0008b	8b e5		 mov	 esp, ebp
  0008d	5d		 pop	 ebp
  0008e	c3		 ret	 0
_FV_Normal ENDP
_TEXT	ENDS
; Function compile flags: /Odtp /ZI
; File C:\Users\RafaTheFox\Desktop\SRB2-Public-master (1)\SRB2-Public-master\src\m_fixed.c
;	COMDAT _FV_Point2Vec
_TEXT	SEGMENT
_point1$ = 8						; size = 4
_point2$ = 12						; size = 4
_a_o$ = 16						; size = 4
_FV_Point2Vec PROC					; COMDAT

; 391  : {

  00000	55		 push	 ebp
  00001	8b ec		 mov	 ebp, esp
  00003	83 ec 40	 sub	 esp, 64			; 00000040H
  00006	53		 push	 ebx
  00007	56		 push	 esi
  00008	57		 push	 edi

; 392  : 	a_o->x = point1->x - point2->x;

  00009	8b 45 08	 mov	 eax, DWORD PTR _point1$[ebp]
  0000c	8b 4d 0c	 mov	 ecx, DWORD PTR _point2$[ebp]
  0000f	8b 10		 mov	 edx, DWORD PTR [eax]
  00011	2b 11		 sub	 edx, DWORD PTR [ecx]
  00013	8b 45 10	 mov	 eax, DWORD PTR _a_o$[ebp]
  00016	89 10		 mov	 DWORD PTR [eax], edx

; 393  : 	a_o->y = point1->y - point2->y;

  00018	8b 45 08	 mov	 eax, DWORD PTR _point1$[ebp]
  0001b	8b 4d 0c	 mov	 ecx, DWORD PTR _point2$[ebp]
  0001e	8b 50 04	 mov	 edx, DWORD PTR [eax+4]
  00021	2b 51 04	 sub	 edx, DWORD PTR [ecx+4]
  00024	8b 45 10	 mov	 eax, DWORD PTR _a_o$[ebp]
  00027	89 50 04	 mov	 DWORD PTR [eax+4], edx

; 394  : 	a_o->z = point1->z - point2->z;

  0002a	8b 45 08	 mov	 eax, DWORD PTR _point1$[ebp]
  0002d	8b 4d 0c	 mov	 ecx, DWORD PTR _point2$[ebp]
  00030	8b 50 08	 mov	 edx, DWORD PTR [eax+8]
  00033	2b 51 08	 sub	 edx, DWORD PTR [ecx+8]
  00036	8b 45 10	 mov	 eax, DWORD PTR _a_o$[ebp]
  00039	89 50 08	 mov	 DWORD PTR [eax+8], edx

; 395  : 	return a_o;

  0003c	8b 45 10	 mov	 eax, DWORD PTR _a_o$[ebp]

; 396  : }

  0003f	5f		 pop	 edi
  00040	5e		 pop	 esi
  00041	5b		 pop	 ebx
  00042	8b e5		 mov	 esp, ebp
  00044	5d		 pop	 ebp
  00045	c3		 ret	 0
_FV_Point2Vec ENDP
_TEXT	ENDS
; Function compile flags: /Odtp /ZI
; File C:\Users\RafaTheFox\Desktop\SRB2-Public-master (1)\SRB2-Public-master\src\m_fixed.c
;	COMDAT _FV_ClosestPointOnTriangle
_TEXT	SEGMENT
_Line$ = -76						; size = 24
_EdgePoints$ = -52					; size = 36
_closestdist$ = -16					; size = 4
_dist$ = -12						; size = 4
_i$ = -5						; size = 1
__$ArrayPad$ = -4					; size = 4
_tri$ = 8						; size = 4
_point$ = 12						; size = 4
_result$ = 16						; size = 4
_FV_ClosestPointOnTriangle PROC				; COMDAT

; 350  : {

  00000	55		 push	 ebp
  00001	8b ec		 mov	 ebp, esp
  00003	81 ec 8c 00 00
	00		 sub	 esp, 140		; 0000008cH
  00009	a1 00 00 00 00	 mov	 eax, DWORD PTR ___security_cookie
  0000e	33 c5		 xor	 eax, ebp
  00010	89 45 fc	 mov	 DWORD PTR __$ArrayPad$[ebp], eax
  00013	53		 push	 ebx
  00014	56		 push	 esi
  00015	57		 push	 edi

; 351  : 	UINT8 i;
; 352  : 	fixed_t dist, closestdist;
; 353  : 	vector_t EdgePoints[3];
; 354  : 	vector_t Line[2];
; 355  : 
; 356  : 	FV_Copy(&Line[0], &tri[0]);

  00016	b8 0c 00 00 00	 mov	 eax, 12			; 0000000cH
  0001b	6b c8 00	 imul	 ecx, eax, 0
  0001e	03 4d 08	 add	 ecx, DWORD PTR _tri$[ebp]
  00021	51		 push	 ecx
  00022	ba 0c 00 00 00	 mov	 edx, 12			; 0000000cH
  00027	6b c2 00	 imul	 eax, edx, 0
  0002a	8d 4c 05 b4	 lea	 ecx, DWORD PTR _Line$[ebp+eax]
  0002e	51		 push	 ecx
  0002f	e8 00 00 00 00	 call	 _FV_Copy
  00034	83 c4 08	 add	 esp, 8

; 357  : 	FV_Copy(&Line[1], &tri[1]);

  00037	b8 0c 00 00 00	 mov	 eax, 12			; 0000000cH
  0003c	c1 e0 00	 shl	 eax, 0
  0003f	03 45 08	 add	 eax, DWORD PTR _tri$[ebp]
  00042	50		 push	 eax
  00043	b9 0c 00 00 00	 mov	 ecx, 12			; 0000000cH
  00048	c1 e1 00	 shl	 ecx, 0
  0004b	8d 54 0d b4	 lea	 edx, DWORD PTR _Line$[ebp+ecx]
  0004f	52		 push	 edx
  00050	e8 00 00 00 00	 call	 _FV_Copy
  00055	83 c4 08	 add	 esp, 8

; 358  : 	FV_ClosestPointOnLine(Line, point, &EdgePoints[0]);

  00058	b8 0c 00 00 00	 mov	 eax, 12			; 0000000cH
  0005d	6b c8 00	 imul	 ecx, eax, 0
  00060	8d 54 0d cc	 lea	 edx, DWORD PTR _EdgePoints$[ebp+ecx]
  00064	52		 push	 edx
  00065	8b 45 0c	 mov	 eax, DWORD PTR _point$[ebp]
  00068	50		 push	 eax
  00069	8d 4d b4	 lea	 ecx, DWORD PTR _Line$[ebp]
  0006c	51		 push	 ecx
  0006d	e8 00 00 00 00	 call	 _FV_ClosestPointOnLine
  00072	83 c4 0c	 add	 esp, 12			; 0000000cH

; 359  : 
; 360  : 	FV_Copy(&Line[0], &tri[1]);

  00075	b8 0c 00 00 00	 mov	 eax, 12			; 0000000cH
  0007a	c1 e0 00	 shl	 eax, 0
  0007d	03 45 08	 add	 eax, DWORD PTR _tri$[ebp]
  00080	50		 push	 eax
  00081	b9 0c 00 00 00	 mov	 ecx, 12			; 0000000cH
  00086	6b d1 00	 imul	 edx, ecx, 0
  00089	8d 44 15 b4	 lea	 eax, DWORD PTR _Line$[ebp+edx]
  0008d	50		 push	 eax
  0008e	e8 00 00 00 00	 call	 _FV_Copy
  00093	83 c4 08	 add	 esp, 8

; 361  : 	FV_Copy(&Line[1], &tri[2]);

  00096	b8 0c 00 00 00	 mov	 eax, 12			; 0000000cH
  0009b	d1 e0		 shl	 eax, 1
  0009d	03 45 08	 add	 eax, DWORD PTR _tri$[ebp]
  000a0	50		 push	 eax
  000a1	b9 0c 00 00 00	 mov	 ecx, 12			; 0000000cH
  000a6	c1 e1 00	 shl	 ecx, 0
  000a9	8d 54 0d b4	 lea	 edx, DWORD PTR _Line$[ebp+ecx]
  000ad	52		 push	 edx
  000ae	e8 00 00 00 00	 call	 _FV_Copy
  000b3	83 c4 08	 add	 esp, 8

; 362  : 	FV_ClosestPointOnLine(Line, point, &EdgePoints[1]);

  000b6	b8 0c 00 00 00	 mov	 eax, 12			; 0000000cH
  000bb	c1 e0 00	 shl	 eax, 0
  000be	8d 4c 05 cc	 lea	 ecx, DWORD PTR _EdgePoints$[ebp+eax]
  000c2	51		 push	 ecx
  000c3	8b 55 0c	 mov	 edx, DWORD PTR _point$[ebp]
  000c6	52		 push	 edx
  000c7	8d 45 b4	 lea	 eax, DWORD PTR _Line$[ebp]
  000ca	50		 push	 eax
  000cb	e8 00 00 00 00	 call	 _FV_ClosestPointOnLine
  000d0	83 c4 0c	 add	 esp, 12			; 0000000cH

; 363  : 
; 364  : 	FV_Copy(&Line[0], &tri[2]);

  000d3	b8 0c 00 00 00	 mov	 eax, 12			; 0000000cH
  000d8	d1 e0		 shl	 eax, 1
  000da	03 45 08	 add	 eax, DWORD PTR _tri$[ebp]
  000dd	50		 push	 eax
  000de	b9 0c 00 00 00	 mov	 ecx, 12			; 0000000cH
  000e3	6b d1 00	 imul	 edx, ecx, 0
  000e6	8d 44 15 b4	 lea	 eax, DWORD PTR _Line$[ebp+edx]
  000ea	50		 push	 eax
  000eb	e8 00 00 00 00	 call	 _FV_Copy
  000f0	83 c4 08	 add	 esp, 8

; 365  : 	FV_Copy(&Line[1], &tri[0]);

  000f3	b8 0c 00 00 00	 mov	 eax, 12			; 0000000cH
  000f8	6b c8 00	 imul	 ecx, eax, 0
  000fb	03 4d 08	 add	 ecx, DWORD PTR _tri$[ebp]
  000fe	51		 push	 ecx
  000ff	ba 0c 00 00 00	 mov	 edx, 12			; 0000000cH
  00104	c1 e2 00	 shl	 edx, 0
  00107	8d 44 15 b4	 lea	 eax, DWORD PTR _Line$[ebp+edx]
  0010b	50		 push	 eax
  0010c	e8 00 00 00 00	 call	 _FV_Copy
  00111	83 c4 08	 add	 esp, 8

; 366  : 	FV_ClosestPointOnLine(Line, point, &EdgePoints[2]);

  00114	b8 0c 00 00 00	 mov	 eax, 12			; 0000000cH
  00119	d1 e0		 shl	 eax, 1
  0011b	8d 4c 05 cc	 lea	 ecx, DWORD PTR _EdgePoints$[ebp+eax]
  0011f	51		 push	 ecx
  00120	8b 55 0c	 mov	 edx, DWORD PTR _point$[ebp]
  00123	52		 push	 edx
  00124	8d 45 b4	 lea	 eax, DWORD PTR _Line$[ebp]
  00127	50		 push	 eax
  00128	e8 00 00 00 00	 call	 _FV_ClosestPointOnLine
  0012d	83 c4 0c	 add	 esp, 12			; 0000000cH

; 367  : 
; 368  : 	// Find the closest one of the three
; 369  : 	FV_Copy(result, &EdgePoints[0]);

  00130	b8 0c 00 00 00	 mov	 eax, 12			; 0000000cH
  00135	6b c8 00	 imul	 ecx, eax, 0
  00138	8d 54 0d cc	 lea	 edx, DWORD PTR _EdgePoints$[ebp+ecx]
  0013c	52		 push	 edx
  0013d	8b 45 10	 mov	 eax, DWORD PTR _result$[ebp]
  00140	50		 push	 eax
  00141	e8 00 00 00 00	 call	 _FV_Copy
  00146	83 c4 08	 add	 esp, 8

; 370  : 	closestdist = FV_Distance(point, &EdgePoints[0]);

  00149	b8 0c 00 00 00	 mov	 eax, 12			; 0000000cH
  0014e	6b c8 00	 imul	 ecx, eax, 0
  00151	8d 54 0d cc	 lea	 edx, DWORD PTR _EdgePoints$[ebp+ecx]
  00155	52		 push	 edx
  00156	8b 45 0c	 mov	 eax, DWORD PTR _point$[ebp]
  00159	50		 push	 eax
  0015a	e8 00 00 00 00	 call	 _FV_Distance
  0015f	83 c4 08	 add	 esp, 8
  00162	89 45 f0	 mov	 DWORD PTR _closestdist$[ebp], eax

; 371  : 	for (i = 1; i < 3; i++)

  00165	c6 45 fb 01	 mov	 BYTE PTR _i$[ebp], 1
  00169	eb 08		 jmp	 SHORT $LN4@FV_Closest
$LN2@FV_Closest:
  0016b	8a 45 fb	 mov	 al, BYTE PTR _i$[ebp]
  0016e	04 01		 add	 al, 1
  00170	88 45 fb	 mov	 BYTE PTR _i$[ebp], al
$LN4@FV_Closest:
  00173	0f b6 45 fb	 movzx	 eax, BYTE PTR _i$[ebp]
  00177	83 f8 03	 cmp	 eax, 3
  0017a	7d 43		 jge	 SHORT $LN3@FV_Closest

; 372  : 	{
; 373  : 		dist = FV_Distance(point, &EdgePoints[i]);

  0017c	0f b6 45 fb	 movzx	 eax, BYTE PTR _i$[ebp]
  00180	6b c8 0c	 imul	 ecx, eax, 12
  00183	8d 54 0d cc	 lea	 edx, DWORD PTR _EdgePoints$[ebp+ecx]
  00187	52		 push	 edx
  00188	8b 45 0c	 mov	 eax, DWORD PTR _point$[ebp]
  0018b	50		 push	 eax
  0018c	e8 00 00 00 00	 call	 _FV_Distance
  00191	83 c4 08	 add	 esp, 8
  00194	89 45 f4	 mov	 DWORD PTR _dist$[ebp], eax

; 374  : 
; 375  : 		if (dist < closestdist)

  00197	8b 45 f4	 mov	 eax, DWORD PTR _dist$[ebp]
  0019a	3b 45 f0	 cmp	 eax, DWORD PTR _closestdist$[ebp]
  0019d	7d 1e		 jge	 SHORT $LN5@FV_Closest

; 376  : 		{
; 377  : 			closestdist = dist;

  0019f	8b 45 f4	 mov	 eax, DWORD PTR _dist$[ebp]
  001a2	89 45 f0	 mov	 DWORD PTR _closestdist$[ebp], eax

; 378  : 			FV_Copy(result, &EdgePoints[i]);

  001a5	0f b6 45 fb	 movzx	 eax, BYTE PTR _i$[ebp]
  001a9	6b c8 0c	 imul	 ecx, eax, 12
  001ac	8d 54 0d cc	 lea	 edx, DWORD PTR _EdgePoints$[ebp+ecx]
  001b0	52		 push	 edx
  001b1	8b 45 10	 mov	 eax, DWORD PTR _result$[ebp]
  001b4	50		 push	 eax
  001b5	e8 00 00 00 00	 call	 _FV_Copy
  001ba	83 c4 08	 add	 esp, 8
$LN5@FV_Closest:

; 379  : 		}
; 380  : 	}

  001bd	eb ac		 jmp	 SHORT $LN2@FV_Closest
$LN3@FV_Closest:

; 381  : 
; 382  : 	// We now have the closest point! Whee!
; 383  : }

  001bf	5f		 pop	 edi
  001c0	5e		 pop	 esi
  001c1	5b		 pop	 ebx
  001c2	8b 4d fc	 mov	 ecx, DWORD PTR __$ArrayPad$[ebp]
  001c5	33 cd		 xor	 ecx, ebp
  001c7	e8 00 00 00 00	 call	 @__security_check_cookie@4
  001cc	8b e5		 mov	 esp, ebp
  001ce	5d		 pop	 ebp
  001cf	c3		 ret	 0
_FV_ClosestPointOnTriangle ENDP
_TEXT	ENDS
; Function compile flags: /Odtp /ZI
; File C:\Users\RafaTheFox\Desktop\SRB2-Public-master (1)\SRB2-Public-master\src\m_fixed.c
;	COMDAT _FV_ClosestPointOnLine
_TEXT	SEGMENT
_d$ = -36						; size = 4
_t$ = -32						; size = 4
_V$ = -28						; size = 12
_c$ = -16						; size = 12
__$ArrayPad$ = -4					; size = 4
_Line$ = 8						; size = 4
_p$ = 12						; size = 4
_out$ = 16						; size = 4
_FV_ClosestPointOnLine PROC				; COMDAT

; 315  : {

  00000	55		 push	 ebp
  00001	8b ec		 mov	 ebp, esp
  00003	83 ec 64	 sub	 esp, 100		; 00000064H
  00006	a1 00 00 00 00	 mov	 eax, DWORD PTR ___security_cookie
  0000b	33 c5		 xor	 eax, ebp
  0000d	89 45 fc	 mov	 DWORD PTR __$ArrayPad$[ebp], eax
  00010	53		 push	 ebx
  00011	56		 push	 esi
  00012	57		 push	 edi

; 316  :    // Determine t (the length of the vector from Line[0] to p)
; 317  :    vector_t c, V;
; 318  :    fixed_t t, d = 0;

  00013	c7 45 dc 00 00
	00 00		 mov	 DWORD PTR _d$[ebp], 0

; 319  :    FV_SubEx(p, &Line[0], &c);

  0001a	8d 45 f0	 lea	 eax, DWORD PTR _c$[ebp]
  0001d	50		 push	 eax
  0001e	b9 0c 00 00 00	 mov	 ecx, 12			; 0000000cH
  00023	6b d1 00	 imul	 edx, ecx, 0
  00026	03 55 08	 add	 edx, DWORD PTR _Line$[ebp]
  00029	52		 push	 edx
  0002a	8b 45 0c	 mov	 eax, DWORD PTR _p$[ebp]
  0002d	50		 push	 eax
  0002e	e8 00 00 00 00	 call	 _FV_SubEx
  00033	83 c4 0c	 add	 esp, 12			; 0000000cH

; 320  :    FV_SubEx(&Line[1], &Line[0], &V);

  00036	8d 45 e4	 lea	 eax, DWORD PTR _V$[ebp]
  00039	50		 push	 eax
  0003a	b9 0c 00 00 00	 mov	 ecx, 12			; 0000000cH
  0003f	6b d1 00	 imul	 edx, ecx, 0
  00042	03 55 08	 add	 edx, DWORD PTR _Line$[ebp]
  00045	52		 push	 edx
  00046	b8 0c 00 00 00	 mov	 eax, 12			; 0000000cH
  0004b	c1 e0 00	 shl	 eax, 0
  0004e	03 45 08	 add	 eax, DWORD PTR _Line$[ebp]
  00051	50		 push	 eax
  00052	e8 00 00 00 00	 call	 _FV_SubEx
  00057	83 c4 0c	 add	 esp, 12			; 0000000cH

; 321  :    FV_NormalizeEx(&V, &V);

  0005a	8d 45 e4	 lea	 eax, DWORD PTR _V$[ebp]
  0005d	50		 push	 eax
  0005e	8d 4d e4	 lea	 ecx, DWORD PTR _V$[ebp]
  00061	51		 push	 ecx
  00062	e8 00 00 00 00	 call	 _FV_NormalizeEx
  00067	83 c4 08	 add	 esp, 8

; 322  : 
; 323  :    d = FV_Distance(&Line[0], &Line[1]);

  0006a	b8 0c 00 00 00	 mov	 eax, 12			; 0000000cH
  0006f	c1 e0 00	 shl	 eax, 0
  00072	03 45 08	 add	 eax, DWORD PTR _Line$[ebp]
  00075	50		 push	 eax
  00076	b9 0c 00 00 00	 mov	 ecx, 12			; 0000000cH
  0007b	6b d1 00	 imul	 edx, ecx, 0
  0007e	03 55 08	 add	 edx, DWORD PTR _Line$[ebp]
  00081	52		 push	 edx
  00082	e8 00 00 00 00	 call	 _FV_Distance
  00087	83 c4 08	 add	 esp, 8
  0008a	89 45 dc	 mov	 DWORD PTR _d$[ebp], eax

; 324  :    t = FV_Dot(&V, &c);

  0008d	8d 45 f0	 lea	 eax, DWORD PTR _c$[ebp]
  00090	50		 push	 eax
  00091	8d 4d e4	 lea	 ecx, DWORD PTR _V$[ebp]
  00094	51		 push	 ecx
  00095	e8 00 00 00 00	 call	 _FV_Dot
  0009a	83 c4 08	 add	 esp, 8
  0009d	89 45 e0	 mov	 DWORD PTR _t$[ebp], eax

; 325  : 
; 326  :    // Check to see if t is beyond the extents of the line segment
; 327  :    if (t < 0)

  000a0	83 7d e0 00	 cmp	 DWORD PTR _t$[ebp], 0
  000a4	7d 1a		 jge	 SHORT $LN2@FV_Closest

; 328  :    {
; 329  : 	   return FV_Copy(out, &Line[0]);

  000a6	b8 0c 00 00 00	 mov	 eax, 12			; 0000000cH
  000ab	6b c8 00	 imul	 ecx, eax, 0
  000ae	03 4d 08	 add	 ecx, DWORD PTR _Line$[ebp]
  000b1	51		 push	 ecx
  000b2	8b 55 10	 mov	 edx, DWORD PTR _out$[ebp]
  000b5	52		 push	 edx
  000b6	e8 00 00 00 00	 call	 _FV_Copy
  000bb	83 c4 08	 add	 esp, 8
  000be	eb 4e		 jmp	 SHORT $LN1@FV_Closest
$LN2@FV_Closest:

; 330  :    }
; 331  :    if (t > d)

  000c0	8b 45 e0	 mov	 eax, DWORD PTR _t$[ebp]
  000c3	3b 45 dc	 cmp	 eax, DWORD PTR _d$[ebp]
  000c6	7e 1a		 jle	 SHORT $LN3@FV_Closest

; 332  :    {
; 333  : 	   return FV_Copy(out, &Line[1]);

  000c8	b8 0c 00 00 00	 mov	 eax, 12			; 0000000cH
  000cd	c1 e0 00	 shl	 eax, 0
  000d0	03 45 08	 add	 eax, DWORD PTR _Line$[ebp]
  000d3	50		 push	 eax
  000d4	8b 4d 10	 mov	 ecx, DWORD PTR _out$[ebp]
  000d7	51		 push	 ecx
  000d8	e8 00 00 00 00	 call	 _FV_Copy
  000dd	83 c4 08	 add	 esp, 8
  000e0	eb 2c		 jmp	 SHORT $LN1@FV_Closest
$LN3@FV_Closest:

; 334  :    }
; 335  : 
; 336  :    // Return the point between Line[0] and Line[1]
; 337  :    FV_Mul(&V, t);

  000e2	8b 45 e0	 mov	 eax, DWORD PTR _t$[ebp]
  000e5	50		 push	 eax
  000e6	8d 4d e4	 lea	 ecx, DWORD PTR _V$[ebp]
  000e9	51		 push	 ecx
  000ea	e8 00 00 00 00	 call	 _FV_Mul
  000ef	83 c4 08	 add	 esp, 8

; 338  : 
; 339  :    return FV_AddEx(&Line[0], &V, out);

  000f2	8b 45 10	 mov	 eax, DWORD PTR _out$[ebp]
  000f5	50		 push	 eax
  000f6	8d 4d e4	 lea	 ecx, DWORD PTR _V$[ebp]
  000f9	51		 push	 ecx
  000fa	ba 0c 00 00 00	 mov	 edx, 12			; 0000000cH
  000ff	6b c2 00	 imul	 eax, edx, 0
  00102	03 45 08	 add	 eax, DWORD PTR _Line$[ebp]
  00105	50		 push	 eax
  00106	e8 00 00 00 00	 call	 _FV_AddEx
  0010b	83 c4 0c	 add	 esp, 12			; 0000000cH
$LN1@FV_Closest:

; 340  : }

  0010e	5f		 pop	 edi
  0010f	5e		 pop	 esi
  00110	5b		 pop	 ebx
  00111	8b 4d fc	 mov	 ecx, DWORD PTR __$ArrayPad$[ebp]
  00114	33 cd		 xor	 ecx, ebp
  00116	e8 00 00 00 00	 call	 @__security_check_cookie@4
  0011b	8b e5		 mov	 esp, ebp
  0011d	5d		 pop	 ebp
  0011e	c3		 ret	 0
_FV_ClosestPointOnLine ENDP
_TEXT	ENDS
; Function compile flags: /Odtp /ZI
; File C:\Users\RafaTheFox\Desktop\SRB2-Public-master (1)\SRB2-Public-master\src\m_fixed.c
;	COMDAT _FV_Cross
_TEXT	SEGMENT
_a_1$ = 8						; size = 4
_a_2$ = 12						; size = 4
_a_o$ = 16						; size = 4
_FV_Cross PROC						; COMDAT

; 301  : {

  00000	55		 push	 ebp
  00001	8b ec		 mov	 ebp, esp
  00003	83 ec 40	 sub	 esp, 64			; 00000040H
  00006	53		 push	 ebx
  00007	56		 push	 esi
  00008	57		 push	 edi

; 302  : 	a_o->x = FixedMul(a_1->y, a_2->z) - FixedMul(a_1->z, a_2->y);

  00009	8b 45 0c	 mov	 eax, DWORD PTR _a_2$[ebp]
  0000c	8b 48 08	 mov	 ecx, DWORD PTR [eax+8]
  0000f	51		 push	 ecx
  00010	8b 55 08	 mov	 edx, DWORD PTR _a_1$[ebp]
  00013	8b 42 04	 mov	 eax, DWORD PTR [edx+4]
  00016	50		 push	 eax
  00017	e8 00 00 00 00	 call	 _FixedMul
  0001c	83 c4 08	 add	 esp, 8
  0001f	8b f0		 mov	 esi, eax
  00021	8b 4d 0c	 mov	 ecx, DWORD PTR _a_2$[ebp]
  00024	8b 51 04	 mov	 edx, DWORD PTR [ecx+4]
  00027	52		 push	 edx
  00028	8b 45 08	 mov	 eax, DWORD PTR _a_1$[ebp]
  0002b	8b 48 08	 mov	 ecx, DWORD PTR [eax+8]
  0002e	51		 push	 ecx
  0002f	e8 00 00 00 00	 call	 _FixedMul
  00034	83 c4 08	 add	 esp, 8
  00037	2b f0		 sub	 esi, eax
  00039	8b 55 10	 mov	 edx, DWORD PTR _a_o$[ebp]
  0003c	89 32		 mov	 DWORD PTR [edx], esi

; 303  : 	a_o->y = FixedMul(a_1->z, a_2->x) - FixedMul(a_1->x, a_2->z);

  0003e	8b 45 0c	 mov	 eax, DWORD PTR _a_2$[ebp]
  00041	8b 08		 mov	 ecx, DWORD PTR [eax]
  00043	51		 push	 ecx
  00044	8b 55 08	 mov	 edx, DWORD PTR _a_1$[ebp]
  00047	8b 42 08	 mov	 eax, DWORD PTR [edx+8]
  0004a	50		 push	 eax
  0004b	e8 00 00 00 00	 call	 _FixedMul
  00050	83 c4 08	 add	 esp, 8
  00053	8b f0		 mov	 esi, eax
  00055	8b 4d 0c	 mov	 ecx, DWORD PTR _a_2$[ebp]
  00058	8b 51 08	 mov	 edx, DWORD PTR [ecx+8]
  0005b	52		 push	 edx
  0005c	8b 45 08	 mov	 eax, DWORD PTR _a_1$[ebp]
  0005f	8b 08		 mov	 ecx, DWORD PTR [eax]
  00061	51		 push	 ecx
  00062	e8 00 00 00 00	 call	 _FixedMul
  00067	83 c4 08	 add	 esp, 8
  0006a	2b f0		 sub	 esi, eax
  0006c	8b 55 10	 mov	 edx, DWORD PTR _a_o$[ebp]
  0006f	89 72 04	 mov	 DWORD PTR [edx+4], esi

; 304  : 	a_o->z = FixedMul(a_1->x, a_2->y) - FixedMul(a_1->y, a_2->x);

  00072	8b 45 0c	 mov	 eax, DWORD PTR _a_2$[ebp]
  00075	8b 48 04	 mov	 ecx, DWORD PTR [eax+4]
  00078	51		 push	 ecx
  00079	8b 55 08	 mov	 edx, DWORD PTR _a_1$[ebp]
  0007c	8b 02		 mov	 eax, DWORD PTR [edx]
  0007e	50		 push	 eax
  0007f	e8 00 00 00 00	 call	 _FixedMul
  00084	83 c4 08	 add	 esp, 8
  00087	8b f0		 mov	 esi, eax
  00089	8b 4d 0c	 mov	 ecx, DWORD PTR _a_2$[ebp]
  0008c	8b 11		 mov	 edx, DWORD PTR [ecx]
  0008e	52		 push	 edx
  0008f	8b 45 08	 mov	 eax, DWORD PTR _a_1$[ebp]
  00092	8b 48 04	 mov	 ecx, DWORD PTR [eax+4]
  00095	51		 push	 ecx
  00096	e8 00 00 00 00	 call	 _FixedMul
  0009b	83 c4 08	 add	 esp, 8
  0009e	2b f0		 sub	 esi, eax
  000a0	8b 55 10	 mov	 edx, DWORD PTR _a_o$[ebp]
  000a3	89 72 08	 mov	 DWORD PTR [edx+8], esi

; 305  : 	return a_o;

  000a6	8b 45 10	 mov	 eax, DWORD PTR _a_o$[ebp]

; 306  : }

  000a9	5f		 pop	 edi
  000aa	5e		 pop	 esi
  000ab	5b		 pop	 ebx
  000ac	8b e5		 mov	 esp, ebp
  000ae	5d		 pop	 ebp
  000af	c3		 ret	 0
_FV_Cross ENDP
_TEXT	ENDS
; Function compile flags: /Odtp /ZI
; File C:\Users\RafaTheFox\Desktop\SRB2-Public-master (1)\SRB2-Public-master\src\m_fixed.c
;	COMDAT _FV_Dot
_TEXT	SEGMENT
_a_1$ = 8						; size = 4
_a_2$ = 12						; size = 4
_FV_Dot	PROC						; COMDAT

; 296  : {

  00000	55		 push	 ebp
  00001	8b ec		 mov	 ebp, esp
  00003	83 ec 40	 sub	 esp, 64			; 00000040H
  00006	53		 push	 ebx
  00007	56		 push	 esi
  00008	57		 push	 edi

; 297  : 	return (FixedMul(a_1->x, a_2->x) + FixedMul(a_1->y, a_2->y) + FixedMul(a_1->z, a_2->z));

  00009	8b 45 0c	 mov	 eax, DWORD PTR _a_2$[ebp]
  0000c	8b 08		 mov	 ecx, DWORD PTR [eax]
  0000e	51		 push	 ecx
  0000f	8b 55 08	 mov	 edx, DWORD PTR _a_1$[ebp]
  00012	8b 02		 mov	 eax, DWORD PTR [edx]
  00014	50		 push	 eax
  00015	e8 00 00 00 00	 call	 _FixedMul
  0001a	83 c4 08	 add	 esp, 8
  0001d	8b f0		 mov	 esi, eax
  0001f	8b 4d 0c	 mov	 ecx, DWORD PTR _a_2$[ebp]
  00022	8b 51 04	 mov	 edx, DWORD PTR [ecx+4]
  00025	52		 push	 edx
  00026	8b 45 08	 mov	 eax, DWORD PTR _a_1$[ebp]
  00029	8b 48 04	 mov	 ecx, DWORD PTR [eax+4]
  0002c	51		 push	 ecx
  0002d	e8 00 00 00 00	 call	 _FixedMul
  00032	83 c4 08	 add	 esp, 8
  00035	03 f0		 add	 esi, eax
  00037	8b 55 0c	 mov	 edx, DWORD PTR _a_2$[ebp]
  0003a	8b 42 08	 mov	 eax, DWORD PTR [edx+8]
  0003d	50		 push	 eax
  0003e	8b 4d 08	 mov	 ecx, DWORD PTR _a_1$[ebp]
  00041	8b 51 08	 mov	 edx, DWORD PTR [ecx+8]
  00044	52		 push	 edx
  00045	e8 00 00 00 00	 call	 _FixedMul
  0004a	83 c4 08	 add	 esp, 8
  0004d	03 c6		 add	 eax, esi

; 298  : }

  0004f	5f		 pop	 edi
  00050	5e		 pop	 esi
  00051	5b		 pop	 ebx
  00052	8b e5		 mov	 esp, ebp
  00054	5d		 pop	 ebp
  00055	c3		 ret	 0
_FV_Dot	ENDP
_TEXT	ENDS
; Function compile flags: /Odtp /ZI
; File C:\Users\RafaTheFox\Desktop\SRB2-Public-master (1)\SRB2-Public-master\src\m_fixed.c
;	COMDAT _FV_Equal
_TEXT	SEGMENT
_Epsilon$ = -4						; size = 4
_a_1$ = 8						; size = 4
_a_2$ = 12						; size = 4
_FV_Equal PROC						; COMDAT

; 282  : {

  00000	55		 push	 ebp
  00001	8b ec		 mov	 ebp, esp
  00003	83 ec 44	 sub	 esp, 68			; 00000044H
  00006	53		 push	 ebx
  00007	56		 push	 esi
  00008	57		 push	 edi

; 283  : 	fixed_t Epsilon = FRACUNIT/FRACUNIT;

  00009	c7 45 fc 01 00
	00 00		 mov	 DWORD PTR _Epsilon$[ebp], 1

; 284  : 
; 285  : 	if ((abs(a_2->x - a_1->x) > Epsilon) ||
; 286  : 		(abs(a_2->y - a_1->y) > Epsilon) ||

  00010	8b 45 0c	 mov	 eax, DWORD PTR _a_2$[ebp]
  00013	8b 4d 08	 mov	 ecx, DWORD PTR _a_1$[ebp]
  00016	8b 10		 mov	 edx, DWORD PTR [eax]
  00018	2b 11		 sub	 edx, DWORD PTR [ecx]
  0001a	52		 push	 edx
  0001b	e8 00 00 00 00	 call	 _abs
  00020	83 c4 04	 add	 esp, 4
  00023	3b 45 fc	 cmp	 eax, DWORD PTR _Epsilon$[ebp]
  00026	7f 34		 jg	 SHORT $LN3@FV_Equal
  00028	8b 45 0c	 mov	 eax, DWORD PTR _a_2$[ebp]
  0002b	8b 4d 08	 mov	 ecx, DWORD PTR _a_1$[ebp]
  0002e	8b 50 04	 mov	 edx, DWORD PTR [eax+4]
  00031	2b 51 04	 sub	 edx, DWORD PTR [ecx+4]
  00034	52		 push	 edx
  00035	e8 00 00 00 00	 call	 _abs
  0003a	83 c4 04	 add	 esp, 4
  0003d	3b 45 fc	 cmp	 eax, DWORD PTR _Epsilon$[ebp]
  00040	7f 1a		 jg	 SHORT $LN3@FV_Equal
  00042	8b 45 0c	 mov	 eax, DWORD PTR _a_2$[ebp]
  00045	8b 4d 08	 mov	 ecx, DWORD PTR _a_1$[ebp]
  00048	8b 50 08	 mov	 edx, DWORD PTR [eax+8]
  0004b	2b 51 08	 sub	 edx, DWORD PTR [ecx+8]
  0004e	52		 push	 edx
  0004f	e8 00 00 00 00	 call	 _abs
  00054	83 c4 04	 add	 esp, 4
  00057	3b 45 fc	 cmp	 eax, DWORD PTR _Epsilon$[ebp]
  0005a	7e 07		 jle	 SHORT $LN2@FV_Equal
$LN3@FV_Equal:

; 287  : 		(abs(a_2->z - a_1->z) > Epsilon))
; 288  : 	{
; 289  : 		return true;

  0005c	b8 01 00 00 00	 mov	 eax, 1
  00061	eb 02		 jmp	 SHORT $LN1@FV_Equal
$LN2@FV_Equal:

; 290  : 	}
; 291  : 
; 292  : 	return false;

  00063	33 c0		 xor	 eax, eax
$LN1@FV_Equal:

; 293  : }

  00065	5f		 pop	 edi
  00066	5e		 pop	 esi
  00067	5b		 pop	 ebx
  00068	8b e5		 mov	 esp, ebp
  0006a	5d		 pop	 ebp
  0006b	c3		 ret	 0
_FV_Equal ENDP
_TEXT	ENDS
; Function compile flags: /Odtp /ZI
; File C:\Users\RafaTheFox\Desktop\SRB2-Public-master (1)\SRB2-Public-master\src\m_fixed.c
;	COMDAT _FV_Negate
_TEXT	SEGMENT
_a_1$ = 8						; size = 4
_FV_Negate PROC						; COMDAT

; 277  : {

  00000	55		 push	 ebp
  00001	8b ec		 mov	 ebp, esp
  00003	83 ec 40	 sub	 esp, 64			; 00000040H
  00006	53		 push	 ebx
  00007	56		 push	 esi
  00008	57		 push	 edi

; 278  : 	return FV_NegateEx(a_1, a_1);

  00009	8b 45 08	 mov	 eax, DWORD PTR _a_1$[ebp]
  0000c	50		 push	 eax
  0000d	8b 4d 08	 mov	 ecx, DWORD PTR _a_1$[ebp]
  00010	51		 push	 ecx
  00011	e8 00 00 00 00	 call	 _FV_NegateEx
  00016	83 c4 08	 add	 esp, 8

; 279  : }

  00019	5f		 pop	 edi
  0001a	5e		 pop	 esi
  0001b	5b		 pop	 ebx
  0001c	8b e5		 mov	 esp, ebp
  0001e	5d		 pop	 ebp
  0001f	c3		 ret	 0
_FV_Negate ENDP
_TEXT	ENDS
; Function compile flags: /Odtp /ZI
; File C:\Users\RafaTheFox\Desktop\SRB2-Public-master (1)\SRB2-Public-master\src\m_fixed.c
;	COMDAT _FV_NegateEx
_TEXT	SEGMENT
_a_1$ = 8						; size = 4
_a_o$ = 12						; size = 4
_FV_NegateEx PROC					; COMDAT

; 269  : {

  00000	55		 push	 ebp
  00001	8b ec		 mov	 ebp, esp
  00003	83 ec 40	 sub	 esp, 64			; 00000040H
  00006	53		 push	 ebx
  00007	56		 push	 esi
  00008	57		 push	 edi

; 270  : 	a_o->x = -a_1->x;

  00009	8b 45 08	 mov	 eax, DWORD PTR _a_1$[ebp]
  0000c	8b 08		 mov	 ecx, DWORD PTR [eax]
  0000e	f7 d9		 neg	 ecx
  00010	8b 55 0c	 mov	 edx, DWORD PTR _a_o$[ebp]
  00013	89 0a		 mov	 DWORD PTR [edx], ecx

; 271  : 	a_o->y = -a_1->y;

  00015	8b 45 08	 mov	 eax, DWORD PTR _a_1$[ebp]
  00018	8b 48 04	 mov	 ecx, DWORD PTR [eax+4]
  0001b	f7 d9		 neg	 ecx
  0001d	8b 55 0c	 mov	 edx, DWORD PTR _a_o$[ebp]
  00020	89 4a 04	 mov	 DWORD PTR [edx+4], ecx

; 272  : 	a_o->z = -a_1->z;

  00023	8b 45 08	 mov	 eax, DWORD PTR _a_1$[ebp]
  00026	8b 48 08	 mov	 ecx, DWORD PTR [eax+8]
  00029	f7 d9		 neg	 ecx
  0002b	8b 55 0c	 mov	 edx, DWORD PTR _a_o$[ebp]
  0002e	89 4a 08	 mov	 DWORD PTR [edx+8], ecx

; 273  : 	return a_o;

  00031	8b 45 0c	 mov	 eax, DWORD PTR _a_o$[ebp]

; 274  : }

  00034	5f		 pop	 edi
  00035	5e		 pop	 esi
  00036	5b		 pop	 ebx
  00037	8b e5		 mov	 esp, ebp
  00039	5d		 pop	 ebp
  0003a	c3		 ret	 0
_FV_NegateEx ENDP
_TEXT	ENDS
; Function compile flags: /Odtp /ZI
; File C:\Users\RafaTheFox\Desktop\SRB2-Public-master (1)\SRB2-Public-master\src\m_fixed.c
;	COMDAT _FV_Normalize
_TEXT	SEGMENT
_a_normal$ = 8						; size = 4
_FV_Normalize PROC					; COMDAT

; 264  : {

  00000	55		 push	 ebp
  00001	8b ec		 mov	 ebp, esp
  00003	83 ec 40	 sub	 esp, 64			; 00000040H
  00006	53		 push	 ebx
  00007	56		 push	 esi
  00008	57		 push	 edi

; 265  : 	return FV_NormalizeEx(a_normal, a_normal);

  00009	8b 45 08	 mov	 eax, DWORD PTR _a_normal$[ebp]
  0000c	50		 push	 eax
  0000d	8b 4d 08	 mov	 ecx, DWORD PTR _a_normal$[ebp]
  00010	51		 push	 ecx
  00011	e8 00 00 00 00	 call	 _FV_NormalizeEx
  00016	83 c4 08	 add	 esp, 8

; 266  : }

  00019	5f		 pop	 edi
  0001a	5e		 pop	 esi
  0001b	5b		 pop	 ebx
  0001c	8b e5		 mov	 esp, ebp
  0001e	5d		 pop	 ebp
  0001f	c3		 ret	 0
_FV_Normalize ENDP
_TEXT	ENDS
; Function compile flags: /Odtp /ZI
; File C:\Users\RafaTheFox\Desktop\SRB2-Public-master (1)\SRB2-Public-master\src\m_fixed.c
;	COMDAT _FV_NormalizeEx
_TEXT	SEGMENT
_magnitude$ = -4					; size = 4
_a_normal$ = 8						; size = 4
_a_o$ = 12						; size = 4
_FV_NormalizeEx PROC					; COMDAT

; 255  : {

  00000	55		 push	 ebp
  00001	8b ec		 mov	 ebp, esp
  00003	83 ec 44	 sub	 esp, 68			; 00000044H
  00006	53		 push	 ebx
  00007	56		 push	 esi
  00008	57		 push	 edi

; 256  : 	fixed_t magnitude = FV_Magnitude(a_normal);

  00009	8b 45 08	 mov	 eax, DWORD PTR _a_normal$[ebp]
  0000c	50		 push	 eax
  0000d	e8 00 00 00 00	 call	 _FV_Magnitude
  00012	83 c4 04	 add	 esp, 4
  00015	89 45 fc	 mov	 DWORD PTR _magnitude$[ebp], eax

; 257  : 	a_o->x = FixedDiv(a_normal->x, magnitude);

  00018	8b 45 fc	 mov	 eax, DWORD PTR _magnitude$[ebp]
  0001b	50		 push	 eax
  0001c	8b 4d 08	 mov	 ecx, DWORD PTR _a_normal$[ebp]
  0001f	8b 11		 mov	 edx, DWORD PTR [ecx]
  00021	52		 push	 edx
  00022	e8 00 00 00 00	 call	 _FixedDiv
  00027	83 c4 08	 add	 esp, 8
  0002a	8b 4d 0c	 mov	 ecx, DWORD PTR _a_o$[ebp]
  0002d	89 01		 mov	 DWORD PTR [ecx], eax

; 258  : 	a_o->y = FixedDiv(a_normal->y, magnitude);

  0002f	8b 45 fc	 mov	 eax, DWORD PTR _magnitude$[ebp]
  00032	50		 push	 eax
  00033	8b 4d 08	 mov	 ecx, DWORD PTR _a_normal$[ebp]
  00036	8b 51 04	 mov	 edx, DWORD PTR [ecx+4]
  00039	52		 push	 edx
  0003a	e8 00 00 00 00	 call	 _FixedDiv
  0003f	83 c4 08	 add	 esp, 8
  00042	8b 4d 0c	 mov	 ecx, DWORD PTR _a_o$[ebp]
  00045	89 41 04	 mov	 DWORD PTR [ecx+4], eax

; 259  : 	a_o->z = FixedDiv(a_normal->z, magnitude);

  00048	8b 45 fc	 mov	 eax, DWORD PTR _magnitude$[ebp]
  0004b	50		 push	 eax
  0004c	8b 4d 08	 mov	 ecx, DWORD PTR _a_normal$[ebp]
  0004f	8b 51 08	 mov	 edx, DWORD PTR [ecx+8]
  00052	52		 push	 edx
  00053	e8 00 00 00 00	 call	 _FixedDiv
  00058	83 c4 08	 add	 esp, 8
  0005b	8b 4d 0c	 mov	 ecx, DWORD PTR _a_o$[ebp]
  0005e	89 41 08	 mov	 DWORD PTR [ecx+8], eax

; 260  : 	return magnitude;

  00061	8b 45 fc	 mov	 eax, DWORD PTR _magnitude$[ebp]

; 261  : }

  00064	5f		 pop	 edi
  00065	5e		 pop	 esi
  00066	5b		 pop	 ebx
  00067	8b e5		 mov	 esp, ebp
  00069	5d		 pop	 ebp
  0006a	c3		 ret	 0
_FV_NormalizeEx ENDP
_TEXT	ENDS
; Function compile flags: /Odtp /ZI
; File C:\Users\RafaTheFox\Desktop\SRB2-Public-master (1)\SRB2-Public-master\src\m_fixed.c
;	COMDAT _FV_Magnitude
_TEXT	SEGMENT
_zs$ = -12						; size = 4
_ys$ = -8						; size = 4
_xs$ = -4						; size = 4
_a_normal$ = 8						; size = 4
_FV_Magnitude PROC					; COMDAT

; 246  : {

  00000	55		 push	 ebp
  00001	8b ec		 mov	 ebp, esp
  00003	83 ec 4c	 sub	 esp, 76			; 0000004cH
  00006	53		 push	 ebx
  00007	56		 push	 esi
  00008	57		 push	 edi

; 247  : 	INT32 xs = FixedMul(a_normal->x,a_normal->x);

  00009	8b 45 08	 mov	 eax, DWORD PTR _a_normal$[ebp]
  0000c	8b 08		 mov	 ecx, DWORD PTR [eax]
  0000e	51		 push	 ecx
  0000f	8b 55 08	 mov	 edx, DWORD PTR _a_normal$[ebp]
  00012	8b 02		 mov	 eax, DWORD PTR [edx]
  00014	50		 push	 eax
  00015	e8 00 00 00 00	 call	 _FixedMul
  0001a	83 c4 08	 add	 esp, 8
  0001d	89 45 fc	 mov	 DWORD PTR _xs$[ebp], eax

; 248  : 	INT32 ys = FixedMul(a_normal->y,a_normal->y);

  00020	8b 45 08	 mov	 eax, DWORD PTR _a_normal$[ebp]
  00023	8b 48 04	 mov	 ecx, DWORD PTR [eax+4]
  00026	51		 push	 ecx
  00027	8b 55 08	 mov	 edx, DWORD PTR _a_normal$[ebp]
  0002a	8b 42 04	 mov	 eax, DWORD PTR [edx+4]
  0002d	50		 push	 eax
  0002e	e8 00 00 00 00	 call	 _FixedMul
  00033	83 c4 08	 add	 esp, 8
  00036	89 45 f8	 mov	 DWORD PTR _ys$[ebp], eax

; 249  : 	INT32 zs = FixedMul(a_normal->z,a_normal->z);

  00039	8b 45 08	 mov	 eax, DWORD PTR _a_normal$[ebp]
  0003c	8b 48 08	 mov	 ecx, DWORD PTR [eax+8]
  0003f	51		 push	 ecx
  00040	8b 55 08	 mov	 edx, DWORD PTR _a_normal$[ebp]
  00043	8b 42 08	 mov	 eax, DWORD PTR [edx+8]
  00046	50		 push	 eax
  00047	e8 00 00 00 00	 call	 _FixedMul
  0004c	83 c4 08	 add	 esp, 8
  0004f	89 45 f4	 mov	 DWORD PTR _zs$[ebp], eax

; 250  : 	return FixedSqrt(xs+ys+zs);

  00052	8b 45 fc	 mov	 eax, DWORD PTR _xs$[ebp]
  00055	03 45 f8	 add	 eax, DWORD PTR _ys$[ebp]
  00058	03 45 f4	 add	 eax, DWORD PTR _zs$[ebp]
  0005b	50		 push	 eax
  0005c	e8 00 00 00 00	 call	 _FixedSqrt
  00061	83 c4 04	 add	 esp, 4

; 251  : }

  00064	5f		 pop	 edi
  00065	5e		 pop	 esi
  00066	5b		 pop	 ebx
  00067	8b e5		 mov	 esp, ebp
  00069	5d		 pop	 ebp
  0006a	c3		 ret	 0
_FV_Magnitude ENDP
_TEXT	ENDS
; Function compile flags: /Odtp /ZI
; File C:\Users\RafaTheFox\Desktop\SRB2-Public-master (1)\SRB2-Public-master\src\m_fixed.c
;	COMDAT _FV_Distance
_TEXT	SEGMENT
_zs$ = -12						; size = 4
_ys$ = -8						; size = 4
_xs$ = -4						; size = 4
_p1$ = 8						; size = 4
_p2$ = 12						; size = 4
_FV_Distance PROC					; COMDAT

; 238  : {

  00000	55		 push	 ebp
  00001	8b ec		 mov	 ebp, esp
  00003	83 ec 4c	 sub	 esp, 76			; 0000004cH
  00006	53		 push	 ebx
  00007	56		 push	 esi
  00008	57		 push	 edi

; 239  : 	INT32 xs = FixedMul(p2->x-p1->x,p2->x-p1->x);

  00009	8b 45 0c	 mov	 eax, DWORD PTR _p2$[ebp]
  0000c	8b 4d 08	 mov	 ecx, DWORD PTR _p1$[ebp]
  0000f	8b 10		 mov	 edx, DWORD PTR [eax]
  00011	2b 11		 sub	 edx, DWORD PTR [ecx]
  00013	52		 push	 edx
  00014	8b 45 0c	 mov	 eax, DWORD PTR _p2$[ebp]
  00017	8b 4d 08	 mov	 ecx, DWORD PTR _p1$[ebp]
  0001a	8b 10		 mov	 edx, DWORD PTR [eax]
  0001c	2b 11		 sub	 edx, DWORD PTR [ecx]
  0001e	52		 push	 edx
  0001f	e8 00 00 00 00	 call	 _FixedMul
  00024	83 c4 08	 add	 esp, 8
  00027	89 45 fc	 mov	 DWORD PTR _xs$[ebp], eax

; 240  : 	INT32 ys = FixedMul(p2->y-p1->y,p2->y-p1->y);

  0002a	8b 45 0c	 mov	 eax, DWORD PTR _p2$[ebp]
  0002d	8b 4d 08	 mov	 ecx, DWORD PTR _p1$[ebp]
  00030	8b 50 04	 mov	 edx, DWORD PTR [eax+4]
  00033	2b 51 04	 sub	 edx, DWORD PTR [ecx+4]
  00036	52		 push	 edx
  00037	8b 45 0c	 mov	 eax, DWORD PTR _p2$[ebp]
  0003a	8b 4d 08	 mov	 ecx, DWORD PTR _p1$[ebp]
  0003d	8b 50 04	 mov	 edx, DWORD PTR [eax+4]
  00040	2b 51 04	 sub	 edx, DWORD PTR [ecx+4]
  00043	52		 push	 edx
  00044	e8 00 00 00 00	 call	 _FixedMul
  00049	83 c4 08	 add	 esp, 8
  0004c	89 45 f8	 mov	 DWORD PTR _ys$[ebp], eax

; 241  : 	INT32 zs = FixedMul(p2->z-p1->z,p2->z-p1->z);

  0004f	8b 45 0c	 mov	 eax, DWORD PTR _p2$[ebp]
  00052	8b 4d 08	 mov	 ecx, DWORD PTR _p1$[ebp]
  00055	8b 50 08	 mov	 edx, DWORD PTR [eax+8]
  00058	2b 51 08	 sub	 edx, DWORD PTR [ecx+8]
  0005b	52		 push	 edx
  0005c	8b 45 0c	 mov	 eax, DWORD PTR _p2$[ebp]
  0005f	8b 4d 08	 mov	 ecx, DWORD PTR _p1$[ebp]
  00062	8b 50 08	 mov	 edx, DWORD PTR [eax+8]
  00065	2b 51 08	 sub	 edx, DWORD PTR [ecx+8]
  00068	52		 push	 edx
  00069	e8 00 00 00 00	 call	 _FixedMul
  0006e	83 c4 08	 add	 esp, 8
  00071	89 45 f4	 mov	 DWORD PTR _zs$[ebp], eax

; 242  : 	return FixedSqrt(xs+ys+zs);

  00074	8b 45 fc	 mov	 eax, DWORD PTR _xs$[ebp]
  00077	03 45 f8	 add	 eax, DWORD PTR _ys$[ebp]
  0007a	03 45 f4	 add	 eax, DWORD PTR _zs$[ebp]
  0007d	50		 push	 eax
  0007e	e8 00 00 00 00	 call	 _FixedSqrt
  00083	83 c4 04	 add	 esp, 4

; 243  : }

  00086	5f		 pop	 edi
  00087	5e		 pop	 esi
  00088	5b		 pop	 ebx
  00089	8b e5		 mov	 esp, ebp
  0008b	5d		 pop	 ebp
  0008c	c3		 ret	 0
_FV_Distance ENDP
_TEXT	ENDS
; Function compile flags: /Odtp /ZI
; File C:\Users\RafaTheFox\Desktop\SRB2-Public-master (1)\SRB2-Public-master\src\m_fixed.c
;	COMDAT _FV_Midpoint
_TEXT	SEGMENT
_a_1$ = 8						; size = 4
_a_2$ = 12						; size = 4
_a_o$ = 16						; size = 4
_FV_Midpoint PROC					; COMDAT

; 227  : {

  00000	55		 push	 ebp
  00001	8b ec		 mov	 ebp, esp
  00003	83 ec 40	 sub	 esp, 64			; 00000040H
  00006	53		 push	 ebx
  00007	56		 push	 esi
  00008	57		 push	 edi

; 228  : 	a_o->x = FixedDiv(a_2->x - a_1->x, 2*FRACUNIT);

  00009	68 00 00 02 00	 push	 131072			; 00020000H
  0000e	8b 45 0c	 mov	 eax, DWORD PTR _a_2$[ebp]
  00011	8b 4d 08	 mov	 ecx, DWORD PTR _a_1$[ebp]
  00014	8b 10		 mov	 edx, DWORD PTR [eax]
  00016	2b 11		 sub	 edx, DWORD PTR [ecx]
  00018	52		 push	 edx
  00019	e8 00 00 00 00	 call	 _FixedDiv
  0001e	83 c4 08	 add	 esp, 8
  00021	8b 4d 10	 mov	 ecx, DWORD PTR _a_o$[ebp]
  00024	89 01		 mov	 DWORD PTR [ecx], eax

; 229  : 	a_o->y = FixedDiv(a_2->y - a_1->y, 2*FRACUNIT);

  00026	68 00 00 02 00	 push	 131072			; 00020000H
  0002b	8b 45 0c	 mov	 eax, DWORD PTR _a_2$[ebp]
  0002e	8b 4d 08	 mov	 ecx, DWORD PTR _a_1$[ebp]
  00031	8b 50 04	 mov	 edx, DWORD PTR [eax+4]
  00034	2b 51 04	 sub	 edx, DWORD PTR [ecx+4]
  00037	52		 push	 edx
  00038	e8 00 00 00 00	 call	 _FixedDiv
  0003d	83 c4 08	 add	 esp, 8
  00040	8b 4d 10	 mov	 ecx, DWORD PTR _a_o$[ebp]
  00043	89 41 04	 mov	 DWORD PTR [ecx+4], eax

; 230  : 	a_o->z = FixedDiv(a_2->z - a_1->z, 2*FRACUNIT);

  00046	68 00 00 02 00	 push	 131072			; 00020000H
  0004b	8b 45 0c	 mov	 eax, DWORD PTR _a_2$[ebp]
  0004e	8b 4d 08	 mov	 ecx, DWORD PTR _a_1$[ebp]
  00051	8b 50 08	 mov	 edx, DWORD PTR [eax+8]
  00054	2b 51 08	 sub	 edx, DWORD PTR [ecx+8]
  00057	52		 push	 edx
  00058	e8 00 00 00 00	 call	 _FixedDiv
  0005d	83 c4 08	 add	 esp, 8
  00060	8b 4d 10	 mov	 ecx, DWORD PTR _a_o$[ebp]
  00063	89 41 08	 mov	 DWORD PTR [ecx+8], eax

; 231  : 	a_o->x = a_1->x + a_o->x;

  00066	8b 45 08	 mov	 eax, DWORD PTR _a_1$[ebp]
  00069	8b 08		 mov	 ecx, DWORD PTR [eax]
  0006b	8b 55 10	 mov	 edx, DWORD PTR _a_o$[ebp]
  0006e	03 0a		 add	 ecx, DWORD PTR [edx]
  00070	8b 45 10	 mov	 eax, DWORD PTR _a_o$[ebp]
  00073	89 08		 mov	 DWORD PTR [eax], ecx

; 232  : 	a_o->y = a_1->y + a_o->y;

  00075	8b 45 08	 mov	 eax, DWORD PTR _a_1$[ebp]
  00078	8b 48 04	 mov	 ecx, DWORD PTR [eax+4]
  0007b	8b 55 10	 mov	 edx, DWORD PTR _a_o$[ebp]
  0007e	03 4a 04	 add	 ecx, DWORD PTR [edx+4]
  00081	8b 45 10	 mov	 eax, DWORD PTR _a_o$[ebp]
  00084	89 48 04	 mov	 DWORD PTR [eax+4], ecx

; 233  : 	a_o->z = a_1->z + a_o->z;

  00087	8b 45 08	 mov	 eax, DWORD PTR _a_1$[ebp]
  0008a	8b 48 08	 mov	 ecx, DWORD PTR [eax+8]
  0008d	8b 55 10	 mov	 edx, DWORD PTR _a_o$[ebp]
  00090	03 4a 08	 add	 ecx, DWORD PTR [edx+8]
  00093	8b 45 10	 mov	 eax, DWORD PTR _a_o$[ebp]
  00096	89 48 08	 mov	 DWORD PTR [eax+8], ecx

; 234  : 	return a_o;

  00099	8b 45 10	 mov	 eax, DWORD PTR _a_o$[ebp]

; 235  : }

  0009c	5f		 pop	 edi
  0009d	5e		 pop	 esi
  0009e	5b		 pop	 ebx
  0009f	8b e5		 mov	 esp, ebp
  000a1	5d		 pop	 ebp
  000a2	c3		 ret	 0
_FV_Midpoint ENDP
_TEXT	ENDS
; Function compile flags: /Odtp /ZI
; File C:\Users\RafaTheFox\Desktop\SRB2-Public-master (1)\SRB2-Public-master\src\m_fixed.c
;	COMDAT _FV_Divide
_TEXT	SEGMENT
_a_i$ = 8						; size = 4
_a_c$ = 12						; size = 4
_FV_Divide PROC						; COMDAT

; 221  : {

  00000	55		 push	 ebp
  00001	8b ec		 mov	 ebp, esp
  00003	83 ec 40	 sub	 esp, 64			; 00000040H
  00006	53		 push	 ebx
  00007	56		 push	 esi
  00008	57		 push	 edi

; 222  : 	return FV_DivideEx(a_i, a_c, a_i);

  00009	8b 45 08	 mov	 eax, DWORD PTR _a_i$[ebp]
  0000c	50		 push	 eax
  0000d	8b 4d 0c	 mov	 ecx, DWORD PTR _a_c$[ebp]
  00010	51		 push	 ecx
  00011	8b 55 08	 mov	 edx, DWORD PTR _a_i$[ebp]
  00014	52		 push	 edx
  00015	e8 00 00 00 00	 call	 _FV_DivideEx
  0001a	83 c4 0c	 add	 esp, 12			; 0000000cH

; 223  : }

  0001d	5f		 pop	 edi
  0001e	5e		 pop	 esi
  0001f	5b		 pop	 ebx
  00020	8b e5		 mov	 esp, ebp
  00022	5d		 pop	 ebp
  00023	c3		 ret	 0
_FV_Divide ENDP
_TEXT	ENDS
; Function compile flags: /Odtp /ZI
; File C:\Users\RafaTheFox\Desktop\SRB2-Public-master (1)\SRB2-Public-master\src\m_fixed.c
;	COMDAT _FV_DivideEx
_TEXT	SEGMENT
_a_i$ = 8						; size = 4
_a_c$ = 12						; size = 4
_a_o$ = 16						; size = 4
_FV_DivideEx PROC					; COMDAT

; 213  : {

  00000	55		 push	 ebp
  00001	8b ec		 mov	 ebp, esp
  00003	83 ec 40	 sub	 esp, 64			; 00000040H
  00006	53		 push	 ebx
  00007	56		 push	 esi
  00008	57		 push	 edi

; 214  : 	a_o->x = FixedDiv(a_i->x, a_c);

  00009	8b 45 0c	 mov	 eax, DWORD PTR _a_c$[ebp]
  0000c	50		 push	 eax
  0000d	8b 4d 08	 mov	 ecx, DWORD PTR _a_i$[ebp]
  00010	8b 11		 mov	 edx, DWORD PTR [ecx]
  00012	52		 push	 edx
  00013	e8 00 00 00 00	 call	 _FixedDiv
  00018	83 c4 08	 add	 esp, 8
  0001b	8b 4d 10	 mov	 ecx, DWORD PTR _a_o$[ebp]
  0001e	89 01		 mov	 DWORD PTR [ecx], eax

; 215  : 	a_o->y = FixedDiv(a_i->y, a_c);

  00020	8b 45 0c	 mov	 eax, DWORD PTR _a_c$[ebp]
  00023	50		 push	 eax
  00024	8b 4d 08	 mov	 ecx, DWORD PTR _a_i$[ebp]
  00027	8b 51 04	 mov	 edx, DWORD PTR [ecx+4]
  0002a	52		 push	 edx
  0002b	e8 00 00 00 00	 call	 _FixedDiv
  00030	83 c4 08	 add	 esp, 8
  00033	8b 4d 10	 mov	 ecx, DWORD PTR _a_o$[ebp]
  00036	89 41 04	 mov	 DWORD PTR [ecx+4], eax

; 216  : 	a_o->z = FixedDiv(a_i->z, a_c);

  00039	8b 45 0c	 mov	 eax, DWORD PTR _a_c$[ebp]
  0003c	50		 push	 eax
  0003d	8b 4d 08	 mov	 ecx, DWORD PTR _a_i$[ebp]
  00040	8b 51 08	 mov	 edx, DWORD PTR [ecx+8]
  00043	52		 push	 edx
  00044	e8 00 00 00 00	 call	 _FixedDiv
  00049	83 c4 08	 add	 esp, 8
  0004c	8b 4d 10	 mov	 ecx, DWORD PTR _a_o$[ebp]
  0004f	89 41 08	 mov	 DWORD PTR [ecx+8], eax

; 217  : 	return a_o;

  00052	8b 45 10	 mov	 eax, DWORD PTR _a_o$[ebp]

; 218  : }

  00055	5f		 pop	 edi
  00056	5e		 pop	 esi
  00057	5b		 pop	 ebx
  00058	8b e5		 mov	 esp, ebp
  0005a	5d		 pop	 ebp
  0005b	c3		 ret	 0
_FV_DivideEx ENDP
_TEXT	ENDS
; Function compile flags: /Odtp /ZI
; File C:\Users\RafaTheFox\Desktop\SRB2-Public-master (1)\SRB2-Public-master\src\m_fixed.c
;	COMDAT _FV_Mul
_TEXT	SEGMENT
_a_i$ = 8						; size = 4
_a_c$ = 12						; size = 4
_FV_Mul	PROC						; COMDAT

; 208  : {

  00000	55		 push	 ebp
  00001	8b ec		 mov	 ebp, esp
  00003	83 ec 40	 sub	 esp, 64			; 00000040H
  00006	53		 push	 ebx
  00007	56		 push	 esi
  00008	57		 push	 edi

; 209  : 	return FV_MulEx(a_i, a_c, a_i);

  00009	8b 45 08	 mov	 eax, DWORD PTR _a_i$[ebp]
  0000c	50		 push	 eax
  0000d	8b 4d 0c	 mov	 ecx, DWORD PTR _a_c$[ebp]
  00010	51		 push	 ecx
  00011	8b 55 08	 mov	 edx, DWORD PTR _a_i$[ebp]
  00014	52		 push	 edx
  00015	e8 00 00 00 00	 call	 _FV_MulEx
  0001a	83 c4 0c	 add	 esp, 12			; 0000000cH

; 210  : }

  0001d	5f		 pop	 edi
  0001e	5e		 pop	 esi
  0001f	5b		 pop	 ebx
  00020	8b e5		 mov	 esp, ebp
  00022	5d		 pop	 ebp
  00023	c3		 ret	 0
_FV_Mul	ENDP
_TEXT	ENDS
; Function compile flags: /Odtp /ZI
; File C:\Users\RafaTheFox\Desktop\SRB2-Public-master (1)\SRB2-Public-master\src\m_fixed.c
;	COMDAT _FV_MulEx
_TEXT	SEGMENT
_a_i$ = 8						; size = 4
_a_c$ = 12						; size = 4
_a_o$ = 16						; size = 4
_FV_MulEx PROC						; COMDAT

; 200  : {

  00000	55		 push	 ebp
  00001	8b ec		 mov	 ebp, esp
  00003	83 ec 40	 sub	 esp, 64			; 00000040H
  00006	53		 push	 ebx
  00007	56		 push	 esi
  00008	57		 push	 edi

; 201  : 	a_o->x = FixedMul(a_i->x, a_c);

  00009	8b 45 0c	 mov	 eax, DWORD PTR _a_c$[ebp]
  0000c	50		 push	 eax
  0000d	8b 4d 08	 mov	 ecx, DWORD PTR _a_i$[ebp]
  00010	8b 11		 mov	 edx, DWORD PTR [ecx]
  00012	52		 push	 edx
  00013	e8 00 00 00 00	 call	 _FixedMul
  00018	83 c4 08	 add	 esp, 8
  0001b	8b 4d 10	 mov	 ecx, DWORD PTR _a_o$[ebp]
  0001e	89 01		 mov	 DWORD PTR [ecx], eax

; 202  : 	a_o->y = FixedMul(a_i->y, a_c);

  00020	8b 45 0c	 mov	 eax, DWORD PTR _a_c$[ebp]
  00023	50		 push	 eax
  00024	8b 4d 08	 mov	 ecx, DWORD PTR _a_i$[ebp]
  00027	8b 51 04	 mov	 edx, DWORD PTR [ecx+4]
  0002a	52		 push	 edx
  0002b	e8 00 00 00 00	 call	 _FixedMul
  00030	83 c4 08	 add	 esp, 8
  00033	8b 4d 10	 mov	 ecx, DWORD PTR _a_o$[ebp]
  00036	89 41 04	 mov	 DWORD PTR [ecx+4], eax

; 203  : 	a_o->z = FixedMul(a_i->z, a_c);

  00039	8b 45 0c	 mov	 eax, DWORD PTR _a_c$[ebp]
  0003c	50		 push	 eax
  0003d	8b 4d 08	 mov	 ecx, DWORD PTR _a_i$[ebp]
  00040	8b 51 08	 mov	 edx, DWORD PTR [ecx+8]
  00043	52		 push	 edx
  00044	e8 00 00 00 00	 call	 _FixedMul
  00049	83 c4 08	 add	 esp, 8
  0004c	8b 4d 10	 mov	 ecx, DWORD PTR _a_o$[ebp]
  0004f	89 41 08	 mov	 DWORD PTR [ecx+8], eax

; 204  : 	return a_o;

  00052	8b 45 10	 mov	 eax, DWORD PTR _a_o$[ebp]

; 205  : }

  00055	5f		 pop	 edi
  00056	5e		 pop	 esi
  00057	5b		 pop	 ebx
  00058	8b e5		 mov	 esp, ebp
  0005a	5d		 pop	 ebp
  0005b	c3		 ret	 0
_FV_MulEx ENDP
_TEXT	ENDS
; Function compile flags: /Odtp /ZI
; File C:\Users\RafaTheFox\Desktop\SRB2-Public-master (1)\SRB2-Public-master\src\m_fixed.c
;	COMDAT _FV_Sub
_TEXT	SEGMENT
_a_i$ = 8						; size = 4
_a_c$ = 12						; size = 4
_FV_Sub	PROC						; COMDAT

; 195  : {

  00000	55		 push	 ebp
  00001	8b ec		 mov	 ebp, esp
  00003	83 ec 40	 sub	 esp, 64			; 00000040H
  00006	53		 push	 ebx
  00007	56		 push	 esi
  00008	57		 push	 edi

; 196  : 	return FV_SubEx(a_i, a_c, a_i);

  00009	8b 45 08	 mov	 eax, DWORD PTR _a_i$[ebp]
  0000c	50		 push	 eax
  0000d	8b 4d 0c	 mov	 ecx, DWORD PTR _a_c$[ebp]
  00010	51		 push	 ecx
  00011	8b 55 08	 mov	 edx, DWORD PTR _a_i$[ebp]
  00014	52		 push	 edx
  00015	e8 00 00 00 00	 call	 _FV_SubEx
  0001a	83 c4 0c	 add	 esp, 12			; 0000000cH

; 197  : }

  0001d	5f		 pop	 edi
  0001e	5e		 pop	 esi
  0001f	5b		 pop	 ebx
  00020	8b e5		 mov	 esp, ebp
  00022	5d		 pop	 ebp
  00023	c3		 ret	 0
_FV_Sub	ENDP
_TEXT	ENDS
; Function compile flags: /Odtp /ZI
; File C:\Users\RafaTheFox\Desktop\SRB2-Public-master (1)\SRB2-Public-master\src\m_fixed.c
;	COMDAT _FV_SubEx
_TEXT	SEGMENT
_a_i$ = 8						; size = 4
_a_c$ = 12						; size = 4
_a_o$ = 16						; size = 4
_FV_SubEx PROC						; COMDAT

; 187  : {

  00000	55		 push	 ebp
  00001	8b ec		 mov	 ebp, esp
  00003	83 ec 40	 sub	 esp, 64			; 00000040H
  00006	53		 push	 ebx
  00007	56		 push	 esi
  00008	57		 push	 edi

; 188  : 	a_o->x = a_i->x - a_c->x;

  00009	8b 45 08	 mov	 eax, DWORD PTR _a_i$[ebp]
  0000c	8b 4d 0c	 mov	 ecx, DWORD PTR _a_c$[ebp]
  0000f	8b 10		 mov	 edx, DWORD PTR [eax]
  00011	2b 11		 sub	 edx, DWORD PTR [ecx]
  00013	8b 45 10	 mov	 eax, DWORD PTR _a_o$[ebp]
  00016	89 10		 mov	 DWORD PTR [eax], edx

; 189  : 	a_o->y = a_i->y - a_c->y;

  00018	8b 45 08	 mov	 eax, DWORD PTR _a_i$[ebp]
  0001b	8b 4d 0c	 mov	 ecx, DWORD PTR _a_c$[ebp]
  0001e	8b 50 04	 mov	 edx, DWORD PTR [eax+4]
  00021	2b 51 04	 sub	 edx, DWORD PTR [ecx+4]
  00024	8b 45 10	 mov	 eax, DWORD PTR _a_o$[ebp]
  00027	89 50 04	 mov	 DWORD PTR [eax+4], edx

; 190  : 	a_o->z = a_i->z - a_c->z;

  0002a	8b 45 08	 mov	 eax, DWORD PTR _a_i$[ebp]
  0002d	8b 4d 0c	 mov	 ecx, DWORD PTR _a_c$[ebp]
  00030	8b 50 08	 mov	 edx, DWORD PTR [eax+8]
  00033	2b 51 08	 sub	 edx, DWORD PTR [ecx+8]
  00036	8b 45 10	 mov	 eax, DWORD PTR _a_o$[ebp]
  00039	89 50 08	 mov	 DWORD PTR [eax+8], edx

; 191  : 	return a_o;

  0003c	8b 45 10	 mov	 eax, DWORD PTR _a_o$[ebp]

; 192  : }

  0003f	5f		 pop	 edi
  00040	5e		 pop	 esi
  00041	5b		 pop	 ebx
  00042	8b e5		 mov	 esp, ebp
  00044	5d		 pop	 ebp
  00045	c3		 ret	 0
_FV_SubEx ENDP
_TEXT	ENDS
; Function compile flags: /Odtp /ZI
; File C:\Users\RafaTheFox\Desktop\SRB2-Public-master (1)\SRB2-Public-master\src\m_fixed.c
;	COMDAT _FV_Add
_TEXT	SEGMENT
_a_i$ = 8						; size = 4
_a_c$ = 12						; size = 4
_FV_Add	PROC						; COMDAT

; 182  : {

  00000	55		 push	 ebp
  00001	8b ec		 mov	 ebp, esp
  00003	83 ec 40	 sub	 esp, 64			; 00000040H
  00006	53		 push	 ebx
  00007	56		 push	 esi
  00008	57		 push	 edi

; 183  : 	return FV_AddEx(a_i, a_c, a_i);

  00009	8b 45 08	 mov	 eax, DWORD PTR _a_i$[ebp]
  0000c	50		 push	 eax
  0000d	8b 4d 0c	 mov	 ecx, DWORD PTR _a_c$[ebp]
  00010	51		 push	 ecx
  00011	8b 55 08	 mov	 edx, DWORD PTR _a_i$[ebp]
  00014	52		 push	 edx
  00015	e8 00 00 00 00	 call	 _FV_AddEx
  0001a	83 c4 0c	 add	 esp, 12			; 0000000cH

; 184  : }

  0001d	5f		 pop	 edi
  0001e	5e		 pop	 esi
  0001f	5b		 pop	 ebx
  00020	8b e5		 mov	 esp, ebp
  00022	5d		 pop	 ebp
  00023	c3		 ret	 0
_FV_Add	ENDP
_TEXT	ENDS
; Function compile flags: /Odtp /ZI
; File C:\Users\RafaTheFox\Desktop\SRB2-Public-master (1)\SRB2-Public-master\src\m_fixed.c
;	COMDAT _FV_AddEx
_TEXT	SEGMENT
_a_i$ = 8						; size = 4
_a_c$ = 12						; size = 4
_a_o$ = 16						; size = 4
_FV_AddEx PROC						; COMDAT

; 174  : {

  00000	55		 push	 ebp
  00001	8b ec		 mov	 ebp, esp
  00003	83 ec 40	 sub	 esp, 64			; 00000040H
  00006	53		 push	 ebx
  00007	56		 push	 esi
  00008	57		 push	 edi

; 175  : 	a_o->x = a_i->x + a_c->x;

  00009	8b 45 08	 mov	 eax, DWORD PTR _a_i$[ebp]
  0000c	8b 08		 mov	 ecx, DWORD PTR [eax]
  0000e	8b 55 0c	 mov	 edx, DWORD PTR _a_c$[ebp]
  00011	03 0a		 add	 ecx, DWORD PTR [edx]
  00013	8b 45 10	 mov	 eax, DWORD PTR _a_o$[ebp]
  00016	89 08		 mov	 DWORD PTR [eax], ecx

; 176  : 	a_o->y = a_i->y + a_c->y;

  00018	8b 45 08	 mov	 eax, DWORD PTR _a_i$[ebp]
  0001b	8b 48 04	 mov	 ecx, DWORD PTR [eax+4]
  0001e	8b 55 0c	 mov	 edx, DWORD PTR _a_c$[ebp]
  00021	03 4a 04	 add	 ecx, DWORD PTR [edx+4]
  00024	8b 45 10	 mov	 eax, DWORD PTR _a_o$[ebp]
  00027	89 48 04	 mov	 DWORD PTR [eax+4], ecx

; 177  : 	a_o->z = a_i->z + a_c->z;

  0002a	8b 45 08	 mov	 eax, DWORD PTR _a_i$[ebp]
  0002d	8b 48 08	 mov	 ecx, DWORD PTR [eax+8]
  00030	8b 55 0c	 mov	 edx, DWORD PTR _a_c$[ebp]
  00033	03 4a 08	 add	 ecx, DWORD PTR [edx+8]
  00036	8b 45 10	 mov	 eax, DWORD PTR _a_o$[ebp]
  00039	89 48 08	 mov	 DWORD PTR [eax+8], ecx

; 178  : 	return a_o;

  0003c	8b 45 10	 mov	 eax, DWORD PTR _a_o$[ebp]

; 179  : }

  0003f	5f		 pop	 edi
  00040	5e		 pop	 esi
  00041	5b		 pop	 ebx
  00042	8b e5		 mov	 esp, ebp
  00044	5d		 pop	 ebp
  00045	c3		 ret	 0
_FV_AddEx ENDP
_TEXT	ENDS
; Function compile flags: /Odtp /ZI
; File C:\Users\RafaTheFox\Desktop\SRB2-Public-master (1)\SRB2-Public-master\src\m_fixed.c
;	COMDAT _FV_Copy
_TEXT	SEGMENT
_a_o$ = 8						; size = 4
_a_i$ = 12						; size = 4
_FV_Copy PROC						; COMDAT

; 169  : {

  00000	55		 push	 ebp
  00001	8b ec		 mov	 ebp, esp
  00003	83 ec 40	 sub	 esp, 64			; 00000040H
  00006	53		 push	 ebx
  00007	56		 push	 esi
  00008	57		 push	 edi

; 170  : 	return M_Memcpy(a_o, a_i, sizeof(vector_t));

  00009	6a 0c		 push	 12			; 0000000cH
  0000b	8b 45 0c	 mov	 eax, DWORD PTR _a_i$[ebp]
  0000e	50		 push	 eax
  0000f	8b 4d 08	 mov	 ecx, DWORD PTR _a_o$[ebp]
  00012	51		 push	 ecx
  00013	ff 15 00 00 00
	00		 call	 DWORD PTR _M_Memcpy
  00019	83 c4 0c	 add	 esp, 12			; 0000000cH

; 171  : }

  0001c	5f		 pop	 edi
  0001d	5e		 pop	 esi
  0001e	5b		 pop	 ebx
  0001f	8b e5		 mov	 esp, ebp
  00021	5d		 pop	 ebp
  00022	c3		 ret	 0
_FV_Copy ENDP
_TEXT	ENDS
; Function compile flags: /Odtp /ZI
; File C:\Users\RafaTheFox\Desktop\SRB2-Public-master (1)\SRB2-Public-master\src\m_fixed.c
;	COMDAT _FV_Load
_TEXT	SEGMENT
_vec$ = 8						; size = 4
_x$ = 12						; size = 4
_y$ = 16						; size = 4
_z$ = 20						; size = 4
_FV_Load PROC						; COMDAT

; 161  : {

  00000	55		 push	 ebp
  00001	8b ec		 mov	 ebp, esp
  00003	83 ec 40	 sub	 esp, 64			; 00000040H
  00006	53		 push	 ebx
  00007	56		 push	 esi
  00008	57		 push	 edi

; 162  : 	vec->x = x;

  00009	8b 45 08	 mov	 eax, DWORD PTR _vec$[ebp]
  0000c	8b 4d 0c	 mov	 ecx, DWORD PTR _x$[ebp]
  0000f	89 08		 mov	 DWORD PTR [eax], ecx

; 163  : 	vec->y = y;

  00011	8b 45 08	 mov	 eax, DWORD PTR _vec$[ebp]
  00014	8b 4d 10	 mov	 ecx, DWORD PTR _y$[ebp]
  00017	89 48 04	 mov	 DWORD PTR [eax+4], ecx

; 164  : 	vec->z = z;

  0001a	8b 45 08	 mov	 eax, DWORD PTR _vec$[ebp]
  0001d	8b 4d 14	 mov	 ecx, DWORD PTR _z$[ebp]
  00020	89 48 08	 mov	 DWORD PTR [eax+8], ecx

; 165  : 	return vec;

  00023	8b 45 08	 mov	 eax, DWORD PTR _vec$[ebp]

; 166  : }

  00026	5f		 pop	 edi
  00027	5e		 pop	 esi
  00028	5b		 pop	 ebx
  00029	8b e5		 mov	 esp, ebp
  0002b	5d		 pop	 ebp
  0002c	c3		 ret	 0
_FV_Load ENDP
_TEXT	ENDS
; Function compile flags: /Odtp /ZI
; File C:\Users\RafaTheFox\Desktop\SRB2-Public-master (1)\SRB2-Public-master\src\m_fixed.c
;	COMDAT _FixedHypot
_TEXT	SEGMENT
_fz$ = -12						; size = 4
_fy$ = -8						; size = 4
_fx$ = -4						; size = 4
_x$ = 8							; size = 4
_y$ = 12						; size = 4
_FixedHypot PROC					; COMDAT

; 129  : {

  00000	55		 push	 ebp
  00001	8b ec		 mov	 ebp, esp
  00003	83 ec 4c	 sub	 esp, 76			; 0000004cH
  00006	53		 push	 ebx
  00007	56		 push	 esi
  00008	57		 push	 edi

; 130  : #ifdef HAVE_HYPOT
; 131  : 	const float fx = FIXED_TO_FLOAT(x);

  00009	f3 0f 2a 45 08	 cvtsi2ss xmm0, DWORD PTR _x$[ebp]
  0000e	f3 0f 5e 05 00
	00 00 00	 divss	 xmm0, DWORD PTR __real@47800000
  00016	f3 0f 11 45 fc	 movss	 DWORD PTR _fx$[ebp], xmm0

; 132  : 	const float fy = FIXED_TO_FLOAT(y);

  0001b	f3 0f 2a 45 0c	 cvtsi2ss xmm0, DWORD PTR _y$[ebp]
  00020	f3 0f 5e 05 00
	00 00 00	 divss	 xmm0, DWORD PTR __real@47800000
  00028	f3 0f 11 45 f8	 movss	 DWORD PTR _fy$[ebp], xmm0

; 133  : 	float fz;
; 134  : #ifdef HAVE_HYPOTF
; 135  : 	fz = hypotf(fx, fy);
; 136  : #else
; 137  : 	fz = (float)hypot(fx, fy);

  0002d	f3 0f 5a 45 f8	 cvtss2sd xmm0, DWORD PTR _fy$[ebp]
  00032	83 ec 08	 sub	 esp, 8
  00035	f2 0f 11 04 24	 movsd	 QWORD PTR [esp], xmm0
  0003a	f3 0f 5a 45 fc	 cvtss2sd xmm0, DWORD PTR _fx$[ebp]
  0003f	83 ec 08	 sub	 esp, 8
  00042	f2 0f 11 04 24	 movsd	 QWORD PTR [esp], xmm0
  00047	e8 00 00 00 00	 call	 _hypot
  0004c	83 c4 10	 add	 esp, 16			; 00000010H
  0004f	d9 5d f4	 fstp	 DWORD PTR _fz$[ebp]

; 138  : #endif
; 139  : 	return FLOAT_TO_FIXED(fz);

  00052	f3 0f 10 45 f4	 movss	 xmm0, DWORD PTR _fz$[ebp]
  00057	f3 0f 59 05 00
	00 00 00	 mulss	 xmm0, DWORD PTR __real@47800000
  0005f	f3 0f 2c c0	 cvttss2si eax, xmm0

; 140  : #else // !HAVE_HYPOT
; 141  : 	fixed_t ax, yx, yx2, yx1;
; 142  : 	if (abs(y) > abs(x)) // |y|>|x|
; 143  : 	{
; 144  : 		ax = abs(y); // |y| => ax
; 145  : 		yx = FixedDiv(x, y); // (x/y)
; 146  : 	}
; 147  : 	else // |x|>|y|
; 148  : 	{
; 149  : 		ax = abs(x); // |x| => ax
; 150  : 		yx = FixedDiv(y, x); // (x/y)
; 151  : 	}
; 152  : 	yx2 = FixedMul(yx, yx); // (x/y)^2
; 153  : 	yx1 = FixedSqrt(1+FRACUNIT + yx2); // (1 + (x/y)^2)^1/2
; 154  : 	return FixedMul(ax, yx1); // |x|*((1 + (x/y)^2)^1/2)
; 155  : #endif
; 156  : }

  00063	5f		 pop	 edi
  00064	5e		 pop	 esi
  00065	5b		 pop	 ebx
  00066	8b e5		 mov	 esp, ebp
  00068	5d		 pop	 ebp
  00069	c3		 ret	 0
_FixedHypot ENDP
_TEXT	ENDS
; Function compile flags: /Odtp /ZI
; File C:\Users\RafaTheFox\Desktop\SRB2-Public-master (1)\SRB2-Public-master\src\m_fixed.c
;	COMDAT _FixedSqrt
_TEXT	SEGMENT
_fr$ = -8						; size = 4
_fx$ = -4						; size = 4
_x$ = 8							; size = 4
_FixedSqrt PROC						; COMDAT

; 117  : {

  00000	55		 push	 ebp
  00001	8b ec		 mov	 ebp, esp
  00003	83 ec 48	 sub	 esp, 72			; 00000048H
  00006	53		 push	 ebx
  00007	56		 push	 esi
  00008	57		 push	 edi

; 118  : 	const float fx = FIXED_TO_FLOAT(x);

  00009	f3 0f 2a 45 08	 cvtsi2ss xmm0, DWORD PTR _x$[ebp]
  0000e	f3 0f 5e 05 00
	00 00 00	 divss	 xmm0, DWORD PTR __real@47800000
  00016	f3 0f 11 45 fc	 movss	 DWORD PTR _fx$[ebp], xmm0

; 119  : 	float fr;
; 120  : #ifdef HAVE_SQRTF
; 121  : 	fr = sqrtf(fx);
; 122  : #else
; 123  : 	fr = (float)sqrt(fx);

  0001b	f3 0f 5a 45 fc	 cvtss2sd xmm0, DWORD PTR _fx$[ebp]
  00020	83 ec 08	 sub	 esp, 8
  00023	f2 0f 11 04 24	 movsd	 QWORD PTR [esp], xmm0
  00028	e8 00 00 00 00	 call	 _sqrt
  0002d	83 c4 08	 add	 esp, 8
  00030	d9 5d f8	 fstp	 DWORD PTR _fr$[ebp]

; 124  : #endif
; 125  : 	return FLOAT_TO_FIXED(fr);

  00033	f3 0f 10 45 f8	 movss	 xmm0, DWORD PTR _fr$[ebp]
  00038	f3 0f 59 05 00
	00 00 00	 mulss	 xmm0, DWORD PTR __real@47800000
  00040	f3 0f 2c c0	 cvttss2si eax, xmm0

; 126  : }

  00044	5f		 pop	 edi
  00045	5e		 pop	 esi
  00046	5b		 pop	 ebx
  00047	8b e5		 mov	 esp, ebp
  00049	5d		 pop	 ebp
  0004a	c3		 ret	 0
_FixedSqrt ENDP
_TEXT	ENDS
; Function compile flags: /Odtp /ZI
; File C:\Users\RafaTheFox\Desktop\SRB2-Public-master (1)\SRB2-Public-master\src\m_fixed.h
;	COMDAT _FixedDiv
_TEXT	SEGMENT
tv72 = -68						; size = 4
_a$ = 8							; size = 4
_b$ = 12						; size = 4
_FixedDiv PROC						; COMDAT

; 235  : {

  00000	55		 push	 ebp
  00001	8b ec		 mov	 ebp, esp
  00003	83 ec 44	 sub	 esp, 68			; 00000044H
  00006	53		 push	 ebx
  00007	56		 push	 esi
  00008	57		 push	 edi

; 236  : 	if ((abs(a) >> (FRACBITS-2)) >= abs(b))

  00009	8b 45 08	 mov	 eax, DWORD PTR _a$[ebp]
  0000c	50		 push	 eax
  0000d	e8 00 00 00 00	 call	 _abs
  00012	83 c4 04	 add	 esp, 4
  00015	8b f0		 mov	 esi, eax
  00017	c1 fe 0e	 sar	 esi, 14			; 0000000eH
  0001a	8b 4d 0c	 mov	 ecx, DWORD PTR _b$[ebp]
  0001d	51		 push	 ecx
  0001e	e8 00 00 00 00	 call	 _abs
  00023	83 c4 04	 add	 esp, 4
  00026	3b f0		 cmp	 esi, eax
  00028	7c 1d		 jl	 SHORT $LN2@FixedDiv

; 237  : 		return (a^b) < 0 ? INT32_MIN : INT32_MAX;

  0002a	8b 45 08	 mov	 eax, DWORD PTR _a$[ebp]
  0002d	33 45 0c	 xor	 eax, DWORD PTR _b$[ebp]
  00030	7d 09		 jge	 SHORT $LN4@FixedDiv
  00032	c7 45 bc 00 00
	00 80		 mov	 DWORD PTR tv72[ebp], -2147483648 ; 80000000H
  00039	eb 07		 jmp	 SHORT $LN5@FixedDiv
$LN4@FixedDiv:
  0003b	c7 45 bc ff ff
	ff 7f		 mov	 DWORD PTR tv72[ebp], 2147483647 ; 7fffffffH
$LN5@FixedDiv:
  00042	8b 45 bc	 mov	 eax, DWORD PTR tv72[ebp]
  00045	eb 10		 jmp	 SHORT $LN1@FixedDiv
$LN2@FixedDiv:

; 238  : 
; 239  : 	return FixedDiv2(a, b);

  00047	8b 45 0c	 mov	 eax, DWORD PTR _b$[ebp]
  0004a	50		 push	 eax
  0004b	8b 4d 08	 mov	 ecx, DWORD PTR _a$[ebp]
  0004e	51		 push	 ecx
  0004f	e8 00 00 00 00	 call	 _FixedDiv2
  00054	83 c4 08	 add	 esp, 8
$LN1@FixedDiv:

; 240  : }

  00057	5f		 pop	 edi
  00058	5e		 pop	 esi
  00059	5b		 pop	 ebx
  0005a	8b e5		 mov	 esp, ebp
  0005c	5d		 pop	 ebp
  0005d	c3		 ret	 0
_FixedDiv ENDP
_TEXT	ENDS
END
