; Listing generated by Microsoft (R) Optimizing Compiler Version 19.41.34123.0 

	TITLE	C:\Users\RafaTheFox\Downloads\SRB2-Public-master\objs\VC10\Win32\Debug\m_menu.obj
	.686P
	.XMM
	include listing.inc
	.model	flat

INCLUDELIB LIBCMTD
INCLUDELIB OLDNAMES

PUBLIC	_M_EndGame
PUBLIC	_M_DrawGenericMenu
PUBLIC	_M_OnePControlsMenu
PUBLIC	_M_TwoPControlsMenu
PUBLIC	_fromlevelselect
PUBLIC	_menuactive
PUBLIC	_PlayerMenu
PUBLIC	_currentMenu
PUBLIC	_MainDef
PUBLIC	_SinglePlayerDef
PUBLIC	_MultiPlayerDef
PUBLIC	_SetupMultiPlayerDef
PUBLIC	_OptionsDef
PUBLIC	_VidModeDef
PUBLIC	_ControlDef
PUBLIC	_SoundDef
PUBLIC	_ReadDef2
PUBLIC	_ReadDef1
PUBLIC	_LoadDef
PUBLIC	_ControlDef2
PUBLIC	_GameOptionDef
PUBLIC	_NetOptionDef
PUBLIC	_MonitorToggleDef
PUBLIC	_SecretsDef
PUBLIC	_CustomSecretsDef
PUBLIC	_VideoOptionsDef
PUBLIC	_MouseOptionsDef
PUBLIC	_ServerOptionsDef
PUBLIC	_RewardDef
PUBLIC	_LevelSelectDef
PUBLIC	_JoystickDef
PUBLIC	_TimeAttackDef
PUBLIC	_StatsDef
PUBLIC	_Stats2Def
PUBLIC	_Stats3Def
PUBLIC	_Stats4Def
PUBLIC	_PlayerDef
PUBLIC	_CoopOptionsDef
PUBLIC	_RaceOptionsDef
PUBLIC	_MatchOptionsDef
PUBLIC	_TagOptionsDef
PUBLIC	_CTFOptionsDef
PUBLIC	_OGL_FogDef
PUBLIC	_OGL_ColorDef
PUBLIC	_inlevelselect
PUBLIC	_description
PUBLIC	_cv_newgametype
PUBLIC	_cv_nextmap
PUBLIC	_cv_chooseskin
PUBLIC	_cv_serversort
PUBLIC	_cv_chooseroom
PUBLIC	_gametype_cons_t
PUBLIC	??_C@_0EF@JOHOLOFN@You?5are?5already?5playing?4?6Do?5you@ ; `string'
PUBLIC	??_C@_0BC@JKGLIILD@Scramble?5Teams?4?4?4@	; `string'
PUBLIC	??_C@_0M@NOEOEENA@Spectate?4?4?4@		; `string'
PUBLIC	??_C@_0P@MMGGHMED@Switch?5Team?4?4?4@		; `string'
PUBLIC	??_C@_0O@LCLAJJB@Switch?5Map?4?4?4@		; `string'
PUBLIC	??_C@_07DHOMPGHE@secrets@			; `string'
PUBLIC	??_C@_08KLOEOBMI@1?5player@			; `string'
PUBLIC	??_C@_0M@GGLMNLCO@multiplayer@			; `string'
PUBLIC	??_C@_07FOPBDDAL@options@			; `string'
PUBLIC	??_C@_0L@FLHCOFGJ@quit?5?5game@			; `string'
PUBLIC	??_C@_04MOKMKBJN@NEXT@				; `string'
PUBLIC	_Stats5Def
PUBLIC	??_C@_0L@BKMPBHO@Start?5Game@			; `string'
PUBLIC	??_C@_0M@GKMKPJEF@Time?5Attack@			; `string'
PUBLIC	??_C@_0L@HOODANMK@Statistics@			; `string'
PUBLIC	??_C@_08BALKBPO@End?5Game@			; `string'
PUBLIC	??_C@_0O@NNAOEDOE@Single?5Player@		; `string'
PUBLIC	??_C@_04CPBFGEOK@Ping@				; `string'
PUBLIC	??_C@_07OLBIDKLK@Players@			; `string'
PUBLIC	??_C@_08FLACMINN@Gametype@			; `string'
PUBLIC	??_C@_0L@COGJHEJP@serversort@			; `string'
PUBLIC	??_C@_09LFNCDOEF@Local?5Lan@			; `string'
PUBLIC	??_C@_08LDBMAAPD@Internet@			; `string'
PUBLIC	??_C@_0N@OFLEAIKH@serversearch@			; `string'
PUBLIC	??_C@_07BMIEDOEC@Offline@			; `string'
PUBLIC	??_C@_0L@ODFJJPJO@chooseroom@			; `string'
PUBLIC	??_C@_04ILJDOKOL@Room@				; `string'
PUBLIC	??_C@_09OGGNGPHP@Room?5Info@			; `string'
PUBLIC	??_C@_07FLODDGFF@Sort?5By@			; `string'
PUBLIC	??_C@_09EFHACLA@Next?5Page@			; `string'
PUBLIC	??_C@_0O@LKOCLJD@Previous?5Page@		; `string'
PUBLIC	??_C@_07POIENIBA@Refresh@			; `string'
PUBLIC	??_C@_0M@EHMFLPNI@Server?5Name@			; `string'
PUBLIC	??_C@_00CNPNBAHC@@				; `string'
PUBLIC	_Connectdef
PUBLIC	??_C@_0P@IHKIPJCO@Connect?5Server@		; `string'
PUBLIC	_ConnectLANdef
PUBLIC	??_C@_0BD@IEDNBGAL@Connect?5LAN?5Server@	; `string'
PUBLIC	??_C@_0O@DFGKGEIG@?5?5IP?5Address?3@		; `string'
PUBLIC	_ConnectIPdef
PUBLIC	_RoomInfodef
PUBLIC	??_C@_05LBFDNLJH@MAP01@				; `string'
PUBLIC	??_C@_05JKHOIIFE@MAP02@				; `string'
PUBLIC	??_C@_05IDGFLJBF@MAP03@				; `string'
PUBLIC	??_C@_05MMCECPNC@MAP04@				; `string'
PUBLIC	??_C@_05NFDPBOJD@MAP05@				; `string'
PUBLIC	??_C@_05POBCENFA@MAP06@				; `string'
PUBLIC	??_C@_05OHAJHMBB@MAP07@				; `string'
PUBLIC	??_C@_05GAJBGANO@MAP08@				; `string'
PUBLIC	??_C@_05HJIKFBJP@MAP09@				; `string'
PUBLIC	??_C@_05KJIKIAOB@MAP10@				; `string'
PUBLIC	??_C@_05LAJBLBKA@MAP11@				; `string'
PUBLIC	??_C@_05JLLMOCGD@MAP12@				; `string'
PUBLIC	??_C@_05ICKHNDCC@MAP13@				; `string'
PUBLIC	??_C@_05MNOGEFOF@MAP14@				; `string'
PUBLIC	??_C@_05NEPNHEKE@MAP15@				; `string'
PUBLIC	??_C@_05PPNACHGH@MAP16@				; `string'
PUBLIC	??_C@_05OGMLBGCG@MAP17@				; `string'
PUBLIC	??_C@_05GBFDAKOJ@MAP18@				; `string'
PUBLIC	??_C@_05HIEIDLKI@MAP19@				; `string'
PUBLIC	??_C@_05KLMMDOLI@MAP20@				; `string'
PUBLIC	??_C@_05LCNHAPPJ@MAP21@				; `string'
PUBLIC	??_C@_05JJPKFMDK@MAP22@				; `string'
PUBLIC	??_C@_05IAOBGNHL@MAP23@				; `string'
PUBLIC	??_C@_05MPKAPLLM@MAP24@				; `string'
PUBLIC	??_C@_05NGLLMKPN@MAP25@				; `string'
PUBLIC	??_C@_05PNJGJJDO@MAP26@				; `string'
PUBLIC	??_C@_05OEINKIHP@MAP27@				; `string'
PUBLIC	??_C@_05GDBFLELA@MAP28@				; `string'
PUBLIC	??_C@_05HKAOIFPB@MAP29@				; `string'
PUBLIC	??_C@_05KKAOFEIP@MAP30@				; `string'
PUBLIC	??_C@_05LDBFGFMO@MAP31@				; `string'
PUBLIC	??_C@_05JIDIDGAN@MAP32@				; `string'
PUBLIC	??_C@_05IBCDAHEM@MAP33@				; `string'
PUBLIC	??_C@_05MOGCJBIL@MAP34@				; `string'
PUBLIC	??_C@_05NHHJKAMK@MAP35@				; `string'
PUBLIC	??_C@_05PMFEPDAJ@MAP36@				; `string'
PUBLIC	??_C@_05OFEPMCEI@MAP37@				; `string'
PUBLIC	??_C@_05GCNHNOIH@MAP38@				; `string'
PUBLIC	??_C@_05HLMMOPMG@MAP39@				; `string'
PUBLIC	??_C@_05KPEBECAK@MAP40@				; `string'
PUBLIC	??_C@_05LGFKHDEL@MAP41@				; `string'
PUBLIC	??_C@_05JNHHCAII@MAP42@				; `string'
PUBLIC	??_C@_05IEGMBBMJ@MAP43@				; `string'
PUBLIC	??_C@_05MLCNIHAO@MAP44@				; `string'
PUBLIC	??_C@_05NCDGLGEP@MAP45@				; `string'
PUBLIC	??_C@_05PJBLOFIM@MAP46@				; `string'
PUBLIC	??_C@_05OAAANEMN@MAP47@				; `string'
PUBLIC	??_C@_05GHJIMIAC@MAP48@				; `string'
PUBLIC	??_C@_05HOIDPJED@MAP49@				; `string'
PUBLIC	??_C@_05KOIDCIDN@MAP50@				; `string'
PUBLIC	??_C@_05LHJIBJHM@MAP51@				; `string'
PUBLIC	??_C@_05JMLFEKLP@MAP52@				; `string'
PUBLIC	??_C@_05IFKOHLPO@MAP53@				; `string'
PUBLIC	??_C@_05MKOPONDJ@MAP54@				; `string'
PUBLIC	??_C@_05NDPENMHI@MAP55@				; `string'
PUBLIC	??_C@_05PINJIPLL@MAP56@				; `string'
PUBLIC	??_C@_05OBMCLOPK@MAP57@				; `string'
PUBLIC	??_C@_05GGFKKCDF@MAP58@				; `string'
PUBLIC	??_C@_05HPEBJDHE@MAP59@				; `string'
PUBLIC	??_C@_05KMMFJGGE@MAP60@				; `string'
PUBLIC	??_C@_05LFNOKHCF@MAP61@				; `string'
PUBLIC	??_C@_05JOPDPEOG@MAP62@				; `string'
PUBLIC	??_C@_05IHOIMFKH@MAP63@				; `string'
PUBLIC	??_C@_05MIKJFDGA@MAP64@				; `string'
PUBLIC	??_C@_05NBLCGCCB@MAP65@				; `string'
PUBLIC	??_C@_05PKJPDBOC@MAP66@				; `string'
PUBLIC	??_C@_05ODIEAAKD@MAP67@				; `string'
PUBLIC	??_C@_05GEBMBMGM@MAP68@				; `string'
PUBLIC	??_C@_05HNAHCNCN@MAP69@				; `string'
PUBLIC	??_C@_05KNAHPMFD@MAP70@				; `string'
PUBLIC	??_C@_05LEBMMNBC@MAP71@				; `string'
PUBLIC	??_C@_05JPDBJONB@MAP72@				; `string'
PUBLIC	??_C@_05IGCKKPJA@MAP73@				; `string'
PUBLIC	??_C@_05MJGLDJFH@MAP74@				; `string'
PUBLIC	??_C@_05NAHAAIBG@MAP75@				; `string'
PUBLIC	??_C@_05PLFNFLNF@MAP76@				; `string'
PUBLIC	??_C@_05OCEGGKJE@MAP77@				; `string'
PUBLIC	??_C@_05GFNOHGFL@MAP78@				; `string'
PUBLIC	??_C@_05HMMFEHBK@MAP79@				; `string'
PUBLIC	??_C@_05KGFLLLGO@MAP80@				; `string'
PUBLIC	??_C@_05LPEAIKCP@MAP81@				; `string'
PUBLIC	??_C@_05JEGNNJOM@MAP82@				; `string'
PUBLIC	??_C@_05INHGOIKN@MAP83@				; `string'
PUBLIC	??_C@_05MCDHHOGK@MAP84@				; `string'
PUBLIC	??_C@_05NLCMEPCL@MAP85@				; `string'
PUBLIC	??_C@_05PAABBMOI@MAP86@				; `string'
PUBLIC	??_C@_05OJBKCNKJ@MAP87@				; `string'
PUBLIC	??_C@_05GOICDBGG@MAP88@				; `string'
PUBLIC	??_C@_05HHJJAACH@MAP89@				; `string'
PUBLIC	??_C@_05KHJJNBFJ@MAP90@				; `string'
PUBLIC	??_C@_05LOICOABI@MAP91@				; `string'
PUBLIC	??_C@_05JFKPLDNL@MAP92@				; `string'
PUBLIC	??_C@_05IMLEICJK@MAP93@				; `string'
PUBLIC	??_C@_05MDPFBEFN@MAP94@				; `string'
PUBLIC	??_C@_05NKOOCFBM@MAP95@				; `string'
PUBLIC	??_C@_05PBMDHGNP@MAP96@				; `string'
PUBLIC	??_C@_05OINIEHJO@MAP97@				; `string'
PUBLIC	??_C@_05GPEAFLFB@MAP98@				; `string'
PUBLIC	??_C@_05HGFLGKBA@MAP99@				; `string'
PUBLIC	??_C@_06IOCGOJN@MAP100@				; `string'
PUBLIC	??_C@_06BBPJFPNM@MAP101@			; `string'
PUBLIC	??_C@_06DKNEAMBP@MAP102@			; `string'
PUBLIC	??_C@_06CDMPDNFO@MAP103@			; `string'
PUBLIC	??_C@_06GMIOKLJJ@MAP104@			; `string'
PUBLIC	??_C@_06HFJFJKNI@MAP105@			; `string'
PUBLIC	??_C@_06FOLIMJBL@MAP106@			; `string'
PUBLIC	??_C@_06EHKDPIFK@MAP107@			; `string'
PUBLIC	??_C@_06MADLOEJF@MAP108@			; `string'
PUBLIC	??_C@_06NJCANFNE@MAP109@			; `string'
PUBLIC	??_C@_06JCAAEKK@MAP110@				; `string'
PUBLIC	??_C@_06BADLDFOL@MAP111@			; `string'
PUBLIC	??_C@_06DLBGGGCI@MAP112@			; `string'
PUBLIC	??_C@_06CCANFHGJ@MAP113@			; `string'
PUBLIC	??_C@_06GNEMMBKO@MAP114@			; `string'
PUBLIC	??_C@_06HEFHPAOP@MAP115@			; `string'
PUBLIC	??_C@_06FPHKKDCM@MAP116@			; `string'
PUBLIC	??_C@_06EGGBJCGN@MAP117@			; `string'
PUBLIC	??_C@_06MBPJIOKC@MAP118@			; `string'
PUBLIC	??_C@_06NIOCLPOD@MAP119@			; `string'
PUBLIC	??_C@_06LGGLKPD@MAP120@				; `string'
PUBLIC	??_C@_06BCHNILLC@MAP121@			; `string'
PUBLIC	??_C@_06DJFANIHB@MAP122@			; `string'
PUBLIC	??_C@_06CAELOJDA@MAP123@			; `string'
PUBLIC	??_C@_06GPAKHPPH@MAP124@			; `string'
PUBLIC	??_C@_06HGBBEOLG@MAP125@			; `string'
PUBLIC	??_C@_06FNDMBNHF@MAP126@			; `string'
PUBLIC	??_C@_06EECHCMDE@MAP127@			; `string'
PUBLIC	??_C@_06MDLPDAPL@MAP128@			; `string'
PUBLIC	??_C@_06NKKEABLK@MAP129@			; `string'
PUBLIC	??_C@_06KKENAME@MAP130@				; `string'
PUBLIC	??_C@_06BDLPOBIF@MAP131@			; `string'
PUBLIC	??_C@_06DIJCLCEG@MAP132@			; `string'
PUBLIC	??_C@_06CBIJIDAH@MAP133@			; `string'
PUBLIC	??_C@_06GOMIBFMA@MAP134@			; `string'
PUBLIC	??_C@_06HHNDCEIB@MAP135@			; `string'
PUBLIC	??_C@_06FMPOHHEC@MAP136@			; `string'
PUBLIC	??_C@_06EFOFEGAD@MAP137@			; `string'
PUBLIC	??_C@_06MCHNFKMM@MAP138@			; `string'
PUBLIC	??_C@_06NLGGGLIN@MAP139@			; `string'
PUBLIC	??_C@_06POLMGEB@MAP140@				; `string'
PUBLIC	??_C@_06BGPAPHAA@MAP141@			; `string'
PUBLIC	??_C@_06DNNNKEMD@MAP142@			; `string'
PUBLIC	??_C@_06CEMGJFIC@MAP143@			; `string'
PUBLIC	??_C@_06GLIHADEF@MAP144@			; `string'
PUBLIC	??_C@_06HCJMDCAE@MAP145@			; `string'
PUBLIC	??_C@_06FJLBGBMH@MAP146@			; `string'
PUBLIC	??_C@_06EAKKFAIG@MAP147@			; `string'
PUBLIC	??_C@_06MHDCEMEJ@MAP148@			; `string'
PUBLIC	??_C@_06NOCJHNAI@MAP149@			; `string'
PUBLIC	??_C@_06OCJKMHG@MAP150@				; `string'
PUBLIC	??_C@_06BHDCJNDH@MAP151@			; `string'
PUBLIC	??_C@_06DMBPMOPE@MAP152@			; `string'
PUBLIC	??_C@_06CFAEPPLF@MAP153@			; `string'
PUBLIC	??_C@_06GKEFGJHC@MAP154@			; `string'
PUBLIC	??_C@_06HDFOFIDD@MAP155@			; `string'
PUBLIC	??_C@_06FIHDALPA@MAP156@			; `string'
PUBLIC	??_C@_06EBGIDKLB@MAP157@			; `string'
PUBLIC	??_C@_06MGPACGHO@MAP158@			; `string'
PUBLIC	??_C@_06NPOLBHDP@MAP159@			; `string'
PUBLIC	??_C@_06MGPBCCP@MAP160@				; `string'
PUBLIC	??_C@_06BFHECDGO@MAP161@			; `string'
PUBLIC	??_C@_06DOFJHAKN@MAP162@			; `string'
PUBLIC	??_C@_06CHECEBOM@MAP163@			; `string'
PUBLIC	??_C@_06GIADNHCL@MAP164@			; `string'
PUBLIC	??_C@_06HBBIOGGK@MAP165@			; `string'
PUBLIC	??_C@_06FKDFLFKJ@MAP166@			; `string'
PUBLIC	??_C@_06EDCOIEOI@MAP167@			; `string'
PUBLIC	??_C@_06MELGJICH@MAP168@			; `string'
PUBLIC	??_C@_06NNKNKJGG@MAP169@			; `string'
PUBLIC	??_C@_06NKNHIBI@MAP170@				; `string'
PUBLIC	??_C@_06BELGEJFJ@MAP171@			; `string'
PUBLIC	??_C@_06DPJLBKJK@MAP172@			; `string'
PUBLIC	??_C@_06CGIACLNL@MAP173@			; `string'
PUBLIC	??_C@_06GJMBLNBM@MAP174@			; `string'
PUBLIC	??_C@_06HANKIMFN@MAP175@			; `string'
PUBLIC	??_C@_06FLPHNPJO@MAP176@			; `string'
PUBLIC	??_C@_06ECOMOONP@MAP177@			; `string'
PUBLIC	??_C@_06MFHEPCBA@MAP178@			; `string'
PUBLIC	??_C@_06NMGPMDFB@MAP179@			; `string'
PUBLIC	??_C@_06GPBDPCF@MAP180@				; `string'
PUBLIC	??_C@_06BPOKAOGE@MAP181@			; `string'
PUBLIC	??_C@_06DEMHFNKH@MAP182@			; `string'
PUBLIC	??_C@_06CNNMGMOG@MAP183@			; `string'
PUBLIC	??_C@_06GCJNPKCB@MAP184@			; `string'
PUBLIC	??_C@_06HLIGMLGA@MAP185@			; `string'
PUBLIC	??_C@_06FAKLJIKD@MAP186@			; `string'
PUBLIC	??_C@_06EJLAKJOC@MAP187@			; `string'
PUBLIC	??_C@_06MOCILFCN@MAP188@			; `string'
PUBLIC	??_C@_06NHDDIEGM@MAP189@			; `string'
PUBLIC	??_C@_06HDDFFBC@MAP190@				; `string'
PUBLIC	??_C@_06BOCIGEFD@MAP191@			; `string'
PUBLIC	??_C@_06DFAFDHJA@MAP192@			; `string'
PUBLIC	??_C@_06CMBOAGNB@MAP193@			; `string'
PUBLIC	??_C@_06GDFPJABG@MAP194@			; `string'
PUBLIC	??_C@_06HKEEKBFH@MAP195@			; `string'
PUBLIC	??_C@_06FBGJPCJE@MAP196@			; `string'
PUBLIC	??_C@_06EIHCMDNF@MAP197@			; `string'
PUBLIC	??_C@_06MPOKNPBK@MAP198@			; `string'
PUBLIC	??_C@_06NGPBOOFL@MAP199@			; `string'
PUBLIC	??_C@_06BKFHMBHD@MAP200@			; `string'
PUBLIC	??_C@_06DEMPADC@MAP201@				; `string'
PUBLIC	??_C@_06CIGBKDPB@MAP202@			; `string'
PUBLIC	??_C@_06DBHKJCLA@MAP203@			; `string'
PUBLIC	??_C@_06HODLAEHH@MAP204@			; `string'
PUBLIC	??_C@_06GHCADFDG@MAP205@			; `string'
PUBLIC	??_C@_06EMANGGPF@MAP206@			; `string'
PUBLIC	??_C@_06FFBGFHLE@MAP207@			; `string'
PUBLIC	??_C@_06NCIOELHL@MAP208@			; `string'
PUBLIC	??_C@_06MLJFHKDK@MAP209@			; `string'
PUBLIC	??_C@_06BLJFKLEE@MAP210@			; `string'
PUBLIC	??_C@_06CIOJKAF@MAP211@				; `string'
PUBLIC	??_C@_06CJKDMJMG@MAP212@			; `string'
PUBLIC	??_C@_06DALIPIIH@MAP213@			; `string'
PUBLIC	??_C@_06HPPJGOEA@MAP214@			; `string'
PUBLIC	??_C@_06GGOCFPAB@MAP215@			; `string'
PUBLIC	??_C@_06ENMPAMMC@MAP216@			; `string'
PUBLIC	??_C@_06FENEDNID@MAP217@			; `string'
PUBLIC	??_C@_06NDEMCBEM@MAP218@			; `string'
PUBLIC	??_C@_06MKFHBAAN@MAP219@			; `string'
PUBLIC	??_C@_06BJNDBFBN@MAP220@			; `string'
PUBLIC	??_C@_06MICEFM@MAP221@				; `string'
PUBLIC	??_C@_06CLOFHHJP@MAP222@			; `string'
PUBLIC	??_C@_06DCPOEGNO@MAP223@			; `string'
PUBLIC	??_C@_06HNLPNABJ@MAP224@			; `string'
PUBLIC	??_C@_06GEKEOBFI@MAP225@			; `string'
PUBLIC	??_C@_06EPIJLCJL@MAP226@			; `string'
PUBLIC	??_C@_06FGJCIDNK@MAP227@			; `string'
PUBLIC	??_C@_06NBAKJPBF@MAP228@			; `string'
PUBLIC	??_C@_06MIBBKOFE@MAP229@			; `string'
PUBLIC	??_C@_06BIBBHPCK@MAP230@			; `string'
PUBLIC	??_C@_06BAKEOGL@MAP231@				; `string'
PUBLIC	??_C@_06CKCHBNKI@MAP232@			; `string'
PUBLIC	??_C@_06DDDMCMOJ@MAP233@			; `string'
PUBLIC	??_C@_06HMHNLKCO@MAP234@			; `string'
PUBLIC	??_C@_06GFGGILGP@MAP235@			; `string'
PUBLIC	??_C@_06EOELNIKM@MAP236@			; `string'
PUBLIC	??_C@_06FHFAOJON@MAP237@			; `string'
PUBLIC	??_C@_06NAMIPFCC@MAP238@			; `string'
PUBLIC	??_C@_06MJNDMEGD@MAP239@			; `string'
PUBLIC	??_C@_06BNFOGJKP@MAP240@			; `string'
PUBLIC	??_C@_06EEFFIOO@MAP241@				; `string'
PUBLIC	??_C@_06CPGIALCN@MAP242@			; `string'
PUBLIC	??_C@_06DGHDDKGM@MAP243@			; `string'
PUBLIC	??_C@_06HJDCKMKL@MAP244@			; `string'
PUBLIC	??_C@_06GACJJNOK@MAP245@			; `string'
PUBLIC	??_C@_06ELAEMOCJ@MAP246@			; `string'
PUBLIC	??_C@_06FCBPPPGI@MAP247@			; `string'
PUBLIC	??_C@_06NFIHODKH@MAP248@			; `string'
PUBLIC	??_C@_06MMJMNCOG@MAP249@			; `string'
PUBLIC	??_C@_06BMJMADJI@MAP250@			; `string'
PUBLIC	??_C@_06FIHDCNJ@MAP251@				; `string'
PUBLIC	??_C@_06COKKGBBK@MAP252@			; `string'
PUBLIC	??_C@_06DHLBFAFL@MAP253@			; `string'
PUBLIC	??_C@_06HIPAMGJM@MAP254@			; `string'
PUBLIC	??_C@_06GBOLPHNN@MAP255@			; `string'
PUBLIC	??_C@_06EKMGKEBO@MAP256@			; `string'
PUBLIC	??_C@_06FDNNJFFP@MAP257@			; `string'
PUBLIC	??_C@_06NEEFIJJA@MAP258@			; `string'
PUBLIC	??_C@_06MNFOLINB@MAP259@			; `string'
PUBLIC	??_C@_06BONKLNMB@MAP260@			; `string'
PUBLIC	??_C@_06HMBIMIA@MAP261@				; `string'
PUBLIC	??_C@_06CMOMNPED@MAP262@			; `string'
PUBLIC	??_C@_06DFPHOOAC@MAP263@			; `string'
PUBLIC	??_C@_06HKLGHIMF@MAP264@			; `string'
PUBLIC	??_C@_06GDKNEJIE@MAP265@			; `string'
PUBLIC	??_C@_06EIIABKEH@MAP266@			; `string'
PUBLIC	??_C@_06FBJLCLAG@MAP267@			; `string'
PUBLIC	??_C@_06NGADDHMJ@MAP268@			; `string'
PUBLIC	??_C@_06MPBIAGII@MAP269@			; `string'
PUBLIC	??_C@_06BPBINHPG@MAP270@			; `string'
PUBLIC	??_C@_06GADOGLH@MAP271@				; `string'
PUBLIC	??_C@_06CNCOLFHE@MAP272@			; `string'
PUBLIC	??_C@_06DEDFIEDF@MAP273@			; `string'
PUBLIC	??_C@_06HLHEBCPC@MAP274@			; `string'
PUBLIC	??_C@_06GCGPCDLD@MAP275@			; `string'
PUBLIC	??_C@_06EJECHAHA@MAP276@			; `string'
PUBLIC	??_C@_06FAFJEBDB@MAP277@			; `string'
PUBLIC	??_C@_06NHMBFNPO@MAP278@			; `string'
PUBLIC	??_C@_06MONKGMLP@MAP279@			; `string'
PUBLIC	??_C@_06BEEEJAML@MAP280@			; `string'
PUBLIC	??_C@_06NFPKBIK@MAP281@				; `string'
PUBLIC	??_C@_06CGHCPCEJ@MAP282@			; `string'
PUBLIC	??_C@_06DPGJMDAI@MAP283@			; `string'
PUBLIC	??_C@_06HACIFFMP@MAP284@			; `string'
PUBLIC	??_C@_06GJDDGEIO@MAP285@			; `string'
PUBLIC	??_C@_06ECBODHEN@MAP286@			; `string'
PUBLIC	??_C@_06FLAFAGAM@MAP287@			; `string'
PUBLIC	??_C@_06NMJNBKMD@MAP288@			; `string'
PUBLIC	??_C@_06MFIGCLIC@MAP289@			; `string'
PUBLIC	??_C@_06BFIGPKPM@MAP290@			; `string'
PUBLIC	??_C@_06MJNMLLN@MAP291@				; `string'
PUBLIC	??_C@_06CHLAJIHO@MAP292@			; `string'
PUBLIC	??_C@_06DOKLKJDP@MAP293@			; `string'
PUBLIC	??_C@_06HBOKDPPI@MAP294@			; `string'
PUBLIC	??_C@_06GIPBAOLJ@MAP295@			; `string'
PUBLIC	??_C@_06EDNMFNHK@MAP296@			; `string'
PUBLIC	??_C@_06FKMHGMDL@MAP297@			; `string'
PUBLIC	??_C@_06NNFPHAPE@MAP298@			; `string'
PUBLIC	??_C@_06MEEEEBLF@MAP299@			; `string'
PUBLIC	??_C@_06KCOLKGBG@MAP300@			; `string'
PUBLIC	??_C@_06LLPAJHFH@MAP301@			; `string'
PUBLIC	??_C@_06JANNMEJE@MAP302@			; `string'
PUBLIC	??_C@_06IJMGPFNF@MAP303@			; `string'
PUBLIC	??_C@_06MGIHGDBC@MAP304@			; `string'
PUBLIC	??_C@_06NPJMFCFD@MAP305@			; `string'
PUBLIC	??_C@_06PELBABJA@MAP306@			; `string'
PUBLIC	??_C@_06ONKKDANB@MAP307@			; `string'
PUBLIC	??_C@_06GKDCCMBO@MAP308@			; `string'
PUBLIC	??_C@_06HDCJBNFP@MAP309@			; `string'
PUBLIC	??_C@_06KDCJMMCB@MAP310@			; `string'
PUBLIC	??_C@_06LKDCPNGA@MAP311@			; `string'
PUBLIC	??_C@_06JBBPKOKD@MAP312@			; `string'
PUBLIC	??_C@_06IIAEJPOC@MAP313@			; `string'
PUBLIC	??_C@_06MHEFAJCF@MAP314@			; `string'
PUBLIC	??_C@_06NOFODIGE@MAP315@			; `string'
PUBLIC	??_C@_06PFHDGLKH@MAP316@			; `string'
PUBLIC	??_C@_06OMGIFKOG@MAP317@			; `string'
PUBLIC	??_C@_06GLPAEGCJ@MAP318@			; `string'
PUBLIC	??_C@_06HCOLHHGI@MAP319@			; `string'
PUBLIC	??_C@_06KBGPHCHI@MAP320@			; `string'
PUBLIC	??_C@_06LIHEEDDJ@MAP321@			; `string'
PUBLIC	??_C@_06JDFJBAPK@MAP322@			; `string'
PUBLIC	??_C@_06IKECCBLL@MAP323@			; `string'
PUBLIC	??_C@_06MFADLHHM@MAP324@			; `string'
PUBLIC	??_C@_06NMBIIGDN@MAP325@			; `string'
PUBLIC	??_C@_06PHDFNFPO@MAP326@			; `string'
PUBLIC	??_C@_06OOCOOELP@MAP327@			; `string'
PUBLIC	??_C@_06GJLGPIHA@MAP328@			; `string'
PUBLIC	??_C@_06HAKNMJDB@MAP329@			; `string'
PUBLIC	??_C@_06KAKNBIEP@MAP330@			; `string'
PUBLIC	??_C@_06LJLGCJAO@MAP331@			; `string'
PUBLIC	??_C@_06JCJLHKMN@MAP332@			; `string'
PUBLIC	??_C@_06ILIAELIM@MAP333@			; `string'
PUBLIC	??_C@_06MEMBNNEL@MAP334@			; `string'
PUBLIC	??_C@_06NNNKOMAK@MAP335@			; `string'
PUBLIC	??_C@_06PGPHLPMJ@MAP336@			; `string'
PUBLIC	??_C@_06OPOMIOII@MAP337@			; `string'
PUBLIC	??_C@_06GIHEJCEH@MAP338@			; `string'
PUBLIC	??_C@_06HBGPKDAG@MAP339@			; `string'
PUBLIC	??_C@_06KFOCAOMK@MAP340@			; `string'
PUBLIC	??_C@_06LMPJDPIL@MAP341@			; `string'
PUBLIC	??_C@_06JHNEGMEI@MAP342@			; `string'
PUBLIC	??_C@_06IOMPFNAJ@MAP343@			; `string'
PUBLIC	??_C@_06MBIOMLMO@MAP344@			; `string'
PUBLIC	??_C@_06NIJFPKIP@MAP345@			; `string'
PUBLIC	??_C@_06PDLIKJEM@MAP346@			; `string'
PUBLIC	??_C@_06OKKDJIAN@MAP347@			; `string'
PUBLIC	??_C@_06GNDLIEMC@MAP348@			; `string'
PUBLIC	??_C@_06HECALFID@MAP349@			; `string'
PUBLIC	??_C@_06KECAGEPN@MAP350@			; `string'
PUBLIC	??_C@_06LNDLFFLM@MAP351@			; `string'
PUBLIC	??_C@_06JGBGAGHP@MAP352@			; `string'
PUBLIC	??_C@_06IPANDHDO@MAP353@			; `string'
PUBLIC	??_C@_06MAEMKBPJ@MAP354@			; `string'
PUBLIC	??_C@_06NJFHJALI@MAP355@			; `string'
PUBLIC	??_C@_06PCHKMDHL@MAP356@			; `string'
PUBLIC	??_C@_06OLGBPCDK@MAP357@			; `string'
PUBLIC	??_C@_06GMPJOOPF@MAP358@			; `string'
PUBLIC	??_C@_06HFOCNPLE@MAP359@			; `string'
PUBLIC	??_C@_06KGGGNKKE@MAP360@			; `string'
PUBLIC	??_C@_06LPHNOLOF@MAP361@			; `string'
PUBLIC	??_C@_06JEFALICG@MAP362@			; `string'
PUBLIC	??_C@_06INELIJGH@MAP363@			; `string'
PUBLIC	??_C@_06MCAKBPKA@MAP364@			; `string'
PUBLIC	??_C@_06NLBBCOOB@MAP365@			; `string'
PUBLIC	??_C@_06PADMHNCC@MAP366@			; `string'
PUBLIC	??_C@_06OJCHEMGD@MAP367@			; `string'
PUBLIC	??_C@_06GOLPFAKM@MAP368@			; `string'
PUBLIC	??_C@_06HHKEGBON@MAP369@			; `string'
PUBLIC	??_C@_06KHKELAJD@MAP370@			; `string'
PUBLIC	??_C@_06LOLPIBNC@MAP371@			; `string'
PUBLIC	??_C@_06JFJCNCBB@MAP372@			; `string'
PUBLIC	??_C@_06IMIJODFA@MAP373@			; `string'
PUBLIC	??_C@_06MDMIHFJH@MAP374@			; `string'
PUBLIC	??_C@_06NKNDEENG@MAP375@			; `string'
PUBLIC	??_C@_06PBPOBHBF@MAP376@			; `string'
PUBLIC	??_C@_06OIOFCGFE@MAP377@			; `string'
PUBLIC	??_C@_06GPHNDKJL@MAP378@			; `string'
PUBLIC	??_C@_06HGGGALNK@MAP379@			; `string'
PUBLIC	??_C@_06KMPIPHKO@MAP380@			; `string'
PUBLIC	??_C@_06LFODMGOP@MAP381@			; `string'
PUBLIC	??_C@_06JOMOJFCM@MAP382@			; `string'
PUBLIC	??_C@_06IHNFKEGN@MAP383@			; `string'
PUBLIC	??_C@_06MIJEDCKK@MAP384@			; `string'
PUBLIC	??_C@_06NBIPADOL@MAP385@			; `string'
PUBLIC	??_C@_06PKKCFACI@MAP386@			; `string'
PUBLIC	??_C@_06ODLJGBGJ@MAP387@			; `string'
PUBLIC	??_C@_06GECBHNKG@MAP388@			; `string'
PUBLIC	??_C@_06HNDKEMOH@MAP389@			; `string'
PUBLIC	??_C@_06KNDKJNJJ@MAP390@			; `string'
PUBLIC	??_C@_06LECBKMNI@MAP391@			; `string'
PUBLIC	??_C@_06JPAMPPBL@MAP392@			; `string'
PUBLIC	??_C@_06IGBHMOFK@MAP393@			; `string'
PUBLIC	??_C@_06MJFGFIJN@MAP394@			; `string'
PUBLIC	??_C@_06NAENGJNM@MAP395@			; `string'
PUBLIC	??_C@_06PLGADKBP@MAP396@			; `string'
PUBLIC	??_C@_06OCHLALFO@MAP397@			; `string'
PUBLIC	??_C@_06GFODBHJB@MAP398@			; `string'
PUBLIC	??_C@_06HMPICGNA@MAP399@			; `string'
PUBLIC	??_C@_06DPDMJOKP@MAP400@			; `string'
PUBLIC	??_C@_06CGCHKPOO@MAP401@			; `string'
PUBLIC	??_C@_06NAKPMCN@MAP402@				; `string'
PUBLIC	??_C@_06BEBBMNGM@MAP403@			; `string'
PUBLIC	??_C@_06FLFAFLKL@MAP404@			; `string'
PUBLIC	??_C@_06ECELGKOK@MAP405@			; `string'
PUBLIC	??_C@_06GJGGDJCJ@MAP406@			; `string'
PUBLIC	??_C@_06HAHNAIGI@MAP407@			; `string'
PUBLIC	??_C@_06PHOFBEKH@MAP408@			; `string'
PUBLIC	??_C@_06OOPOCFOG@MAP409@			; `string'
PUBLIC	??_C@_06DOPOPEJI@MAP410@			; `string'
PUBLIC	??_C@_06CHOFMFNJ@MAP411@			; `string'
PUBLIC	??_C@_06MMIJGBK@MAP412@				; `string'
PUBLIC	??_C@_06BFNDKHFL@MAP413@			; `string'
PUBLIC	??_C@_06FKJCDBJM@MAP414@			; `string'
PUBLIC	??_C@_06EDIJAANN@MAP415@			; `string'
PUBLIC	??_C@_06GIKEFDBO@MAP416@			; `string'
PUBLIC	??_C@_06HBLPGCFP@MAP417@			; `string'
PUBLIC	??_C@_06PGCHHOJA@MAP418@			; `string'
PUBLIC	??_C@_06OPDMEPNB@MAP419@			; `string'
PUBLIC	??_C@_06DMLIEKMB@MAP420@			; `string'
PUBLIC	??_C@_06CFKDHLIA@MAP421@			; `string'
PUBLIC	??_C@_06OIOCIED@MAP422@				; `string'
PUBLIC	??_C@_06BHJFBJAC@MAP423@			; `string'
PUBLIC	??_C@_06FINEIPMF@MAP424@			; `string'
PUBLIC	??_C@_06EBMPLOIE@MAP425@			; `string'
PUBLIC	??_C@_06GKOCONEH@MAP426@			; `string'
PUBLIC	??_C@_06HDPJNMAG@MAP427@			; `string'
PUBLIC	??_C@_06PEGBMAMJ@MAP428@			; `string'
PUBLIC	??_C@_06ONHKPBII@MAP429@			; `string'
PUBLIC	??_C@_06DNHKCAPG@MAP430@			; `string'
PUBLIC	??_C@_06CEGBBBLH@MAP431@			; `string'
PUBLIC	??_C@_06PEMECHE@MAP432@				; `string'
PUBLIC	??_C@_06BGFHHDDF@MAP433@			; `string'
PUBLIC	??_C@_06FJBGOFPC@MAP434@			; `string'
PUBLIC	??_C@_06EAANNELD@MAP435@			; `string'
PUBLIC	??_C@_06GLCAIHHA@MAP436@			; `string'
PUBLIC	??_C@_06HCDLLGDB@MAP437@			; `string'
PUBLIC	??_C@_06PFKDKKPO@MAP438@			; `string'
PUBLIC	??_C@_06OMLIJLLP@MAP439@			; `string'
PUBLIC	??_C@_06DIDFDGHD@MAP440@			; `string'
PUBLIC	??_C@_06CBCOAHDC@MAP441@			; `string'
PUBLIC	??_C@_06KADFEPB@MAP442@				; `string'
PUBLIC	??_C@_06BDBIGFLA@MAP443@			; `string'
PUBLIC	??_C@_06FMFJPDHH@MAP444@			; `string'
PUBLIC	??_C@_06EFECMCDG@MAP445@			; `string'
PUBLIC	??_C@_06GOGPJBPF@MAP446@			; `string'
PUBLIC	??_C@_06HHHEKALE@MAP447@			; `string'
PUBLIC	??_C@_06PAOMLMHL@MAP448@			; `string'
PUBLIC	??_C@_06OJPHINDK@MAP449@			; `string'
PUBLIC	??_C@_06DJPHFMEE@MAP450@			; `string'
PUBLIC	??_C@_06CAOMGNAF@MAP451@			; `string'
PUBLIC	??_C@_06LMBDOMG@MAP452@				; `string'
PUBLIC	??_C@_06BCNKAPIH@MAP453@			; `string'
PUBLIC	??_C@_06FNJLJJEA@MAP454@			; `string'
PUBLIC	??_C@_06EEIAKIAB@MAP455@			; `string'
PUBLIC	??_C@_06GPKNPLMC@MAP456@			; `string'
PUBLIC	??_C@_06HGLGMKID@MAP457@			; `string'
PUBLIC	??_C@_06PBCONGEM@MAP458@			; `string'
PUBLIC	??_C@_06OIDFOHAN@MAP459@			; `string'
PUBLIC	??_C@_06DLLBOCBN@MAP460@			; `string'
PUBLIC	??_C@_06CCKKNDFM@MAP461@			; `string'
PUBLIC	??_C@_06JIHIAJP@MAP462@				; `string'
PUBLIC	??_C@_06BAJMLBNO@MAP463@			; `string'
PUBLIC	??_C@_06FPNNCHBJ@MAP464@			; `string'
PUBLIC	??_C@_06EGMGBGFI@MAP465@			; `string'
PUBLIC	??_C@_06GNOLEFJL@MAP466@			; `string'
PUBLIC	??_C@_06HEPAHENK@MAP467@			; `string'
PUBLIC	??_C@_06PDGIGIBF@MAP468@			; `string'
PUBLIC	??_C@_06OKHDFJFE@MAP469@			; `string'
PUBLIC	??_C@_06DKHDIICK@MAP470@			; `string'
PUBLIC	??_C@_06CDGILJGL@MAP471@			; `string'
PUBLIC	??_C@_06IEFOKKI@MAP472@				; `string'
PUBLIC	??_C@_06BBFONLOJ@MAP473@			; `string'
PUBLIC	??_C@_06FOBPENCO@MAP474@			; `string'
PUBLIC	??_C@_06EHAEHMGP@MAP475@			; `string'
PUBLIC	??_C@_06GMCJCPKM@MAP476@			; `string'
PUBLIC	??_C@_06HFDCBOON@MAP477@			; `string'
PUBLIC	??_C@_06PCKKACCC@MAP478@			; `string'
PUBLIC	??_C@_06OLLBDDGD@MAP479@			; `string'
PUBLIC	??_C@_06DBCPMPBH@MAP480@			; `string'
PUBLIC	??_C@_06CIDEPOFG@MAP481@			; `string'
PUBLIC	??_C@_06DBJKNJF@MAP482@				; `string'
PUBLIC	??_C@_06BKACJMNE@MAP483@			; `string'
PUBLIC	??_C@_06FFEDAKBD@MAP484@			; `string'
PUBLIC	??_C@_06EMFIDLFC@MAP485@			; `string'
PUBLIC	??_C@_06GHHFGIJB@MAP486@			; `string'
PUBLIC	??_C@_06HOGOFJNA@MAP487@			; `string'
PUBLIC	??_C@_06PJPGEFBP@MAP488@			; `string'
PUBLIC	??_C@_06OAONHEFO@MAP489@			; `string'
PUBLIC	??_C@_06DAONKFCA@MAP490@			; `string'
PUBLIC	??_C@_06CJPGJEGB@MAP491@			; `string'
PUBLIC	??_C@_06CNLMHKC@MAP492@				; `string'
PUBLIC	??_C@_06BLMAPGOD@MAP493@			; `string'
PUBLIC	??_C@_06FEIBGACE@MAP494@			; `string'
PUBLIC	??_C@_06ENJKFBGF@MAP495@			; `string'
PUBLIC	??_C@_06GGLHACKG@MAP496@			; `string'
PUBLIC	??_C@_06HPKMDDOH@MAP497@			; `string'
PUBLIC	??_C@_06PIDECPCI@MAP498@			; `string'
PUBLIC	??_C@_06OBCPBOGJ@MAP499@			; `string'
PUBLIC	??_C@_06IHIAPJMK@MAP500@			; `string'
PUBLIC	??_C@_06JOJLMIIL@MAP501@			; `string'
PUBLIC	??_C@_06LFLGJLEI@MAP502@			; `string'
PUBLIC	??_C@_06KMKNKKAJ@MAP503@			; `string'
PUBLIC	??_C@_06ODOMDMMO@MAP504@			; `string'
PUBLIC	??_C@_06PKPHANIP@MAP505@			; `string'
PUBLIC	??_C@_06NBNKFOEM@MAP506@			; `string'
PUBLIC	??_C@_06MIMBGPAN@MAP507@			; `string'
PUBLIC	??_C@_06EPFJHDMC@MAP508@			; `string'
PUBLIC	??_C@_06FGECECID@MAP509@			; `string'
PUBLIC	??_C@_06IGECJDPN@MAP510@			; `string'
PUBLIC	??_C@_06JPFJKCLM@MAP511@			; `string'
PUBLIC	??_C@_06LEHEPBHP@MAP512@			; `string'
PUBLIC	??_C@_06KNGPMADO@MAP513@			; `string'
PUBLIC	??_C@_06OCCOFGPJ@MAP514@			; `string'
PUBLIC	??_C@_06PLDFGHLI@MAP515@			; `string'
PUBLIC	??_C@_06NABIDEHL@MAP516@			; `string'
PUBLIC	??_C@_06MJADAFDK@MAP517@			; `string'
PUBLIC	??_C@_06EOJLBJPF@MAP518@			; `string'
PUBLIC	??_C@_06FHIACILE@MAP519@			; `string'
PUBLIC	??_C@_06IEAECNKE@MAP520@			; `string'
PUBLIC	??_C@_06JNBPBMOF@MAP521@			; `string'
PUBLIC	??_C@_06LGDCEPCG@MAP522@			; `string'
PUBLIC	??_C@_06KPCJHOGH@MAP523@			; `string'
PUBLIC	??_C@_06OAGIOIKA@MAP524@			; `string'
PUBLIC	??_C@_06PJHDNJOB@MAP525@			; `string'
PUBLIC	??_C@_06NCFOIKCC@MAP526@			; `string'
PUBLIC	??_C@_06MLEFLLGD@MAP527@			; `string'
PUBLIC	??_C@_06EMNNKHKM@MAP528@			; `string'
PUBLIC	??_C@_06FFMGJGON@MAP529@			; `string'
PUBLIC	??_C@_06IFMGEHJD@MAP530@			; `string'
PUBLIC	??_C@_06JMNNHGNC@MAP531@			; `string'
PUBLIC	??_C@_06LHPACFBB@MAP532@			; `string'
PUBLIC	??_C@_06KOOLBEFA@MAP533@			; `string'
PUBLIC	??_C@_06OBKKICJH@MAP534@			; `string'
PUBLIC	??_C@_06PILBLDNG@MAP535@			; `string'
PUBLIC	??_C@_06NDJMOABF@MAP536@			; `string'
PUBLIC	??_C@_06MKIHNBFE@MAP537@			; `string'
PUBLIC	??_C@_06ENBPMNJL@MAP538@			; `string'
PUBLIC	??_C@_06FEAEPMNK@MAP539@			; `string'
PUBLIC	??_C@_06IAIJFBBG@MAP540@			; `string'
PUBLIC	??_C@_06JJJCGAFH@MAP541@			; `string'
PUBLIC	??_C@_06LCLPDDJE@MAP542@			; `string'
PUBLIC	??_C@_06KLKEACNF@MAP543@			; `string'
PUBLIC	??_C@_06OEOFJEBC@MAP544@			; `string'
PUBLIC	??_C@_06PNPOKFFD@MAP545@			; `string'
PUBLIC	??_C@_06NGNDPGJA@MAP546@			; `string'
PUBLIC	??_C@_06MPMIMHNB@MAP547@			; `string'
PUBLIC	??_C@_06EIFANLBO@MAP548@			; `string'
PUBLIC	??_C@_06FBELOKFP@MAP549@			; `string'
PUBLIC	??_C@_06IBELDLCB@MAP550@			; `string'
PUBLIC	??_C@_06JIFAAKGA@MAP551@			; `string'
PUBLIC	??_C@_06LDHNFJKD@MAP552@			; `string'
PUBLIC	??_C@_06KKGGGIOC@MAP553@			; `string'
PUBLIC	??_C@_06OFCHPOCF@MAP554@			; `string'
PUBLIC	??_C@_06PMDMMPGE@MAP555@			; `string'
PUBLIC	??_C@_06NHBBJMKH@MAP556@			; `string'
PUBLIC	??_C@_06MOAKKNOG@MAP557@			; `string'
PUBLIC	??_C@_06EJJCLBCJ@MAP558@			; `string'
PUBLIC	??_C@_06FAIJIAGI@MAP559@			; `string'
PUBLIC	??_C@_06IDANIFHI@MAP560@			; `string'
PUBLIC	??_C@_06JKBGLEDJ@MAP561@			; `string'
PUBLIC	??_C@_06LBDLOHPK@MAP562@			; `string'
PUBLIC	??_C@_06KICANGLL@MAP563@			; `string'
PUBLIC	??_C@_06OHGBEAHM@MAP564@			; `string'
PUBLIC	??_C@_06POHKHBDN@MAP565@			; `string'
PUBLIC	??_C@_06NFFHCCPO@MAP566@			; `string'
PUBLIC	??_C@_06MMEMBDLP@MAP567@			; `string'
PUBLIC	??_C@_06ELNEAPHA@MAP568@			; `string'
PUBLIC	??_C@_06FCMPDODB@MAP569@			; `string'
PUBLIC	??_C@_06ICMPOPEP@MAP570@			; `string'
PUBLIC	??_C@_06JLNENOAO@MAP571@			; `string'
PUBLIC	??_C@_06LAPJINMN@MAP572@			; `string'
PUBLIC	??_C@_06KJOCLMIM@MAP573@			; `string'
PUBLIC	??_C@_06OGKDCKEL@MAP574@			; `string'
PUBLIC	??_C@_06PPLIBLAK@MAP575@			; `string'
PUBLIC	??_C@_06NEJFEIMJ@MAP576@			; `string'
PUBLIC	??_C@_06MNIOHJII@MAP577@			; `string'
PUBLIC	??_C@_06EKBGGFEH@MAP578@			; `string'
PUBLIC	??_C@_06FDANFEAG@MAP579@			; `string'
PUBLIC	??_C@_06IJJDKIHC@MAP580@			; `string'
PUBLIC	??_C@_06JAIIJJDD@MAP581@			; `string'
PUBLIC	??_C@_06LLKFMKPA@MAP582@			; `string'
PUBLIC	??_C@_06KCLOPLLB@MAP583@			; `string'
PUBLIC	??_C@_06ONPPGNHG@MAP584@			; `string'
PUBLIC	??_C@_06PEOEFMDH@MAP585@			; `string'
PUBLIC	??_C@_06NPMJAPPE@MAP586@			; `string'
PUBLIC	??_C@_06MGNCDOLF@MAP587@			; `string'
PUBLIC	??_C@_06EBEKCCHK@MAP588@			; `string'
PUBLIC	??_C@_06FIFBBDDL@MAP589@			; `string'
PUBLIC	??_C@_06IIFBMCEF@MAP590@			; `string'
PUBLIC	??_C@_06JBEKPDAE@MAP591@			; `string'
PUBLIC	??_C@_06LKGHKAMH@MAP592@			; `string'
PUBLIC	??_C@_06KDHMJBIG@MAP593@			; `string'
PUBLIC	??_C@_06OMDNAHEB@MAP594@			; `string'
PUBLIC	??_C@_06PFCGDGAA@MAP595@			; `string'
PUBLIC	??_C@_06NOALGFMD@MAP596@			; `string'
PUBLIC	??_C@_06MHBAFEIC@MAP597@			; `string'
PUBLIC	??_C@_06EAIIEIEN@MAP598@			; `string'
PUBLIC	??_C@_06FJJDHJAM@MAP599@			; `string'
PUBLIC	??_C@_06JFDFFGCE@MAP600@			; `string'
PUBLIC	??_C@_06IMCOGHGF@MAP601@			; `string'
PUBLIC	??_C@_06KHADDEKG@MAP602@			; `string'
PUBLIC	??_C@_06LOBIAFOH@MAP603@			; `string'
PUBLIC	??_C@_06PBFJJDCA@MAP604@			; `string'
PUBLIC	??_C@_06OIECKCGB@MAP605@			; `string'
PUBLIC	??_C@_06MDGPPBKC@MAP606@			; `string'
PUBLIC	??_C@_06NKHEMAOD@MAP607@			; `string'
PUBLIC	??_C@_06FNOMNMCM@MAP608@			; `string'
PUBLIC	??_C@_06EEPHONGN@MAP609@			; `string'
PUBLIC	??_C@_06JEPHDMBD@MAP610@			; `string'
PUBLIC	??_C@_06INOMANFC@MAP611@			; `string'
PUBLIC	??_C@_06KGMBFOJB@MAP612@			; `string'
PUBLIC	??_C@_06LPNKGPNA@MAP613@			; `string'
PUBLIC	??_C@_06PAJLPJBH@MAP614@			; `string'
PUBLIC	??_C@_06OJIAMIFG@MAP615@			; `string'
PUBLIC	??_C@_06MCKNJLJF@MAP616@			; `string'
PUBLIC	??_C@_06NLLGKKNE@MAP617@			; `string'
PUBLIC	??_C@_06FMCOLGBL@MAP618@			; `string'
PUBLIC	??_C@_06EFDFIHFK@MAP619@			; `string'
PUBLIC	??_C@_06JGLBICEK@MAP620@			; `string'
PUBLIC	??_C@_06IPKKLDAL@MAP621@			; `string'
PUBLIC	??_C@_06KEIHOAMI@MAP622@			; `string'
PUBLIC	??_C@_06LNJMNBIJ@MAP623@			; `string'
PUBLIC	??_C@_06PCNNEHEO@MAP624@			; `string'
PUBLIC	??_C@_06OLMGHGAP@MAP625@			; `string'
PUBLIC	??_C@_06MAOLCFMM@MAP626@			; `string'
PUBLIC	??_C@_06NJPABEIN@MAP627@			; `string'
PUBLIC	??_C@_06FOGIAIEC@MAP628@			; `string'
PUBLIC	??_C@_06EHHDDJAD@MAP629@			; `string'
PUBLIC	??_C@_06JHHDOIHN@MAP630@			; `string'
PUBLIC	??_C@_06IOGINJDM@MAP631@			; `string'
PUBLIC	??_C@_06KFEFIKPP@MAP632@			; `string'
PUBLIC	??_C@_06LMFOLLLO@MAP633@			; `string'
PUBLIC	??_C@_06PDBPCNHJ@MAP634@			; `string'
PUBLIC	??_C@_06OKAEBMDI@MAP635@			; `string'
PUBLIC	??_C@_06MBCJEPPL@MAP636@			; `string'
PUBLIC	??_C@_06NIDCHOLK@MAP637@			; `string'
PUBLIC	??_C@_06FPKKGCHF@MAP638@			; `string'
PUBLIC	??_C@_06EGLBFDDE@MAP639@			; `string'
PUBLIC	??_C@_06JCDMPOPI@MAP640@			; `string'
PUBLIC	??_C@_06ILCHMPLJ@MAP641@			; `string'
PUBLIC	??_C@_06KAAKJMHK@MAP642@			; `string'
PUBLIC	??_C@_06LJBBKNDL@MAP643@			; `string'
PUBLIC	??_C@_06PGFADLPM@MAP644@			; `string'
PUBLIC	??_C@_06OPELAKLN@MAP645@			; `string'
PUBLIC	??_C@_06MEGGFJHO@MAP646@			; `string'
PUBLIC	??_C@_06NNHNGIDP@MAP647@			; `string'
PUBLIC	??_C@_06FKOFHEPA@MAP648@			; `string'
PUBLIC	??_C@_06EDPOEFLB@MAP649@			; `string'
PUBLIC	??_C@_06JDPOJEMP@MAP650@			; `string'
PUBLIC	??_C@_06IKOFKFIO@MAP651@			; `string'
PUBLIC	??_C@_06KBMIPGEN@MAP652@			; `string'
PUBLIC	??_C@_06LINDMHAM@MAP653@			; `string'
PUBLIC	??_C@_06PHJCFBML@MAP654@			; `string'
PUBLIC	??_C@_06OOIJGAIK@MAP655@			; `string'
PUBLIC	??_C@_06MFKEDDEJ@MAP656@			; `string'
PUBLIC	??_C@_06NMLPACAI@MAP657@			; `string'
PUBLIC	??_C@_06FLCHBOMH@MAP658@			; `string'
PUBLIC	??_C@_06ECDMCPIG@MAP659@			; `string'
PUBLIC	??_C@_06JBLICKJG@MAP660@			; `string'
PUBLIC	??_C@_06IIKDBLNH@MAP661@			; `string'
PUBLIC	??_C@_06KDIOEIBE@MAP662@			; `string'
PUBLIC	??_C@_06LKJFHJFF@MAP663@			; `string'
PUBLIC	??_C@_06PFNEOPJC@MAP664@			; `string'
PUBLIC	??_C@_06OMMPNOND@MAP665@			; `string'
PUBLIC	??_C@_06MHOCINBA@MAP666@			; `string'
PUBLIC	??_C@_06NOPJLMFB@MAP667@			; `string'
PUBLIC	??_C@_06FJGBKAJO@MAP668@			; `string'
PUBLIC	??_C@_06EAHKJBNP@MAP669@			; `string'
PUBLIC	??_C@_06JAHKEAKB@MAP670@			; `string'
PUBLIC	??_C@_06IJGBHBOA@MAP671@			; `string'
PUBLIC	??_C@_06KCEMCCCD@MAP672@			; `string'
PUBLIC	??_C@_06LLFHBDGC@MAP673@			; `string'
PUBLIC	??_C@_06PEBGIFKF@MAP674@			; `string'
PUBLIC	??_C@_06ONANLEOE@MAP675@			; `string'
PUBLIC	??_C@_06MGCAOHCH@MAP676@			; `string'
PUBLIC	??_C@_06NPDLNGGG@MAP677@			; `string'
PUBLIC	??_C@_06FIKDMKKJ@MAP678@			; `string'
PUBLIC	??_C@_06EBLIPLOI@MAP679@			; `string'
PUBLIC	??_C@_06JLCGAHJM@MAP680@			; `string'
PUBLIC	??_C@_06ICDNDGNN@MAP681@			; `string'
PUBLIC	??_C@_06KJBAGFBO@MAP682@			; `string'
PUBLIC	??_C@_06LAALFEFP@MAP683@			; `string'
PUBLIC	??_C@_06PPEKMCJI@MAP684@			; `string'
PUBLIC	??_C@_06OGFBPDNJ@MAP685@			; `string'
PUBLIC	??_C@_06MNHMKABK@MAP686@			; `string'
PUBLIC	??_C@_06NEGHJBFL@MAP687@			; `string'
PUBLIC	??_C@_06FDPPINJE@MAP688@			; `string'
PUBLIC	??_C@_06EKOELMNF@MAP689@			; `string'
PUBLIC	??_C@_06JKOEGNKL@MAP690@			; `string'
PUBLIC	??_C@_06IDPPFMOK@MAP691@			; `string'
PUBLIC	??_C@_06KINCAPCJ@MAP692@			; `string'
PUBLIC	??_C@_06LBMJDOGI@MAP693@			; `string'
PUBLIC	??_C@_06POIIKIKP@MAP694@			; `string'
PUBLIC	??_C@_06OHJDJJOO@MAP695@			; `string'
PUBLIC	??_C@_06MMLOMKCN@MAP696@			; `string'
PUBLIC	??_C@_06NFKFPLGM@MAP697@			; `string'
PUBLIC	??_C@_06FCDNOHKD@MAP698@			; `string'
PUBLIC	??_C@_06ELCGNGOC@MAP699@			; `string'
PUBLIC	??_C@_06CNIJDBEB@MAP700@			; `string'
PUBLIC	??_C@_06DEJCAAAA@MAP701@			; `string'
PUBLIC	??_C@_06BPLPFDMD@MAP702@			; `string'
PUBLIC	??_C@_06GKEGCIC@MAP703@				; `string'
PUBLIC	??_C@_06EJOFPEEF@MAP704@			; `string'
PUBLIC	??_C@_06FAPOMFAE@MAP705@			; `string'
PUBLIC	??_C@_06HLNDJGMH@MAP706@			; `string'
PUBLIC	??_C@_06GCMIKHIG@MAP707@			; `string'
PUBLIC	??_C@_06OFFALLEJ@MAP708@			; `string'
PUBLIC	??_C@_06PMELIKAI@MAP709@			; `string'
PUBLIC	??_C@_06CMELFLHG@MAP710@			; `string'
PUBLIC	??_C@_06DFFAGKDH@MAP711@			; `string'
PUBLIC	??_C@_06BOHNDJPE@MAP712@			; `string'
PUBLIC	??_C@_06HGGAILF@MAP713@				; `string'
PUBLIC	??_C@_06EICHJOHC@MAP714@			; `string'
PUBLIC	??_C@_06FBDMKPDD@MAP715@			; `string'
PUBLIC	??_C@_06HKBBPMPA@MAP716@			; `string'
PUBLIC	??_C@_06GDAKMNLB@MAP717@			; `string'
PUBLIC	??_C@_06OEJCNBHO@MAP718@			; `string'
PUBLIC	??_C@_06PNIJOADP@MAP719@			; `string'
PUBLIC	??_C@_06COANOFCP@MAP720@			; `string'
PUBLIC	??_C@_06DHBGNEGO@MAP721@			; `string'
PUBLIC	??_C@_06BMDLIHKN@MAP722@			; `string'
PUBLIC	??_C@_06FCALGOM@MAP723@				; `string'
PUBLIC	??_C@_06EKGBCACL@MAP724@			; `string'
PUBLIC	??_C@_06FDHKBBGK@MAP725@			; `string'
PUBLIC	??_C@_06HIFHECKJ@MAP726@			; `string'
PUBLIC	??_C@_06GBEMHDOI@MAP727@			; `string'
PUBLIC	??_C@_06OGNEGPCH@MAP728@			; `string'
PUBLIC	??_C@_06PPMPFOGG@MAP729@			; `string'
PUBLIC	??_C@_06CPMPIPBI@MAP730@			; `string'
PUBLIC	??_C@_06DGNELOFJ@MAP731@			; `string'
PUBLIC	??_C@_06BNPJONJK@MAP732@			; `string'
PUBLIC	??_C@_06EOCNMNL@MAP733@				; `string'
PUBLIC	??_C@_06ELKDEKBM@MAP734@			; `string'
PUBLIC	??_C@_06FCLIHLFN@MAP735@			; `string'
PUBLIC	??_C@_06HJJFCIJO@MAP736@			; `string'
PUBLIC	??_C@_06GAIOBJNP@MAP737@			; `string'
PUBLIC	??_C@_06OHBGAFBA@MAP738@			; `string'
PUBLIC	??_C@_06POANDEFB@MAP739@			; `string'
PUBLIC	??_C@_06CKIAJJJN@MAP740@			; `string'
PUBLIC	??_C@_06DDJLKINM@MAP741@			; `string'
PUBLIC	??_C@_06BILGPLBP@MAP742@			; `string'
PUBLIC	??_C@_06BKNMKFO@MAP743@				; `string'
PUBLIC	??_C@_06EOOMFMJJ@MAP744@			; `string'
PUBLIC	??_C@_06FHPHGNNI@MAP745@			; `string'
PUBLIC	??_C@_06HMNKDOBL@MAP746@			; `string'
PUBLIC	??_C@_06GFMBAPFK@MAP747@			; `string'
PUBLIC	??_C@_06OCFJBDJF@MAP748@			; `string'
PUBLIC	??_C@_06PLECCCNE@MAP749@			; `string'
PUBLIC	??_C@_06CLECPDKK@MAP750@			; `string'
PUBLIC	??_C@_06DCFJMCOL@MAP751@			; `string'
PUBLIC	??_C@_06BJHEJBCI@MAP752@			; `string'
PUBLIC	??_C@_06GPKAGJ@MAP753@				; `string'
PUBLIC	??_C@_06EPCODGKO@MAP754@			; `string'
PUBLIC	??_C@_06FGDFAHOP@MAP755@			; `string'
PUBLIC	??_C@_06HNBIFECM@MAP756@			; `string'
PUBLIC	??_C@_06GEADGFGN@MAP757@			; `string'
PUBLIC	??_C@_06ODJLHJKC@MAP758@			; `string'
PUBLIC	??_C@_06PKIAEIOD@MAP759@			; `string'
PUBLIC	??_C@_06CJAEENPD@MAP760@			; `string'
PUBLIC	??_C@_06DABPHMLC@MAP761@			; `string'
PUBLIC	??_C@_06BLDCCPHB@MAP762@			; `string'
PUBLIC	??_C@_06CCJBODA@MAP763@				; `string'
PUBLIC	??_C@_06ENGIIIPH@MAP764@			; `string'
PUBLIC	??_C@_06FEHDLJLG@MAP765@			; `string'
PUBLIC	??_C@_06HPFOOKHF@MAP766@			; `string'
PUBLIC	??_C@_06GGEFNLDE@MAP767@			; `string'
PUBLIC	??_C@_06OBNNMHPL@MAP768@			; `string'
PUBLIC	??_C@_06PIMGPGLK@MAP769@			; `string'
PUBLIC	??_C@_06CIMGCHME@MAP770@			; `string'
PUBLIC	??_C@_06DBNNBGIF@MAP771@			; `string'
PUBLIC	??_C@_06BKPAEFEG@MAP772@			; `string'
PUBLIC	??_C@_06DOLHEAH@MAP773@				; `string'
PUBLIC	??_C@_06EMKKOCMA@MAP774@			; `string'
PUBLIC	??_C@_06FFLBNDIB@MAP775@			; `string'
PUBLIC	??_C@_06HOJMIAEC@MAP776@			; `string'
PUBLIC	??_C@_06GHIHLBAD@MAP777@			; `string'
PUBLIC	??_C@_06OABPKNMM@MAP778@			; `string'
PUBLIC	??_C@_06PJAEJMIN@MAP779@			; `string'
PUBLIC	??_C@_06CDJKGAPJ@MAP780@			; `string'
PUBLIC	??_C@_06DKIBFBLI@MAP781@			; `string'
PUBLIC	??_C@_06BBKMACHL@MAP782@			; `string'
PUBLIC	??_C@_06ILHDDDK@MAP783@				; `string'
PUBLIC	??_C@_06EHPGKFPN@MAP784@			; `string'
PUBLIC	??_C@_06FOONJELM@MAP785@			; `string'
PUBLIC	??_C@_06HFMAMHHP@MAP786@			; `string'
PUBLIC	??_C@_06GMNLPGDO@MAP787@			; `string'
PUBLIC	??_C@_06OLEDOKPB@MAP788@			; `string'
PUBLIC	??_C@_06PCFINLLA@MAP789@			; `string'
PUBLIC	??_C@_06CCFIAKMO@MAP790@			; `string'
PUBLIC	??_C@_06DLEDDLIP@MAP791@			; `string'
PUBLIC	??_C@_06BAGOGIEM@MAP792@			; `string'
PUBLIC	??_C@_06JHFFJAN@MAP793@				; `string'
PUBLIC	??_C@_06EGDEMPMK@MAP794@			; `string'
PUBLIC	??_C@_06FPCPPOIL@MAP795@			; `string'
PUBLIC	??_C@_06HEACKNEI@MAP796@			; `string'
PUBLIC	??_C@_06GNBJJMAJ@MAP797@			; `string'
PUBLIC	??_C@_06OKIBIAMG@MAP798@			; `string'
PUBLIC	??_C@_06PDJKLBIH@MAP799@			; `string'
PUBLIC	??_C@_06HFOKCBBH@MAP800@			; `string'
PUBLIC	??_C@_06GMPBBAFG@MAP801@			; `string'
PUBLIC	??_C@_06EHNMEDJF@MAP802@			; `string'
PUBLIC	??_C@_06FOMHHCNE@MAP803@			; `string'
PUBLIC	??_C@_06BBIGOEBD@MAP804@			; `string'
PUBLIC	??_C@_06IJNNFFC@MAP805@				; `string'
PUBLIC	??_C@_06CDLAIGJB@MAP806@			; `string'
PUBLIC	??_C@_06DKKLLHNA@MAP807@			; `string'
PUBLIC	??_C@_06LNDDKLBP@MAP808@			; `string'
PUBLIC	??_C@_06KECIJKFO@MAP809@			; `string'
PUBLIC	??_C@_06HECIELCA@MAP810@			; `string'
PUBLIC	??_C@_06GNDDHKGB@MAP811@			; `string'
PUBLIC	??_C@_06EGBOCJKC@MAP812@			; `string'
PUBLIC	??_C@_06FPAFBIOD@MAP813@			; `string'
PUBLIC	??_C@_06BAEEIOCE@MAP814@			; `string'
PUBLIC	??_C@_06JFPLPGF@MAP815@				; `string'
PUBLIC	??_C@_06CCHCOMKG@MAP816@			; `string'
PUBLIC	??_C@_06DLGJNNOH@MAP817@			; `string'
PUBLIC	??_C@_06LMPBMBCI@MAP818@			; `string'
PUBLIC	??_C@_06KFOKPAGJ@MAP819@			; `string'
PUBLIC	??_C@_06HGGOPFHJ@MAP820@			; `string'
PUBLIC	??_C@_06GPHFMEDI@MAP821@			; `string'
PUBLIC	??_C@_06EEFIJHPL@MAP822@			; `string'
PUBLIC	??_C@_06FNEDKGLK@MAP823@			; `string'
PUBLIC	??_C@_06BCACDAHN@MAP824@			; `string'
PUBLIC	??_C@_06LBJABDM@MAP825@				; `string'
PUBLIC	??_C@_06CADEFCPP@MAP826@			; `string'
PUBLIC	??_C@_06DJCPGDLO@MAP827@			; `string'
PUBLIC	??_C@_06LOLHHPHB@MAP828@			; `string'
PUBLIC	??_C@_06KHKMEODA@MAP829@			; `string'
PUBLIC	??_C@_06HHKMJPEO@MAP830@			; `string'
PUBLIC	??_C@_06GOLHKOAP@MAP831@			; `string'
PUBLIC	??_C@_06EFJKPNMM@MAP832@			; `string'
PUBLIC	??_C@_06FMIBMMIN@MAP833@			; `string'
PUBLIC	??_C@_06BDMAFKEK@MAP834@			; `string'
PUBLIC	??_C@_06KNLGLAL@MAP835@				; `string'
PUBLIC	??_C@_06CBPGDIMI@MAP836@			; `string'
PUBLIC	??_C@_06DIONAJIJ@MAP837@			; `string'
PUBLIC	??_C@_06LPHFBFEG@MAP838@			; `string'
PUBLIC	??_C@_06KGGOCEAH@MAP839@			; `string'
PUBLIC	??_C@_06HCODIJML@MAP840@			; `string'
PUBLIC	??_C@_06GLPILIIK@MAP841@			; `string'
PUBLIC	??_C@_06EANFOLEJ@MAP842@			; `string'
PUBLIC	??_C@_06FJMONKAI@MAP843@			; `string'
PUBLIC	??_C@_06BGIPEMMP@MAP844@			; `string'
PUBLIC	??_C@_06PJEHNIO@MAP845@				; `string'
PUBLIC	??_C@_06CELJCOEN@MAP846@			; `string'
PUBLIC	??_C@_06DNKCBPAM@MAP847@			; `string'
PUBLIC	??_C@_06LKDKADMD@MAP848@			; `string'
PUBLIC	??_C@_06KDCBDCIC@MAP849@			; `string'
PUBLIC	??_C@_06HDCBODPM@MAP850@			; `string'
PUBLIC	??_C@_06GKDKNCLN@MAP851@			; `string'
PUBLIC	??_C@_06EBBHIBHO@MAP852@			; `string'
PUBLIC	??_C@_06FIAMLADP@MAP853@			; `string'
PUBLIC	??_C@_06BHENCGPI@MAP854@			; `string'
PUBLIC	??_C@_06OFGBHLJ@MAP855@				; `string'
PUBLIC	??_C@_06CFHLEEHK@MAP856@			; `string'
PUBLIC	??_C@_06DMGAHFDL@MAP857@			; `string'
PUBLIC	??_C@_06LLPIGJPE@MAP858@			; `string'
PUBLIC	??_C@_06KCODFILF@MAP859@			; `string'
PUBLIC	??_C@_06HBGHFNKF@MAP860@			; `string'
PUBLIC	??_C@_06GIHMGMOE@MAP861@			; `string'
PUBLIC	??_C@_06EDFBDPCH@MAP862@			; `string'
PUBLIC	??_C@_06FKEKAOGG@MAP863@			; `string'
PUBLIC	??_C@_06BFALJIKB@MAP864@			; `string'
PUBLIC	??_C@_06MBAKJOA@MAP865@				; `string'
PUBLIC	??_C@_06CHDNPKCD@MAP866@			; `string'
PUBLIC	??_C@_06DOCGMLGC@MAP867@			; `string'
PUBLIC	??_C@_06LJLONHKN@MAP868@			; `string'
PUBLIC	??_C@_06KAKFOGOM@MAP869@			; `string'
PUBLIC	??_C@_06HAKFDHJC@MAP870@			; `string'
PUBLIC	??_C@_06GJLOAGND@MAP871@			; `string'
PUBLIC	??_C@_06ECJDFFBA@MAP872@			; `string'
PUBLIC	??_C@_06FLIIGEFB@MAP873@			; `string'
PUBLIC	??_C@_06BEMJPCJG@MAP874@			; `string'
PUBLIC	??_C@_06NNCMDNH@MAP875@				; `string'
PUBLIC	??_C@_06CGPPJABE@MAP876@			; `string'
PUBLIC	??_C@_06DPOEKBFF@MAP877@			; `string'
PUBLIC	??_C@_06LIHMLNJK@MAP878@			; `string'
PUBLIC	??_C@_06KBGHIMNL@MAP879@			; `string'
PUBLIC	??_C@_06HLPJHAKP@MAP880@			; `string'
PUBLIC	??_C@_06GCOCEBOO@MAP881@			; `string'
PUBLIC	??_C@_06EJMPBCCN@MAP882@			; `string'
PUBLIC	??_C@_06FANECDGM@MAP883@			; `string'
PUBLIC	??_C@_06BPJFLFKL@MAP884@			; `string'
PUBLIC	??_C@_06GIOIEOK@MAP885@				; `string'
PUBLIC	??_C@_06CNKDNHCJ@MAP886@			; `string'
PUBLIC	??_C@_06DELIOGGI@MAP887@			; `string'
PUBLIC	??_C@_06LDCAPKKH@MAP888@			; `string'
PUBLIC	??_C@_06KKDLMLOG@MAP889@			; `string'
PUBLIC	??_C@_06HKDLBKJI@MAP890@			; `string'
PUBLIC	??_C@_06GDCACLNJ@MAP891@			; `string'
PUBLIC	??_C@_06EIANHIBK@MAP892@			; `string'
PUBLIC	??_C@_06FBBGEJFL@MAP893@			; `string'
PUBLIC	??_C@_06BOFHNPJM@MAP894@			; `string'
PUBLIC	??_C@_06HEMOONN@MAP895@				; `string'
PUBLIC	??_C@_06CMGBLNBO@MAP896@			; `string'
PUBLIC	??_C@_06DFHKIMFP@MAP897@			; `string'
PUBLIC	??_C@_06LCOCJAJA@MAP898@			; `string'
PUBLIC	??_C@_06KLPJKBNB@MAP899@			; `string'
PUBLIC	??_C@_06MNFGEGHC@MAP900@			; `string'
PUBLIC	??_C@_06NEENHHDD@MAP901@			; `string'
PUBLIC	??_C@_06PPGACEPA@MAP902@			; `string'
PUBLIC	??_C@_06OGHLBFLB@MAP903@			; `string'
PUBLIC	??_C@_06KJDKIDHG@MAP904@			; `string'
PUBLIC	??_C@_06LACBLCDH@MAP905@			; `string'
PUBLIC	??_C@_06JLAMOBPE@MAP906@			; `string'
PUBLIC	??_C@_06ICBHNALF@MAP907@			; `string'
PUBLIC	??_C@_06FIPMMHK@MAP908@				; `string'
PUBLIC	??_C@_06BMJEPNDL@MAP909@			; `string'
PUBLIC	??_C@_06MMJECMEF@MAP910@			; `string'
PUBLIC	??_C@_06NFIPBNAE@MAP911@			; `string'
PUBLIC	??_C@_06POKCEOMH@MAP912@			; `string'
PUBLIC	??_C@_06OHLJHPIG@MAP913@			; `string'
PUBLIC	??_C@_06KIPIOJEB@MAP914@			; `string'
PUBLIC	??_C@_06LBODNIAA@MAP915@			; `string'
PUBLIC	??_C@_06JKMOILMD@MAP916@			; `string'
PUBLIC	??_C@_06IDNFLKIC@MAP917@			; `string'
PUBLIC	??_C@_06EENKGEN@MAP918@				; `string'
PUBLIC	??_C@_06BNFGJHAM@MAP919@			; `string'
PUBLIC	??_C@_06MONCJCBM@MAP920@			; `string'
PUBLIC	??_C@_06NHMJKDFN@MAP921@			; `string'
PUBLIC	??_C@_06PMOEPAJO@MAP922@			; `string'
PUBLIC	??_C@_06OFPPMBNP@MAP923@			; `string'
PUBLIC	??_C@_06KKLOFHBI@MAP924@			; `string'
PUBLIC	??_C@_06LDKFGGFJ@MAP925@			; `string'
PUBLIC	??_C@_06JIIIDFJK@MAP926@			; `string'
PUBLIC	??_C@_06IBJDAENL@MAP927@			; `string'
PUBLIC	??_C@_06GALBIBE@MAP928@				; `string'
PUBLIC	??_C@_06BPBACJFF@MAP929@			; `string'
PUBLIC	??_C@_06MPBAPICL@MAP930@			; `string'
PUBLIC	??_C@_06NGALMJGK@MAP931@			; `string'
PUBLIC	??_C@_06PNCGJKKJ@MAP932@			; `string'
PUBLIC	??_C@_06OEDNKLOI@MAP933@			; `string'
PUBLIC	??_C@_06KLHMDNCP@MAP934@			; `string'
PUBLIC	??_C@_06LCGHAMGO@MAP935@			; `string'
PUBLIC	??_C@_06JJEKFPKN@MAP936@			; `string'
PUBLIC	??_C@_06IAFBGOOM@MAP937@			; `string'
PUBLIC	??_C@_06HMJHCCD@MAP938@				; `string'
PUBLIC	??_C@_06BONCEDGC@MAP939@			; `string'
PUBLIC	??_C@_06MKFPOOKO@MAP940@			; `string'
PUBLIC	??_C@_06NDEENPOP@MAP941@			; `string'
PUBLIC	??_C@_06PIGJIMCM@MAP942@			; `string'
PUBLIC	??_C@_06OBHCLNGN@MAP943@			; `string'
PUBLIC	??_C@_06KODDCLKK@MAP944@			; `string'
PUBLIC	??_C@_06LHCIBKOL@MAP945@			; `string'
PUBLIC	??_C@_06JMAFEJCI@MAP946@			; `string'
PUBLIC	??_C@_06IFBOHIGJ@MAP947@			; `string'
PUBLIC	??_C@_06CIGGEKG@MAP948@				; `string'
PUBLIC	??_C@_06BLJNFFOH@MAP949@			; `string'
PUBLIC	??_C@_06MLJNIEJJ@MAP950@			; `string'
PUBLIC	??_C@_06NCIGLFNI@MAP951@			; `string'
PUBLIC	??_C@_06PJKLOGBL@MAP952@			; `string'
PUBLIC	??_C@_06OALANHFK@MAP953@			; `string'
PUBLIC	??_C@_06KPPBEBJN@MAP954@			; `string'
PUBLIC	??_C@_06LGOKHANM@MAP955@			; `string'
PUBLIC	??_C@_06JNMHCDBP@MAP956@			; `string'
PUBLIC	??_C@_06IENMBCFO@MAP957@			; `string'
PUBLIC	??_C@_06DEEAOJB@MAP958@				; `string'
PUBLIC	??_C@_06BKFPDPNA@MAP959@			; `string'
PUBLIC	??_C@_06MJNLDKMA@MAP960@			; `string'
PUBLIC	??_C@_06NAMAALIB@MAP961@			; `string'
PUBLIC	??_C@_06PLONFIEC@MAP962@			; `string'
PUBLIC	??_C@_06OCPGGJAD@MAP963@			; `string'
PUBLIC	??_C@_06KNLHPPME@MAP964@			; `string'
PUBLIC	??_C@_06LEKMMOIF@MAP965@			; `string'
PUBLIC	??_C@_06JPIBJNEG@MAP966@			; `string'
PUBLIC	??_C@_06IGJKKMAH@MAP967@			; `string'
PUBLIC	??_C@_06BACLAMI@MAP968@				; `string'
PUBLIC	??_C@_06BIBJIBIJ@MAP969@			; `string'
PUBLIC	??_C@_06MIBJFAPH@MAP970@			; `string'
PUBLIC	??_C@_06NBACGBLG@MAP971@			; `string'
PUBLIC	??_C@_06PKCPDCHF@MAP972@			; `string'
PUBLIC	??_C@_06ODDEADDE@MAP973@			; `string'
PUBLIC	??_C@_06KMHFJFPD@MAP974@			; `string'
PUBLIC	??_C@_06LFGOKELC@MAP975@			; `string'
PUBLIC	??_C@_06JOEDPHHB@MAP976@			; `string'
PUBLIC	??_C@_06IHFIMGDA@MAP977@			; `string'
PUBLIC	??_C@_06MANKPP@MAP978@				; `string'
PUBLIC	??_C@_06BJNLOLLO@MAP979@			; `string'
PUBLIC	??_C@_06MDEFBHMK@MAP980@			; `string'
PUBLIC	??_C@_06NKFOCGIL@MAP981@			; `string'
PUBLIC	??_C@_06PBHDHFEI@MAP982@			; `string'
PUBLIC	??_C@_06OIGIEEAJ@MAP983@			; `string'
PUBLIC	??_C@_06KHCJNCMO@MAP984@			; `string'
PUBLIC	??_C@_06LODCODIP@MAP985@			; `string'
PUBLIC	??_C@_06JFBPLAEM@MAP986@			; `string'
PUBLIC	??_C@_06IMAEIBAN@MAP987@			; `string'
PUBLIC	??_C@_06LJMJNMC@MAP988@				; `string'
PUBLIC	??_C@_06BCIHKMID@MAP989@			; `string'
PUBLIC	??_C@_06MCIHHNPN@MAP990@			; `string'
PUBLIC	??_C@_06NLJMEMLM@MAP991@			; `string'
PUBLIC	??_C@_06PALBBPHP@MAP992@			; `string'
PUBLIC	??_C@_06OJKKCODO@MAP993@			; `string'
PUBLIC	??_C@_06KGOLLIPJ@MAP994@			; `string'
PUBLIC	??_C@_06LPPAIJLI@MAP995@			; `string'
PUBLIC	??_C@_06JENNNKHL@MAP996@			; `string'
PUBLIC	??_C@_06INMGOLDK@MAP997@			; `string'
PUBLIC	??_C@_06KFOPHPF@MAP998@				; `string'
PUBLIC	??_C@_06BDEFMGLE@MAP999@			; `string'
PUBLIC	??_C@_07FBPADLGE@MAP1000@			; `string'
PUBLIC	??_C@_07EIOLAKCF@MAP1001@			; `string'
PUBLIC	??_C@_07GDMGFJOG@MAP1002@			; `string'
PUBLIC	??_C@_07HKNNGIKH@MAP1003@			; `string'
PUBLIC	??_C@_07DFJMPOGA@MAP1004@			; `string'
PUBLIC	??_C@_07CMIHMPCB@MAP1005@			; `string'
PUBLIC	??_C@_07HKKJMOC@MAP1006@			; `string'
PUBLIC	??_C@_07BOLBKNKD@MAP1007@			; `string'
PUBLIC	??_C@_07JJCJLBGM@MAP1008@			; `string'
PUBLIC	??_C@_07IADCIACN@MAP1009@			; `string'
PUBLIC	??_C@_07FADCFBFD@MAP1010@			; `string'
PUBLIC	??_C@_07EJCJGABC@MAP1011@			; `string'
PUBLIC	??_C@_07GCAEDDNB@MAP1012@			; `string'
PUBLIC	??_C@_07HLBPACJA@MAP1013@			; `string'
PUBLIC	??_C@_07DEFOJEFH@MAP1014@			; `string'
PUBLIC	??_C@_07CNEFKFBG@MAP1015@			; `string'
PUBLIC	??_C@_07GGIPGNF@MAP1016@			; `string'
PUBLIC	??_C@_07BPHDMHJE@MAP1017@			; `string'
PUBLIC	??_C@_07JIOLNLFL@MAP1018@			; `string'
PUBLIC	??_C@_07IBPAOKBK@MAP1019@			; `string'
PUBLIC	??_C@_07FCHEOPAK@MAP1020@			; `string'
PUBLIC	??_C@_07ELGPNOEL@MAP1021@			; `string'
PUBLIC	??_C@_07GAECINII@MAP1022@			; `string'
PUBLIC	??_C@_07HJFJLMMJ@MAP1023@			; `string'
PUBLIC	??_C@_07DGBICKAO@MAP1024@			; `string'
PUBLIC	??_C@_07CPADBLEP@MAP1025@			; `string'
PUBLIC	??_C@_07ECOEIIM@MAP1026@			; `string'
PUBLIC	??_C@_07BNDFHJMN@MAP1027@			; `string'
PUBLIC	??_C@_07JKKNGFAC@MAP1028@			; `string'
PUBLIC	??_C@_07IDLGFEED@MAP1029@			; `string'
PUBLIC	??_C@_07FDLGIFDN@MAP1030@			; `string'
PUBLIC	??_C@_07EKKNLEHM@MAP1031@			; `string'
PUBLIC	??_C@_07GBIAOHLP@MAP1032@			; `string'
PUBLIC	??_C@_07HIJLNGPO@MAP1033@			; `string'
PUBLIC	??_C@_07DHNKEADJ@MAP1034@			; `string'
PUBLIC	??_C@_07COMBHBHI@MAP1035@			; `string'
PUBLIC	??_C@_07MCHHMPMB@nextmap@			; `string'
PUBLIC	??_C@_0BA@GCLAIBNI@sonic?$AA?$AA?$AA?$AA?$AA?$AA?$AA?$AA?$AA?$AA@ ; `string'
PUBLIC	??_C@_0L@HOPLAOAI@chooseskin@			; `string'
PUBLIC	??_C@_04CJHPDIMF@Coop@				; `string'
PUBLIC	??_C@_05FKEBLKAO@Match@				; `string'
PUBLIC	??_C@_0L@LAOGNCMC@Team?5Match@			; `string'
PUBLIC	??_C@_04KKIPOOLE@Race@				; `string'
PUBLIC	??_C@_0N@HJJKODGK@Classic?5Race@		; `string'
PUBLIC	??_C@_03PJHNOEGB@Tag@				; `string'
PUBLIC	??_C@_0O@NNDKJCLH@Hide?5and?5Seek@		; `string'
PUBLIC	??_C@_03JKIMLJNP@CTF@				; `string'
PUBLIC	??_C@_0M@LAFKIDDC@newgametype@			; `string'
PUBLIC	??_C@_09CJBILMAG@Game?5Type@			; `string'
PUBLIC	??_C@_0BG@MLEPJNJO@Advertise?5on?5Internet@	; `string'
PUBLIC	??_C@_05KOHFLOFG@Level@				; `string'
PUBLIC	??_C@_05FHMJPCKA@Start@				; `string'
PUBLIC	_Serverdef
PUBLIC	??_C@_0N@IAAPIHAI@Start?5Server@		; `string'
PUBLIC	??_C@_0N@PBKLIPB@Change?5Level@			; `string'
PUBLIC	_ChangeLevelDef
PUBLIC	??_C@_0M@CKKBCHJC@Select?5Team@			; `string'
PUBLIC	??_C@_07KFLFCEAO@Confirm@			; `string'
PUBLIC	_ChangeTeamDef
PUBLIC	??_C@_0M@NPGFALIE@Change?5Team@			; `string'
PUBLIC	??_C@_0BA@CONBKCME@Scramble?5Method@		; `string'
PUBLIC	_TeamScrambleDef
PUBLIC	??_C@_0P@IMNCILHE@Scramble?5Teams@		; `string'
PUBLIC	??_C@_09KHJLDOGO@HOST?5GAME@			; `string'
PUBLIC	??_C@_0BF@HCDPIHPJ@JOIN?5GAME?5?$CIInternet?$CJ@ ; `string'
PUBLIC	??_C@_0BA@IDEPENBD@JOIN?5GAME?5?$CILAN?$CJ@	; `string'
PUBLIC	??_C@_0BH@KPBOMJON@JOIN?5GAME?5?$CISpecify?5IP?$CJ@ ; `string'
PUBLIC	??_C@_0BA@BPOLLGPH@TWO?5PLAYER?5GAME@		; `string'
PUBLIC	??_C@_0BA@BBGFJJCL@NETWORK?5OPTIONS@		; `string'
PUBLIC	??_C@_0N@IGHAIACE@SETUP?5PLAYER@		; `string'
PUBLIC	??_C@_0P@MJGNPGGH@SETUP?5PLAYER?52@		; `string'
PUBLIC	??_C@_08DKDLDHEI@END?5GAME@			; `string'
PUBLIC	??_C@_07CFCBKCFI@M_MULTI@			; `string'
PUBLIC	??_C@_0M@HOINAANG@Multiplayer@			; `string'
PUBLIC	??_C@_0BJ@GFAKFMCM@Second?5Mouse?5Serial?5Port@	; `string'
PUBLIC	??_C@_0M@BDDJFBE@Use?5Mouse?52@			; `string'
PUBLIC	??_C@_0N@OMPLOIED@Mouse2?5Speed@		; `string'
PUBLIC	??_C@_0BB@KEGGIKEO@Always?5MouseLook@		; `string'
PUBLIC	??_C@_0L@GEFBMDDG@Mouse?5Move@			; `string'
PUBLIC	??_C@_0O@EOGFHHGC@Invert?5Mouse2@		; `string'
PUBLIC	??_C@_0M@KBJPCFEH@Mlook?5Speed@			; `string'
PUBLIC	_SecondMouseCfgdef
PUBLIC	??_C@_08LKGFJEJH@M_OPTTTL@			; `string'
PUBLIC	??_C@_07KDKMIPIP@OPTIONS@			; `string'
PUBLIC	??_C@_09LPFILBGF@Your?5name@			; `string'
PUBLIC	??_C@_0L@JGOLJJBO@Your?5color@			; `string'
PUBLIC	??_C@_0M@KDLJEAHE@Your?5player@			; `string'
PUBLIC	??_C@_0BC@MLNMPNND@Setup?5Controls?4?4?4@	; `string'
PUBLIC	??_C@_0BH@HAHOOOK@Second?5Mouse?5config?4?4?4@	; `string'
PUBLIC	??_C@_07OLGAJEJN@M_PICKP@			; `string'
PUBLIC	??_C@_05MBFAGOBK@SONIC@				; `string'
PUBLIC	??_C@_05LCLLAIMA@TAILS@				; `string'
PUBLIC	??_C@_08JICBNHOH@KNUCKLES@			; `string'
PUBLIC	??_C@_07MFIPBJAI@PLAYER4@			; `string'
PUBLIC	??_C@_07NMJECIEJ@PLAYER5@			; `string'
PUBLIC	??_C@_07PHLJHLIK@PLAYER6@			; `string'
PUBLIC	??_C@_07OOKCEKML@PLAYER7@			; `string'
PUBLIC	??_C@_07GJDKFGAE@PLAYER8@			; `string'
PUBLIC	??_C@_07HACBGHEF@PLAYER9@			; `string'
PUBLIC	??_C@_08NHJDPDDD@PLAYER10@			; `string'
PUBLIC	??_C@_08MOIIMCHC@PLAYER11@			; `string'
PUBLIC	??_C@_08OFKFJBLB@PLAYER12@			; `string'
PUBLIC	??_C@_08PMLOKAPA@PLAYER13@			; `string'
PUBLIC	??_C@_08LDPPDGDH@PLAYER14@			; `string'
PUBLIC	??_C@_08KKOEAHHG@PLAYER15@			; `string'
PUBLIC	??_C@_0BG@LOEPDJFL@Choose?5Your?5Character@	; `string'
PUBLIC	??_C@_06NPAAKFED@Player@			; `string'
PUBLIC	??_C@_06LBCKINCK@Replay@			; `string'
PUBLIC	??_C@_0BC@CBIBPELE@Start?5?$CINo?5Record?$CJ@	; `string'
PUBLIC	??_C@_0P@PGLBMODG@Start?5?$CIRecord?$CJ@	; `string'
PUBLIC	??_C@_0BH@BKAIAIKE@Erase?5Time?5Attack?5Data@	; `string'
PUBLIC	??_C@_0BD@POPHDFGA@Erase?5Secrets?5Data@	; `string'
PUBLIC	_DataOptionsDef
PUBLIC	??_C@_0BF@GPGACHPP@Player?51?5Controls?4?4?4@	; `string'
PUBLIC	??_C@_0BF@BDABACCE@Player?52?5Controls?4?4?4@	; `string'
PUBLIC	??_C@_0BE@NLGEPLBF@Joystick?5Options?4?4?4@	; `string'
PUBLIC	??_C@_0BB@DPCCFBBP@Mouse?5Options?4?4?4@	; `string'
PUBLIC	??_C@_0BA@NDALGNMF@Control?5per?5key@		; `string'
PUBLIC	_ControlsDef
PUBLIC	??_C@_0BJ@KGFACILA@Control?5Configuration?4?4?4@ ; `string'
PUBLIC	??_C@_06JCBBMBIP@Camera@			; `string'
PUBLIC	??_C@_0P@DPAEEKKE@Analog?5Control@		; `string'
PUBLIC	??_C@_07FOKEMHAB@Autoaim@			; `string'
PUBLIC	??_C@_09JOIHIAIG@Crosshair@			; `string'
PUBLIC	_OnePControlsDef
PUBLIC	_TwoPControlsDef
PUBLIC	??_C@_0BA@FCJFFKOD@Game?5Options?4?4?4@		; `string'
PUBLIC	??_C@_0BE@MIHBMEAN@Gametype?5Options?4?4?4@	; `string'
PUBLIC	??_C@_0BC@IONJCCHH@Server?5Options?4?4?4@	; `string'
PUBLIC	??_C@_0BB@GFIJKFEG@Sound?5Options?4?4?4@	; `string'
PUBLIC	??_C@_0BB@JHNOOAMH@Video?5Options?4?4?4@	; `string'
PUBLIC	??_C@_0N@BOMJPEGC@Level?5Select@		; `string'
PUBLIC	??_C@_0M@OHCNEKBN@SRB1?5Remake@			; `string'
PUBLIC	??_C@_0BC@HHPLLDPH@Sonic?5Into?5Dreams@		; `string'
PUBLIC	??_C@_0BC@CBHOBIIP@Mario?5Koopa?5Blast@		; `string'
PUBLIC	_UnlockChecklistDef
PUBLIC	_CustomChecklistDef
PUBLIC	??_C@_0BC@KNHHNDPI@Secrets?5Checklist@		; `string'
PUBLIC	??_C@_0P@INAABHFP@Ultimate?5Cheat@		; `string'
PUBLIC	??_C@_0L@IOEHPHNJ@Sound?5Test@			; `string'
PUBLIC	??_C@_07JMGDFJEK@Gravity@			; `string'
PUBLIC	??_C@_0M@OBJFODL@Throw?5Rings@			; `string'
PUBLIC	??_C@_0BB@MPKJINNG@Get?5All?5Emeralds@		; `string'
PUBLIC	??_C@_0BD@OKJFLHBF@Destroy?5All?5Robots@	; `string'
PUBLIC	??_C@_0O@FEDJDPFC@Beta?5Showcase@		; `string'
PUBLIC	??_C@_0N@LBCBILIL@Bonus?5Levels@		; `string'
PUBLIC	??_C@_07OHGMJLOA@Custom1@			; `string'
PUBLIC	??_C@_07MMEBMICD@Custom2@			; `string'
PUBLIC	??_C@_07NFFKPJGC@Custom3@			; `string'
PUBLIC	??_C@_07JKBLGPKF@Custom4@			; `string'
PUBLIC	??_C@_07IDAAFOOE@Custom5@			; `string'
PUBLIC	??_C@_07KICNANCH@Custom6@			; `string'
PUBLIC	??_C@_07LBDGDMGG@Custom7@			; `string'
PUBLIC	??_C@_07DGKOCAKJ@Custom8@			; `string'
PUBLIC	??_C@_07CPLFBBOI@Custom9@			; `string'
PUBLIC	??_C@_08HPKLLIBA@Custom10@			; `string'
PUBLIC	??_C@_08GGLAIJFB@Custom11@			; `string'
PUBLIC	??_C@_08ENJNNKJC@Custom12@			; `string'
PUBLIC	??_C@_08FEIGOLND@Custom13@			; `string'
PUBLIC	??_C@_08BLMHHNBE@Custom14@			; `string'
PUBLIC	??_C@_08CNMEMFF@Custom15@			; `string'
PUBLIC	??_C@_0BC@IHMDDBIB@SRB1?5Level?5Select@		; `string'
PUBLIC	??_C@_0BC@BCNHIBFP@Neo?5Aerial?5Garden@		; `string'
PUBLIC	??_C@_0P@JCJDPGMD@Video?5Modes?4?4?4@		; `string'
PUBLIC	??_C@_0BD@FELBJLGK@3D?5Card?5Options?4?4?4@	; `string'
PUBLIC	??_C@_0L@JCLLFKLB@Brightness@			; `string'
PUBLIC	??_C@_06PBECKDNL@V?9SYNC@			; `string'
PUBLIC	??_C@_0BC@BOEPICCK@Rain?1Snow?5Density@		; `string'
PUBLIC	??_C@_0BE@ENJIPHCK@Rain?1Snow?5Draw?5Dist@	; `string'
PUBLIC	??_C@_09LMMLKIFK@FPS?5Meter@			; `string'
PUBLIC	??_C@_09GHKIFCLN@Use?5Mouse@			; `string'
PUBLIC	??_C@_0N@KJCDGHGC@Invert?5Mouse@		; `string'
PUBLIC	??_C@_0M@FHIPPBDA@Mouse?5Speed@			; `string'
PUBLIC	??_C@_08FLPNBFBF@Show?5HUD@			; `string'
PUBLIC	??_C@_0BB@CIAPPEJF@HUD?5Player?5Names@		; `string'
PUBLIC	??_C@_0BG@EHGBELJN@High?5Resolution?5Timer@	; `string'
PUBLIC	??_C@_0O@OMGNCNBP@Console?5Color@		; `string'
PUBLIC	??_C@_0BC@JHAJCEJB@Uppercase?5Console@		; `string'
PUBLIC	??_C@_0BA@HDAAEHKL@Data?5Options?4?4?4@		; `string'
PUBLIC	??_C@_0L@KCNGICBH@Time?5Limit@			; `string'
PUBLIC	??_C@_0M@MCIGOLA@Point?5Limit@			; `string'
PUBLIC	??_C@_0BF@FEPAJPMM@Special?5Ring?5Weapons@	; `string'
PUBLIC	??_C@_08MHBHIIHE@Emeralds@			; `string'
PUBLIC	??_C@_0L@OJAPOEPA@Item?5Boxes@			; `string'
PUBLIC	??_C@_0N@PJAHAPGP@Item?5Respawn@		; `string'
PUBLIC	??_C@_0BC@JGGFIAJK@Item?5Respawn?5time@		; `string'
PUBLIC	??_C@_0BH@HLMNLKOD@Server?5controls?5skin?5?$CD@ ; `string'
PUBLIC	??_C@_0N@GEFGBLGK@Sudden?5Death@		; `string'
PUBLIC	??_C@_0BD@JOBIPPI@Intermission?5Timer@		; `string'
PUBLIC	??_C@_0BE@GGICAEJH@Advance?5to?5next?5map@	; `string'
PUBLIC	??_C@_0BK@IHAADEAM@Random?5Monitor?5Toggles?4?4?4@ ; `string'
PUBLIC	??_C@_0BA@KFANFAKC@Coop?5options?4?4?4@		; `string'
PUBLIC	??_C@_0BA@IDOMGDDM@Race?5options?4?4?4@		; `string'
PUBLIC	??_C@_0BB@BFJKPJJ@Match?5options?4?4?4@		; `string'
PUBLIC	??_C@_0P@IJGPKIDF@Tag?5options?4?4?4@		; `string'
PUBLIC	??_C@_0P@BHJBIAMJ@CTF?5options?4?4?4@		; `string'
PUBLIC	_GametypeOptionsDef
PUBLIC	??_C@_0BB@HENINJA@Players?5for?5exit@		; `string'
PUBLIC	??_C@_0P@BFGLEOEG@Number?5of?5Laps@		; `string'
PUBLIC	??_C@_0P@PDPONBFI@Countdown?5Time@		; `string'
PUBLIC	??_C@_0N@MBFEOIOF@Scoring?5Type@		; `string'
PUBLIC	??_C@_0BA@MGFBLMJK@Team?5Match?5Type@		; `string'
PUBLIC	??_C@_0BF@CBGAOEIF@Overtime?5Tie?9Breaker@	; `string'
PUBLIC	??_C@_09DIGDDJAE@Hide?5Time@			; `string'
PUBLIC	??_C@_0BC@ODKEOMIE@Flag?5Respawn?5Time@		; `string'
PUBLIC	??_C@_0M@DBGIEMMJ@Autobalance@			; `string'
PUBLIC	??_C@_0P@EGLHEONM@Team?5Scrambler@		; `string'
PUBLIC	??_C@_08LHFNHBJG@Recycler@			; `string'
PUBLIC	??_C@_0M@IDHCJEOP@Teleporters@			; `string'
PUBLIC	??_C@_0L@BNLPCNLM@Super?5Ring@			; `string'
PUBLIC	??_C@_0P@BPPHIHOE@Super?5Sneakers@		; `string'
PUBLIC	??_C@_0O@DEAPMFFE@Invincibility@		; `string'
PUBLIC	??_C@_0M@NCNLEGAE@Jump?5Shield@			; `string'
PUBLIC	??_C@_0BB@IEFJKFBK@Elemental?5Shield@		; `string'
PUBLIC	??_C@_0BC@LCBDNGLP@Attraction?5Shield@		; `string'
PUBLIC	??_C@_0N@OKCFAGHJ@Force?5Shield@		; `string'
PUBLIC	??_C@_0BC@OEMPJAFB@Armageddon?5Shield@		; `string'
PUBLIC	??_C@_04EAOGKDEH@1?5Up@				; `string'
PUBLIC	??_C@_0L@DIDOFEJK@Eggman?5Box@			; `string'
PUBLIC	??_C@_0BA@BNNNNDOK@Internet?5server@		; `string'
PUBLIC	??_C@_0O@BNEKDMAC@Master?5server@		; `string'
PUBLIC	??_C@_0M@IGAEJANM@Server?5name@			; `string'
PUBLIC	??_C@_0BC@KMINAODO@Allow?5join?5player@		; `string'
PUBLIC	??_C@_0BG@KKJLKPFK@Allow?5WAD?5Downloading@	; `string'
PUBLIC	??_C@_0M@KNBGJLJF@Max?5Players@			; `string'
PUBLIC	??_C@_0BH@IMDHPOBF@Consistency?5Protection@	; `string'
PUBLIC	??_C@_0N@EHKOAFEG@Sound?5Volume@		; `string'
PUBLIC	??_C@_0N@IBGIBGEC@Music?5Volume@		; `string'
PUBLIC	??_C@_0M@HKPELEEF@MIDI?5Volume@			; `string'
PUBLIC	??_C@_0L@JEPMOLJJ@Toggle?5SFX@			; `string'
PUBLIC	??_C@_0BF@OCCAGLEC@Toggle?5Digital?5Music@	; `string'
PUBLIC	??_C@_0BC@PFINEHMK@Toggle?5MIDI?5Music@		; `string'
PUBLIC	??_C@_06MEIKBIL@M_SVOL@				; `string'
PUBLIC	??_C@_0BC@FBLLHOLF@Player?51?5Joystick@		; `string'
PUBLIC	??_C@_0BD@JIEEICEB@Select?5Joystick?4?4?4@	; `string'
PUBLIC	??_C@_0BB@BMIJGADJ@Axis?5For?5Turning@		; `string'
PUBLIC	??_C@_0BA@NKAGGEPP@Axis?5For?5Moving@		; `string'
PUBLIC	??_C@_0BA@IIOHMMCB@Axis?5For?5Strafe@		; `string'
PUBLIC	??_C@_0BB@HNBBHBC@Axis?5For?5Looking@		; `string'
PUBLIC	??_C@_0BA@PLNIHFNI@Axis?5For?5Firing@		; `string'
PUBLIC	??_C@_0BB@KEHIHKMO@Axis?5For?5NFiring@		; `string'
PUBLIC	??_C@_0BC@MIFJBILE@Player?52?5Joystick@		; `string'
PUBLIC	??_C@_08IKLFOOPP@M_CONTRO@			; `string'
PUBLIC	??_C@_0P@PILIMKEI@Setup?5Joystick@		; `string'
PUBLIC	??_C@_04OHJIHAFH@None@				; `string'
PUBLIC	??_C@_0BA@FICHDAMO@Select?5Joystick@		; `string'
PUBLIC	??_C@_07NALHMFBO@Forward@			; `string'
PUBLIC	??_C@_07FHPCIAHC@Reverse@			; `string'
PUBLIC	??_C@_09LCBMCKFL@Turn?5Left@			; `string'
PUBLIC	??_C@_0L@OGPEJLDP@Turn?5Right@			; `string'
PUBLIC	??_C@_04BIEPDJCB@Jump@				; `string'
PUBLIC	??_C@_04JBCJKLOD@Spin@				; `string'
PUBLIC	??_C@_09CBPLEBLF@Ring?5Toss@			; `string'
PUBLIC	??_C@_0BB@EPMANIOJ@Ring?5Toss?5Normal@		; `string'
PUBLIC	??_C@_05CIILEADG@Taunt@				; `string'
PUBLIC	??_C@_09BCEJBPBI@Toss?5Flag@			; `string'
PUBLIC	??_C@_09IPFINODH@Strafe?5On@			; `string'
PUBLIC	??_C@_0M@GGMECGAO@Strafe?5Left@			; `string'
PUBLIC	??_C@_0N@PNCBOGEI@Strafe?5Right@		; `string'
PUBLIC	??_C@_07GLCLAKHI@Look?5Up@			; `string'
PUBLIC	??_C@_09PIAJLAMM@Look?5Down@			; `string'
PUBLIC	??_C@_0M@LLHKMOAD@Center?5View@			; `string'
PUBLIC	??_C@_09GPOHNNCP@Mouselook@			; `string'
PUBLIC	??_C@_04CJGEDOF@next@				; `string'
PUBLIC	??_C@_0P@MIALJLPD@Setup?5Controls@		; `string'
PUBLIC	??_C@_08JJCLBGHE@Talk?5key@			; `string'
PUBLIC	??_C@_0O@BBPGCFOO@Team?9Talk?5key@		; `string'
PUBLIC	??_C@_0BA@GIBJCGBN@Rankings?1Scores@		; `string'
PUBLIC	??_C@_07PGLPGHFC@Console@			; `string'
PUBLIC	??_C@_0M@EIPCPGC@Next?5Weapon@			; `string'
PUBLIC	??_C@_0M@JKMNOCBG@Prev?5Weapon@			; `string'
PUBLIC	??_C@_0O@BDJEDBCP@Weapon?5Slot?51@		; `string'
PUBLIC	??_C@_0O@DILJGCOM@Weapon?5Slot?52@		; `string'
PUBLIC	??_C@_0O@CBKCFDKN@Weapon?5Slot?53@		; `string'
PUBLIC	??_C@_0O@GOODMFGK@Weapon?5Slot?54@		; `string'
PUBLIC	??_C@_0O@HHPIPECL@Weapon?5Slot?55@		; `string'
PUBLIC	??_C@_0O@FMNFKHOI@Weapon?5Slot?56@		; `string'
PUBLIC	??_C@_0O@EFMOJGKJ@Weapon?5Slot?57@		; `string'
PUBLIC	??_C@_0BA@ODACKHM@Rotate?5Camera?5L@		; `string'
PUBLIC	??_C@_0BA@NKHBBFKD@Rotate?5Camera?5R@		; `string'
PUBLIC	??_C@_0N@NNBJMKBI@Reset?5Camera@		; `string'
PUBLIC	??_C@_05PEDNBBBD@Pause@				; `string'
PUBLIC	??_C@_07GHCKGMKN@M_VIDEO@			; `string'
PUBLIC	??_C@_0L@FOCFLGDA@Video?5Mode@			; `string'
PUBLIC	??_C@_07OOODBAAL@M_PICKG@			; `string'
PUBLIC	??_C@_09EOPBCAJJ@Load?5Game@			; `string'
PUBLIC	_MessageDef
PUBLIC	??_C@_0O@FGEEFGGF@Field?5of?5view@		; `string'
PUBLIC	??_C@_07MJEANAEL@Quality@			; `string'
PUBLIC	??_C@_0P@JCONCFCP@Texture?5Filter@		; `string'
PUBLIC	??_C@_0M@OHBPMNLF@Anisotropic@			; `string'
PUBLIC	??_C@_0L@OOJOFIBJ@Fullscreen@			; `string'
PUBLIC	??_C@_0BA@IKJHKILP@Translucent?5HUD@		; `string'
PUBLIC	??_C@_06OOMBMMNL@Fog?4?4?4@			; `string'
PUBLIC	??_C@_08DMCEPACN@Gamma?4?4?4@			; `string'
PUBLIC	??_C@_03JPDFGHP@Fog@				; `string'
PUBLIC	??_C@_09KDOIHMJP@Fog?5color@			; `string'
PUBLIC	??_C@_0M@MDBKFHFI@Fog?5density@			; `string'
PUBLIC	??_C@_0N@OEAKGAGI@Software?5Fog@		; `string'
PUBLIC	??_C@_03FAAAOPJM@red@				; `string'
PUBLIC	??_C@_05GBEEJKMC@green@				; `string'
PUBLIC	??_C@_04OBGPFBCN@blue@				; `string'
PUBLIC	_OpenGLOptionDef
EXTRN	_cv_scr_depth:BYTE
EXTRN	_cv_fullscreen:BYTE
EXTRN	_cv_vidwait:BYTE
EXTRN	_cv_playercolor:BYTE
EXTRN	_cv_seenames:BYTE
EXTRN	_cv_usemouse:BYTE
EXTRN	_cv_controlperkey:BYTE
EXTRN	_cv_mouse2port:BYTE
EXTRN	_cv_usemouse2:BYTE
EXTRN	_cv_invertmouse2:BYTE
EXTRN	_cv_alwaysfreelook2:BYTE
EXTRN	_cv_mousemove2:BYTE
EXTRN	_cv_mousesens2:BYTE
EXTRN	_cv_mlooksens2:BYTE
EXTRN	_cv_itemrespawntime:BYTE
EXTRN	_cv_itemrespawn:BYTE
EXTRN	_cv_flagtime:BYTE
EXTRN	_cv_suddendeath:BYTE
EXTRN	_cv_hidetime:BYTE
EXTRN	_cv_matchtype:BYTE
EXTRN	_cv_pointlimit:BYTE
EXTRN	_cv_timelimit:BYTE
EXTRN	_cv_numlaps:BYTE
EXTRN	_cv_autobalance:BYTE
EXTRN	_cv_scrambleonchange:BYTE
EXTRN	_cv_useranalog:BYTE
EXTRN	_cv_useranalog2:BYTE
EXTRN	_cv_countdowntime:BYTE
EXTRN	_cv_teleporters:BYTE
EXTRN	_cv_superring:BYTE
EXTRN	_cv_supersneakers:BYTE
EXTRN	_cv_invincibility:BYTE
EXTRN	_cv_jumpshield:BYTE
EXTRN	_cv_watershield:BYTE
EXTRN	_cv_ringshield:BYTE
EXTRN	_cv_forceshield:BYTE
EXTRN	_cv_bombshield:BYTE
EXTRN	_cv_1up:BYTE
EXTRN	_cv_eggmanbox:BYTE
EXTRN	_cv_recycler:BYTE
EXTRN	_cv_inttime:BYTE
EXTRN	_cv_advancemap:BYTE
EXTRN	_cv_playersforexit:BYTE
EXTRN	_cv_match_scoring:BYTE
EXTRN	_cv_overtime:BYTE
EXTRN	_cv_autoaim:BYTE
EXTRN	_cv_autoaim2:BYTE
EXTRN	_cv_ringslinger:BYTE
EXTRN	_cv_soundtest:BYTE
EXTRN	_cv_specialrings:BYTE
EXTRN	_cv_powerstones:BYTE
EXTRN	_cv_matchboxes:BYTE
EXTRN	_cv_raceitemboxes:BYTE
EXTRN	_cv_dummyteam:BYTE
EXTRN	_cv_dummyscramble:BYTE
EXTRN	_cons_backcolor:BYTE
EXTRN	_cv_showhud:BYTE
EXTRN	_cv_grtranslucenthud:BYTE
EXTRN	_cv_chasecam:BYTE
EXTRN	_cv_chasecam2:BYTE
EXTRN	_cv_precipdensity:BYTE
EXTRN	_cv_precipdist:BYTE
EXTRN	_cv_allownewplayer:BYTE
EXTRN	_cv_maxplayers:BYTE
EXTRN	_cv_consfailprotect:BYTE
EXTRN	_cv_timetic:BYTE
EXTRN	_cv_forceskin:BYTE
EXTRN	_cv_downloading:BYTE
EXTRN	_cv_crosshair:BYTE
EXTRN	_cv_crosshair2:BYTE
EXTRN	_cv_invertmouse:BYTE
EXTRN	_cv_alwaysfreelook:BYTE
EXTRN	_cv_mousemove:BYTE
EXTRN	_cv_sideaxis:BYTE
EXTRN	_cv_turnaxis:BYTE
EXTRN	_cv_moveaxis:BYTE
EXTRN	_cv_lookaxis:BYTE
EXTRN	_cv_fireaxis:BYTE
EXTRN	_cv_firenaxis:BYTE
EXTRN	_cv_sideaxis2:BYTE
EXTRN	_cv_turnaxis2:BYTE
EXTRN	_cv_moveaxis2:BYTE
EXTRN	_cv_lookaxis2:BYTE
EXTRN	_cv_fireaxis2:BYTE
EXTRN	_cv_firenaxis2:BYTE
EXTRN	_cv_mousesens:BYTE
EXTRN	_cv_mlooksens:BYTE
EXTRN	_cv_soundvolume:BYTE
EXTRN	_cv_digmusicvolume:BYTE
EXTRN	_cv_midimusicvolume:BYTE
EXTRN	_cv_ticrate:BYTE
EXTRN	_cv_usegamma:BYTE
EXTRN	_cv_allcaps:BYTE
EXTRN	_cv_gravity:BYTE
EXTRN	_cv_grfov:BYTE
EXTRN	_cv_grfog:BYTE
EXTRN	_cv_grfogdensity:BYTE
EXTRN	_cv_grsoftwarefog:BYTE
EXTRN	_cv_grgammared:BYTE
EXTRN	_cv_grgammagreen:BYTE
EXTRN	_cv_grgammablue:BYTE
EXTRN	_cv_grfiltermode:BYTE
EXTRN	_cv_granisotropicmode:BYTE
EXTRN	_cv_masterserver:BYTE
EXTRN	_cv_servername:BYTE
EXTRN	_cv_internetserver:BYTE
_DATA	SEGMENT
COMM	_ATTRPACK:DWORD
_DATA	ENDS
_BSS	SEGMENT
_fromlevelselect DD 01H DUP (?)
_menuactive DD	01H DUP (?)
_BSS	ENDS
_DATA	SEGMENT
COMM	_customsecretinfo:BYTE:08acH
_DATA	ENDS
_BSS	SEGMENT
_inlevelselect DD 01H DUP (?)
_BSS	ENDS
_DATA	SEGMENT
COMM	_startmap:WORD
COMM	_ultmode:DWORD
COMM	_StartSplitScreenGame:DWORD
COMM	_cv_chosenroom_motd:DWORD
_DATA	ENDS
_BSS	SEGMENT
_MessageMenu DB	014H DUP (?)
_BSS	ENDS
;	COMDAT ??_C@_04OBGPFBCN@blue@
CONST	SEGMENT
??_C@_04OBGPFBCN@blue@ DB 'blue', 00H			; `string'
CONST	ENDS
;	COMDAT ??_C@_05GBEEJKMC@green@
CONST	SEGMENT
??_C@_05GBEEJKMC@green@ DB 'green', 00H			; `string'
CONST	ENDS
;	COMDAT ??_C@_03FAAAOPJM@red@
CONST	SEGMENT
??_C@_03FAAAOPJM@red@ DB 'red', 00H			; `string'
CONST	ENDS
;	COMDAT ??_C@_0N@OEAKGAGI@Software?5Fog@
CONST	SEGMENT
??_C@_0N@OEAKGAGI@Software?5Fog@ DB 'Software Fog', 00H	; `string'
CONST	ENDS
;	COMDAT ??_C@_0M@MDBKFHFI@Fog?5density@
CONST	SEGMENT
??_C@_0M@MDBKFHFI@Fog?5density@ DB 'Fog density', 00H	; `string'
CONST	ENDS
;	COMDAT ??_C@_09KDOIHMJP@Fog?5color@
CONST	SEGMENT
??_C@_09KDOIHMJP@Fog?5color@ DB 'Fog color', 00H	; `string'
CONST	ENDS
;	COMDAT ??_C@_03JPDFGHP@Fog@
CONST	SEGMENT
??_C@_03JPDFGHP@Fog@ DB 'Fog', 00H			; `string'
CONST	ENDS
;	COMDAT ??_C@_08DMCEPACN@Gamma?4?4?4@
CONST	SEGMENT
??_C@_08DMCEPACN@Gamma?4?4?4@ DB 'Gamma...', 00H	; `string'
CONST	ENDS
;	COMDAT ??_C@_06OOMBMMNL@Fog?4?4?4@
CONST	SEGMENT
??_C@_06OOMBMMNL@Fog?4?4?4@ DB 'Fog...', 00H		; `string'
CONST	ENDS
;	COMDAT ??_C@_0BA@IKJHKILP@Translucent?5HUD@
CONST	SEGMENT
??_C@_0BA@IKJHKILP@Translucent?5HUD@ DB 'Translucent HUD', 00H ; `string'
CONST	ENDS
;	COMDAT ??_C@_0L@OOJOFIBJ@Fullscreen@
CONST	SEGMENT
??_C@_0L@OOJOFIBJ@Fullscreen@ DB 'Fullscreen', 00H	; `string'
CONST	ENDS
;	COMDAT ??_C@_0M@OHBPMNLF@Anisotropic@
CONST	SEGMENT
??_C@_0M@OHBPMNLF@Anisotropic@ DB 'Anisotropic', 00H	; `string'
CONST	ENDS
;	COMDAT ??_C@_0P@JCONCFCP@Texture?5Filter@
CONST	SEGMENT
??_C@_0P@JCONCFCP@Texture?5Filter@ DB 'Texture Filter', 00H ; `string'
CONST	ENDS
;	COMDAT ??_C@_07MJEANAEL@Quality@
CONST	SEGMENT
??_C@_07MJEANAEL@Quality@ DB 'Quality', 00H		; `string'
CONST	ENDS
;	COMDAT ??_C@_0O@FGEEFGGF@Field?5of?5view@
CONST	SEGMENT
??_C@_0O@FGEEFGGF@Field?5of?5view@ DB 'Field of view', 00H ; `string'
CONST	ENDS
;	COMDAT ??_C@_09EOPBCAJJ@Load?5Game@
CONST	SEGMENT
??_C@_09EOPBCAJJ@Load?5Game@ DB 'Load Game', 00H	; `string'
CONST	ENDS
;	COMDAT ??_C@_07OOODBAAL@M_PICKG@
CONST	SEGMENT
??_C@_07OOODBAAL@M_PICKG@ DB 'M_PICKG', 00H		; `string'
CONST	ENDS
;	COMDAT ??_C@_0L@FOCFLGDA@Video?5Mode@
CONST	SEGMENT
??_C@_0L@FOCFLGDA@Video?5Mode@ DB 'Video Mode', 00H	; `string'
CONST	ENDS
;	COMDAT ??_C@_07GHCKGMKN@M_VIDEO@
CONST	SEGMENT
??_C@_07GHCKGMKN@M_VIDEO@ DB 'M_VIDEO', 00H		; `string'
CONST	ENDS
;	COMDAT ??_C@_05PEDNBBBD@Pause@
CONST	SEGMENT
??_C@_05PEDNBBBD@Pause@ DB 'Pause', 00H			; `string'
CONST	ENDS
;	COMDAT ??_C@_0N@NNBJMKBI@Reset?5Camera@
CONST	SEGMENT
??_C@_0N@NNBJMKBI@Reset?5Camera@ DB 'Reset Camera', 00H	; `string'
CONST	ENDS
;	COMDAT ??_C@_0BA@NKHBBFKD@Rotate?5Camera?5R@
CONST	SEGMENT
??_C@_0BA@NKHBBFKD@Rotate?5Camera?5R@ DB 'Rotate Camera R', 00H ; `string'
CONST	ENDS
;	COMDAT ??_C@_0BA@ODACKHM@Rotate?5Camera?5L@
CONST	SEGMENT
??_C@_0BA@ODACKHM@Rotate?5Camera?5L@ DB 'Rotate Camera L', 00H ; `string'
CONST	ENDS
;	COMDAT ??_C@_0O@EFMOJGKJ@Weapon?5Slot?57@
CONST	SEGMENT
??_C@_0O@EFMOJGKJ@Weapon?5Slot?57@ DB 'Weapon Slot 7', 00H ; `string'
CONST	ENDS
;	COMDAT ??_C@_0O@FMNFKHOI@Weapon?5Slot?56@
CONST	SEGMENT
??_C@_0O@FMNFKHOI@Weapon?5Slot?56@ DB 'Weapon Slot 6', 00H ; `string'
CONST	ENDS
;	COMDAT ??_C@_0O@HHPIPECL@Weapon?5Slot?55@
CONST	SEGMENT
??_C@_0O@HHPIPECL@Weapon?5Slot?55@ DB 'Weapon Slot 5', 00H ; `string'
CONST	ENDS
;	COMDAT ??_C@_0O@GOODMFGK@Weapon?5Slot?54@
CONST	SEGMENT
??_C@_0O@GOODMFGK@Weapon?5Slot?54@ DB 'Weapon Slot 4', 00H ; `string'
CONST	ENDS
;	COMDAT ??_C@_0O@CBKCFDKN@Weapon?5Slot?53@
CONST	SEGMENT
??_C@_0O@CBKCFDKN@Weapon?5Slot?53@ DB 'Weapon Slot 3', 00H ; `string'
CONST	ENDS
;	COMDAT ??_C@_0O@DILJGCOM@Weapon?5Slot?52@
CONST	SEGMENT
??_C@_0O@DILJGCOM@Weapon?5Slot?52@ DB 'Weapon Slot 2', 00H ; `string'
CONST	ENDS
;	COMDAT ??_C@_0O@BDJEDBCP@Weapon?5Slot?51@
CONST	SEGMENT
??_C@_0O@BDJEDBCP@Weapon?5Slot?51@ DB 'Weapon Slot 1', 00H ; `string'
CONST	ENDS
;	COMDAT ??_C@_0M@JKMNOCBG@Prev?5Weapon@
CONST	SEGMENT
??_C@_0M@JKMNOCBG@Prev?5Weapon@ DB 'Prev Weapon', 00H	; `string'
CONST	ENDS
;	COMDAT ??_C@_0M@EIPCPGC@Next?5Weapon@
CONST	SEGMENT
??_C@_0M@EIPCPGC@Next?5Weapon@ DB 'Next Weapon', 00H	; `string'
CONST	ENDS
;	COMDAT ??_C@_07PGLPGHFC@Console@
CONST	SEGMENT
??_C@_07PGLPGHFC@Console@ DB 'Console', 00H		; `string'
CONST	ENDS
;	COMDAT ??_C@_0BA@GIBJCGBN@Rankings?1Scores@
CONST	SEGMENT
??_C@_0BA@GIBJCGBN@Rankings?1Scores@ DB 'Rankings/Scores', 00H ; `string'
CONST	ENDS
;	COMDAT ??_C@_0O@BBPGCFOO@Team?9Talk?5key@
CONST	SEGMENT
??_C@_0O@BBPGCFOO@Team?9Talk?5key@ DB 'Team-Talk key', 00H ; `string'
CONST	ENDS
;	COMDAT ??_C@_08JJCLBGHE@Talk?5key@
CONST	SEGMENT
??_C@_08JJCLBGHE@Talk?5key@ DB 'Talk key', 00H		; `string'
CONST	ENDS
;	COMDAT ??_C@_0P@MIALJLPD@Setup?5Controls@
CONST	SEGMENT
??_C@_0P@MIALJLPD@Setup?5Controls@ DB 'Setup Controls', 00H ; `string'
CONST	ENDS
;	COMDAT ??_C@_04CJGEDOF@next@
CONST	SEGMENT
??_C@_04CJGEDOF@next@ DB 'next', 00H			; `string'
CONST	ENDS
;	COMDAT ??_C@_09GPOHNNCP@Mouselook@
CONST	SEGMENT
??_C@_09GPOHNNCP@Mouselook@ DB 'Mouselook', 00H		; `string'
CONST	ENDS
;	COMDAT ??_C@_0M@LLHKMOAD@Center?5View@
CONST	SEGMENT
??_C@_0M@LLHKMOAD@Center?5View@ DB 'Center View', 00H	; `string'
CONST	ENDS
;	COMDAT ??_C@_09PIAJLAMM@Look?5Down@
CONST	SEGMENT
??_C@_09PIAJLAMM@Look?5Down@ DB 'Look Down', 00H	; `string'
CONST	ENDS
;	COMDAT ??_C@_07GLCLAKHI@Look?5Up@
CONST	SEGMENT
??_C@_07GLCLAKHI@Look?5Up@ DB 'Look Up', 00H		; `string'
CONST	ENDS
;	COMDAT ??_C@_0N@PNCBOGEI@Strafe?5Right@
CONST	SEGMENT
??_C@_0N@PNCBOGEI@Strafe?5Right@ DB 'Strafe Right', 00H	; `string'
CONST	ENDS
;	COMDAT ??_C@_0M@GGMECGAO@Strafe?5Left@
CONST	SEGMENT
??_C@_0M@GGMECGAO@Strafe?5Left@ DB 'Strafe Left', 00H	; `string'
CONST	ENDS
;	COMDAT ??_C@_09IPFINODH@Strafe?5On@
CONST	SEGMENT
??_C@_09IPFINODH@Strafe?5On@ DB 'Strafe On', 00H	; `string'
CONST	ENDS
;	COMDAT ??_C@_09BCEJBPBI@Toss?5Flag@
CONST	SEGMENT
??_C@_09BCEJBPBI@Toss?5Flag@ DB 'Toss Flag', 00H	; `string'
CONST	ENDS
;	COMDAT ??_C@_05CIILEADG@Taunt@
CONST	SEGMENT
??_C@_05CIILEADG@Taunt@ DB 'Taunt', 00H			; `string'
CONST	ENDS
;	COMDAT ??_C@_0BB@EPMANIOJ@Ring?5Toss?5Normal@
CONST	SEGMENT
??_C@_0BB@EPMANIOJ@Ring?5Toss?5Normal@ DB 'Ring Toss Normal', 00H ; `string'
CONST	ENDS
;	COMDAT ??_C@_09CBPLEBLF@Ring?5Toss@
CONST	SEGMENT
??_C@_09CBPLEBLF@Ring?5Toss@ DB 'Ring Toss', 00H	; `string'
CONST	ENDS
;	COMDAT ??_C@_04JBCJKLOD@Spin@
CONST	SEGMENT
??_C@_04JBCJKLOD@Spin@ DB 'Spin', 00H			; `string'
CONST	ENDS
;	COMDAT ??_C@_04BIEPDJCB@Jump@
CONST	SEGMENT
??_C@_04BIEPDJCB@Jump@ DB 'Jump', 00H			; `string'
CONST	ENDS
;	COMDAT ??_C@_0L@OGPEJLDP@Turn?5Right@
CONST	SEGMENT
??_C@_0L@OGPEJLDP@Turn?5Right@ DB 'Turn Right', 00H	; `string'
CONST	ENDS
;	COMDAT ??_C@_09LCBMCKFL@Turn?5Left@
CONST	SEGMENT
??_C@_09LCBMCKFL@Turn?5Left@ DB 'Turn Left', 00H	; `string'
CONST	ENDS
;	COMDAT ??_C@_07FHPCIAHC@Reverse@
CONST	SEGMENT
??_C@_07FHPCIAHC@Reverse@ DB 'Reverse', 00H		; `string'
CONST	ENDS
;	COMDAT ??_C@_07NALHMFBO@Forward@
CONST	SEGMENT
??_C@_07NALHMFBO@Forward@ DB 'Forward', 00H		; `string'
CONST	ENDS
;	COMDAT ??_C@_0BA@FICHDAMO@Select?5Joystick@
CONST	SEGMENT
??_C@_0BA@FICHDAMO@Select?5Joystick@ DB 'Select Joystick', 00H ; `string'
CONST	ENDS
;	COMDAT ??_C@_04OHJIHAFH@None@
CONST	SEGMENT
??_C@_04OHJIHAFH@None@ DB 'None', 00H			; `string'
CONST	ENDS
;	COMDAT ??_C@_0P@PILIMKEI@Setup?5Joystick@
CONST	SEGMENT
??_C@_0P@PILIMKEI@Setup?5Joystick@ DB 'Setup Joystick', 00H ; `string'
CONST	ENDS
;	COMDAT ??_C@_08IKLFOOPP@M_CONTRO@
CONST	SEGMENT
??_C@_08IKLFOOPP@M_CONTRO@ DB 'M_CONTRO', 00H		; `string'
CONST	ENDS
;	COMDAT ??_C@_0BC@MIFJBILE@Player?52?5Joystick@
CONST	SEGMENT
??_C@_0BC@MIFJBILE@Player?52?5Joystick@ DB 'Player 2 Joystick', 00H ; `string'
CONST	ENDS
;	COMDAT ??_C@_0BB@KEHIHKMO@Axis?5For?5NFiring@
CONST	SEGMENT
??_C@_0BB@KEHIHKMO@Axis?5For?5NFiring@ DB 'Axis For NFiring', 00H ; `string'
CONST	ENDS
;	COMDAT ??_C@_0BA@PLNIHFNI@Axis?5For?5Firing@
CONST	SEGMENT
??_C@_0BA@PLNIHFNI@Axis?5For?5Firing@ DB 'Axis For Firing', 00H ; `string'
CONST	ENDS
;	COMDAT ??_C@_0BB@HNBBHBC@Axis?5For?5Looking@
CONST	SEGMENT
??_C@_0BB@HNBBHBC@Axis?5For?5Looking@ DB 'Axis For Looking', 00H ; `string'
CONST	ENDS
;	COMDAT ??_C@_0BA@IIOHMMCB@Axis?5For?5Strafe@
CONST	SEGMENT
??_C@_0BA@IIOHMMCB@Axis?5For?5Strafe@ DB 'Axis For Strafe', 00H ; `string'
CONST	ENDS
;	COMDAT ??_C@_0BA@NKAGGEPP@Axis?5For?5Moving@
CONST	SEGMENT
??_C@_0BA@NKAGGEPP@Axis?5For?5Moving@ DB 'Axis For Moving', 00H ; `string'
CONST	ENDS
;	COMDAT ??_C@_0BB@BMIJGADJ@Axis?5For?5Turning@
CONST	SEGMENT
??_C@_0BB@BMIJGADJ@Axis?5For?5Turning@ DB 'Axis For Turning', 00H ; `string'
CONST	ENDS
;	COMDAT ??_C@_0BD@JIEEICEB@Select?5Joystick?4?4?4@
CONST	SEGMENT
??_C@_0BD@JIEEICEB@Select?5Joystick?4?4?4@ DB 'Select Joystick...', 00H ; `string'
CONST	ENDS
;	COMDAT ??_C@_0BC@FBLLHOLF@Player?51?5Joystick@
CONST	SEGMENT
??_C@_0BC@FBLLHOLF@Player?51?5Joystick@ DB 'Player 1 Joystick', 00H ; `string'
CONST	ENDS
;	COMDAT ??_C@_06MEIKBIL@M_SVOL@
CONST	SEGMENT
??_C@_06MEIKBIL@M_SVOL@ DB 'M_SVOL', 00H		; `string'
CONST	ENDS
;	COMDAT ??_C@_0BC@PFINEHMK@Toggle?5MIDI?5Music@
CONST	SEGMENT
??_C@_0BC@PFINEHMK@Toggle?5MIDI?5Music@ DB 'Toggle MIDI Music', 00H ; `string'
CONST	ENDS
;	COMDAT ??_C@_0BF@OCCAGLEC@Toggle?5Digital?5Music@
CONST	SEGMENT
??_C@_0BF@OCCAGLEC@Toggle?5Digital?5Music@ DB 'Toggle Digital Music', 00H ; `string'
CONST	ENDS
;	COMDAT ??_C@_0L@JEPMOLJJ@Toggle?5SFX@
CONST	SEGMENT
??_C@_0L@JEPMOLJJ@Toggle?5SFX@ DB 'Toggle SFX', 00H	; `string'
CONST	ENDS
;	COMDAT ??_C@_0M@HKPELEEF@MIDI?5Volume@
CONST	SEGMENT
??_C@_0M@HKPELEEF@MIDI?5Volume@ DB 'MIDI Volume', 00H	; `string'
CONST	ENDS
;	COMDAT ??_C@_0N@IBGIBGEC@Music?5Volume@
CONST	SEGMENT
??_C@_0N@IBGIBGEC@Music?5Volume@ DB 'Music Volume', 00H	; `string'
CONST	ENDS
;	COMDAT ??_C@_0N@EHKOAFEG@Sound?5Volume@
CONST	SEGMENT
??_C@_0N@EHKOAFEG@Sound?5Volume@ DB 'Sound Volume', 00H	; `string'
CONST	ENDS
;	COMDAT ??_C@_0BH@IMDHPOBF@Consistency?5Protection@
CONST	SEGMENT
??_C@_0BH@IMDHPOBF@Consistency?5Protection@ DB 'Consistency Protection', 00H ; `string'
CONST	ENDS
;	COMDAT ??_C@_0M@KNBGJLJF@Max?5Players@
CONST	SEGMENT
??_C@_0M@KNBGJLJF@Max?5Players@ DB 'Max Players', 00H	; `string'
CONST	ENDS
;	COMDAT ??_C@_0BG@KKJLKPFK@Allow?5WAD?5Downloading@
CONST	SEGMENT
??_C@_0BG@KKJLKPFK@Allow?5WAD?5Downloading@ DB 'Allow WAD Downloading', 00H ; `string'
CONST	ENDS
;	COMDAT ??_C@_0BC@KMINAODO@Allow?5join?5player@
CONST	SEGMENT
??_C@_0BC@KMINAODO@Allow?5join?5player@ DB 'Allow join player', 00H ; `string'
CONST	ENDS
;	COMDAT ??_C@_0M@IGAEJANM@Server?5name@
CONST	SEGMENT
??_C@_0M@IGAEJANM@Server?5name@ DB 'Server name', 00H	; `string'
CONST	ENDS
;	COMDAT ??_C@_0O@BNEKDMAC@Master?5server@
CONST	SEGMENT
??_C@_0O@BNEKDMAC@Master?5server@ DB 'Master server', 00H ; `string'
CONST	ENDS
;	COMDAT ??_C@_0BA@BNNNNDOK@Internet?5server@
CONST	SEGMENT
??_C@_0BA@BNNNNDOK@Internet?5server@ DB 'Internet server', 00H ; `string'
CONST	ENDS
;	COMDAT ??_C@_0L@DIDOFEJK@Eggman?5Box@
CONST	SEGMENT
??_C@_0L@DIDOFEJK@Eggman?5Box@ DB 'Eggman Box', 00H	; `string'
CONST	ENDS
;	COMDAT ??_C@_04EAOGKDEH@1?5Up@
CONST	SEGMENT
??_C@_04EAOGKDEH@1?5Up@ DB '1 Up', 00H			; `string'
CONST	ENDS
;	COMDAT ??_C@_0BC@OEMPJAFB@Armageddon?5Shield@
CONST	SEGMENT
??_C@_0BC@OEMPJAFB@Armageddon?5Shield@ DB 'Armageddon Shield', 00H ; `string'
CONST	ENDS
;	COMDAT ??_C@_0N@OKCFAGHJ@Force?5Shield@
CONST	SEGMENT
??_C@_0N@OKCFAGHJ@Force?5Shield@ DB 'Force Shield', 00H	; `string'
CONST	ENDS
;	COMDAT ??_C@_0BC@LCBDNGLP@Attraction?5Shield@
CONST	SEGMENT
??_C@_0BC@LCBDNGLP@Attraction?5Shield@ DB 'Attraction Shield', 00H ; `string'
CONST	ENDS
;	COMDAT ??_C@_0BB@IEFJKFBK@Elemental?5Shield@
CONST	SEGMENT
??_C@_0BB@IEFJKFBK@Elemental?5Shield@ DB 'Elemental Shield', 00H ; `string'
CONST	ENDS
;	COMDAT ??_C@_0M@NCNLEGAE@Jump?5Shield@
CONST	SEGMENT
??_C@_0M@NCNLEGAE@Jump?5Shield@ DB 'Jump Shield', 00H	; `string'
CONST	ENDS
;	COMDAT ??_C@_0O@DEAPMFFE@Invincibility@
CONST	SEGMENT
??_C@_0O@DEAPMFFE@Invincibility@ DB 'Invincibility', 00H ; `string'
CONST	ENDS
;	COMDAT ??_C@_0P@BPPHIHOE@Super?5Sneakers@
CONST	SEGMENT
??_C@_0P@BPPHIHOE@Super?5Sneakers@ DB 'Super Sneakers', 00H ; `string'
CONST	ENDS
;	COMDAT ??_C@_0L@BNLPCNLM@Super?5Ring@
CONST	SEGMENT
??_C@_0L@BNLPCNLM@Super?5Ring@ DB 'Super Ring', 00H	; `string'
CONST	ENDS
;	COMDAT ??_C@_0M@IDHCJEOP@Teleporters@
CONST	SEGMENT
??_C@_0M@IDHCJEOP@Teleporters@ DB 'Teleporters', 00H	; `string'
CONST	ENDS
;	COMDAT ??_C@_08LHFNHBJG@Recycler@
CONST	SEGMENT
??_C@_08LHFNHBJG@Recycler@ DB 'Recycler', 00H		; `string'
CONST	ENDS
;	COMDAT ??_C@_0P@EGLHEONM@Team?5Scrambler@
CONST	SEGMENT
??_C@_0P@EGLHEONM@Team?5Scrambler@ DB 'Team Scrambler', 00H ; `string'
CONST	ENDS
;	COMDAT ??_C@_0M@DBGIEMMJ@Autobalance@
CONST	SEGMENT
??_C@_0M@DBGIEMMJ@Autobalance@ DB 'Autobalance', 00H	; `string'
CONST	ENDS
;	COMDAT ??_C@_0BC@ODKEOMIE@Flag?5Respawn?5Time@
CONST	SEGMENT
??_C@_0BC@ODKEOMIE@Flag?5Respawn?5Time@ DB 'Flag Respawn Time', 00H ; `string'
CONST	ENDS
;	COMDAT ??_C@_09DIGDDJAE@Hide?5Time@
CONST	SEGMENT
??_C@_09DIGDDJAE@Hide?5Time@ DB 'Hide Time', 00H	; `string'
CONST	ENDS
;	COMDAT ??_C@_0BF@CBGAOEIF@Overtime?5Tie?9Breaker@
CONST	SEGMENT
??_C@_0BF@CBGAOEIF@Overtime?5Tie?9Breaker@ DB 'Overtime Tie-Breaker', 00H ; `string'
CONST	ENDS
;	COMDAT ??_C@_0BA@MGFBLMJK@Team?5Match?5Type@
CONST	SEGMENT
??_C@_0BA@MGFBLMJK@Team?5Match?5Type@ DB 'Team Match Type', 00H ; `string'
CONST	ENDS
;	COMDAT ??_C@_0N@MBFEOIOF@Scoring?5Type@
CONST	SEGMENT
??_C@_0N@MBFEOIOF@Scoring?5Type@ DB 'Scoring Type', 00H	; `string'
CONST	ENDS
;	COMDAT ??_C@_0P@PDPONBFI@Countdown?5Time@
CONST	SEGMENT
??_C@_0P@PDPONBFI@Countdown?5Time@ DB 'Countdown Time', 00H ; `string'
CONST	ENDS
;	COMDAT ??_C@_0P@BFGLEOEG@Number?5of?5Laps@
CONST	SEGMENT
??_C@_0P@BFGLEOEG@Number?5of?5Laps@ DB 'Number of Laps', 00H ; `string'
CONST	ENDS
;	COMDAT ??_C@_0BB@HENINJA@Players?5for?5exit@
CONST	SEGMENT
??_C@_0BB@HENINJA@Players?5for?5exit@ DB 'Players for exit', 00H ; `string'
CONST	ENDS
;	COMDAT ??_C@_0P@BHJBIAMJ@CTF?5options?4?4?4@
CONST	SEGMENT
??_C@_0P@BHJBIAMJ@CTF?5options?4?4?4@ DB 'CTF options...', 00H ; `string'
CONST	ENDS
;	COMDAT ??_C@_0P@IJGPKIDF@Tag?5options?4?4?4@
CONST	SEGMENT
??_C@_0P@IJGPKIDF@Tag?5options?4?4?4@ DB 'Tag options...', 00H ; `string'
CONST	ENDS
;	COMDAT ??_C@_0BB@BFJKPJJ@Match?5options?4?4?4@
CONST	SEGMENT
??_C@_0BB@BFJKPJJ@Match?5options?4?4?4@ DB 'Match options...', 00H ; `string'
CONST	ENDS
;	COMDAT ??_C@_0BA@IDOMGDDM@Race?5options?4?4?4@
CONST	SEGMENT
??_C@_0BA@IDOMGDDM@Race?5options?4?4?4@ DB 'Race options...', 00H ; `string'
CONST	ENDS
;	COMDAT ??_C@_0BA@KFANFAKC@Coop?5options?4?4?4@
CONST	SEGMENT
??_C@_0BA@KFANFAKC@Coop?5options?4?4?4@ DB 'Coop options...', 00H ; `string'
CONST	ENDS
;	COMDAT ??_C@_0BK@IHAADEAM@Random?5Monitor?5Toggles?4?4?4@
CONST	SEGMENT
??_C@_0BK@IHAADEAM@Random?5Monitor?5Toggles?4?4?4@ DB 'Random Monitor Tog'
	DB	'gles...', 00H				; `string'
CONST	ENDS
;	COMDAT ??_C@_0BE@GGICAEJH@Advance?5to?5next?5map@
CONST	SEGMENT
??_C@_0BE@GGICAEJH@Advance?5to?5next?5map@ DB 'Advance to next map', 00H ; `string'
CONST	ENDS
;	COMDAT ??_C@_0BD@JOBIPPI@Intermission?5Timer@
CONST	SEGMENT
??_C@_0BD@JOBIPPI@Intermission?5Timer@ DB 'Intermission Timer', 00H ; `string'
CONST	ENDS
;	COMDAT ??_C@_0N@GEFGBLGK@Sudden?5Death@
CONST	SEGMENT
??_C@_0N@GEFGBLGK@Sudden?5Death@ DB 'Sudden Death', 00H	; `string'
CONST	ENDS
;	COMDAT ??_C@_0BH@HLMNLKOD@Server?5controls?5skin?5?$CD@
CONST	SEGMENT
??_C@_0BH@HLMNLKOD@Server?5controls?5skin?5?$CD@ DB 'Server controls skin'
	DB	' #', 00H					; `string'
CONST	ENDS
;	COMDAT ??_C@_0BC@JGGFIAJK@Item?5Respawn?5time@
CONST	SEGMENT
??_C@_0BC@JGGFIAJK@Item?5Respawn?5time@ DB 'Item Respawn time', 00H ; `string'
CONST	ENDS
;	COMDAT ??_C@_0N@PJAHAPGP@Item?5Respawn@
CONST	SEGMENT
??_C@_0N@PJAHAPGP@Item?5Respawn@ DB 'Item Respawn', 00H	; `string'
CONST	ENDS
;	COMDAT ??_C@_0L@OJAPOEPA@Item?5Boxes@
CONST	SEGMENT
??_C@_0L@OJAPOEPA@Item?5Boxes@ DB 'Item Boxes', 00H	; `string'
CONST	ENDS
;	COMDAT ??_C@_08MHBHIIHE@Emeralds@
CONST	SEGMENT
??_C@_08MHBHIIHE@Emeralds@ DB 'Emeralds', 00H		; `string'
CONST	ENDS
;	COMDAT ??_C@_0BF@FEPAJPMM@Special?5Ring?5Weapons@
CONST	SEGMENT
??_C@_0BF@FEPAJPMM@Special?5Ring?5Weapons@ DB 'Special Ring Weapons', 00H ; `string'
CONST	ENDS
;	COMDAT ??_C@_0M@MCIGOLA@Point?5Limit@
CONST	SEGMENT
??_C@_0M@MCIGOLA@Point?5Limit@ DB 'Point Limit', 00H	; `string'
CONST	ENDS
;	COMDAT ??_C@_0L@KCNGICBH@Time?5Limit@
CONST	SEGMENT
??_C@_0L@KCNGICBH@Time?5Limit@ DB 'Time Limit', 00H	; `string'
CONST	ENDS
;	COMDAT ??_C@_0BA@HDAAEHKL@Data?5Options?4?4?4@
CONST	SEGMENT
??_C@_0BA@HDAAEHKL@Data?5Options?4?4?4@ DB 'Data Options...', 00H ; `string'
CONST	ENDS
;	COMDAT ??_C@_0BC@JHAJCEJB@Uppercase?5Console@
CONST	SEGMENT
??_C@_0BC@JHAJCEJB@Uppercase?5Console@ DB 'Uppercase Console', 00H ; `string'
CONST	ENDS
;	COMDAT ??_C@_0O@OMGNCNBP@Console?5Color@
CONST	SEGMENT
??_C@_0O@OMGNCNBP@Console?5Color@ DB 'Console Color', 00H ; `string'
CONST	ENDS
;	COMDAT ??_C@_0BG@EHGBELJN@High?5Resolution?5Timer@
CONST	SEGMENT
??_C@_0BG@EHGBELJN@High?5Resolution?5Timer@ DB 'High Resolution Timer', 00H ; `string'
CONST	ENDS
;	COMDAT ??_C@_0BB@CIAPPEJF@HUD?5Player?5Names@
CONST	SEGMENT
??_C@_0BB@CIAPPEJF@HUD?5Player?5Names@ DB 'HUD Player Names', 00H ; `string'
CONST	ENDS
;	COMDAT ??_C@_08FLPNBFBF@Show?5HUD@
CONST	SEGMENT
??_C@_08FLPNBFBF@Show?5HUD@ DB 'Show HUD', 00H		; `string'
CONST	ENDS
;	COMDAT ??_C@_0M@FHIPPBDA@Mouse?5Speed@
CONST	SEGMENT
??_C@_0M@FHIPPBDA@Mouse?5Speed@ DB 'Mouse Speed', 00H	; `string'
CONST	ENDS
;	COMDAT ??_C@_0N@KJCDGHGC@Invert?5Mouse@
CONST	SEGMENT
??_C@_0N@KJCDGHGC@Invert?5Mouse@ DB 'Invert Mouse', 00H	; `string'
CONST	ENDS
;	COMDAT ??_C@_09GHKIFCLN@Use?5Mouse@
CONST	SEGMENT
??_C@_09GHKIFCLN@Use?5Mouse@ DB 'Use Mouse', 00H	; `string'
CONST	ENDS
;	COMDAT ??_C@_09LMMLKIFK@FPS?5Meter@
CONST	SEGMENT
??_C@_09LMMLKIFK@FPS?5Meter@ DB 'FPS Meter', 00H	; `string'
CONST	ENDS
;	COMDAT ??_C@_0BE@ENJIPHCK@Rain?1Snow?5Draw?5Dist@
CONST	SEGMENT
??_C@_0BE@ENJIPHCK@Rain?1Snow?5Draw?5Dist@ DB 'Rain/Snow Draw Dist', 00H ; `string'
CONST	ENDS
;	COMDAT ??_C@_0BC@BOEPICCK@Rain?1Snow?5Density@
CONST	SEGMENT
??_C@_0BC@BOEPICCK@Rain?1Snow?5Density@ DB 'Rain/Snow Density', 00H ; `string'
CONST	ENDS
;	COMDAT ??_C@_06PBECKDNL@V?9SYNC@
CONST	SEGMENT
??_C@_06PBECKDNL@V?9SYNC@ DB 'V-SYNC', 00H		; `string'
CONST	ENDS
;	COMDAT ??_C@_0L@JCLLFKLB@Brightness@
CONST	SEGMENT
??_C@_0L@JCLLFKLB@Brightness@ DB 'Brightness', 00H	; `string'
CONST	ENDS
;	COMDAT ??_C@_0BD@FELBJLGK@3D?5Card?5Options?4?4?4@
CONST	SEGMENT
??_C@_0BD@FELBJLGK@3D?5Card?5Options?4?4?4@ DB '3D Card Options...', 00H ; `string'
CONST	ENDS
;	COMDAT ??_C@_0P@JCJDPGMD@Video?5Modes?4?4?4@
CONST	SEGMENT
??_C@_0P@JCJDPGMD@Video?5Modes?4?4?4@ DB 'Video Modes...', 00H ; `string'
CONST	ENDS
;	COMDAT ??_C@_0BC@BCNHIBFP@Neo?5Aerial?5Garden@
CONST	SEGMENT
??_C@_0BC@BCNHIBFP@Neo?5Aerial?5Garden@ DB 'Neo Aerial Garden', 00H ; `string'
CONST	ENDS
;	COMDAT ??_C@_0BC@IHMDDBIB@SRB1?5Level?5Select@
CONST	SEGMENT
??_C@_0BC@IHMDDBIB@SRB1?5Level?5Select@ DB 'SRB1 Level Select', 00H ; `string'
CONST	ENDS
;	COMDAT ??_C@_08CNMEMFF@Custom15@
CONST	SEGMENT
??_C@_08CNMEMFF@Custom15@ DB 'Custom15', 00H		; `string'
CONST	ENDS
;	COMDAT ??_C@_08BLMHHNBE@Custom14@
CONST	SEGMENT
??_C@_08BLMHHNBE@Custom14@ DB 'Custom14', 00H		; `string'
CONST	ENDS
;	COMDAT ??_C@_08FEIGOLND@Custom13@
CONST	SEGMENT
??_C@_08FEIGOLND@Custom13@ DB 'Custom13', 00H		; `string'
CONST	ENDS
;	COMDAT ??_C@_08ENJNNKJC@Custom12@
CONST	SEGMENT
??_C@_08ENJNNKJC@Custom12@ DB 'Custom12', 00H		; `string'
CONST	ENDS
;	COMDAT ??_C@_08GGLAIJFB@Custom11@
CONST	SEGMENT
??_C@_08GGLAIJFB@Custom11@ DB 'Custom11', 00H		; `string'
CONST	ENDS
;	COMDAT ??_C@_08HPKLLIBA@Custom10@
CONST	SEGMENT
??_C@_08HPKLLIBA@Custom10@ DB 'Custom10', 00H		; `string'
CONST	ENDS
;	COMDAT ??_C@_07CPLFBBOI@Custom9@
CONST	SEGMENT
??_C@_07CPLFBBOI@Custom9@ DB 'Custom9', 00H		; `string'
CONST	ENDS
;	COMDAT ??_C@_07DGKOCAKJ@Custom8@
CONST	SEGMENT
??_C@_07DGKOCAKJ@Custom8@ DB 'Custom8', 00H		; `string'
CONST	ENDS
;	COMDAT ??_C@_07LBDGDMGG@Custom7@
CONST	SEGMENT
??_C@_07LBDGDMGG@Custom7@ DB 'Custom7', 00H		; `string'
CONST	ENDS
;	COMDAT ??_C@_07KICNANCH@Custom6@
CONST	SEGMENT
??_C@_07KICNANCH@Custom6@ DB 'Custom6', 00H		; `string'
CONST	ENDS
;	COMDAT ??_C@_07IDAAFOOE@Custom5@
CONST	SEGMENT
??_C@_07IDAAFOOE@Custom5@ DB 'Custom5', 00H		; `string'
CONST	ENDS
;	COMDAT ??_C@_07JKBLGPKF@Custom4@
CONST	SEGMENT
??_C@_07JKBLGPKF@Custom4@ DB 'Custom4', 00H		; `string'
CONST	ENDS
;	COMDAT ??_C@_07NFFKPJGC@Custom3@
CONST	SEGMENT
??_C@_07NFFKPJGC@Custom3@ DB 'Custom3', 00H		; `string'
CONST	ENDS
;	COMDAT ??_C@_07MMEBMICD@Custom2@
CONST	SEGMENT
??_C@_07MMEBMICD@Custom2@ DB 'Custom2', 00H		; `string'
CONST	ENDS
;	COMDAT ??_C@_07OHGMJLOA@Custom1@
CONST	SEGMENT
??_C@_07OHGMJLOA@Custom1@ DB 'Custom1', 00H		; `string'
CONST	ENDS
;	COMDAT ??_C@_0N@LBCBILIL@Bonus?5Levels@
CONST	SEGMENT
??_C@_0N@LBCBILIL@Bonus?5Levels@ DB 'Bonus Levels', 00H	; `string'
CONST	ENDS
;	COMDAT ??_C@_0O@FEDJDPFC@Beta?5Showcase@
CONST	SEGMENT
??_C@_0O@FEDJDPFC@Beta?5Showcase@ DB 'Beta Showcase', 00H ; `string'
CONST	ENDS
;	COMDAT ??_C@_0BD@OKJFLHBF@Destroy?5All?5Robots@
CONST	SEGMENT
??_C@_0BD@OKJFLHBF@Destroy?5All?5Robots@ DB 'Destroy All Robots', 00H ; `string'
CONST	ENDS
;	COMDAT ??_C@_0BB@MPKJINNG@Get?5All?5Emeralds@
CONST	SEGMENT
??_C@_0BB@MPKJINNG@Get?5All?5Emeralds@ DB 'Get All Emeralds', 00H ; `string'
CONST	ENDS
;	COMDAT ??_C@_0M@OBJFODL@Throw?5Rings@
CONST	SEGMENT
??_C@_0M@OBJFODL@Throw?5Rings@ DB 'Throw Rings', 00H	; `string'
CONST	ENDS
;	COMDAT ??_C@_07JMGDFJEK@Gravity@
CONST	SEGMENT
??_C@_07JMGDFJEK@Gravity@ DB 'Gravity', 00H		; `string'
CONST	ENDS
;	COMDAT ??_C@_0L@IOEHPHNJ@Sound?5Test@
CONST	SEGMENT
??_C@_0L@IOEHPHNJ@Sound?5Test@ DB 'Sound Test', 00H	; `string'
CONST	ENDS
;	COMDAT ??_C@_0P@INAABHFP@Ultimate?5Cheat@
CONST	SEGMENT
??_C@_0P@INAABHFP@Ultimate?5Cheat@ DB 'Ultimate Cheat', 00H ; `string'
CONST	ENDS
;	COMDAT ??_C@_0BC@KNHHNDPI@Secrets?5Checklist@
CONST	SEGMENT
??_C@_0BC@KNHHNDPI@Secrets?5Checklist@ DB 'Secrets Checklist', 00H ; `string'
CONST	ENDS
;	COMDAT ??_C@_0BC@CBHOBIIP@Mario?5Koopa?5Blast@
CONST	SEGMENT
??_C@_0BC@CBHOBIIP@Mario?5Koopa?5Blast@ DB 'Mario Koopa Blast', 00H ; `string'
CONST	ENDS
;	COMDAT ??_C@_0BC@HHPLLDPH@Sonic?5Into?5Dreams@
CONST	SEGMENT
??_C@_0BC@HHPLLDPH@Sonic?5Into?5Dreams@ DB 'Sonic Into Dreams', 00H ; `string'
CONST	ENDS
;	COMDAT ??_C@_0M@OHCNEKBN@SRB1?5Remake@
CONST	SEGMENT
??_C@_0M@OHCNEKBN@SRB1?5Remake@ DB 'SRB1 Remake', 00H	; `string'
CONST	ENDS
;	COMDAT ??_C@_0N@BOMJPEGC@Level?5Select@
CONST	SEGMENT
??_C@_0N@BOMJPEGC@Level?5Select@ DB 'Level Select', 00H	; `string'
CONST	ENDS
;	COMDAT ??_C@_0BB@JHNOOAMH@Video?5Options?4?4?4@
CONST	SEGMENT
??_C@_0BB@JHNOOAMH@Video?5Options?4?4?4@ DB 'Video Options...', 00H ; `string'
CONST	ENDS
;	COMDAT ??_C@_0BB@GFIJKFEG@Sound?5Options?4?4?4@
CONST	SEGMENT
??_C@_0BB@GFIJKFEG@Sound?5Options?4?4?4@ DB 'Sound Options...', 00H ; `string'
CONST	ENDS
;	COMDAT ??_C@_0BC@IONJCCHH@Server?5Options?4?4?4@
CONST	SEGMENT
??_C@_0BC@IONJCCHH@Server?5Options?4?4?4@ DB 'Server Options...', 00H ; `string'
CONST	ENDS
;	COMDAT ??_C@_0BE@MIHBMEAN@Gametype?5Options?4?4?4@
CONST	SEGMENT
??_C@_0BE@MIHBMEAN@Gametype?5Options?4?4?4@ DB 'Gametype Options...', 00H ; `string'
CONST	ENDS
;	COMDAT ??_C@_0BA@FCJFFKOD@Game?5Options?4?4?4@
CONST	SEGMENT
??_C@_0BA@FCJFFKOD@Game?5Options?4?4?4@ DB 'Game Options...', 00H ; `string'
CONST	ENDS
;	COMDAT ??_C@_09JOIHIAIG@Crosshair@
CONST	SEGMENT
??_C@_09JOIHIAIG@Crosshair@ DB 'Crosshair', 00H		; `string'
CONST	ENDS
;	COMDAT ??_C@_07FOKEMHAB@Autoaim@
CONST	SEGMENT
??_C@_07FOKEMHAB@Autoaim@ DB 'Autoaim', 00H		; `string'
CONST	ENDS
;	COMDAT ??_C@_0P@DPAEEKKE@Analog?5Control@
CONST	SEGMENT
??_C@_0P@DPAEEKKE@Analog?5Control@ DB 'Analog Control', 00H ; `string'
CONST	ENDS
;	COMDAT ??_C@_06JCBBMBIP@Camera@
CONST	SEGMENT
??_C@_06JCBBMBIP@Camera@ DB 'Camera', 00H		; `string'
CONST	ENDS
;	COMDAT ??_C@_0BJ@KGFACILA@Control?5Configuration?4?4?4@
CONST	SEGMENT
??_C@_0BJ@KGFACILA@Control?5Configuration?4?4?4@ DB 'Control Configuratio'
	DB	'n...', 00H					; `string'
CONST	ENDS
;	COMDAT ??_C@_0BA@NDALGNMF@Control?5per?5key@
CONST	SEGMENT
??_C@_0BA@NDALGNMF@Control?5per?5key@ DB 'Control per key', 00H ; `string'
CONST	ENDS
;	COMDAT ??_C@_0BB@DPCCFBBP@Mouse?5Options?4?4?4@
CONST	SEGMENT
??_C@_0BB@DPCCFBBP@Mouse?5Options?4?4?4@ DB 'Mouse Options...', 00H ; `string'
CONST	ENDS
;	COMDAT ??_C@_0BE@NLGEPLBF@Joystick?5Options?4?4?4@
CONST	SEGMENT
??_C@_0BE@NLGEPLBF@Joystick?5Options?4?4?4@ DB 'Joystick Options...', 00H ; `string'
CONST	ENDS
;	COMDAT ??_C@_0BF@BDABACCE@Player?52?5Controls?4?4?4@
CONST	SEGMENT
??_C@_0BF@BDABACCE@Player?52?5Controls?4?4?4@ DB 'Player 2 Controls...', 00H ; `string'
CONST	ENDS
;	COMDAT ??_C@_0BF@GPGACHPP@Player?51?5Controls?4?4?4@
CONST	SEGMENT
??_C@_0BF@GPGACHPP@Player?51?5Controls?4?4?4@ DB 'Player 1 Controls...', 00H ; `string'
CONST	ENDS
;	COMDAT ??_C@_0BD@POPHDFGA@Erase?5Secrets?5Data@
CONST	SEGMENT
??_C@_0BD@POPHDFGA@Erase?5Secrets?5Data@ DB 'Erase Secrets Data', 00H ; `string'
CONST	ENDS
;	COMDAT ??_C@_0BH@BKAIAIKE@Erase?5Time?5Attack?5Data@
CONST	SEGMENT
??_C@_0BH@BKAIAIKE@Erase?5Time?5Attack?5Data@ DB 'Erase Time Attack Data', 00H ; `string'
CONST	ENDS
;	COMDAT ??_C@_0P@PGLBMODG@Start?5?$CIRecord?$CJ@
CONST	SEGMENT
??_C@_0P@PGLBMODG@Start?5?$CIRecord?$CJ@ DB 'Start (Record)', 00H ; `string'
CONST	ENDS
;	COMDAT ??_C@_0BC@CBIBPELE@Start?5?$CINo?5Record?$CJ@
CONST	SEGMENT
??_C@_0BC@CBIBPELE@Start?5?$CINo?5Record?$CJ@ DB 'Start (No Record)', 00H ; `string'
CONST	ENDS
;	COMDAT ??_C@_06LBCKINCK@Replay@
CONST	SEGMENT
??_C@_06LBCKINCK@Replay@ DB 'Replay', 00H		; `string'
CONST	ENDS
;	COMDAT ??_C@_06NPAAKFED@Player@
CONST	SEGMENT
??_C@_06NPAAKFED@Player@ DB 'Player', 00H		; `string'
CONST	ENDS
;	COMDAT ??_C@_0BG@LOEPDJFL@Choose?5Your?5Character@
CONST	SEGMENT
??_C@_0BG@LOEPDJFL@Choose?5Your?5Character@ DB 'Choose Your Character', 00H ; `string'
CONST	ENDS
;	COMDAT ??_C@_08KKOEAHHG@PLAYER15@
CONST	SEGMENT
??_C@_08KKOEAHHG@PLAYER15@ DB 'PLAYER15', 00H		; `string'
CONST	ENDS
;	COMDAT ??_C@_08LDPPDGDH@PLAYER14@
CONST	SEGMENT
??_C@_08LDPPDGDH@PLAYER14@ DB 'PLAYER14', 00H		; `string'
CONST	ENDS
;	COMDAT ??_C@_08PMLOKAPA@PLAYER13@
CONST	SEGMENT
??_C@_08PMLOKAPA@PLAYER13@ DB 'PLAYER13', 00H		; `string'
CONST	ENDS
;	COMDAT ??_C@_08OFKFJBLB@PLAYER12@
CONST	SEGMENT
??_C@_08OFKFJBLB@PLAYER12@ DB 'PLAYER12', 00H		; `string'
CONST	ENDS
;	COMDAT ??_C@_08MOIIMCHC@PLAYER11@
CONST	SEGMENT
??_C@_08MOIIMCHC@PLAYER11@ DB 'PLAYER11', 00H		; `string'
CONST	ENDS
;	COMDAT ??_C@_08NHJDPDDD@PLAYER10@
CONST	SEGMENT
??_C@_08NHJDPDDD@PLAYER10@ DB 'PLAYER10', 00H		; `string'
CONST	ENDS
;	COMDAT ??_C@_07HACBGHEF@PLAYER9@
CONST	SEGMENT
??_C@_07HACBGHEF@PLAYER9@ DB 'PLAYER9', 00H		; `string'
CONST	ENDS
;	COMDAT ??_C@_07GJDKFGAE@PLAYER8@
CONST	SEGMENT
??_C@_07GJDKFGAE@PLAYER8@ DB 'PLAYER8', 00H		; `string'
CONST	ENDS
;	COMDAT ??_C@_07OOKCEKML@PLAYER7@
CONST	SEGMENT
??_C@_07OOKCEKML@PLAYER7@ DB 'PLAYER7', 00H		; `string'
CONST	ENDS
;	COMDAT ??_C@_07PHLJHLIK@PLAYER6@
CONST	SEGMENT
??_C@_07PHLJHLIK@PLAYER6@ DB 'PLAYER6', 00H		; `string'
CONST	ENDS
;	COMDAT ??_C@_07NMJECIEJ@PLAYER5@
CONST	SEGMENT
??_C@_07NMJECIEJ@PLAYER5@ DB 'PLAYER5', 00H		; `string'
CONST	ENDS
;	COMDAT ??_C@_07MFIPBJAI@PLAYER4@
CONST	SEGMENT
??_C@_07MFIPBJAI@PLAYER4@ DB 'PLAYER4', 00H		; `string'
CONST	ENDS
;	COMDAT ??_C@_08JICBNHOH@KNUCKLES@
CONST	SEGMENT
??_C@_08JICBNHOH@KNUCKLES@ DB 'KNUCKLES', 00H		; `string'
CONST	ENDS
;	COMDAT ??_C@_05LCLLAIMA@TAILS@
CONST	SEGMENT
??_C@_05LCLLAIMA@TAILS@ DB 'TAILS', 00H			; `string'
CONST	ENDS
;	COMDAT ??_C@_05MBFAGOBK@SONIC@
CONST	SEGMENT
??_C@_05MBFAGOBK@SONIC@ DB 'SONIC', 00H			; `string'
CONST	ENDS
;	COMDAT ??_C@_07OLGAJEJN@M_PICKP@
CONST	SEGMENT
??_C@_07OLGAJEJN@M_PICKP@ DB 'M_PICKP', 00H		; `string'
CONST	ENDS
;	COMDAT ??_C@_0BH@HAHOOOK@Second?5Mouse?5config?4?4?4@
CONST	SEGMENT
??_C@_0BH@HAHOOOK@Second?5Mouse?5config?4?4?4@ DB 'Second Mouse config...'
	DB	00H						; `string'
CONST	ENDS
;	COMDAT ??_C@_0BC@MLNMPNND@Setup?5Controls?4?4?4@
CONST	SEGMENT
??_C@_0BC@MLNMPNND@Setup?5Controls?4?4?4@ DB 'Setup Controls...', 00H ; `string'
CONST	ENDS
;	COMDAT ??_C@_0M@KDLJEAHE@Your?5player@
CONST	SEGMENT
??_C@_0M@KDLJEAHE@Your?5player@ DB 'Your player', 00H	; `string'
CONST	ENDS
;	COMDAT ??_C@_0L@JGOLJJBO@Your?5color@
CONST	SEGMENT
??_C@_0L@JGOLJJBO@Your?5color@ DB 'Your color', 00H	; `string'
CONST	ENDS
;	COMDAT ??_C@_09LPFILBGF@Your?5name@
CONST	SEGMENT
??_C@_09LPFILBGF@Your?5name@ DB 'Your name', 00H	; `string'
CONST	ENDS
;	COMDAT ??_C@_07KDKMIPIP@OPTIONS@
CONST	SEGMENT
??_C@_07KDKMIPIP@OPTIONS@ DB 'OPTIONS', 00H		; `string'
CONST	ENDS
;	COMDAT ??_C@_08LKGFJEJH@M_OPTTTL@
CONST	SEGMENT
??_C@_08LKGFJEJH@M_OPTTTL@ DB 'M_OPTTTL', 00H		; `string'
CONST	ENDS
;	COMDAT ??_C@_0M@KBJPCFEH@Mlook?5Speed@
CONST	SEGMENT
??_C@_0M@KBJPCFEH@Mlook?5Speed@ DB 'Mlook Speed', 00H	; `string'
CONST	ENDS
;	COMDAT ??_C@_0O@EOGFHHGC@Invert?5Mouse2@
CONST	SEGMENT
??_C@_0O@EOGFHHGC@Invert?5Mouse2@ DB 'Invert Mouse2', 00H ; `string'
CONST	ENDS
;	COMDAT ??_C@_0L@GEFBMDDG@Mouse?5Move@
CONST	SEGMENT
??_C@_0L@GEFBMDDG@Mouse?5Move@ DB 'Mouse Move', 00H	; `string'
CONST	ENDS
;	COMDAT ??_C@_0BB@KEGGIKEO@Always?5MouseLook@
CONST	SEGMENT
??_C@_0BB@KEGGIKEO@Always?5MouseLook@ DB 'Always MouseLook', 00H ; `string'
CONST	ENDS
;	COMDAT ??_C@_0N@OMPLOIED@Mouse2?5Speed@
CONST	SEGMENT
??_C@_0N@OMPLOIED@Mouse2?5Speed@ DB 'Mouse2 Speed', 00H	; `string'
CONST	ENDS
;	COMDAT ??_C@_0M@BDDJFBE@Use?5Mouse?52@
CONST	SEGMENT
??_C@_0M@BDDJFBE@Use?5Mouse?52@ DB 'Use Mouse 2', 00H	; `string'
CONST	ENDS
;	COMDAT ??_C@_0BJ@GFAKFMCM@Second?5Mouse?5Serial?5Port@
CONST	SEGMENT
??_C@_0BJ@GFAKFMCM@Second?5Mouse?5Serial?5Port@ DB 'Second Mouse Serial P'
	DB	'ort', 00H					; `string'
CONST	ENDS
;	COMDAT ??_C@_0M@HOINAANG@Multiplayer@
CONST	SEGMENT
??_C@_0M@HOINAANG@Multiplayer@ DB 'Multiplayer', 00H	; `string'
CONST	ENDS
;	COMDAT ??_C@_07CFCBKCFI@M_MULTI@
CONST	SEGMENT
??_C@_07CFCBKCFI@M_MULTI@ DB 'M_MULTI', 00H		; `string'
CONST	ENDS
;	COMDAT ??_C@_08DKDLDHEI@END?5GAME@
CONST	SEGMENT
??_C@_08DKDLDHEI@END?5GAME@ DB 'END GAME', 00H		; `string'
CONST	ENDS
;	COMDAT ??_C@_0P@MJGNPGGH@SETUP?5PLAYER?52@
CONST	SEGMENT
??_C@_0P@MJGNPGGH@SETUP?5PLAYER?52@ DB 'SETUP PLAYER 2', 00H ; `string'
CONST	ENDS
;	COMDAT ??_C@_0N@IGHAIACE@SETUP?5PLAYER@
CONST	SEGMENT
??_C@_0N@IGHAIACE@SETUP?5PLAYER@ DB 'SETUP PLAYER', 00H	; `string'
CONST	ENDS
;	COMDAT ??_C@_0BA@BBGFJJCL@NETWORK?5OPTIONS@
CONST	SEGMENT
??_C@_0BA@BBGFJJCL@NETWORK?5OPTIONS@ DB 'NETWORK OPTIONS', 00H ; `string'
CONST	ENDS
;	COMDAT ??_C@_0BA@BPOLLGPH@TWO?5PLAYER?5GAME@
CONST	SEGMENT
??_C@_0BA@BPOLLGPH@TWO?5PLAYER?5GAME@ DB 'TWO PLAYER GAME', 00H ; `string'
CONST	ENDS
;	COMDAT ??_C@_0BH@KPBOMJON@JOIN?5GAME?5?$CISpecify?5IP?$CJ@
CONST	SEGMENT
??_C@_0BH@KPBOMJON@JOIN?5GAME?5?$CISpecify?5IP?$CJ@ DB 'JOIN GAME (Specif'
	DB	'y IP)', 00H					; `string'
CONST	ENDS
;	COMDAT ??_C@_0BA@IDEPENBD@JOIN?5GAME?5?$CILAN?$CJ@
CONST	SEGMENT
??_C@_0BA@IDEPENBD@JOIN?5GAME?5?$CILAN?$CJ@ DB 'JOIN GAME (LAN)', 00H ; `string'
CONST	ENDS
;	COMDAT ??_C@_0BF@HCDPIHPJ@JOIN?5GAME?5?$CIInternet?$CJ@
CONST	SEGMENT
??_C@_0BF@HCDPIHPJ@JOIN?5GAME?5?$CIInternet?$CJ@ DB 'JOIN GAME (Internet)'
	DB	00H						; `string'
CONST	ENDS
;	COMDAT ??_C@_09KHJLDOGO@HOST?5GAME@
CONST	SEGMENT
??_C@_09KHJLDOGO@HOST?5GAME@ DB 'HOST GAME', 00H	; `string'
CONST	ENDS
;	COMDAT ??_C@_0P@IMNCILHE@Scramble?5Teams@
CONST	SEGMENT
??_C@_0P@IMNCILHE@Scramble?5Teams@ DB 'Scramble Teams', 00H ; `string'
CONST	ENDS
;	COMDAT ??_C@_0BA@CONBKCME@Scramble?5Method@
CONST	SEGMENT
??_C@_0BA@CONBKCME@Scramble?5Method@ DB 'Scramble Method', 00H ; `string'
CONST	ENDS
;	COMDAT ??_C@_0M@NPGFALIE@Change?5Team@
CONST	SEGMENT
??_C@_0M@NPGFALIE@Change?5Team@ DB 'Change Team', 00H	; `string'
CONST	ENDS
;	COMDAT ??_C@_07KFLFCEAO@Confirm@
CONST	SEGMENT
??_C@_07KFLFCEAO@Confirm@ DB 'Confirm', 00H		; `string'
CONST	ENDS
;	COMDAT ??_C@_0M@CKKBCHJC@Select?5Team@
CONST	SEGMENT
??_C@_0M@CKKBCHJC@Select?5Team@ DB 'Select Team', 00H	; `string'
CONST	ENDS
;	COMDAT ??_C@_0N@PBKLIPB@Change?5Level@
CONST	SEGMENT
??_C@_0N@PBKLIPB@Change?5Level@ DB 'Change Level', 00H	; `string'
CONST	ENDS
;	COMDAT ??_C@_0N@IAAPIHAI@Start?5Server@
CONST	SEGMENT
??_C@_0N@IAAPIHAI@Start?5Server@ DB 'Start Server', 00H	; `string'
CONST	ENDS
;	COMDAT ??_C@_05FHMJPCKA@Start@
CONST	SEGMENT
??_C@_05FHMJPCKA@Start@ DB 'Start', 00H			; `string'
CONST	ENDS
;	COMDAT ??_C@_05KOHFLOFG@Level@
CONST	SEGMENT
??_C@_05KOHFLOFG@Level@ DB 'Level', 00H			; `string'
CONST	ENDS
;	COMDAT ??_C@_0BG@MLEPJNJO@Advertise?5on?5Internet@
CONST	SEGMENT
??_C@_0BG@MLEPJNJO@Advertise?5on?5Internet@ DB 'Advertise on Internet', 00H ; `string'
CONST	ENDS
;	COMDAT ??_C@_09CJBILMAG@Game?5Type@
CONST	SEGMENT
??_C@_09CJBILMAG@Game?5Type@ DB 'Game Type', 00H	; `string'
CONST	ENDS
;	COMDAT ??_C@_0M@LAFKIDDC@newgametype@
CONST	SEGMENT
??_C@_0M@LAFKIDDC@newgametype@ DB 'newgametype', 00H	; `string'
CONST	ENDS
;	COMDAT ??_C@_03JKIMLJNP@CTF@
CONST	SEGMENT
??_C@_03JKIMLJNP@CTF@ DB 'CTF', 00H			; `string'
CONST	ENDS
;	COMDAT ??_C@_0O@NNDKJCLH@Hide?5and?5Seek@
CONST	SEGMENT
??_C@_0O@NNDKJCLH@Hide?5and?5Seek@ DB 'Hide and Seek', 00H ; `string'
CONST	ENDS
;	COMDAT ??_C@_03PJHNOEGB@Tag@
CONST	SEGMENT
??_C@_03PJHNOEGB@Tag@ DB 'Tag', 00H			; `string'
CONST	ENDS
;	COMDAT ??_C@_0N@HJJKODGK@Classic?5Race@
CONST	SEGMENT
??_C@_0N@HJJKODGK@Classic?5Race@ DB 'Classic Race', 00H	; `string'
CONST	ENDS
;	COMDAT ??_C@_04KKIPOOLE@Race@
CONST	SEGMENT
??_C@_04KKIPOOLE@Race@ DB 'Race', 00H			; `string'
CONST	ENDS
;	COMDAT ??_C@_0L@LAOGNCMC@Team?5Match@
CONST	SEGMENT
??_C@_0L@LAOGNCMC@Team?5Match@ DB 'Team Match', 00H	; `string'
CONST	ENDS
;	COMDAT ??_C@_05FKEBLKAO@Match@
CONST	SEGMENT
??_C@_05FKEBLKAO@Match@ DB 'Match', 00H			; `string'
CONST	ENDS
;	COMDAT ??_C@_04CJHPDIMF@Coop@
CONST	SEGMENT
??_C@_04CJHPDIMF@Coop@ DB 'Coop', 00H			; `string'
CONST	ENDS
;	COMDAT ??_C@_0L@HOPLAOAI@chooseskin@
CONST	SEGMENT
??_C@_0L@HOPLAOAI@chooseskin@ DB 'chooseskin', 00H	; `string'
CONST	ENDS
;	COMDAT ??_C@_0BA@GCLAIBNI@sonic?$AA?$AA?$AA?$AA?$AA?$AA?$AA?$AA?$AA?$AA@
CONST	SEGMENT
??_C@_0BA@GCLAIBNI@sonic?$AA?$AA?$AA?$AA?$AA?$AA?$AA?$AA?$AA?$AA@ DB 'son'
	DB	'ic', 00H, 00H, 00H, 00H, 00H, 00H, 00H, 00H, 00H, 00H, 00H ; `string'
CONST	ENDS
;	COMDAT ??_C@_07MCHHMPMB@nextmap@
CONST	SEGMENT
??_C@_07MCHHMPMB@nextmap@ DB 'nextmap', 00H		; `string'
CONST	ENDS
;	COMDAT ??_C@_07COMBHBHI@MAP1035@
CONST	SEGMENT
??_C@_07COMBHBHI@MAP1035@ DB 'MAP1035', 00H		; `string'
CONST	ENDS
;	COMDAT ??_C@_07DHNKEADJ@MAP1034@
CONST	SEGMENT
??_C@_07DHNKEADJ@MAP1034@ DB 'MAP1034', 00H		; `string'
CONST	ENDS
;	COMDAT ??_C@_07HIJLNGPO@MAP1033@
CONST	SEGMENT
??_C@_07HIJLNGPO@MAP1033@ DB 'MAP1033', 00H		; `string'
CONST	ENDS
;	COMDAT ??_C@_07GBIAOHLP@MAP1032@
CONST	SEGMENT
??_C@_07GBIAOHLP@MAP1032@ DB 'MAP1032', 00H		; `string'
CONST	ENDS
;	COMDAT ??_C@_07EKKNLEHM@MAP1031@
CONST	SEGMENT
??_C@_07EKKNLEHM@MAP1031@ DB 'MAP1031', 00H		; `string'
CONST	ENDS
;	COMDAT ??_C@_07FDLGIFDN@MAP1030@
CONST	SEGMENT
??_C@_07FDLGIFDN@MAP1030@ DB 'MAP1030', 00H		; `string'
CONST	ENDS
;	COMDAT ??_C@_07IDLGFEED@MAP1029@
CONST	SEGMENT
??_C@_07IDLGFEED@MAP1029@ DB 'MAP1029', 00H		; `string'
CONST	ENDS
;	COMDAT ??_C@_07JKKNGFAC@MAP1028@
CONST	SEGMENT
??_C@_07JKKNGFAC@MAP1028@ DB 'MAP1028', 00H		; `string'
CONST	ENDS
;	COMDAT ??_C@_07BNDFHJMN@MAP1027@
CONST	SEGMENT
??_C@_07BNDFHJMN@MAP1027@ DB 'MAP1027', 00H		; `string'
CONST	ENDS
;	COMDAT ??_C@_07ECOEIIM@MAP1026@
CONST	SEGMENT
??_C@_07ECOEIIM@MAP1026@ DB 'MAP1026', 00H		; `string'
CONST	ENDS
;	COMDAT ??_C@_07CPADBLEP@MAP1025@
CONST	SEGMENT
??_C@_07CPADBLEP@MAP1025@ DB 'MAP1025', 00H		; `string'
CONST	ENDS
;	COMDAT ??_C@_07DGBICKAO@MAP1024@
CONST	SEGMENT
??_C@_07DGBICKAO@MAP1024@ DB 'MAP1024', 00H		; `string'
CONST	ENDS
;	COMDAT ??_C@_07HJFJLMMJ@MAP1023@
CONST	SEGMENT
??_C@_07HJFJLMMJ@MAP1023@ DB 'MAP1023', 00H		; `string'
CONST	ENDS
;	COMDAT ??_C@_07GAECINII@MAP1022@
CONST	SEGMENT
??_C@_07GAECINII@MAP1022@ DB 'MAP1022', 00H		; `string'
CONST	ENDS
;	COMDAT ??_C@_07ELGPNOEL@MAP1021@
CONST	SEGMENT
??_C@_07ELGPNOEL@MAP1021@ DB 'MAP1021', 00H		; `string'
CONST	ENDS
;	COMDAT ??_C@_07FCHEOPAK@MAP1020@
CONST	SEGMENT
??_C@_07FCHEOPAK@MAP1020@ DB 'MAP1020', 00H		; `string'
CONST	ENDS
;	COMDAT ??_C@_07IBPAOKBK@MAP1019@
CONST	SEGMENT
??_C@_07IBPAOKBK@MAP1019@ DB 'MAP1019', 00H		; `string'
CONST	ENDS
;	COMDAT ??_C@_07JIOLNLFL@MAP1018@
CONST	SEGMENT
??_C@_07JIOLNLFL@MAP1018@ DB 'MAP1018', 00H		; `string'
CONST	ENDS
;	COMDAT ??_C@_07BPHDMHJE@MAP1017@
CONST	SEGMENT
??_C@_07BPHDMHJE@MAP1017@ DB 'MAP1017', 00H		; `string'
CONST	ENDS
;	COMDAT ??_C@_07GGIPGNF@MAP1016@
CONST	SEGMENT
??_C@_07GGIPGNF@MAP1016@ DB 'MAP1016', 00H		; `string'
CONST	ENDS
;	COMDAT ??_C@_07CNEFKFBG@MAP1015@
CONST	SEGMENT
??_C@_07CNEFKFBG@MAP1015@ DB 'MAP1015', 00H		; `string'
CONST	ENDS
;	COMDAT ??_C@_07DEFOJEFH@MAP1014@
CONST	SEGMENT
??_C@_07DEFOJEFH@MAP1014@ DB 'MAP1014', 00H		; `string'
CONST	ENDS
;	COMDAT ??_C@_07HLBPACJA@MAP1013@
CONST	SEGMENT
??_C@_07HLBPACJA@MAP1013@ DB 'MAP1013', 00H		; `string'
CONST	ENDS
;	COMDAT ??_C@_07GCAEDDNB@MAP1012@
CONST	SEGMENT
??_C@_07GCAEDDNB@MAP1012@ DB 'MAP1012', 00H		; `string'
CONST	ENDS
;	COMDAT ??_C@_07EJCJGABC@MAP1011@
CONST	SEGMENT
??_C@_07EJCJGABC@MAP1011@ DB 'MAP1011', 00H		; `string'
CONST	ENDS
;	COMDAT ??_C@_07FADCFBFD@MAP1010@
CONST	SEGMENT
??_C@_07FADCFBFD@MAP1010@ DB 'MAP1010', 00H		; `string'
CONST	ENDS
;	COMDAT ??_C@_07IADCIACN@MAP1009@
CONST	SEGMENT
??_C@_07IADCIACN@MAP1009@ DB 'MAP1009', 00H		; `string'
CONST	ENDS
;	COMDAT ??_C@_07JJCJLBGM@MAP1008@
CONST	SEGMENT
??_C@_07JJCJLBGM@MAP1008@ DB 'MAP1008', 00H		; `string'
CONST	ENDS
;	COMDAT ??_C@_07BOLBKNKD@MAP1007@
CONST	SEGMENT
??_C@_07BOLBKNKD@MAP1007@ DB 'MAP1007', 00H		; `string'
CONST	ENDS
;	COMDAT ??_C@_07HKKJMOC@MAP1006@
CONST	SEGMENT
??_C@_07HKKJMOC@MAP1006@ DB 'MAP1006', 00H		; `string'
CONST	ENDS
;	COMDAT ??_C@_07CMIHMPCB@MAP1005@
CONST	SEGMENT
??_C@_07CMIHMPCB@MAP1005@ DB 'MAP1005', 00H		; `string'
CONST	ENDS
;	COMDAT ??_C@_07DFJMPOGA@MAP1004@
CONST	SEGMENT
??_C@_07DFJMPOGA@MAP1004@ DB 'MAP1004', 00H		; `string'
CONST	ENDS
;	COMDAT ??_C@_07HKNNGIKH@MAP1003@
CONST	SEGMENT
??_C@_07HKNNGIKH@MAP1003@ DB 'MAP1003', 00H		; `string'
CONST	ENDS
;	COMDAT ??_C@_07GDMGFJOG@MAP1002@
CONST	SEGMENT
??_C@_07GDMGFJOG@MAP1002@ DB 'MAP1002', 00H		; `string'
CONST	ENDS
;	COMDAT ??_C@_07EIOLAKCF@MAP1001@
CONST	SEGMENT
??_C@_07EIOLAKCF@MAP1001@ DB 'MAP1001', 00H		; `string'
CONST	ENDS
;	COMDAT ??_C@_07FBPADLGE@MAP1000@
CONST	SEGMENT
??_C@_07FBPADLGE@MAP1000@ DB 'MAP1000', 00H		; `string'
CONST	ENDS
;	COMDAT ??_C@_06BDEFMGLE@MAP999@
CONST	SEGMENT
??_C@_06BDEFMGLE@MAP999@ DB 'MAP999', 00H		; `string'
CONST	ENDS
;	COMDAT ??_C@_06KFOPHPF@MAP998@
CONST	SEGMENT
??_C@_06KFOPHPF@MAP998@ DB 'MAP998', 00H		; `string'
CONST	ENDS
;	COMDAT ??_C@_06INMGOLDK@MAP997@
CONST	SEGMENT
??_C@_06INMGOLDK@MAP997@ DB 'MAP997', 00H		; `string'
CONST	ENDS
;	COMDAT ??_C@_06JENNNKHL@MAP996@
CONST	SEGMENT
??_C@_06JENNNKHL@MAP996@ DB 'MAP996', 00H		; `string'
CONST	ENDS
;	COMDAT ??_C@_06LPPAIJLI@MAP995@
CONST	SEGMENT
??_C@_06LPPAIJLI@MAP995@ DB 'MAP995', 00H		; `string'
CONST	ENDS
;	COMDAT ??_C@_06KGOLLIPJ@MAP994@
CONST	SEGMENT
??_C@_06KGOLLIPJ@MAP994@ DB 'MAP994', 00H		; `string'
CONST	ENDS
;	COMDAT ??_C@_06OJKKCODO@MAP993@
CONST	SEGMENT
??_C@_06OJKKCODO@MAP993@ DB 'MAP993', 00H		; `string'
CONST	ENDS
;	COMDAT ??_C@_06PALBBPHP@MAP992@
CONST	SEGMENT
??_C@_06PALBBPHP@MAP992@ DB 'MAP992', 00H		; `string'
CONST	ENDS
;	COMDAT ??_C@_06NLJMEMLM@MAP991@
CONST	SEGMENT
??_C@_06NLJMEMLM@MAP991@ DB 'MAP991', 00H		; `string'
CONST	ENDS
;	COMDAT ??_C@_06MCIHHNPN@MAP990@
CONST	SEGMENT
??_C@_06MCIHHNPN@MAP990@ DB 'MAP990', 00H		; `string'
CONST	ENDS
;	COMDAT ??_C@_06BCIHKMID@MAP989@
CONST	SEGMENT
??_C@_06BCIHKMID@MAP989@ DB 'MAP989', 00H		; `string'
CONST	ENDS
;	COMDAT ??_C@_06LJMJNMC@MAP988@
CONST	SEGMENT
??_C@_06LJMJNMC@MAP988@ DB 'MAP988', 00H		; `string'
CONST	ENDS
;	COMDAT ??_C@_06IMAEIBAN@MAP987@
CONST	SEGMENT
??_C@_06IMAEIBAN@MAP987@ DB 'MAP987', 00H		; `string'
CONST	ENDS
;	COMDAT ??_C@_06JFBPLAEM@MAP986@
CONST	SEGMENT
??_C@_06JFBPLAEM@MAP986@ DB 'MAP986', 00H		; `string'
CONST	ENDS
;	COMDAT ??_C@_06LODCODIP@MAP985@
CONST	SEGMENT
??_C@_06LODCODIP@MAP985@ DB 'MAP985', 00H		; `string'
CONST	ENDS
;	COMDAT ??_C@_06KHCJNCMO@MAP984@
CONST	SEGMENT
??_C@_06KHCJNCMO@MAP984@ DB 'MAP984', 00H		; `string'
CONST	ENDS
;	COMDAT ??_C@_06OIGIEEAJ@MAP983@
CONST	SEGMENT
??_C@_06OIGIEEAJ@MAP983@ DB 'MAP983', 00H		; `string'
CONST	ENDS
;	COMDAT ??_C@_06PBHDHFEI@MAP982@
CONST	SEGMENT
??_C@_06PBHDHFEI@MAP982@ DB 'MAP982', 00H		; `string'
CONST	ENDS
;	COMDAT ??_C@_06NKFOCGIL@MAP981@
CONST	SEGMENT
??_C@_06NKFOCGIL@MAP981@ DB 'MAP981', 00H		; `string'
CONST	ENDS
;	COMDAT ??_C@_06MDEFBHMK@MAP980@
CONST	SEGMENT
??_C@_06MDEFBHMK@MAP980@ DB 'MAP980', 00H		; `string'
CONST	ENDS
;	COMDAT ??_C@_06BJNLOLLO@MAP979@
CONST	SEGMENT
??_C@_06BJNLOLLO@MAP979@ DB 'MAP979', 00H		; `string'
CONST	ENDS
;	COMDAT ??_C@_06MANKPP@MAP978@
CONST	SEGMENT
??_C@_06MANKPP@MAP978@ DB 'MAP978', 00H			; `string'
CONST	ENDS
;	COMDAT ??_C@_06IHFIMGDA@MAP977@
CONST	SEGMENT
??_C@_06IHFIMGDA@MAP977@ DB 'MAP977', 00H		; `string'
CONST	ENDS
;	COMDAT ??_C@_06JOEDPHHB@MAP976@
CONST	SEGMENT
??_C@_06JOEDPHHB@MAP976@ DB 'MAP976', 00H		; `string'
CONST	ENDS
;	COMDAT ??_C@_06LFGOKELC@MAP975@
CONST	SEGMENT
??_C@_06LFGOKELC@MAP975@ DB 'MAP975', 00H		; `string'
CONST	ENDS
;	COMDAT ??_C@_06KMHFJFPD@MAP974@
CONST	SEGMENT
??_C@_06KMHFJFPD@MAP974@ DB 'MAP974', 00H		; `string'
CONST	ENDS
;	COMDAT ??_C@_06ODDEADDE@MAP973@
CONST	SEGMENT
??_C@_06ODDEADDE@MAP973@ DB 'MAP973', 00H		; `string'
CONST	ENDS
;	COMDAT ??_C@_06PKCPDCHF@MAP972@
CONST	SEGMENT
??_C@_06PKCPDCHF@MAP972@ DB 'MAP972', 00H		; `string'
CONST	ENDS
;	COMDAT ??_C@_06NBACGBLG@MAP971@
CONST	SEGMENT
??_C@_06NBACGBLG@MAP971@ DB 'MAP971', 00H		; `string'
CONST	ENDS
;	COMDAT ??_C@_06MIBJFAPH@MAP970@
CONST	SEGMENT
??_C@_06MIBJFAPH@MAP970@ DB 'MAP970', 00H		; `string'
CONST	ENDS
;	COMDAT ??_C@_06BIBJIBIJ@MAP969@
CONST	SEGMENT
??_C@_06BIBJIBIJ@MAP969@ DB 'MAP969', 00H		; `string'
CONST	ENDS
;	COMDAT ??_C@_06BACLAMI@MAP968@
CONST	SEGMENT
??_C@_06BACLAMI@MAP968@ DB 'MAP968', 00H		; `string'
CONST	ENDS
;	COMDAT ??_C@_06IGJKKMAH@MAP967@
CONST	SEGMENT
??_C@_06IGJKKMAH@MAP967@ DB 'MAP967', 00H		; `string'
CONST	ENDS
;	COMDAT ??_C@_06JPIBJNEG@MAP966@
CONST	SEGMENT
??_C@_06JPIBJNEG@MAP966@ DB 'MAP966', 00H		; `string'
CONST	ENDS
;	COMDAT ??_C@_06LEKMMOIF@MAP965@
CONST	SEGMENT
??_C@_06LEKMMOIF@MAP965@ DB 'MAP965', 00H		; `string'
CONST	ENDS
;	COMDAT ??_C@_06KNLHPPME@MAP964@
CONST	SEGMENT
??_C@_06KNLHPPME@MAP964@ DB 'MAP964', 00H		; `string'
CONST	ENDS
;	COMDAT ??_C@_06OCPGGJAD@MAP963@
CONST	SEGMENT
??_C@_06OCPGGJAD@MAP963@ DB 'MAP963', 00H		; `string'
CONST	ENDS
;	COMDAT ??_C@_06PLONFIEC@MAP962@
CONST	SEGMENT
??_C@_06PLONFIEC@MAP962@ DB 'MAP962', 00H		; `string'
CONST	ENDS
;	COMDAT ??_C@_06NAMAALIB@MAP961@
CONST	SEGMENT
??_C@_06NAMAALIB@MAP961@ DB 'MAP961', 00H		; `string'
CONST	ENDS
;	COMDAT ??_C@_06MJNLDKMA@MAP960@
CONST	SEGMENT
??_C@_06MJNLDKMA@MAP960@ DB 'MAP960', 00H		; `string'
CONST	ENDS
;	COMDAT ??_C@_06BKFPDPNA@MAP959@
CONST	SEGMENT
??_C@_06BKFPDPNA@MAP959@ DB 'MAP959', 00H		; `string'
CONST	ENDS
;	COMDAT ??_C@_06DEEAOJB@MAP958@
CONST	SEGMENT
??_C@_06DEEAOJB@MAP958@ DB 'MAP958', 00H		; `string'
CONST	ENDS
;	COMDAT ??_C@_06IENMBCFO@MAP957@
CONST	SEGMENT
??_C@_06IENMBCFO@MAP957@ DB 'MAP957', 00H		; `string'
CONST	ENDS
;	COMDAT ??_C@_06JNMHCDBP@MAP956@
CONST	SEGMENT
??_C@_06JNMHCDBP@MAP956@ DB 'MAP956', 00H		; `string'
CONST	ENDS
;	COMDAT ??_C@_06LGOKHANM@MAP955@
CONST	SEGMENT
??_C@_06LGOKHANM@MAP955@ DB 'MAP955', 00H		; `string'
CONST	ENDS
;	COMDAT ??_C@_06KPPBEBJN@MAP954@
CONST	SEGMENT
??_C@_06KPPBEBJN@MAP954@ DB 'MAP954', 00H		; `string'
CONST	ENDS
;	COMDAT ??_C@_06OALANHFK@MAP953@
CONST	SEGMENT
??_C@_06OALANHFK@MAP953@ DB 'MAP953', 00H		; `string'
CONST	ENDS
;	COMDAT ??_C@_06PJKLOGBL@MAP952@
CONST	SEGMENT
??_C@_06PJKLOGBL@MAP952@ DB 'MAP952', 00H		; `string'
CONST	ENDS
;	COMDAT ??_C@_06NCIGLFNI@MAP951@
CONST	SEGMENT
??_C@_06NCIGLFNI@MAP951@ DB 'MAP951', 00H		; `string'
CONST	ENDS
;	COMDAT ??_C@_06MLJNIEJJ@MAP950@
CONST	SEGMENT
??_C@_06MLJNIEJJ@MAP950@ DB 'MAP950', 00H		; `string'
CONST	ENDS
;	COMDAT ??_C@_06BLJNFFOH@MAP949@
CONST	SEGMENT
??_C@_06BLJNFFOH@MAP949@ DB 'MAP949', 00H		; `string'
CONST	ENDS
;	COMDAT ??_C@_06CIGGEKG@MAP948@
CONST	SEGMENT
??_C@_06CIGGEKG@MAP948@ DB 'MAP948', 00H		; `string'
CONST	ENDS
;	COMDAT ??_C@_06IFBOHIGJ@MAP947@
CONST	SEGMENT
??_C@_06IFBOHIGJ@MAP947@ DB 'MAP947', 00H		; `string'
CONST	ENDS
;	COMDAT ??_C@_06JMAFEJCI@MAP946@
CONST	SEGMENT
??_C@_06JMAFEJCI@MAP946@ DB 'MAP946', 00H		; `string'
CONST	ENDS
;	COMDAT ??_C@_06LHCIBKOL@MAP945@
CONST	SEGMENT
??_C@_06LHCIBKOL@MAP945@ DB 'MAP945', 00H		; `string'
CONST	ENDS
;	COMDAT ??_C@_06KODDCLKK@MAP944@
CONST	SEGMENT
??_C@_06KODDCLKK@MAP944@ DB 'MAP944', 00H		; `string'
CONST	ENDS
;	COMDAT ??_C@_06OBHCLNGN@MAP943@
CONST	SEGMENT
??_C@_06OBHCLNGN@MAP943@ DB 'MAP943', 00H		; `string'
CONST	ENDS
;	COMDAT ??_C@_06PIGJIMCM@MAP942@
CONST	SEGMENT
??_C@_06PIGJIMCM@MAP942@ DB 'MAP942', 00H		; `string'
CONST	ENDS
;	COMDAT ??_C@_06NDEENPOP@MAP941@
CONST	SEGMENT
??_C@_06NDEENPOP@MAP941@ DB 'MAP941', 00H		; `string'
CONST	ENDS
;	COMDAT ??_C@_06MKFPOOKO@MAP940@
CONST	SEGMENT
??_C@_06MKFPOOKO@MAP940@ DB 'MAP940', 00H		; `string'
CONST	ENDS
;	COMDAT ??_C@_06BONCEDGC@MAP939@
CONST	SEGMENT
??_C@_06BONCEDGC@MAP939@ DB 'MAP939', 00H		; `string'
CONST	ENDS
;	COMDAT ??_C@_06HMJHCCD@MAP938@
CONST	SEGMENT
??_C@_06HMJHCCD@MAP938@ DB 'MAP938', 00H		; `string'
CONST	ENDS
;	COMDAT ??_C@_06IAFBGOOM@MAP937@
CONST	SEGMENT
??_C@_06IAFBGOOM@MAP937@ DB 'MAP937', 00H		; `string'
CONST	ENDS
;	COMDAT ??_C@_06JJEKFPKN@MAP936@
CONST	SEGMENT
??_C@_06JJEKFPKN@MAP936@ DB 'MAP936', 00H		; `string'
CONST	ENDS
;	COMDAT ??_C@_06LCGHAMGO@MAP935@
CONST	SEGMENT
??_C@_06LCGHAMGO@MAP935@ DB 'MAP935', 00H		; `string'
CONST	ENDS
;	COMDAT ??_C@_06KLHMDNCP@MAP934@
CONST	SEGMENT
??_C@_06KLHMDNCP@MAP934@ DB 'MAP934', 00H		; `string'
CONST	ENDS
;	COMDAT ??_C@_06OEDNKLOI@MAP933@
CONST	SEGMENT
??_C@_06OEDNKLOI@MAP933@ DB 'MAP933', 00H		; `string'
CONST	ENDS
;	COMDAT ??_C@_06PNCGJKKJ@MAP932@
CONST	SEGMENT
??_C@_06PNCGJKKJ@MAP932@ DB 'MAP932', 00H		; `string'
CONST	ENDS
;	COMDAT ??_C@_06NGALMJGK@MAP931@
CONST	SEGMENT
??_C@_06NGALMJGK@MAP931@ DB 'MAP931', 00H		; `string'
CONST	ENDS
;	COMDAT ??_C@_06MPBAPICL@MAP930@
CONST	SEGMENT
??_C@_06MPBAPICL@MAP930@ DB 'MAP930', 00H		; `string'
CONST	ENDS
;	COMDAT ??_C@_06BPBACJFF@MAP929@
CONST	SEGMENT
??_C@_06BPBACJFF@MAP929@ DB 'MAP929', 00H		; `string'
CONST	ENDS
;	COMDAT ??_C@_06GALBIBE@MAP928@
CONST	SEGMENT
??_C@_06GALBIBE@MAP928@ DB 'MAP928', 00H		; `string'
CONST	ENDS
;	COMDAT ??_C@_06IBJDAENL@MAP927@
CONST	SEGMENT
??_C@_06IBJDAENL@MAP927@ DB 'MAP927', 00H		; `string'
CONST	ENDS
;	COMDAT ??_C@_06JIIIDFJK@MAP926@
CONST	SEGMENT
??_C@_06JIIIDFJK@MAP926@ DB 'MAP926', 00H		; `string'
CONST	ENDS
;	COMDAT ??_C@_06LDKFGGFJ@MAP925@
CONST	SEGMENT
??_C@_06LDKFGGFJ@MAP925@ DB 'MAP925', 00H		; `string'
CONST	ENDS
;	COMDAT ??_C@_06KKLOFHBI@MAP924@
CONST	SEGMENT
??_C@_06KKLOFHBI@MAP924@ DB 'MAP924', 00H		; `string'
CONST	ENDS
;	COMDAT ??_C@_06OFPPMBNP@MAP923@
CONST	SEGMENT
??_C@_06OFPPMBNP@MAP923@ DB 'MAP923', 00H		; `string'
CONST	ENDS
;	COMDAT ??_C@_06PMOEPAJO@MAP922@
CONST	SEGMENT
??_C@_06PMOEPAJO@MAP922@ DB 'MAP922', 00H		; `string'
CONST	ENDS
;	COMDAT ??_C@_06NHMJKDFN@MAP921@
CONST	SEGMENT
??_C@_06NHMJKDFN@MAP921@ DB 'MAP921', 00H		; `string'
CONST	ENDS
;	COMDAT ??_C@_06MONCJCBM@MAP920@
CONST	SEGMENT
??_C@_06MONCJCBM@MAP920@ DB 'MAP920', 00H		; `string'
CONST	ENDS
;	COMDAT ??_C@_06BNFGJHAM@MAP919@
CONST	SEGMENT
??_C@_06BNFGJHAM@MAP919@ DB 'MAP919', 00H		; `string'
CONST	ENDS
;	COMDAT ??_C@_06EENKGEN@MAP918@
CONST	SEGMENT
??_C@_06EENKGEN@MAP918@ DB 'MAP918', 00H		; `string'
CONST	ENDS
;	COMDAT ??_C@_06IDNFLKIC@MAP917@
CONST	SEGMENT
??_C@_06IDNFLKIC@MAP917@ DB 'MAP917', 00H		; `string'
CONST	ENDS
;	COMDAT ??_C@_06JKMOILMD@MAP916@
CONST	SEGMENT
??_C@_06JKMOILMD@MAP916@ DB 'MAP916', 00H		; `string'
CONST	ENDS
;	COMDAT ??_C@_06LBODNIAA@MAP915@
CONST	SEGMENT
??_C@_06LBODNIAA@MAP915@ DB 'MAP915', 00H		; `string'
CONST	ENDS
;	COMDAT ??_C@_06KIPIOJEB@MAP914@
CONST	SEGMENT
??_C@_06KIPIOJEB@MAP914@ DB 'MAP914', 00H		; `string'
CONST	ENDS
;	COMDAT ??_C@_06OHLJHPIG@MAP913@
CONST	SEGMENT
??_C@_06OHLJHPIG@MAP913@ DB 'MAP913', 00H		; `string'
CONST	ENDS
;	COMDAT ??_C@_06POKCEOMH@MAP912@
CONST	SEGMENT
??_C@_06POKCEOMH@MAP912@ DB 'MAP912', 00H		; `string'
CONST	ENDS
;	COMDAT ??_C@_06NFIPBNAE@MAP911@
CONST	SEGMENT
??_C@_06NFIPBNAE@MAP911@ DB 'MAP911', 00H		; `string'
CONST	ENDS
;	COMDAT ??_C@_06MMJECMEF@MAP910@
CONST	SEGMENT
??_C@_06MMJECMEF@MAP910@ DB 'MAP910', 00H		; `string'
CONST	ENDS
;	COMDAT ??_C@_06BMJEPNDL@MAP909@
CONST	SEGMENT
??_C@_06BMJEPNDL@MAP909@ DB 'MAP909', 00H		; `string'
CONST	ENDS
;	COMDAT ??_C@_06FIPMMHK@MAP908@
CONST	SEGMENT
??_C@_06FIPMMHK@MAP908@ DB 'MAP908', 00H		; `string'
CONST	ENDS
;	COMDAT ??_C@_06ICBHNALF@MAP907@
CONST	SEGMENT
??_C@_06ICBHNALF@MAP907@ DB 'MAP907', 00H		; `string'
CONST	ENDS
;	COMDAT ??_C@_06JLAMOBPE@MAP906@
CONST	SEGMENT
??_C@_06JLAMOBPE@MAP906@ DB 'MAP906', 00H		; `string'
CONST	ENDS
;	COMDAT ??_C@_06LACBLCDH@MAP905@
CONST	SEGMENT
??_C@_06LACBLCDH@MAP905@ DB 'MAP905', 00H		; `string'
CONST	ENDS
;	COMDAT ??_C@_06KJDKIDHG@MAP904@
CONST	SEGMENT
??_C@_06KJDKIDHG@MAP904@ DB 'MAP904', 00H		; `string'
CONST	ENDS
;	COMDAT ??_C@_06OGHLBFLB@MAP903@
CONST	SEGMENT
??_C@_06OGHLBFLB@MAP903@ DB 'MAP903', 00H		; `string'
CONST	ENDS
;	COMDAT ??_C@_06PPGACEPA@MAP902@
CONST	SEGMENT
??_C@_06PPGACEPA@MAP902@ DB 'MAP902', 00H		; `string'
CONST	ENDS
;	COMDAT ??_C@_06NEENHHDD@MAP901@
CONST	SEGMENT
??_C@_06NEENHHDD@MAP901@ DB 'MAP901', 00H		; `string'
CONST	ENDS
;	COMDAT ??_C@_06MNFGEGHC@MAP900@
CONST	SEGMENT
??_C@_06MNFGEGHC@MAP900@ DB 'MAP900', 00H		; `string'
CONST	ENDS
;	COMDAT ??_C@_06KLPJKBNB@MAP899@
CONST	SEGMENT
??_C@_06KLPJKBNB@MAP899@ DB 'MAP899', 00H		; `string'
CONST	ENDS
;	COMDAT ??_C@_06LCOCJAJA@MAP898@
CONST	SEGMENT
??_C@_06LCOCJAJA@MAP898@ DB 'MAP898', 00H		; `string'
CONST	ENDS
;	COMDAT ??_C@_06DFHKIMFP@MAP897@
CONST	SEGMENT
??_C@_06DFHKIMFP@MAP897@ DB 'MAP897', 00H		; `string'
CONST	ENDS
;	COMDAT ??_C@_06CMGBLNBO@MAP896@
CONST	SEGMENT
??_C@_06CMGBLNBO@MAP896@ DB 'MAP896', 00H		; `string'
CONST	ENDS
;	COMDAT ??_C@_06HEMOONN@MAP895@
CONST	SEGMENT
??_C@_06HEMOONN@MAP895@ DB 'MAP895', 00H		; `string'
CONST	ENDS
;	COMDAT ??_C@_06BOFHNPJM@MAP894@
CONST	SEGMENT
??_C@_06BOFHNPJM@MAP894@ DB 'MAP894', 00H		; `string'
CONST	ENDS
;	COMDAT ??_C@_06FBBGEJFL@MAP893@
CONST	SEGMENT
??_C@_06FBBGEJFL@MAP893@ DB 'MAP893', 00H		; `string'
CONST	ENDS
;	COMDAT ??_C@_06EIANHIBK@MAP892@
CONST	SEGMENT
??_C@_06EIANHIBK@MAP892@ DB 'MAP892', 00H		; `string'
CONST	ENDS
;	COMDAT ??_C@_06GDCACLNJ@MAP891@
CONST	SEGMENT
??_C@_06GDCACLNJ@MAP891@ DB 'MAP891', 00H		; `string'
CONST	ENDS
;	COMDAT ??_C@_06HKDLBKJI@MAP890@
CONST	SEGMENT
??_C@_06HKDLBKJI@MAP890@ DB 'MAP890', 00H		; `string'
CONST	ENDS
;	COMDAT ??_C@_06KKDLMLOG@MAP889@
CONST	SEGMENT
??_C@_06KKDLMLOG@MAP889@ DB 'MAP889', 00H		; `string'
CONST	ENDS
;	COMDAT ??_C@_06LDCAPKKH@MAP888@
CONST	SEGMENT
??_C@_06LDCAPKKH@MAP888@ DB 'MAP888', 00H		; `string'
CONST	ENDS
;	COMDAT ??_C@_06DELIOGGI@MAP887@
CONST	SEGMENT
??_C@_06DELIOGGI@MAP887@ DB 'MAP887', 00H		; `string'
CONST	ENDS
;	COMDAT ??_C@_06CNKDNHCJ@MAP886@
CONST	SEGMENT
??_C@_06CNKDNHCJ@MAP886@ DB 'MAP886', 00H		; `string'
CONST	ENDS
;	COMDAT ??_C@_06GIOIEOK@MAP885@
CONST	SEGMENT
??_C@_06GIOIEOK@MAP885@ DB 'MAP885', 00H		; `string'
CONST	ENDS
;	COMDAT ??_C@_06BPJFLFKL@MAP884@
CONST	SEGMENT
??_C@_06BPJFLFKL@MAP884@ DB 'MAP884', 00H		; `string'
CONST	ENDS
;	COMDAT ??_C@_06FANECDGM@MAP883@
CONST	SEGMENT
??_C@_06FANECDGM@MAP883@ DB 'MAP883', 00H		; `string'
CONST	ENDS
;	COMDAT ??_C@_06EJMPBCCN@MAP882@
CONST	SEGMENT
??_C@_06EJMPBCCN@MAP882@ DB 'MAP882', 00H		; `string'
CONST	ENDS
;	COMDAT ??_C@_06GCOCEBOO@MAP881@
CONST	SEGMENT
??_C@_06GCOCEBOO@MAP881@ DB 'MAP881', 00H		; `string'
CONST	ENDS
;	COMDAT ??_C@_06HLPJHAKP@MAP880@
CONST	SEGMENT
??_C@_06HLPJHAKP@MAP880@ DB 'MAP880', 00H		; `string'
CONST	ENDS
;	COMDAT ??_C@_06KBGHIMNL@MAP879@
CONST	SEGMENT
??_C@_06KBGHIMNL@MAP879@ DB 'MAP879', 00H		; `string'
CONST	ENDS
;	COMDAT ??_C@_06LIHMLNJK@MAP878@
CONST	SEGMENT
??_C@_06LIHMLNJK@MAP878@ DB 'MAP878', 00H		; `string'
CONST	ENDS
;	COMDAT ??_C@_06DPOEKBFF@MAP877@
CONST	SEGMENT
??_C@_06DPOEKBFF@MAP877@ DB 'MAP877', 00H		; `string'
CONST	ENDS
;	COMDAT ??_C@_06CGPPJABE@MAP876@
CONST	SEGMENT
??_C@_06CGPPJABE@MAP876@ DB 'MAP876', 00H		; `string'
CONST	ENDS
;	COMDAT ??_C@_06NNCMDNH@MAP875@
CONST	SEGMENT
??_C@_06NNCMDNH@MAP875@ DB 'MAP875', 00H		; `string'
CONST	ENDS
;	COMDAT ??_C@_06BEMJPCJG@MAP874@
CONST	SEGMENT
??_C@_06BEMJPCJG@MAP874@ DB 'MAP874', 00H		; `string'
CONST	ENDS
;	COMDAT ??_C@_06FLIIGEFB@MAP873@
CONST	SEGMENT
??_C@_06FLIIGEFB@MAP873@ DB 'MAP873', 00H		; `string'
CONST	ENDS
;	COMDAT ??_C@_06ECJDFFBA@MAP872@
CONST	SEGMENT
??_C@_06ECJDFFBA@MAP872@ DB 'MAP872', 00H		; `string'
CONST	ENDS
;	COMDAT ??_C@_06GJLOAGND@MAP871@
CONST	SEGMENT
??_C@_06GJLOAGND@MAP871@ DB 'MAP871', 00H		; `string'
CONST	ENDS
;	COMDAT ??_C@_06HAKFDHJC@MAP870@
CONST	SEGMENT
??_C@_06HAKFDHJC@MAP870@ DB 'MAP870', 00H		; `string'
CONST	ENDS
;	COMDAT ??_C@_06KAKFOGOM@MAP869@
CONST	SEGMENT
??_C@_06KAKFOGOM@MAP869@ DB 'MAP869', 00H		; `string'
CONST	ENDS
;	COMDAT ??_C@_06LJLONHKN@MAP868@
CONST	SEGMENT
??_C@_06LJLONHKN@MAP868@ DB 'MAP868', 00H		; `string'
CONST	ENDS
;	COMDAT ??_C@_06DOCGMLGC@MAP867@
CONST	SEGMENT
??_C@_06DOCGMLGC@MAP867@ DB 'MAP867', 00H		; `string'
CONST	ENDS
;	COMDAT ??_C@_06CHDNPKCD@MAP866@
CONST	SEGMENT
??_C@_06CHDNPKCD@MAP866@ DB 'MAP866', 00H		; `string'
CONST	ENDS
;	COMDAT ??_C@_06MBAKJOA@MAP865@
CONST	SEGMENT
??_C@_06MBAKJOA@MAP865@ DB 'MAP865', 00H		; `string'
CONST	ENDS
;	COMDAT ??_C@_06BFALJIKB@MAP864@
CONST	SEGMENT
??_C@_06BFALJIKB@MAP864@ DB 'MAP864', 00H		; `string'
CONST	ENDS
;	COMDAT ??_C@_06FKEKAOGG@MAP863@
CONST	SEGMENT
??_C@_06FKEKAOGG@MAP863@ DB 'MAP863', 00H		; `string'
CONST	ENDS
;	COMDAT ??_C@_06EDFBDPCH@MAP862@
CONST	SEGMENT
??_C@_06EDFBDPCH@MAP862@ DB 'MAP862', 00H		; `string'
CONST	ENDS
;	COMDAT ??_C@_06GIHMGMOE@MAP861@
CONST	SEGMENT
??_C@_06GIHMGMOE@MAP861@ DB 'MAP861', 00H		; `string'
CONST	ENDS
;	COMDAT ??_C@_06HBGHFNKF@MAP860@
CONST	SEGMENT
??_C@_06HBGHFNKF@MAP860@ DB 'MAP860', 00H		; `string'
CONST	ENDS
;	COMDAT ??_C@_06KCODFILF@MAP859@
CONST	SEGMENT
??_C@_06KCODFILF@MAP859@ DB 'MAP859', 00H		; `string'
CONST	ENDS
;	COMDAT ??_C@_06LLPIGJPE@MAP858@
CONST	SEGMENT
??_C@_06LLPIGJPE@MAP858@ DB 'MAP858', 00H		; `string'
CONST	ENDS
;	COMDAT ??_C@_06DMGAHFDL@MAP857@
CONST	SEGMENT
??_C@_06DMGAHFDL@MAP857@ DB 'MAP857', 00H		; `string'
CONST	ENDS
;	COMDAT ??_C@_06CFHLEEHK@MAP856@
CONST	SEGMENT
??_C@_06CFHLEEHK@MAP856@ DB 'MAP856', 00H		; `string'
CONST	ENDS
;	COMDAT ??_C@_06OFGBHLJ@MAP855@
CONST	SEGMENT
??_C@_06OFGBHLJ@MAP855@ DB 'MAP855', 00H		; `string'
CONST	ENDS
;	COMDAT ??_C@_06BHENCGPI@MAP854@
CONST	SEGMENT
??_C@_06BHENCGPI@MAP854@ DB 'MAP854', 00H		; `string'
CONST	ENDS
;	COMDAT ??_C@_06FIAMLADP@MAP853@
CONST	SEGMENT
??_C@_06FIAMLADP@MAP853@ DB 'MAP853', 00H		; `string'
CONST	ENDS
;	COMDAT ??_C@_06EBBHIBHO@MAP852@
CONST	SEGMENT
??_C@_06EBBHIBHO@MAP852@ DB 'MAP852', 00H		; `string'
CONST	ENDS
;	COMDAT ??_C@_06GKDKNCLN@MAP851@
CONST	SEGMENT
??_C@_06GKDKNCLN@MAP851@ DB 'MAP851', 00H		; `string'
CONST	ENDS
;	COMDAT ??_C@_06HDCBODPM@MAP850@
CONST	SEGMENT
??_C@_06HDCBODPM@MAP850@ DB 'MAP850', 00H		; `string'
CONST	ENDS
;	COMDAT ??_C@_06KDCBDCIC@MAP849@
CONST	SEGMENT
??_C@_06KDCBDCIC@MAP849@ DB 'MAP849', 00H		; `string'
CONST	ENDS
;	COMDAT ??_C@_06LKDKADMD@MAP848@
CONST	SEGMENT
??_C@_06LKDKADMD@MAP848@ DB 'MAP848', 00H		; `string'
CONST	ENDS
;	COMDAT ??_C@_06DNKCBPAM@MAP847@
CONST	SEGMENT
??_C@_06DNKCBPAM@MAP847@ DB 'MAP847', 00H		; `string'
CONST	ENDS
;	COMDAT ??_C@_06CELJCOEN@MAP846@
CONST	SEGMENT
??_C@_06CELJCOEN@MAP846@ DB 'MAP846', 00H		; `string'
CONST	ENDS
;	COMDAT ??_C@_06PJEHNIO@MAP845@
CONST	SEGMENT
??_C@_06PJEHNIO@MAP845@ DB 'MAP845', 00H		; `string'
CONST	ENDS
;	COMDAT ??_C@_06BGIPEMMP@MAP844@
CONST	SEGMENT
??_C@_06BGIPEMMP@MAP844@ DB 'MAP844', 00H		; `string'
CONST	ENDS
;	COMDAT ??_C@_06FJMONKAI@MAP843@
CONST	SEGMENT
??_C@_06FJMONKAI@MAP843@ DB 'MAP843', 00H		; `string'
CONST	ENDS
;	COMDAT ??_C@_06EANFOLEJ@MAP842@
CONST	SEGMENT
??_C@_06EANFOLEJ@MAP842@ DB 'MAP842', 00H		; `string'
CONST	ENDS
;	COMDAT ??_C@_06GLPILIIK@MAP841@
CONST	SEGMENT
??_C@_06GLPILIIK@MAP841@ DB 'MAP841', 00H		; `string'
CONST	ENDS
;	COMDAT ??_C@_06HCODIJML@MAP840@
CONST	SEGMENT
??_C@_06HCODIJML@MAP840@ DB 'MAP840', 00H		; `string'
CONST	ENDS
;	COMDAT ??_C@_06KGGOCEAH@MAP839@
CONST	SEGMENT
??_C@_06KGGOCEAH@MAP839@ DB 'MAP839', 00H		; `string'
CONST	ENDS
;	COMDAT ??_C@_06LPHFBFEG@MAP838@
CONST	SEGMENT
??_C@_06LPHFBFEG@MAP838@ DB 'MAP838', 00H		; `string'
CONST	ENDS
;	COMDAT ??_C@_06DIONAJIJ@MAP837@
CONST	SEGMENT
??_C@_06DIONAJIJ@MAP837@ DB 'MAP837', 00H		; `string'
CONST	ENDS
;	COMDAT ??_C@_06CBPGDIMI@MAP836@
CONST	SEGMENT
??_C@_06CBPGDIMI@MAP836@ DB 'MAP836', 00H		; `string'
CONST	ENDS
;	COMDAT ??_C@_06KNLGLAL@MAP835@
CONST	SEGMENT
??_C@_06KNLGLAL@MAP835@ DB 'MAP835', 00H		; `string'
CONST	ENDS
;	COMDAT ??_C@_06BDMAFKEK@MAP834@
CONST	SEGMENT
??_C@_06BDMAFKEK@MAP834@ DB 'MAP834', 00H		; `string'
CONST	ENDS
;	COMDAT ??_C@_06FMIBMMIN@MAP833@
CONST	SEGMENT
??_C@_06FMIBMMIN@MAP833@ DB 'MAP833', 00H		; `string'
CONST	ENDS
;	COMDAT ??_C@_06EFJKPNMM@MAP832@
CONST	SEGMENT
??_C@_06EFJKPNMM@MAP832@ DB 'MAP832', 00H		; `string'
CONST	ENDS
;	COMDAT ??_C@_06GOLHKOAP@MAP831@
CONST	SEGMENT
??_C@_06GOLHKOAP@MAP831@ DB 'MAP831', 00H		; `string'
CONST	ENDS
;	COMDAT ??_C@_06HHKMJPEO@MAP830@
CONST	SEGMENT
??_C@_06HHKMJPEO@MAP830@ DB 'MAP830', 00H		; `string'
CONST	ENDS
;	COMDAT ??_C@_06KHKMEODA@MAP829@
CONST	SEGMENT
??_C@_06KHKMEODA@MAP829@ DB 'MAP829', 00H		; `string'
CONST	ENDS
;	COMDAT ??_C@_06LOLHHPHB@MAP828@
CONST	SEGMENT
??_C@_06LOLHHPHB@MAP828@ DB 'MAP828', 00H		; `string'
CONST	ENDS
;	COMDAT ??_C@_06DJCPGDLO@MAP827@
CONST	SEGMENT
??_C@_06DJCPGDLO@MAP827@ DB 'MAP827', 00H		; `string'
CONST	ENDS
;	COMDAT ??_C@_06CADEFCPP@MAP826@
CONST	SEGMENT
??_C@_06CADEFCPP@MAP826@ DB 'MAP826', 00H		; `string'
CONST	ENDS
;	COMDAT ??_C@_06LBJABDM@MAP825@
CONST	SEGMENT
??_C@_06LBJABDM@MAP825@ DB 'MAP825', 00H		; `string'
CONST	ENDS
;	COMDAT ??_C@_06BCACDAHN@MAP824@
CONST	SEGMENT
??_C@_06BCACDAHN@MAP824@ DB 'MAP824', 00H		; `string'
CONST	ENDS
;	COMDAT ??_C@_06FNEDKGLK@MAP823@
CONST	SEGMENT
??_C@_06FNEDKGLK@MAP823@ DB 'MAP823', 00H		; `string'
CONST	ENDS
;	COMDAT ??_C@_06EEFIJHPL@MAP822@
CONST	SEGMENT
??_C@_06EEFIJHPL@MAP822@ DB 'MAP822', 00H		; `string'
CONST	ENDS
;	COMDAT ??_C@_06GPHFMEDI@MAP821@
CONST	SEGMENT
??_C@_06GPHFMEDI@MAP821@ DB 'MAP821', 00H		; `string'
CONST	ENDS
;	COMDAT ??_C@_06HGGOPFHJ@MAP820@
CONST	SEGMENT
??_C@_06HGGOPFHJ@MAP820@ DB 'MAP820', 00H		; `string'
CONST	ENDS
;	COMDAT ??_C@_06KFOKPAGJ@MAP819@
CONST	SEGMENT
??_C@_06KFOKPAGJ@MAP819@ DB 'MAP819', 00H		; `string'
CONST	ENDS
;	COMDAT ??_C@_06LMPBMBCI@MAP818@
CONST	SEGMENT
??_C@_06LMPBMBCI@MAP818@ DB 'MAP818', 00H		; `string'
CONST	ENDS
;	COMDAT ??_C@_06DLGJNNOH@MAP817@
CONST	SEGMENT
??_C@_06DLGJNNOH@MAP817@ DB 'MAP817', 00H		; `string'
CONST	ENDS
;	COMDAT ??_C@_06CCHCOMKG@MAP816@
CONST	SEGMENT
??_C@_06CCHCOMKG@MAP816@ DB 'MAP816', 00H		; `string'
CONST	ENDS
;	COMDAT ??_C@_06JFPLPGF@MAP815@
CONST	SEGMENT
??_C@_06JFPLPGF@MAP815@ DB 'MAP815', 00H		; `string'
CONST	ENDS
;	COMDAT ??_C@_06BAEEIOCE@MAP814@
CONST	SEGMENT
??_C@_06BAEEIOCE@MAP814@ DB 'MAP814', 00H		; `string'
CONST	ENDS
;	COMDAT ??_C@_06FPAFBIOD@MAP813@
CONST	SEGMENT
??_C@_06FPAFBIOD@MAP813@ DB 'MAP813', 00H		; `string'
CONST	ENDS
;	COMDAT ??_C@_06EGBOCJKC@MAP812@
CONST	SEGMENT
??_C@_06EGBOCJKC@MAP812@ DB 'MAP812', 00H		; `string'
CONST	ENDS
;	COMDAT ??_C@_06GNDDHKGB@MAP811@
CONST	SEGMENT
??_C@_06GNDDHKGB@MAP811@ DB 'MAP811', 00H		; `string'
CONST	ENDS
;	COMDAT ??_C@_06HECIELCA@MAP810@
CONST	SEGMENT
??_C@_06HECIELCA@MAP810@ DB 'MAP810', 00H		; `string'
CONST	ENDS
;	COMDAT ??_C@_06KECIJKFO@MAP809@
CONST	SEGMENT
??_C@_06KECIJKFO@MAP809@ DB 'MAP809', 00H		; `string'
CONST	ENDS
;	COMDAT ??_C@_06LNDDKLBP@MAP808@
CONST	SEGMENT
??_C@_06LNDDKLBP@MAP808@ DB 'MAP808', 00H		; `string'
CONST	ENDS
;	COMDAT ??_C@_06DKKLLHNA@MAP807@
CONST	SEGMENT
??_C@_06DKKLLHNA@MAP807@ DB 'MAP807', 00H		; `string'
CONST	ENDS
;	COMDAT ??_C@_06CDLAIGJB@MAP806@
CONST	SEGMENT
??_C@_06CDLAIGJB@MAP806@ DB 'MAP806', 00H		; `string'
CONST	ENDS
;	COMDAT ??_C@_06IJNNFFC@MAP805@
CONST	SEGMENT
??_C@_06IJNNFFC@MAP805@ DB 'MAP805', 00H		; `string'
CONST	ENDS
;	COMDAT ??_C@_06BBIGOEBD@MAP804@
CONST	SEGMENT
??_C@_06BBIGOEBD@MAP804@ DB 'MAP804', 00H		; `string'
CONST	ENDS
;	COMDAT ??_C@_06FOMHHCNE@MAP803@
CONST	SEGMENT
??_C@_06FOMHHCNE@MAP803@ DB 'MAP803', 00H		; `string'
CONST	ENDS
;	COMDAT ??_C@_06EHNMEDJF@MAP802@
CONST	SEGMENT
??_C@_06EHNMEDJF@MAP802@ DB 'MAP802', 00H		; `string'
CONST	ENDS
;	COMDAT ??_C@_06GMPBBAFG@MAP801@
CONST	SEGMENT
??_C@_06GMPBBAFG@MAP801@ DB 'MAP801', 00H		; `string'
CONST	ENDS
;	COMDAT ??_C@_06HFOKCBBH@MAP800@
CONST	SEGMENT
??_C@_06HFOKCBBH@MAP800@ DB 'MAP800', 00H		; `string'
CONST	ENDS
;	COMDAT ??_C@_06PDJKLBIH@MAP799@
CONST	SEGMENT
??_C@_06PDJKLBIH@MAP799@ DB 'MAP799', 00H		; `string'
CONST	ENDS
;	COMDAT ??_C@_06OKIBIAMG@MAP798@
CONST	SEGMENT
??_C@_06OKIBIAMG@MAP798@ DB 'MAP798', 00H		; `string'
CONST	ENDS
;	COMDAT ??_C@_06GNBJJMAJ@MAP797@
CONST	SEGMENT
??_C@_06GNBJJMAJ@MAP797@ DB 'MAP797', 00H		; `string'
CONST	ENDS
;	COMDAT ??_C@_06HEACKNEI@MAP796@
CONST	SEGMENT
??_C@_06HEACKNEI@MAP796@ DB 'MAP796', 00H		; `string'
CONST	ENDS
;	COMDAT ??_C@_06FPCPPOIL@MAP795@
CONST	SEGMENT
??_C@_06FPCPPOIL@MAP795@ DB 'MAP795', 00H		; `string'
CONST	ENDS
;	COMDAT ??_C@_06EGDEMPMK@MAP794@
CONST	SEGMENT
??_C@_06EGDEMPMK@MAP794@ DB 'MAP794', 00H		; `string'
CONST	ENDS
;	COMDAT ??_C@_06JHFFJAN@MAP793@
CONST	SEGMENT
??_C@_06JHFFJAN@MAP793@ DB 'MAP793', 00H		; `string'
CONST	ENDS
;	COMDAT ??_C@_06BAGOGIEM@MAP792@
CONST	SEGMENT
??_C@_06BAGOGIEM@MAP792@ DB 'MAP792', 00H		; `string'
CONST	ENDS
;	COMDAT ??_C@_06DLEDDLIP@MAP791@
CONST	SEGMENT
??_C@_06DLEDDLIP@MAP791@ DB 'MAP791', 00H		; `string'
CONST	ENDS
;	COMDAT ??_C@_06CCFIAKMO@MAP790@
CONST	SEGMENT
??_C@_06CCFIAKMO@MAP790@ DB 'MAP790', 00H		; `string'
CONST	ENDS
;	COMDAT ??_C@_06PCFINLLA@MAP789@
CONST	SEGMENT
??_C@_06PCFINLLA@MAP789@ DB 'MAP789', 00H		; `string'
CONST	ENDS
;	COMDAT ??_C@_06OLEDOKPB@MAP788@
CONST	SEGMENT
??_C@_06OLEDOKPB@MAP788@ DB 'MAP788', 00H		; `string'
CONST	ENDS
;	COMDAT ??_C@_06GMNLPGDO@MAP787@
CONST	SEGMENT
??_C@_06GMNLPGDO@MAP787@ DB 'MAP787', 00H		; `string'
CONST	ENDS
;	COMDAT ??_C@_06HFMAMHHP@MAP786@
CONST	SEGMENT
??_C@_06HFMAMHHP@MAP786@ DB 'MAP786', 00H		; `string'
CONST	ENDS
;	COMDAT ??_C@_06FOONJELM@MAP785@
CONST	SEGMENT
??_C@_06FOONJELM@MAP785@ DB 'MAP785', 00H		; `string'
CONST	ENDS
;	COMDAT ??_C@_06EHPGKFPN@MAP784@
CONST	SEGMENT
??_C@_06EHPGKFPN@MAP784@ DB 'MAP784', 00H		; `string'
CONST	ENDS
;	COMDAT ??_C@_06ILHDDDK@MAP783@
CONST	SEGMENT
??_C@_06ILHDDDK@MAP783@ DB 'MAP783', 00H		; `string'
CONST	ENDS
;	COMDAT ??_C@_06BBKMACHL@MAP782@
CONST	SEGMENT
??_C@_06BBKMACHL@MAP782@ DB 'MAP782', 00H		; `string'
CONST	ENDS
;	COMDAT ??_C@_06DKIBFBLI@MAP781@
CONST	SEGMENT
??_C@_06DKIBFBLI@MAP781@ DB 'MAP781', 00H		; `string'
CONST	ENDS
;	COMDAT ??_C@_06CDJKGAPJ@MAP780@
CONST	SEGMENT
??_C@_06CDJKGAPJ@MAP780@ DB 'MAP780', 00H		; `string'
CONST	ENDS
;	COMDAT ??_C@_06PJAEJMIN@MAP779@
CONST	SEGMENT
??_C@_06PJAEJMIN@MAP779@ DB 'MAP779', 00H		; `string'
CONST	ENDS
;	COMDAT ??_C@_06OABPKNMM@MAP778@
CONST	SEGMENT
??_C@_06OABPKNMM@MAP778@ DB 'MAP778', 00H		; `string'
CONST	ENDS
;	COMDAT ??_C@_06GHIHLBAD@MAP777@
CONST	SEGMENT
??_C@_06GHIHLBAD@MAP777@ DB 'MAP777', 00H		; `string'
CONST	ENDS
;	COMDAT ??_C@_06HOJMIAEC@MAP776@
CONST	SEGMENT
??_C@_06HOJMIAEC@MAP776@ DB 'MAP776', 00H		; `string'
CONST	ENDS
;	COMDAT ??_C@_06FFLBNDIB@MAP775@
CONST	SEGMENT
??_C@_06FFLBNDIB@MAP775@ DB 'MAP775', 00H		; `string'
CONST	ENDS
;	COMDAT ??_C@_06EMKKOCMA@MAP774@
CONST	SEGMENT
??_C@_06EMKKOCMA@MAP774@ DB 'MAP774', 00H		; `string'
CONST	ENDS
;	COMDAT ??_C@_06DOLHEAH@MAP773@
CONST	SEGMENT
??_C@_06DOLHEAH@MAP773@ DB 'MAP773', 00H		; `string'
CONST	ENDS
;	COMDAT ??_C@_06BKPAEFEG@MAP772@
CONST	SEGMENT
??_C@_06BKPAEFEG@MAP772@ DB 'MAP772', 00H		; `string'
CONST	ENDS
;	COMDAT ??_C@_06DBNNBGIF@MAP771@
CONST	SEGMENT
??_C@_06DBNNBGIF@MAP771@ DB 'MAP771', 00H		; `string'
CONST	ENDS
;	COMDAT ??_C@_06CIMGCHME@MAP770@
CONST	SEGMENT
??_C@_06CIMGCHME@MAP770@ DB 'MAP770', 00H		; `string'
CONST	ENDS
;	COMDAT ??_C@_06PIMGPGLK@MAP769@
CONST	SEGMENT
??_C@_06PIMGPGLK@MAP769@ DB 'MAP769', 00H		; `string'
CONST	ENDS
;	COMDAT ??_C@_06OBNNMHPL@MAP768@
CONST	SEGMENT
??_C@_06OBNNMHPL@MAP768@ DB 'MAP768', 00H		; `string'
CONST	ENDS
;	COMDAT ??_C@_06GGEFNLDE@MAP767@
CONST	SEGMENT
??_C@_06GGEFNLDE@MAP767@ DB 'MAP767', 00H		; `string'
CONST	ENDS
;	COMDAT ??_C@_06HPFOOKHF@MAP766@
CONST	SEGMENT
??_C@_06HPFOOKHF@MAP766@ DB 'MAP766', 00H		; `string'
CONST	ENDS
;	COMDAT ??_C@_06FEHDLJLG@MAP765@
CONST	SEGMENT
??_C@_06FEHDLJLG@MAP765@ DB 'MAP765', 00H		; `string'
CONST	ENDS
;	COMDAT ??_C@_06ENGIIIPH@MAP764@
CONST	SEGMENT
??_C@_06ENGIIIPH@MAP764@ DB 'MAP764', 00H		; `string'
CONST	ENDS
;	COMDAT ??_C@_06CCJBODA@MAP763@
CONST	SEGMENT
??_C@_06CCJBODA@MAP763@ DB 'MAP763', 00H		; `string'
CONST	ENDS
;	COMDAT ??_C@_06BLDCCPHB@MAP762@
CONST	SEGMENT
??_C@_06BLDCCPHB@MAP762@ DB 'MAP762', 00H		; `string'
CONST	ENDS
;	COMDAT ??_C@_06DABPHMLC@MAP761@
CONST	SEGMENT
??_C@_06DABPHMLC@MAP761@ DB 'MAP761', 00H		; `string'
CONST	ENDS
;	COMDAT ??_C@_06CJAEENPD@MAP760@
CONST	SEGMENT
??_C@_06CJAEENPD@MAP760@ DB 'MAP760', 00H		; `string'
CONST	ENDS
;	COMDAT ??_C@_06PKIAEIOD@MAP759@
CONST	SEGMENT
??_C@_06PKIAEIOD@MAP759@ DB 'MAP759', 00H		; `string'
CONST	ENDS
;	COMDAT ??_C@_06ODJLHJKC@MAP758@
CONST	SEGMENT
??_C@_06ODJLHJKC@MAP758@ DB 'MAP758', 00H		; `string'
CONST	ENDS
;	COMDAT ??_C@_06GEADGFGN@MAP757@
CONST	SEGMENT
??_C@_06GEADGFGN@MAP757@ DB 'MAP757', 00H		; `string'
CONST	ENDS
;	COMDAT ??_C@_06HNBIFECM@MAP756@
CONST	SEGMENT
??_C@_06HNBIFECM@MAP756@ DB 'MAP756', 00H		; `string'
CONST	ENDS
;	COMDAT ??_C@_06FGDFAHOP@MAP755@
CONST	SEGMENT
??_C@_06FGDFAHOP@MAP755@ DB 'MAP755', 00H		; `string'
CONST	ENDS
;	COMDAT ??_C@_06EPCODGKO@MAP754@
CONST	SEGMENT
??_C@_06EPCODGKO@MAP754@ DB 'MAP754', 00H		; `string'
CONST	ENDS
;	COMDAT ??_C@_06GPKAGJ@MAP753@
CONST	SEGMENT
??_C@_06GPKAGJ@MAP753@ DB 'MAP753', 00H			; `string'
CONST	ENDS
;	COMDAT ??_C@_06BJHEJBCI@MAP752@
CONST	SEGMENT
??_C@_06BJHEJBCI@MAP752@ DB 'MAP752', 00H		; `string'
CONST	ENDS
;	COMDAT ??_C@_06DCFJMCOL@MAP751@
CONST	SEGMENT
??_C@_06DCFJMCOL@MAP751@ DB 'MAP751', 00H		; `string'
CONST	ENDS
;	COMDAT ??_C@_06CLECPDKK@MAP750@
CONST	SEGMENT
??_C@_06CLECPDKK@MAP750@ DB 'MAP750', 00H		; `string'
CONST	ENDS
;	COMDAT ??_C@_06PLECCCNE@MAP749@
CONST	SEGMENT
??_C@_06PLECCCNE@MAP749@ DB 'MAP749', 00H		; `string'
CONST	ENDS
;	COMDAT ??_C@_06OCFJBDJF@MAP748@
CONST	SEGMENT
??_C@_06OCFJBDJF@MAP748@ DB 'MAP748', 00H		; `string'
CONST	ENDS
;	COMDAT ??_C@_06GFMBAPFK@MAP747@
CONST	SEGMENT
??_C@_06GFMBAPFK@MAP747@ DB 'MAP747', 00H		; `string'
CONST	ENDS
;	COMDAT ??_C@_06HMNKDOBL@MAP746@
CONST	SEGMENT
??_C@_06HMNKDOBL@MAP746@ DB 'MAP746', 00H		; `string'
CONST	ENDS
;	COMDAT ??_C@_06FHPHGNNI@MAP745@
CONST	SEGMENT
??_C@_06FHPHGNNI@MAP745@ DB 'MAP745', 00H		; `string'
CONST	ENDS
;	COMDAT ??_C@_06EOOMFMJJ@MAP744@
CONST	SEGMENT
??_C@_06EOOMFMJJ@MAP744@ DB 'MAP744', 00H		; `string'
CONST	ENDS
;	COMDAT ??_C@_06BKNMKFO@MAP743@
CONST	SEGMENT
??_C@_06BKNMKFO@MAP743@ DB 'MAP743', 00H		; `string'
CONST	ENDS
;	COMDAT ??_C@_06BILGPLBP@MAP742@
CONST	SEGMENT
??_C@_06BILGPLBP@MAP742@ DB 'MAP742', 00H		; `string'
CONST	ENDS
;	COMDAT ??_C@_06DDJLKINM@MAP741@
CONST	SEGMENT
??_C@_06DDJLKINM@MAP741@ DB 'MAP741', 00H		; `string'
CONST	ENDS
;	COMDAT ??_C@_06CKIAJJJN@MAP740@
CONST	SEGMENT
??_C@_06CKIAJJJN@MAP740@ DB 'MAP740', 00H		; `string'
CONST	ENDS
;	COMDAT ??_C@_06POANDEFB@MAP739@
CONST	SEGMENT
??_C@_06POANDEFB@MAP739@ DB 'MAP739', 00H		; `string'
CONST	ENDS
;	COMDAT ??_C@_06OHBGAFBA@MAP738@
CONST	SEGMENT
??_C@_06OHBGAFBA@MAP738@ DB 'MAP738', 00H		; `string'
CONST	ENDS
;	COMDAT ??_C@_06GAIOBJNP@MAP737@
CONST	SEGMENT
??_C@_06GAIOBJNP@MAP737@ DB 'MAP737', 00H		; `string'
CONST	ENDS
;	COMDAT ??_C@_06HJJFCIJO@MAP736@
CONST	SEGMENT
??_C@_06HJJFCIJO@MAP736@ DB 'MAP736', 00H		; `string'
CONST	ENDS
;	COMDAT ??_C@_06FCLIHLFN@MAP735@
CONST	SEGMENT
??_C@_06FCLIHLFN@MAP735@ DB 'MAP735', 00H		; `string'
CONST	ENDS
;	COMDAT ??_C@_06ELKDEKBM@MAP734@
CONST	SEGMENT
??_C@_06ELKDEKBM@MAP734@ DB 'MAP734', 00H		; `string'
CONST	ENDS
;	COMDAT ??_C@_06EOCNMNL@MAP733@
CONST	SEGMENT
??_C@_06EOCNMNL@MAP733@ DB 'MAP733', 00H		; `string'
CONST	ENDS
;	COMDAT ??_C@_06BNPJONJK@MAP732@
CONST	SEGMENT
??_C@_06BNPJONJK@MAP732@ DB 'MAP732', 00H		; `string'
CONST	ENDS
;	COMDAT ??_C@_06DGNELOFJ@MAP731@
CONST	SEGMENT
??_C@_06DGNELOFJ@MAP731@ DB 'MAP731', 00H		; `string'
CONST	ENDS
;	COMDAT ??_C@_06CPMPIPBI@MAP730@
CONST	SEGMENT
??_C@_06CPMPIPBI@MAP730@ DB 'MAP730', 00H		; `string'
CONST	ENDS
;	COMDAT ??_C@_06PPMPFOGG@MAP729@
CONST	SEGMENT
??_C@_06PPMPFOGG@MAP729@ DB 'MAP729', 00H		; `string'
CONST	ENDS
;	COMDAT ??_C@_06OGNEGPCH@MAP728@
CONST	SEGMENT
??_C@_06OGNEGPCH@MAP728@ DB 'MAP728', 00H		; `string'
CONST	ENDS
;	COMDAT ??_C@_06GBEMHDOI@MAP727@
CONST	SEGMENT
??_C@_06GBEMHDOI@MAP727@ DB 'MAP727', 00H		; `string'
CONST	ENDS
;	COMDAT ??_C@_06HIFHECKJ@MAP726@
CONST	SEGMENT
??_C@_06HIFHECKJ@MAP726@ DB 'MAP726', 00H		; `string'
CONST	ENDS
;	COMDAT ??_C@_06FDHKBBGK@MAP725@
CONST	SEGMENT
??_C@_06FDHKBBGK@MAP725@ DB 'MAP725', 00H		; `string'
CONST	ENDS
;	COMDAT ??_C@_06EKGBCACL@MAP724@
CONST	SEGMENT
??_C@_06EKGBCACL@MAP724@ DB 'MAP724', 00H		; `string'
CONST	ENDS
;	COMDAT ??_C@_06FCALGOM@MAP723@
CONST	SEGMENT
??_C@_06FCALGOM@MAP723@ DB 'MAP723', 00H		; `string'
CONST	ENDS
;	COMDAT ??_C@_06BMDLIHKN@MAP722@
CONST	SEGMENT
??_C@_06BMDLIHKN@MAP722@ DB 'MAP722', 00H		; `string'
CONST	ENDS
;	COMDAT ??_C@_06DHBGNEGO@MAP721@
CONST	SEGMENT
??_C@_06DHBGNEGO@MAP721@ DB 'MAP721', 00H		; `string'
CONST	ENDS
;	COMDAT ??_C@_06COANOFCP@MAP720@
CONST	SEGMENT
??_C@_06COANOFCP@MAP720@ DB 'MAP720', 00H		; `string'
CONST	ENDS
;	COMDAT ??_C@_06PNIJOADP@MAP719@
CONST	SEGMENT
??_C@_06PNIJOADP@MAP719@ DB 'MAP719', 00H		; `string'
CONST	ENDS
;	COMDAT ??_C@_06OEJCNBHO@MAP718@
CONST	SEGMENT
??_C@_06OEJCNBHO@MAP718@ DB 'MAP718', 00H		; `string'
CONST	ENDS
;	COMDAT ??_C@_06GDAKMNLB@MAP717@
CONST	SEGMENT
??_C@_06GDAKMNLB@MAP717@ DB 'MAP717', 00H		; `string'
CONST	ENDS
;	COMDAT ??_C@_06HKBBPMPA@MAP716@
CONST	SEGMENT
??_C@_06HKBBPMPA@MAP716@ DB 'MAP716', 00H		; `string'
CONST	ENDS
;	COMDAT ??_C@_06FBDMKPDD@MAP715@
CONST	SEGMENT
??_C@_06FBDMKPDD@MAP715@ DB 'MAP715', 00H		; `string'
CONST	ENDS
;	COMDAT ??_C@_06EICHJOHC@MAP714@
CONST	SEGMENT
??_C@_06EICHJOHC@MAP714@ DB 'MAP714', 00H		; `string'
CONST	ENDS
;	COMDAT ??_C@_06HGGAILF@MAP713@
CONST	SEGMENT
??_C@_06HGGAILF@MAP713@ DB 'MAP713', 00H		; `string'
CONST	ENDS
;	COMDAT ??_C@_06BOHNDJPE@MAP712@
CONST	SEGMENT
??_C@_06BOHNDJPE@MAP712@ DB 'MAP712', 00H		; `string'
CONST	ENDS
;	COMDAT ??_C@_06DFFAGKDH@MAP711@
CONST	SEGMENT
??_C@_06DFFAGKDH@MAP711@ DB 'MAP711', 00H		; `string'
CONST	ENDS
;	COMDAT ??_C@_06CMELFLHG@MAP710@
CONST	SEGMENT
??_C@_06CMELFLHG@MAP710@ DB 'MAP710', 00H		; `string'
CONST	ENDS
;	COMDAT ??_C@_06PMELIKAI@MAP709@
CONST	SEGMENT
??_C@_06PMELIKAI@MAP709@ DB 'MAP709', 00H		; `string'
CONST	ENDS
;	COMDAT ??_C@_06OFFALLEJ@MAP708@
CONST	SEGMENT
??_C@_06OFFALLEJ@MAP708@ DB 'MAP708', 00H		; `string'
CONST	ENDS
;	COMDAT ??_C@_06GCMIKHIG@MAP707@
CONST	SEGMENT
??_C@_06GCMIKHIG@MAP707@ DB 'MAP707', 00H		; `string'
CONST	ENDS
;	COMDAT ??_C@_06HLNDJGMH@MAP706@
CONST	SEGMENT
??_C@_06HLNDJGMH@MAP706@ DB 'MAP706', 00H		; `string'
CONST	ENDS
;	COMDAT ??_C@_06FAPOMFAE@MAP705@
CONST	SEGMENT
??_C@_06FAPOMFAE@MAP705@ DB 'MAP705', 00H		; `string'
CONST	ENDS
;	COMDAT ??_C@_06EJOFPEEF@MAP704@
CONST	SEGMENT
??_C@_06EJOFPEEF@MAP704@ DB 'MAP704', 00H		; `string'
CONST	ENDS
;	COMDAT ??_C@_06GKEGCIC@MAP703@
CONST	SEGMENT
??_C@_06GKEGCIC@MAP703@ DB 'MAP703', 00H		; `string'
CONST	ENDS
;	COMDAT ??_C@_06BPLPFDMD@MAP702@
CONST	SEGMENT
??_C@_06BPLPFDMD@MAP702@ DB 'MAP702', 00H		; `string'
CONST	ENDS
;	COMDAT ??_C@_06DEJCAAAA@MAP701@
CONST	SEGMENT
??_C@_06DEJCAAAA@MAP701@ DB 'MAP701', 00H		; `string'
CONST	ENDS
;	COMDAT ??_C@_06CNIJDBEB@MAP700@
CONST	SEGMENT
??_C@_06CNIJDBEB@MAP700@ DB 'MAP700', 00H		; `string'
CONST	ENDS
;	COMDAT ??_C@_06ELCGNGOC@MAP699@
CONST	SEGMENT
??_C@_06ELCGNGOC@MAP699@ DB 'MAP699', 00H		; `string'
CONST	ENDS
;	COMDAT ??_C@_06FCDNOHKD@MAP698@
CONST	SEGMENT
??_C@_06FCDNOHKD@MAP698@ DB 'MAP698', 00H		; `string'
CONST	ENDS
;	COMDAT ??_C@_06NFKFPLGM@MAP697@
CONST	SEGMENT
??_C@_06NFKFPLGM@MAP697@ DB 'MAP697', 00H		; `string'
CONST	ENDS
;	COMDAT ??_C@_06MMLOMKCN@MAP696@
CONST	SEGMENT
??_C@_06MMLOMKCN@MAP696@ DB 'MAP696', 00H		; `string'
CONST	ENDS
;	COMDAT ??_C@_06OHJDJJOO@MAP695@
CONST	SEGMENT
??_C@_06OHJDJJOO@MAP695@ DB 'MAP695', 00H		; `string'
CONST	ENDS
;	COMDAT ??_C@_06POIIKIKP@MAP694@
CONST	SEGMENT
??_C@_06POIIKIKP@MAP694@ DB 'MAP694', 00H		; `string'
CONST	ENDS
;	COMDAT ??_C@_06LBMJDOGI@MAP693@
CONST	SEGMENT
??_C@_06LBMJDOGI@MAP693@ DB 'MAP693', 00H		; `string'
CONST	ENDS
;	COMDAT ??_C@_06KINCAPCJ@MAP692@
CONST	SEGMENT
??_C@_06KINCAPCJ@MAP692@ DB 'MAP692', 00H		; `string'
CONST	ENDS
;	COMDAT ??_C@_06IDPPFMOK@MAP691@
CONST	SEGMENT
??_C@_06IDPPFMOK@MAP691@ DB 'MAP691', 00H		; `string'
CONST	ENDS
;	COMDAT ??_C@_06JKOEGNKL@MAP690@
CONST	SEGMENT
??_C@_06JKOEGNKL@MAP690@ DB 'MAP690', 00H		; `string'
CONST	ENDS
;	COMDAT ??_C@_06EKOELMNF@MAP689@
CONST	SEGMENT
??_C@_06EKOELMNF@MAP689@ DB 'MAP689', 00H		; `string'
CONST	ENDS
;	COMDAT ??_C@_06FDPPINJE@MAP688@
CONST	SEGMENT
??_C@_06FDPPINJE@MAP688@ DB 'MAP688', 00H		; `string'
CONST	ENDS
;	COMDAT ??_C@_06NEGHJBFL@MAP687@
CONST	SEGMENT
??_C@_06NEGHJBFL@MAP687@ DB 'MAP687', 00H		; `string'
CONST	ENDS
;	COMDAT ??_C@_06MNHMKABK@MAP686@
CONST	SEGMENT
??_C@_06MNHMKABK@MAP686@ DB 'MAP686', 00H		; `string'
CONST	ENDS
;	COMDAT ??_C@_06OGFBPDNJ@MAP685@
CONST	SEGMENT
??_C@_06OGFBPDNJ@MAP685@ DB 'MAP685', 00H		; `string'
CONST	ENDS
;	COMDAT ??_C@_06PPEKMCJI@MAP684@
CONST	SEGMENT
??_C@_06PPEKMCJI@MAP684@ DB 'MAP684', 00H		; `string'
CONST	ENDS
;	COMDAT ??_C@_06LAALFEFP@MAP683@
CONST	SEGMENT
??_C@_06LAALFEFP@MAP683@ DB 'MAP683', 00H		; `string'
CONST	ENDS
;	COMDAT ??_C@_06KJBAGFBO@MAP682@
CONST	SEGMENT
??_C@_06KJBAGFBO@MAP682@ DB 'MAP682', 00H		; `string'
CONST	ENDS
;	COMDAT ??_C@_06ICDNDGNN@MAP681@
CONST	SEGMENT
??_C@_06ICDNDGNN@MAP681@ DB 'MAP681', 00H		; `string'
CONST	ENDS
;	COMDAT ??_C@_06JLCGAHJM@MAP680@
CONST	SEGMENT
??_C@_06JLCGAHJM@MAP680@ DB 'MAP680', 00H		; `string'
CONST	ENDS
;	COMDAT ??_C@_06EBLIPLOI@MAP679@
CONST	SEGMENT
??_C@_06EBLIPLOI@MAP679@ DB 'MAP679', 00H		; `string'
CONST	ENDS
;	COMDAT ??_C@_06FIKDMKKJ@MAP678@
CONST	SEGMENT
??_C@_06FIKDMKKJ@MAP678@ DB 'MAP678', 00H		; `string'
CONST	ENDS
;	COMDAT ??_C@_06NPDLNGGG@MAP677@
CONST	SEGMENT
??_C@_06NPDLNGGG@MAP677@ DB 'MAP677', 00H		; `string'
CONST	ENDS
;	COMDAT ??_C@_06MGCAOHCH@MAP676@
CONST	SEGMENT
??_C@_06MGCAOHCH@MAP676@ DB 'MAP676', 00H		; `string'
CONST	ENDS
;	COMDAT ??_C@_06ONANLEOE@MAP675@
CONST	SEGMENT
??_C@_06ONANLEOE@MAP675@ DB 'MAP675', 00H		; `string'
CONST	ENDS
;	COMDAT ??_C@_06PEBGIFKF@MAP674@
CONST	SEGMENT
??_C@_06PEBGIFKF@MAP674@ DB 'MAP674', 00H		; `string'
CONST	ENDS
;	COMDAT ??_C@_06LLFHBDGC@MAP673@
CONST	SEGMENT
??_C@_06LLFHBDGC@MAP673@ DB 'MAP673', 00H		; `string'
CONST	ENDS
;	COMDAT ??_C@_06KCEMCCCD@MAP672@
CONST	SEGMENT
??_C@_06KCEMCCCD@MAP672@ DB 'MAP672', 00H		; `string'
CONST	ENDS
;	COMDAT ??_C@_06IJGBHBOA@MAP671@
CONST	SEGMENT
??_C@_06IJGBHBOA@MAP671@ DB 'MAP671', 00H		; `string'
CONST	ENDS
;	COMDAT ??_C@_06JAHKEAKB@MAP670@
CONST	SEGMENT
??_C@_06JAHKEAKB@MAP670@ DB 'MAP670', 00H		; `string'
CONST	ENDS
;	COMDAT ??_C@_06EAHKJBNP@MAP669@
CONST	SEGMENT
??_C@_06EAHKJBNP@MAP669@ DB 'MAP669', 00H		; `string'
CONST	ENDS
;	COMDAT ??_C@_06FJGBKAJO@MAP668@
CONST	SEGMENT
??_C@_06FJGBKAJO@MAP668@ DB 'MAP668', 00H		; `string'
CONST	ENDS
;	COMDAT ??_C@_06NOPJLMFB@MAP667@
CONST	SEGMENT
??_C@_06NOPJLMFB@MAP667@ DB 'MAP667', 00H		; `string'
CONST	ENDS
;	COMDAT ??_C@_06MHOCINBA@MAP666@
CONST	SEGMENT
??_C@_06MHOCINBA@MAP666@ DB 'MAP666', 00H		; `string'
CONST	ENDS
;	COMDAT ??_C@_06OMMPNOND@MAP665@
CONST	SEGMENT
??_C@_06OMMPNOND@MAP665@ DB 'MAP665', 00H		; `string'
CONST	ENDS
;	COMDAT ??_C@_06PFNEOPJC@MAP664@
CONST	SEGMENT
??_C@_06PFNEOPJC@MAP664@ DB 'MAP664', 00H		; `string'
CONST	ENDS
;	COMDAT ??_C@_06LKJFHJFF@MAP663@
CONST	SEGMENT
??_C@_06LKJFHJFF@MAP663@ DB 'MAP663', 00H		; `string'
CONST	ENDS
;	COMDAT ??_C@_06KDIOEIBE@MAP662@
CONST	SEGMENT
??_C@_06KDIOEIBE@MAP662@ DB 'MAP662', 00H		; `string'
CONST	ENDS
;	COMDAT ??_C@_06IIKDBLNH@MAP661@
CONST	SEGMENT
??_C@_06IIKDBLNH@MAP661@ DB 'MAP661', 00H		; `string'
CONST	ENDS
;	COMDAT ??_C@_06JBLICKJG@MAP660@
CONST	SEGMENT
??_C@_06JBLICKJG@MAP660@ DB 'MAP660', 00H		; `string'
CONST	ENDS
;	COMDAT ??_C@_06ECDMCPIG@MAP659@
CONST	SEGMENT
??_C@_06ECDMCPIG@MAP659@ DB 'MAP659', 00H		; `string'
CONST	ENDS
;	COMDAT ??_C@_06FLCHBOMH@MAP658@
CONST	SEGMENT
??_C@_06FLCHBOMH@MAP658@ DB 'MAP658', 00H		; `string'
CONST	ENDS
;	COMDAT ??_C@_06NMLPACAI@MAP657@
CONST	SEGMENT
??_C@_06NMLPACAI@MAP657@ DB 'MAP657', 00H		; `string'
CONST	ENDS
;	COMDAT ??_C@_06MFKEDDEJ@MAP656@
CONST	SEGMENT
??_C@_06MFKEDDEJ@MAP656@ DB 'MAP656', 00H		; `string'
CONST	ENDS
;	COMDAT ??_C@_06OOIJGAIK@MAP655@
CONST	SEGMENT
??_C@_06OOIJGAIK@MAP655@ DB 'MAP655', 00H		; `string'
CONST	ENDS
;	COMDAT ??_C@_06PHJCFBML@MAP654@
CONST	SEGMENT
??_C@_06PHJCFBML@MAP654@ DB 'MAP654', 00H		; `string'
CONST	ENDS
;	COMDAT ??_C@_06LINDMHAM@MAP653@
CONST	SEGMENT
??_C@_06LINDMHAM@MAP653@ DB 'MAP653', 00H		; `string'
CONST	ENDS
;	COMDAT ??_C@_06KBMIPGEN@MAP652@
CONST	SEGMENT
??_C@_06KBMIPGEN@MAP652@ DB 'MAP652', 00H		; `string'
CONST	ENDS
;	COMDAT ??_C@_06IKOFKFIO@MAP651@
CONST	SEGMENT
??_C@_06IKOFKFIO@MAP651@ DB 'MAP651', 00H		; `string'
CONST	ENDS
;	COMDAT ??_C@_06JDPOJEMP@MAP650@
CONST	SEGMENT
??_C@_06JDPOJEMP@MAP650@ DB 'MAP650', 00H		; `string'
CONST	ENDS
;	COMDAT ??_C@_06EDPOEFLB@MAP649@
CONST	SEGMENT
??_C@_06EDPOEFLB@MAP649@ DB 'MAP649', 00H		; `string'
CONST	ENDS
;	COMDAT ??_C@_06FKOFHEPA@MAP648@
CONST	SEGMENT
??_C@_06FKOFHEPA@MAP648@ DB 'MAP648', 00H		; `string'
CONST	ENDS
;	COMDAT ??_C@_06NNHNGIDP@MAP647@
CONST	SEGMENT
??_C@_06NNHNGIDP@MAP647@ DB 'MAP647', 00H		; `string'
CONST	ENDS
;	COMDAT ??_C@_06MEGGFJHO@MAP646@
CONST	SEGMENT
??_C@_06MEGGFJHO@MAP646@ DB 'MAP646', 00H		; `string'
CONST	ENDS
;	COMDAT ??_C@_06OPELAKLN@MAP645@
CONST	SEGMENT
??_C@_06OPELAKLN@MAP645@ DB 'MAP645', 00H		; `string'
CONST	ENDS
;	COMDAT ??_C@_06PGFADLPM@MAP644@
CONST	SEGMENT
??_C@_06PGFADLPM@MAP644@ DB 'MAP644', 00H		; `string'
CONST	ENDS
;	COMDAT ??_C@_06LJBBKNDL@MAP643@
CONST	SEGMENT
??_C@_06LJBBKNDL@MAP643@ DB 'MAP643', 00H		; `string'
CONST	ENDS
;	COMDAT ??_C@_06KAAKJMHK@MAP642@
CONST	SEGMENT
??_C@_06KAAKJMHK@MAP642@ DB 'MAP642', 00H		; `string'
CONST	ENDS
;	COMDAT ??_C@_06ILCHMPLJ@MAP641@
CONST	SEGMENT
??_C@_06ILCHMPLJ@MAP641@ DB 'MAP641', 00H		; `string'
CONST	ENDS
;	COMDAT ??_C@_06JCDMPOPI@MAP640@
CONST	SEGMENT
??_C@_06JCDMPOPI@MAP640@ DB 'MAP640', 00H		; `string'
CONST	ENDS
;	COMDAT ??_C@_06EGLBFDDE@MAP639@
CONST	SEGMENT
??_C@_06EGLBFDDE@MAP639@ DB 'MAP639', 00H		; `string'
CONST	ENDS
;	COMDAT ??_C@_06FPKKGCHF@MAP638@
CONST	SEGMENT
??_C@_06FPKKGCHF@MAP638@ DB 'MAP638', 00H		; `string'
CONST	ENDS
;	COMDAT ??_C@_06NIDCHOLK@MAP637@
CONST	SEGMENT
??_C@_06NIDCHOLK@MAP637@ DB 'MAP637', 00H		; `string'
CONST	ENDS
;	COMDAT ??_C@_06MBCJEPPL@MAP636@
CONST	SEGMENT
??_C@_06MBCJEPPL@MAP636@ DB 'MAP636', 00H		; `string'
CONST	ENDS
;	COMDAT ??_C@_06OKAEBMDI@MAP635@
CONST	SEGMENT
??_C@_06OKAEBMDI@MAP635@ DB 'MAP635', 00H		; `string'
CONST	ENDS
;	COMDAT ??_C@_06PDBPCNHJ@MAP634@
CONST	SEGMENT
??_C@_06PDBPCNHJ@MAP634@ DB 'MAP634', 00H		; `string'
CONST	ENDS
;	COMDAT ??_C@_06LMFOLLLO@MAP633@
CONST	SEGMENT
??_C@_06LMFOLLLO@MAP633@ DB 'MAP633', 00H		; `string'
CONST	ENDS
;	COMDAT ??_C@_06KFEFIKPP@MAP632@
CONST	SEGMENT
??_C@_06KFEFIKPP@MAP632@ DB 'MAP632', 00H		; `string'
CONST	ENDS
;	COMDAT ??_C@_06IOGINJDM@MAP631@
CONST	SEGMENT
??_C@_06IOGINJDM@MAP631@ DB 'MAP631', 00H		; `string'
CONST	ENDS
;	COMDAT ??_C@_06JHHDOIHN@MAP630@
CONST	SEGMENT
??_C@_06JHHDOIHN@MAP630@ DB 'MAP630', 00H		; `string'
CONST	ENDS
;	COMDAT ??_C@_06EHHDDJAD@MAP629@
CONST	SEGMENT
??_C@_06EHHDDJAD@MAP629@ DB 'MAP629', 00H		; `string'
CONST	ENDS
;	COMDAT ??_C@_06FOGIAIEC@MAP628@
CONST	SEGMENT
??_C@_06FOGIAIEC@MAP628@ DB 'MAP628', 00H		; `string'
CONST	ENDS
;	COMDAT ??_C@_06NJPABEIN@MAP627@
CONST	SEGMENT
??_C@_06NJPABEIN@MAP627@ DB 'MAP627', 00H		; `string'
CONST	ENDS
;	COMDAT ??_C@_06MAOLCFMM@MAP626@
CONST	SEGMENT
??_C@_06MAOLCFMM@MAP626@ DB 'MAP626', 00H		; `string'
CONST	ENDS
;	COMDAT ??_C@_06OLMGHGAP@MAP625@
CONST	SEGMENT
??_C@_06OLMGHGAP@MAP625@ DB 'MAP625', 00H		; `string'
CONST	ENDS
;	COMDAT ??_C@_06PCNNEHEO@MAP624@
CONST	SEGMENT
??_C@_06PCNNEHEO@MAP624@ DB 'MAP624', 00H		; `string'
CONST	ENDS
;	COMDAT ??_C@_06LNJMNBIJ@MAP623@
CONST	SEGMENT
??_C@_06LNJMNBIJ@MAP623@ DB 'MAP623', 00H		; `string'
CONST	ENDS
;	COMDAT ??_C@_06KEIHOAMI@MAP622@
CONST	SEGMENT
??_C@_06KEIHOAMI@MAP622@ DB 'MAP622', 00H		; `string'
CONST	ENDS
;	COMDAT ??_C@_06IPKKLDAL@MAP621@
CONST	SEGMENT
??_C@_06IPKKLDAL@MAP621@ DB 'MAP621', 00H		; `string'
CONST	ENDS
;	COMDAT ??_C@_06JGLBICEK@MAP620@
CONST	SEGMENT
??_C@_06JGLBICEK@MAP620@ DB 'MAP620', 00H		; `string'
CONST	ENDS
;	COMDAT ??_C@_06EFDFIHFK@MAP619@
CONST	SEGMENT
??_C@_06EFDFIHFK@MAP619@ DB 'MAP619', 00H		; `string'
CONST	ENDS
;	COMDAT ??_C@_06FMCOLGBL@MAP618@
CONST	SEGMENT
??_C@_06FMCOLGBL@MAP618@ DB 'MAP618', 00H		; `string'
CONST	ENDS
;	COMDAT ??_C@_06NLLGKKNE@MAP617@
CONST	SEGMENT
??_C@_06NLLGKKNE@MAP617@ DB 'MAP617', 00H		; `string'
CONST	ENDS
;	COMDAT ??_C@_06MCKNJLJF@MAP616@
CONST	SEGMENT
??_C@_06MCKNJLJF@MAP616@ DB 'MAP616', 00H		; `string'
CONST	ENDS
;	COMDAT ??_C@_06OJIAMIFG@MAP615@
CONST	SEGMENT
??_C@_06OJIAMIFG@MAP615@ DB 'MAP615', 00H		; `string'
CONST	ENDS
;	COMDAT ??_C@_06PAJLPJBH@MAP614@
CONST	SEGMENT
??_C@_06PAJLPJBH@MAP614@ DB 'MAP614', 00H		; `string'
CONST	ENDS
;	COMDAT ??_C@_06LPNKGPNA@MAP613@
CONST	SEGMENT
??_C@_06LPNKGPNA@MAP613@ DB 'MAP613', 00H		; `string'
CONST	ENDS
;	COMDAT ??_C@_06KGMBFOJB@MAP612@
CONST	SEGMENT
??_C@_06KGMBFOJB@MAP612@ DB 'MAP612', 00H		; `string'
CONST	ENDS
;	COMDAT ??_C@_06INOMANFC@MAP611@
CONST	SEGMENT
??_C@_06INOMANFC@MAP611@ DB 'MAP611', 00H		; `string'
CONST	ENDS
;	COMDAT ??_C@_06JEPHDMBD@MAP610@
CONST	SEGMENT
??_C@_06JEPHDMBD@MAP610@ DB 'MAP610', 00H		; `string'
CONST	ENDS
;	COMDAT ??_C@_06EEPHONGN@MAP609@
CONST	SEGMENT
??_C@_06EEPHONGN@MAP609@ DB 'MAP609', 00H		; `string'
CONST	ENDS
;	COMDAT ??_C@_06FNOMNMCM@MAP608@
CONST	SEGMENT
??_C@_06FNOMNMCM@MAP608@ DB 'MAP608', 00H		; `string'
CONST	ENDS
;	COMDAT ??_C@_06NKHEMAOD@MAP607@
CONST	SEGMENT
??_C@_06NKHEMAOD@MAP607@ DB 'MAP607', 00H		; `string'
CONST	ENDS
;	COMDAT ??_C@_06MDGPPBKC@MAP606@
CONST	SEGMENT
??_C@_06MDGPPBKC@MAP606@ DB 'MAP606', 00H		; `string'
CONST	ENDS
;	COMDAT ??_C@_06OIECKCGB@MAP605@
CONST	SEGMENT
??_C@_06OIECKCGB@MAP605@ DB 'MAP605', 00H		; `string'
CONST	ENDS
;	COMDAT ??_C@_06PBFJJDCA@MAP604@
CONST	SEGMENT
??_C@_06PBFJJDCA@MAP604@ DB 'MAP604', 00H		; `string'
CONST	ENDS
;	COMDAT ??_C@_06LOBIAFOH@MAP603@
CONST	SEGMENT
??_C@_06LOBIAFOH@MAP603@ DB 'MAP603', 00H		; `string'
CONST	ENDS
;	COMDAT ??_C@_06KHADDEKG@MAP602@
CONST	SEGMENT
??_C@_06KHADDEKG@MAP602@ DB 'MAP602', 00H		; `string'
CONST	ENDS
;	COMDAT ??_C@_06IMCOGHGF@MAP601@
CONST	SEGMENT
??_C@_06IMCOGHGF@MAP601@ DB 'MAP601', 00H		; `string'
CONST	ENDS
;	COMDAT ??_C@_06JFDFFGCE@MAP600@
CONST	SEGMENT
??_C@_06JFDFFGCE@MAP600@ DB 'MAP600', 00H		; `string'
CONST	ENDS
;	COMDAT ??_C@_06FJJDHJAM@MAP599@
CONST	SEGMENT
??_C@_06FJJDHJAM@MAP599@ DB 'MAP599', 00H		; `string'
CONST	ENDS
;	COMDAT ??_C@_06EAIIEIEN@MAP598@
CONST	SEGMENT
??_C@_06EAIIEIEN@MAP598@ DB 'MAP598', 00H		; `string'
CONST	ENDS
;	COMDAT ??_C@_06MHBAFEIC@MAP597@
CONST	SEGMENT
??_C@_06MHBAFEIC@MAP597@ DB 'MAP597', 00H		; `string'
CONST	ENDS
;	COMDAT ??_C@_06NOALGFMD@MAP596@
CONST	SEGMENT
??_C@_06NOALGFMD@MAP596@ DB 'MAP596', 00H		; `string'
CONST	ENDS
;	COMDAT ??_C@_06PFCGDGAA@MAP595@
CONST	SEGMENT
??_C@_06PFCGDGAA@MAP595@ DB 'MAP595', 00H		; `string'
CONST	ENDS
;	COMDAT ??_C@_06OMDNAHEB@MAP594@
CONST	SEGMENT
??_C@_06OMDNAHEB@MAP594@ DB 'MAP594', 00H		; `string'
CONST	ENDS
;	COMDAT ??_C@_06KDHMJBIG@MAP593@
CONST	SEGMENT
??_C@_06KDHMJBIG@MAP593@ DB 'MAP593', 00H		; `string'
CONST	ENDS
;	COMDAT ??_C@_06LKGHKAMH@MAP592@
CONST	SEGMENT
??_C@_06LKGHKAMH@MAP592@ DB 'MAP592', 00H		; `string'
CONST	ENDS
;	COMDAT ??_C@_06JBEKPDAE@MAP591@
CONST	SEGMENT
??_C@_06JBEKPDAE@MAP591@ DB 'MAP591', 00H		; `string'
CONST	ENDS
;	COMDAT ??_C@_06IIFBMCEF@MAP590@
CONST	SEGMENT
??_C@_06IIFBMCEF@MAP590@ DB 'MAP590', 00H		; `string'
CONST	ENDS
;	COMDAT ??_C@_06FIFBBDDL@MAP589@
CONST	SEGMENT
??_C@_06FIFBBDDL@MAP589@ DB 'MAP589', 00H		; `string'
CONST	ENDS
;	COMDAT ??_C@_06EBEKCCHK@MAP588@
CONST	SEGMENT
??_C@_06EBEKCCHK@MAP588@ DB 'MAP588', 00H		; `string'
CONST	ENDS
;	COMDAT ??_C@_06MGNCDOLF@MAP587@
CONST	SEGMENT
??_C@_06MGNCDOLF@MAP587@ DB 'MAP587', 00H		; `string'
CONST	ENDS
;	COMDAT ??_C@_06NPMJAPPE@MAP586@
CONST	SEGMENT
??_C@_06NPMJAPPE@MAP586@ DB 'MAP586', 00H		; `string'
CONST	ENDS
;	COMDAT ??_C@_06PEOEFMDH@MAP585@
CONST	SEGMENT
??_C@_06PEOEFMDH@MAP585@ DB 'MAP585', 00H		; `string'
CONST	ENDS
;	COMDAT ??_C@_06ONPPGNHG@MAP584@
CONST	SEGMENT
??_C@_06ONPPGNHG@MAP584@ DB 'MAP584', 00H		; `string'
CONST	ENDS
;	COMDAT ??_C@_06KCLOPLLB@MAP583@
CONST	SEGMENT
??_C@_06KCLOPLLB@MAP583@ DB 'MAP583', 00H		; `string'
CONST	ENDS
;	COMDAT ??_C@_06LLKFMKPA@MAP582@
CONST	SEGMENT
??_C@_06LLKFMKPA@MAP582@ DB 'MAP582', 00H		; `string'
CONST	ENDS
;	COMDAT ??_C@_06JAIIJJDD@MAP581@
CONST	SEGMENT
??_C@_06JAIIJJDD@MAP581@ DB 'MAP581', 00H		; `string'
CONST	ENDS
;	COMDAT ??_C@_06IJJDKIHC@MAP580@
CONST	SEGMENT
??_C@_06IJJDKIHC@MAP580@ DB 'MAP580', 00H		; `string'
CONST	ENDS
;	COMDAT ??_C@_06FDANFEAG@MAP579@
CONST	SEGMENT
??_C@_06FDANFEAG@MAP579@ DB 'MAP579', 00H		; `string'
CONST	ENDS
;	COMDAT ??_C@_06EKBGGFEH@MAP578@
CONST	SEGMENT
??_C@_06EKBGGFEH@MAP578@ DB 'MAP578', 00H		; `string'
CONST	ENDS
;	COMDAT ??_C@_06MNIOHJII@MAP577@
CONST	SEGMENT
??_C@_06MNIOHJII@MAP577@ DB 'MAP577', 00H		; `string'
CONST	ENDS
;	COMDAT ??_C@_06NEJFEIMJ@MAP576@
CONST	SEGMENT
??_C@_06NEJFEIMJ@MAP576@ DB 'MAP576', 00H		; `string'
CONST	ENDS
;	COMDAT ??_C@_06PPLIBLAK@MAP575@
CONST	SEGMENT
??_C@_06PPLIBLAK@MAP575@ DB 'MAP575', 00H		; `string'
CONST	ENDS
;	COMDAT ??_C@_06OGKDCKEL@MAP574@
CONST	SEGMENT
??_C@_06OGKDCKEL@MAP574@ DB 'MAP574', 00H		; `string'
CONST	ENDS
;	COMDAT ??_C@_06KJOCLMIM@MAP573@
CONST	SEGMENT
??_C@_06KJOCLMIM@MAP573@ DB 'MAP573', 00H		; `string'
CONST	ENDS
;	COMDAT ??_C@_06LAPJINMN@MAP572@
CONST	SEGMENT
??_C@_06LAPJINMN@MAP572@ DB 'MAP572', 00H		; `string'
CONST	ENDS
;	COMDAT ??_C@_06JLNENOAO@MAP571@
CONST	SEGMENT
??_C@_06JLNENOAO@MAP571@ DB 'MAP571', 00H		; `string'
CONST	ENDS
;	COMDAT ??_C@_06ICMPOPEP@MAP570@
CONST	SEGMENT
??_C@_06ICMPOPEP@MAP570@ DB 'MAP570', 00H		; `string'
CONST	ENDS
;	COMDAT ??_C@_06FCMPDODB@MAP569@
CONST	SEGMENT
??_C@_06FCMPDODB@MAP569@ DB 'MAP569', 00H		; `string'
CONST	ENDS
;	COMDAT ??_C@_06ELNEAPHA@MAP568@
CONST	SEGMENT
??_C@_06ELNEAPHA@MAP568@ DB 'MAP568', 00H		; `string'
CONST	ENDS
;	COMDAT ??_C@_06MMEMBDLP@MAP567@
CONST	SEGMENT
??_C@_06MMEMBDLP@MAP567@ DB 'MAP567', 00H		; `string'
CONST	ENDS
;	COMDAT ??_C@_06NFFHCCPO@MAP566@
CONST	SEGMENT
??_C@_06NFFHCCPO@MAP566@ DB 'MAP566', 00H		; `string'
CONST	ENDS
;	COMDAT ??_C@_06POHKHBDN@MAP565@
CONST	SEGMENT
??_C@_06POHKHBDN@MAP565@ DB 'MAP565', 00H		; `string'
CONST	ENDS
;	COMDAT ??_C@_06OHGBEAHM@MAP564@
CONST	SEGMENT
??_C@_06OHGBEAHM@MAP564@ DB 'MAP564', 00H		; `string'
CONST	ENDS
;	COMDAT ??_C@_06KICANGLL@MAP563@
CONST	SEGMENT
??_C@_06KICANGLL@MAP563@ DB 'MAP563', 00H		; `string'
CONST	ENDS
;	COMDAT ??_C@_06LBDLOHPK@MAP562@
CONST	SEGMENT
??_C@_06LBDLOHPK@MAP562@ DB 'MAP562', 00H		; `string'
CONST	ENDS
;	COMDAT ??_C@_06JKBGLEDJ@MAP561@
CONST	SEGMENT
??_C@_06JKBGLEDJ@MAP561@ DB 'MAP561', 00H		; `string'
CONST	ENDS
;	COMDAT ??_C@_06IDANIFHI@MAP560@
CONST	SEGMENT
??_C@_06IDANIFHI@MAP560@ DB 'MAP560', 00H		; `string'
CONST	ENDS
;	COMDAT ??_C@_06FAIJIAGI@MAP559@
CONST	SEGMENT
??_C@_06FAIJIAGI@MAP559@ DB 'MAP559', 00H		; `string'
CONST	ENDS
;	COMDAT ??_C@_06EJJCLBCJ@MAP558@
CONST	SEGMENT
??_C@_06EJJCLBCJ@MAP558@ DB 'MAP558', 00H		; `string'
CONST	ENDS
;	COMDAT ??_C@_06MOAKKNOG@MAP557@
CONST	SEGMENT
??_C@_06MOAKKNOG@MAP557@ DB 'MAP557', 00H		; `string'
CONST	ENDS
;	COMDAT ??_C@_06NHBBJMKH@MAP556@
CONST	SEGMENT
??_C@_06NHBBJMKH@MAP556@ DB 'MAP556', 00H		; `string'
CONST	ENDS
;	COMDAT ??_C@_06PMDMMPGE@MAP555@
CONST	SEGMENT
??_C@_06PMDMMPGE@MAP555@ DB 'MAP555', 00H		; `string'
CONST	ENDS
;	COMDAT ??_C@_06OFCHPOCF@MAP554@
CONST	SEGMENT
??_C@_06OFCHPOCF@MAP554@ DB 'MAP554', 00H		; `string'
CONST	ENDS
;	COMDAT ??_C@_06KKGGGIOC@MAP553@
CONST	SEGMENT
??_C@_06KKGGGIOC@MAP553@ DB 'MAP553', 00H		; `string'
CONST	ENDS
;	COMDAT ??_C@_06LDHNFJKD@MAP552@
CONST	SEGMENT
??_C@_06LDHNFJKD@MAP552@ DB 'MAP552', 00H		; `string'
CONST	ENDS
;	COMDAT ??_C@_06JIFAAKGA@MAP551@
CONST	SEGMENT
??_C@_06JIFAAKGA@MAP551@ DB 'MAP551', 00H		; `string'
CONST	ENDS
;	COMDAT ??_C@_06IBELDLCB@MAP550@
CONST	SEGMENT
??_C@_06IBELDLCB@MAP550@ DB 'MAP550', 00H		; `string'
CONST	ENDS
;	COMDAT ??_C@_06FBELOKFP@MAP549@
CONST	SEGMENT
??_C@_06FBELOKFP@MAP549@ DB 'MAP549', 00H		; `string'
CONST	ENDS
;	COMDAT ??_C@_06EIFANLBO@MAP548@
CONST	SEGMENT
??_C@_06EIFANLBO@MAP548@ DB 'MAP548', 00H		; `string'
CONST	ENDS
;	COMDAT ??_C@_06MPMIMHNB@MAP547@
CONST	SEGMENT
??_C@_06MPMIMHNB@MAP547@ DB 'MAP547', 00H		; `string'
CONST	ENDS
;	COMDAT ??_C@_06NGNDPGJA@MAP546@
CONST	SEGMENT
??_C@_06NGNDPGJA@MAP546@ DB 'MAP546', 00H		; `string'
CONST	ENDS
;	COMDAT ??_C@_06PNPOKFFD@MAP545@
CONST	SEGMENT
??_C@_06PNPOKFFD@MAP545@ DB 'MAP545', 00H		; `string'
CONST	ENDS
;	COMDAT ??_C@_06OEOFJEBC@MAP544@
CONST	SEGMENT
??_C@_06OEOFJEBC@MAP544@ DB 'MAP544', 00H		; `string'
CONST	ENDS
;	COMDAT ??_C@_06KLKEACNF@MAP543@
CONST	SEGMENT
??_C@_06KLKEACNF@MAP543@ DB 'MAP543', 00H		; `string'
CONST	ENDS
;	COMDAT ??_C@_06LCLPDDJE@MAP542@
CONST	SEGMENT
??_C@_06LCLPDDJE@MAP542@ DB 'MAP542', 00H		; `string'
CONST	ENDS
;	COMDAT ??_C@_06JJJCGAFH@MAP541@
CONST	SEGMENT
??_C@_06JJJCGAFH@MAP541@ DB 'MAP541', 00H		; `string'
CONST	ENDS
;	COMDAT ??_C@_06IAIJFBBG@MAP540@
CONST	SEGMENT
??_C@_06IAIJFBBG@MAP540@ DB 'MAP540', 00H		; `string'
CONST	ENDS
;	COMDAT ??_C@_06FEAEPMNK@MAP539@
CONST	SEGMENT
??_C@_06FEAEPMNK@MAP539@ DB 'MAP539', 00H		; `string'
CONST	ENDS
;	COMDAT ??_C@_06ENBPMNJL@MAP538@
CONST	SEGMENT
??_C@_06ENBPMNJL@MAP538@ DB 'MAP538', 00H		; `string'
CONST	ENDS
;	COMDAT ??_C@_06MKIHNBFE@MAP537@
CONST	SEGMENT
??_C@_06MKIHNBFE@MAP537@ DB 'MAP537', 00H		; `string'
CONST	ENDS
;	COMDAT ??_C@_06NDJMOABF@MAP536@
CONST	SEGMENT
??_C@_06NDJMOABF@MAP536@ DB 'MAP536', 00H		; `string'
CONST	ENDS
;	COMDAT ??_C@_06PILBLDNG@MAP535@
CONST	SEGMENT
??_C@_06PILBLDNG@MAP535@ DB 'MAP535', 00H		; `string'
CONST	ENDS
;	COMDAT ??_C@_06OBKKICJH@MAP534@
CONST	SEGMENT
??_C@_06OBKKICJH@MAP534@ DB 'MAP534', 00H		; `string'
CONST	ENDS
;	COMDAT ??_C@_06KOOLBEFA@MAP533@
CONST	SEGMENT
??_C@_06KOOLBEFA@MAP533@ DB 'MAP533', 00H		; `string'
CONST	ENDS
;	COMDAT ??_C@_06LHPACFBB@MAP532@
CONST	SEGMENT
??_C@_06LHPACFBB@MAP532@ DB 'MAP532', 00H		; `string'
CONST	ENDS
;	COMDAT ??_C@_06JMNNHGNC@MAP531@
CONST	SEGMENT
??_C@_06JMNNHGNC@MAP531@ DB 'MAP531', 00H		; `string'
CONST	ENDS
;	COMDAT ??_C@_06IFMGEHJD@MAP530@
CONST	SEGMENT
??_C@_06IFMGEHJD@MAP530@ DB 'MAP530', 00H		; `string'
CONST	ENDS
;	COMDAT ??_C@_06FFMGJGON@MAP529@
CONST	SEGMENT
??_C@_06FFMGJGON@MAP529@ DB 'MAP529', 00H		; `string'
CONST	ENDS
;	COMDAT ??_C@_06EMNNKHKM@MAP528@
CONST	SEGMENT
??_C@_06EMNNKHKM@MAP528@ DB 'MAP528', 00H		; `string'
CONST	ENDS
;	COMDAT ??_C@_06MLEFLLGD@MAP527@
CONST	SEGMENT
??_C@_06MLEFLLGD@MAP527@ DB 'MAP527', 00H		; `string'
CONST	ENDS
;	COMDAT ??_C@_06NCFOIKCC@MAP526@
CONST	SEGMENT
??_C@_06NCFOIKCC@MAP526@ DB 'MAP526', 00H		; `string'
CONST	ENDS
;	COMDAT ??_C@_06PJHDNJOB@MAP525@
CONST	SEGMENT
??_C@_06PJHDNJOB@MAP525@ DB 'MAP525', 00H		; `string'
CONST	ENDS
;	COMDAT ??_C@_06OAGIOIKA@MAP524@
CONST	SEGMENT
??_C@_06OAGIOIKA@MAP524@ DB 'MAP524', 00H		; `string'
CONST	ENDS
;	COMDAT ??_C@_06KPCJHOGH@MAP523@
CONST	SEGMENT
??_C@_06KPCJHOGH@MAP523@ DB 'MAP523', 00H		; `string'
CONST	ENDS
;	COMDAT ??_C@_06LGDCEPCG@MAP522@
CONST	SEGMENT
??_C@_06LGDCEPCG@MAP522@ DB 'MAP522', 00H		; `string'
CONST	ENDS
;	COMDAT ??_C@_06JNBPBMOF@MAP521@
CONST	SEGMENT
??_C@_06JNBPBMOF@MAP521@ DB 'MAP521', 00H		; `string'
CONST	ENDS
;	COMDAT ??_C@_06IEAECNKE@MAP520@
CONST	SEGMENT
??_C@_06IEAECNKE@MAP520@ DB 'MAP520', 00H		; `string'
CONST	ENDS
;	COMDAT ??_C@_06FHIACILE@MAP519@
CONST	SEGMENT
??_C@_06FHIACILE@MAP519@ DB 'MAP519', 00H		; `string'
CONST	ENDS
;	COMDAT ??_C@_06EOJLBJPF@MAP518@
CONST	SEGMENT
??_C@_06EOJLBJPF@MAP518@ DB 'MAP518', 00H		; `string'
CONST	ENDS
;	COMDAT ??_C@_06MJADAFDK@MAP517@
CONST	SEGMENT
??_C@_06MJADAFDK@MAP517@ DB 'MAP517', 00H		; `string'
CONST	ENDS
;	COMDAT ??_C@_06NABIDEHL@MAP516@
CONST	SEGMENT
??_C@_06NABIDEHL@MAP516@ DB 'MAP516', 00H		; `string'
CONST	ENDS
;	COMDAT ??_C@_06PLDFGHLI@MAP515@
CONST	SEGMENT
??_C@_06PLDFGHLI@MAP515@ DB 'MAP515', 00H		; `string'
CONST	ENDS
;	COMDAT ??_C@_06OCCOFGPJ@MAP514@
CONST	SEGMENT
??_C@_06OCCOFGPJ@MAP514@ DB 'MAP514', 00H		; `string'
CONST	ENDS
;	COMDAT ??_C@_06KNGPMADO@MAP513@
CONST	SEGMENT
??_C@_06KNGPMADO@MAP513@ DB 'MAP513', 00H		; `string'
CONST	ENDS
;	COMDAT ??_C@_06LEHEPBHP@MAP512@
CONST	SEGMENT
??_C@_06LEHEPBHP@MAP512@ DB 'MAP512', 00H		; `string'
CONST	ENDS
;	COMDAT ??_C@_06JPFJKCLM@MAP511@
CONST	SEGMENT
??_C@_06JPFJKCLM@MAP511@ DB 'MAP511', 00H		; `string'
CONST	ENDS
;	COMDAT ??_C@_06IGECJDPN@MAP510@
CONST	SEGMENT
??_C@_06IGECJDPN@MAP510@ DB 'MAP510', 00H		; `string'
CONST	ENDS
;	COMDAT ??_C@_06FGECECID@MAP509@
CONST	SEGMENT
??_C@_06FGECECID@MAP509@ DB 'MAP509', 00H		; `string'
CONST	ENDS
;	COMDAT ??_C@_06EPFJHDMC@MAP508@
CONST	SEGMENT
??_C@_06EPFJHDMC@MAP508@ DB 'MAP508', 00H		; `string'
CONST	ENDS
;	COMDAT ??_C@_06MIMBGPAN@MAP507@
CONST	SEGMENT
??_C@_06MIMBGPAN@MAP507@ DB 'MAP507', 00H		; `string'
CONST	ENDS
;	COMDAT ??_C@_06NBNKFOEM@MAP506@
CONST	SEGMENT
??_C@_06NBNKFOEM@MAP506@ DB 'MAP506', 00H		; `string'
CONST	ENDS
;	COMDAT ??_C@_06PKPHANIP@MAP505@
CONST	SEGMENT
??_C@_06PKPHANIP@MAP505@ DB 'MAP505', 00H		; `string'
CONST	ENDS
;	COMDAT ??_C@_06ODOMDMMO@MAP504@
CONST	SEGMENT
??_C@_06ODOMDMMO@MAP504@ DB 'MAP504', 00H		; `string'
CONST	ENDS
;	COMDAT ??_C@_06KMKNKKAJ@MAP503@
CONST	SEGMENT
??_C@_06KMKNKKAJ@MAP503@ DB 'MAP503', 00H		; `string'
CONST	ENDS
;	COMDAT ??_C@_06LFLGJLEI@MAP502@
CONST	SEGMENT
??_C@_06LFLGJLEI@MAP502@ DB 'MAP502', 00H		; `string'
CONST	ENDS
;	COMDAT ??_C@_06JOJLMIIL@MAP501@
CONST	SEGMENT
??_C@_06JOJLMIIL@MAP501@ DB 'MAP501', 00H		; `string'
CONST	ENDS
;	COMDAT ??_C@_06IHIAPJMK@MAP500@
CONST	SEGMENT
??_C@_06IHIAPJMK@MAP500@ DB 'MAP500', 00H		; `string'
CONST	ENDS
;	COMDAT ??_C@_06OBCPBOGJ@MAP499@
CONST	SEGMENT
??_C@_06OBCPBOGJ@MAP499@ DB 'MAP499', 00H		; `string'
CONST	ENDS
;	COMDAT ??_C@_06PIDECPCI@MAP498@
CONST	SEGMENT
??_C@_06PIDECPCI@MAP498@ DB 'MAP498', 00H		; `string'
CONST	ENDS
;	COMDAT ??_C@_06HPKMDDOH@MAP497@
CONST	SEGMENT
??_C@_06HPKMDDOH@MAP497@ DB 'MAP497', 00H		; `string'
CONST	ENDS
;	COMDAT ??_C@_06GGLHACKG@MAP496@
CONST	SEGMENT
??_C@_06GGLHACKG@MAP496@ DB 'MAP496', 00H		; `string'
CONST	ENDS
;	COMDAT ??_C@_06ENJKFBGF@MAP495@
CONST	SEGMENT
??_C@_06ENJKFBGF@MAP495@ DB 'MAP495', 00H		; `string'
CONST	ENDS
;	COMDAT ??_C@_06FEIBGACE@MAP494@
CONST	SEGMENT
??_C@_06FEIBGACE@MAP494@ DB 'MAP494', 00H		; `string'
CONST	ENDS
;	COMDAT ??_C@_06BLMAPGOD@MAP493@
CONST	SEGMENT
??_C@_06BLMAPGOD@MAP493@ DB 'MAP493', 00H		; `string'
CONST	ENDS
;	COMDAT ??_C@_06CNLMHKC@MAP492@
CONST	SEGMENT
??_C@_06CNLMHKC@MAP492@ DB 'MAP492', 00H		; `string'
CONST	ENDS
;	COMDAT ??_C@_06CJPGJEGB@MAP491@
CONST	SEGMENT
??_C@_06CJPGJEGB@MAP491@ DB 'MAP491', 00H		; `string'
CONST	ENDS
;	COMDAT ??_C@_06DAONKFCA@MAP490@
CONST	SEGMENT
??_C@_06DAONKFCA@MAP490@ DB 'MAP490', 00H		; `string'
CONST	ENDS
;	COMDAT ??_C@_06OAONHEFO@MAP489@
CONST	SEGMENT
??_C@_06OAONHEFO@MAP489@ DB 'MAP489', 00H		; `string'
CONST	ENDS
;	COMDAT ??_C@_06PJPGEFBP@MAP488@
CONST	SEGMENT
??_C@_06PJPGEFBP@MAP488@ DB 'MAP488', 00H		; `string'
CONST	ENDS
;	COMDAT ??_C@_06HOGOFJNA@MAP487@
CONST	SEGMENT
??_C@_06HOGOFJNA@MAP487@ DB 'MAP487', 00H		; `string'
CONST	ENDS
;	COMDAT ??_C@_06GHHFGIJB@MAP486@
CONST	SEGMENT
??_C@_06GHHFGIJB@MAP486@ DB 'MAP486', 00H		; `string'
CONST	ENDS
;	COMDAT ??_C@_06EMFIDLFC@MAP485@
CONST	SEGMENT
??_C@_06EMFIDLFC@MAP485@ DB 'MAP485', 00H		; `string'
CONST	ENDS
;	COMDAT ??_C@_06FFEDAKBD@MAP484@
CONST	SEGMENT
??_C@_06FFEDAKBD@MAP484@ DB 'MAP484', 00H		; `string'
CONST	ENDS
;	COMDAT ??_C@_06BKACJMNE@MAP483@
CONST	SEGMENT
??_C@_06BKACJMNE@MAP483@ DB 'MAP483', 00H		; `string'
CONST	ENDS
;	COMDAT ??_C@_06DBJKNJF@MAP482@
CONST	SEGMENT
??_C@_06DBJKNJF@MAP482@ DB 'MAP482', 00H		; `string'
CONST	ENDS
;	COMDAT ??_C@_06CIDEPOFG@MAP481@
CONST	SEGMENT
??_C@_06CIDEPOFG@MAP481@ DB 'MAP481', 00H		; `string'
CONST	ENDS
;	COMDAT ??_C@_06DBCPMPBH@MAP480@
CONST	SEGMENT
??_C@_06DBCPMPBH@MAP480@ DB 'MAP480', 00H		; `string'
CONST	ENDS
;	COMDAT ??_C@_06OLLBDDGD@MAP479@
CONST	SEGMENT
??_C@_06OLLBDDGD@MAP479@ DB 'MAP479', 00H		; `string'
CONST	ENDS
;	COMDAT ??_C@_06PCKKACCC@MAP478@
CONST	SEGMENT
??_C@_06PCKKACCC@MAP478@ DB 'MAP478', 00H		; `string'
CONST	ENDS
;	COMDAT ??_C@_06HFDCBOON@MAP477@
CONST	SEGMENT
??_C@_06HFDCBOON@MAP477@ DB 'MAP477', 00H		; `string'
CONST	ENDS
;	COMDAT ??_C@_06GMCJCPKM@MAP476@
CONST	SEGMENT
??_C@_06GMCJCPKM@MAP476@ DB 'MAP476', 00H		; `string'
CONST	ENDS
;	COMDAT ??_C@_06EHAEHMGP@MAP475@
CONST	SEGMENT
??_C@_06EHAEHMGP@MAP475@ DB 'MAP475', 00H		; `string'
CONST	ENDS
;	COMDAT ??_C@_06FOBPENCO@MAP474@
CONST	SEGMENT
??_C@_06FOBPENCO@MAP474@ DB 'MAP474', 00H		; `string'
CONST	ENDS
;	COMDAT ??_C@_06BBFONLOJ@MAP473@
CONST	SEGMENT
??_C@_06BBFONLOJ@MAP473@ DB 'MAP473', 00H		; `string'
CONST	ENDS
;	COMDAT ??_C@_06IEFOKKI@MAP472@
CONST	SEGMENT
??_C@_06IEFOKKI@MAP472@ DB 'MAP472', 00H		; `string'
CONST	ENDS
;	COMDAT ??_C@_06CDGILJGL@MAP471@
CONST	SEGMENT
??_C@_06CDGILJGL@MAP471@ DB 'MAP471', 00H		; `string'
CONST	ENDS
;	COMDAT ??_C@_06DKHDIICK@MAP470@
CONST	SEGMENT
??_C@_06DKHDIICK@MAP470@ DB 'MAP470', 00H		; `string'
CONST	ENDS
;	COMDAT ??_C@_06OKHDFJFE@MAP469@
CONST	SEGMENT
??_C@_06OKHDFJFE@MAP469@ DB 'MAP469', 00H		; `string'
CONST	ENDS
;	COMDAT ??_C@_06PDGIGIBF@MAP468@
CONST	SEGMENT
??_C@_06PDGIGIBF@MAP468@ DB 'MAP468', 00H		; `string'
CONST	ENDS
;	COMDAT ??_C@_06HEPAHENK@MAP467@
CONST	SEGMENT
??_C@_06HEPAHENK@MAP467@ DB 'MAP467', 00H		; `string'
CONST	ENDS
;	COMDAT ??_C@_06GNOLEFJL@MAP466@
CONST	SEGMENT
??_C@_06GNOLEFJL@MAP466@ DB 'MAP466', 00H		; `string'
CONST	ENDS
;	COMDAT ??_C@_06EGMGBGFI@MAP465@
CONST	SEGMENT
??_C@_06EGMGBGFI@MAP465@ DB 'MAP465', 00H		; `string'
CONST	ENDS
;	COMDAT ??_C@_06FPNNCHBJ@MAP464@
CONST	SEGMENT
??_C@_06FPNNCHBJ@MAP464@ DB 'MAP464', 00H		; `string'
CONST	ENDS
;	COMDAT ??_C@_06BAJMLBNO@MAP463@
CONST	SEGMENT
??_C@_06BAJMLBNO@MAP463@ DB 'MAP463', 00H		; `string'
CONST	ENDS
;	COMDAT ??_C@_06JIHIAJP@MAP462@
CONST	SEGMENT
??_C@_06JIHIAJP@MAP462@ DB 'MAP462', 00H		; `string'
CONST	ENDS
;	COMDAT ??_C@_06CCKKNDFM@MAP461@
CONST	SEGMENT
??_C@_06CCKKNDFM@MAP461@ DB 'MAP461', 00H		; `string'
CONST	ENDS
;	COMDAT ??_C@_06DLLBOCBN@MAP460@
CONST	SEGMENT
??_C@_06DLLBOCBN@MAP460@ DB 'MAP460', 00H		; `string'
CONST	ENDS
;	COMDAT ??_C@_06OIDFOHAN@MAP459@
CONST	SEGMENT
??_C@_06OIDFOHAN@MAP459@ DB 'MAP459', 00H		; `string'
CONST	ENDS
;	COMDAT ??_C@_06PBCONGEM@MAP458@
CONST	SEGMENT
??_C@_06PBCONGEM@MAP458@ DB 'MAP458', 00H		; `string'
CONST	ENDS
;	COMDAT ??_C@_06HGLGMKID@MAP457@
CONST	SEGMENT
??_C@_06HGLGMKID@MAP457@ DB 'MAP457', 00H		; `string'
CONST	ENDS
;	COMDAT ??_C@_06GPKNPLMC@MAP456@
CONST	SEGMENT
??_C@_06GPKNPLMC@MAP456@ DB 'MAP456', 00H		; `string'
CONST	ENDS
;	COMDAT ??_C@_06EEIAKIAB@MAP455@
CONST	SEGMENT
??_C@_06EEIAKIAB@MAP455@ DB 'MAP455', 00H		; `string'
CONST	ENDS
;	COMDAT ??_C@_06FNJLJJEA@MAP454@
CONST	SEGMENT
??_C@_06FNJLJJEA@MAP454@ DB 'MAP454', 00H		; `string'
CONST	ENDS
;	COMDAT ??_C@_06BCNKAPIH@MAP453@
CONST	SEGMENT
??_C@_06BCNKAPIH@MAP453@ DB 'MAP453', 00H		; `string'
CONST	ENDS
;	COMDAT ??_C@_06LMBDOMG@MAP452@
CONST	SEGMENT
??_C@_06LMBDOMG@MAP452@ DB 'MAP452', 00H		; `string'
CONST	ENDS
;	COMDAT ??_C@_06CAOMGNAF@MAP451@
CONST	SEGMENT
??_C@_06CAOMGNAF@MAP451@ DB 'MAP451', 00H		; `string'
CONST	ENDS
;	COMDAT ??_C@_06DJPHFMEE@MAP450@
CONST	SEGMENT
??_C@_06DJPHFMEE@MAP450@ DB 'MAP450', 00H		; `string'
CONST	ENDS
;	COMDAT ??_C@_06OJPHINDK@MAP449@
CONST	SEGMENT
??_C@_06OJPHINDK@MAP449@ DB 'MAP449', 00H		; `string'
CONST	ENDS
;	COMDAT ??_C@_06PAOMLMHL@MAP448@
CONST	SEGMENT
??_C@_06PAOMLMHL@MAP448@ DB 'MAP448', 00H		; `string'
CONST	ENDS
;	COMDAT ??_C@_06HHHEKALE@MAP447@
CONST	SEGMENT
??_C@_06HHHEKALE@MAP447@ DB 'MAP447', 00H		; `string'
CONST	ENDS
;	COMDAT ??_C@_06GOGPJBPF@MAP446@
CONST	SEGMENT
??_C@_06GOGPJBPF@MAP446@ DB 'MAP446', 00H		; `string'
CONST	ENDS
;	COMDAT ??_C@_06EFECMCDG@MAP445@
CONST	SEGMENT
??_C@_06EFECMCDG@MAP445@ DB 'MAP445', 00H		; `string'
CONST	ENDS
;	COMDAT ??_C@_06FMFJPDHH@MAP444@
CONST	SEGMENT
??_C@_06FMFJPDHH@MAP444@ DB 'MAP444', 00H		; `string'
CONST	ENDS
;	COMDAT ??_C@_06BDBIGFLA@MAP443@
CONST	SEGMENT
??_C@_06BDBIGFLA@MAP443@ DB 'MAP443', 00H		; `string'
CONST	ENDS
;	COMDAT ??_C@_06KADFEPB@MAP442@
CONST	SEGMENT
??_C@_06KADFEPB@MAP442@ DB 'MAP442', 00H		; `string'
CONST	ENDS
;	COMDAT ??_C@_06CBCOAHDC@MAP441@
CONST	SEGMENT
??_C@_06CBCOAHDC@MAP441@ DB 'MAP441', 00H		; `string'
CONST	ENDS
;	COMDAT ??_C@_06DIDFDGHD@MAP440@
CONST	SEGMENT
??_C@_06DIDFDGHD@MAP440@ DB 'MAP440', 00H		; `string'
CONST	ENDS
;	COMDAT ??_C@_06OMLIJLLP@MAP439@
CONST	SEGMENT
??_C@_06OMLIJLLP@MAP439@ DB 'MAP439', 00H		; `string'
CONST	ENDS
;	COMDAT ??_C@_06PFKDKKPO@MAP438@
CONST	SEGMENT
??_C@_06PFKDKKPO@MAP438@ DB 'MAP438', 00H		; `string'
CONST	ENDS
;	COMDAT ??_C@_06HCDLLGDB@MAP437@
CONST	SEGMENT
??_C@_06HCDLLGDB@MAP437@ DB 'MAP437', 00H		; `string'
CONST	ENDS
;	COMDAT ??_C@_06GLCAIHHA@MAP436@
CONST	SEGMENT
??_C@_06GLCAIHHA@MAP436@ DB 'MAP436', 00H		; `string'
CONST	ENDS
;	COMDAT ??_C@_06EAANNELD@MAP435@
CONST	SEGMENT
??_C@_06EAANNELD@MAP435@ DB 'MAP435', 00H		; `string'
CONST	ENDS
;	COMDAT ??_C@_06FJBGOFPC@MAP434@
CONST	SEGMENT
??_C@_06FJBGOFPC@MAP434@ DB 'MAP434', 00H		; `string'
CONST	ENDS
;	COMDAT ??_C@_06BGFHHDDF@MAP433@
CONST	SEGMENT
??_C@_06BGFHHDDF@MAP433@ DB 'MAP433', 00H		; `string'
CONST	ENDS
;	COMDAT ??_C@_06PEMECHE@MAP432@
CONST	SEGMENT
??_C@_06PEMECHE@MAP432@ DB 'MAP432', 00H		; `string'
CONST	ENDS
;	COMDAT ??_C@_06CEGBBBLH@MAP431@
CONST	SEGMENT
??_C@_06CEGBBBLH@MAP431@ DB 'MAP431', 00H		; `string'
CONST	ENDS
;	COMDAT ??_C@_06DNHKCAPG@MAP430@
CONST	SEGMENT
??_C@_06DNHKCAPG@MAP430@ DB 'MAP430', 00H		; `string'
CONST	ENDS
;	COMDAT ??_C@_06ONHKPBII@MAP429@
CONST	SEGMENT
??_C@_06ONHKPBII@MAP429@ DB 'MAP429', 00H		; `string'
CONST	ENDS
;	COMDAT ??_C@_06PEGBMAMJ@MAP428@
CONST	SEGMENT
??_C@_06PEGBMAMJ@MAP428@ DB 'MAP428', 00H		; `string'
CONST	ENDS
;	COMDAT ??_C@_06HDPJNMAG@MAP427@
CONST	SEGMENT
??_C@_06HDPJNMAG@MAP427@ DB 'MAP427', 00H		; `string'
CONST	ENDS
;	COMDAT ??_C@_06GKOCONEH@MAP426@
CONST	SEGMENT
??_C@_06GKOCONEH@MAP426@ DB 'MAP426', 00H		; `string'
CONST	ENDS
;	COMDAT ??_C@_06EBMPLOIE@MAP425@
CONST	SEGMENT
??_C@_06EBMPLOIE@MAP425@ DB 'MAP425', 00H		; `string'
CONST	ENDS
;	COMDAT ??_C@_06FINEIPMF@MAP424@
CONST	SEGMENT
??_C@_06FINEIPMF@MAP424@ DB 'MAP424', 00H		; `string'
CONST	ENDS
;	COMDAT ??_C@_06BHJFBJAC@MAP423@
CONST	SEGMENT
??_C@_06BHJFBJAC@MAP423@ DB 'MAP423', 00H		; `string'
CONST	ENDS
;	COMDAT ??_C@_06OIOCIED@MAP422@
CONST	SEGMENT
??_C@_06OIOCIED@MAP422@ DB 'MAP422', 00H		; `string'
CONST	ENDS
;	COMDAT ??_C@_06CFKDHLIA@MAP421@
CONST	SEGMENT
??_C@_06CFKDHLIA@MAP421@ DB 'MAP421', 00H		; `string'
CONST	ENDS
;	COMDAT ??_C@_06DMLIEKMB@MAP420@
CONST	SEGMENT
??_C@_06DMLIEKMB@MAP420@ DB 'MAP420', 00H		; `string'
CONST	ENDS
;	COMDAT ??_C@_06OPDMEPNB@MAP419@
CONST	SEGMENT
??_C@_06OPDMEPNB@MAP419@ DB 'MAP419', 00H		; `string'
CONST	ENDS
;	COMDAT ??_C@_06PGCHHOJA@MAP418@
CONST	SEGMENT
??_C@_06PGCHHOJA@MAP418@ DB 'MAP418', 00H		; `string'
CONST	ENDS
;	COMDAT ??_C@_06HBLPGCFP@MAP417@
CONST	SEGMENT
??_C@_06HBLPGCFP@MAP417@ DB 'MAP417', 00H		; `string'
CONST	ENDS
;	COMDAT ??_C@_06GIKEFDBO@MAP416@
CONST	SEGMENT
??_C@_06GIKEFDBO@MAP416@ DB 'MAP416', 00H		; `string'
CONST	ENDS
;	COMDAT ??_C@_06EDIJAANN@MAP415@
CONST	SEGMENT
??_C@_06EDIJAANN@MAP415@ DB 'MAP415', 00H		; `string'
CONST	ENDS
;	COMDAT ??_C@_06FKJCDBJM@MAP414@
CONST	SEGMENT
??_C@_06FKJCDBJM@MAP414@ DB 'MAP414', 00H		; `string'
CONST	ENDS
;	COMDAT ??_C@_06BFNDKHFL@MAP413@
CONST	SEGMENT
??_C@_06BFNDKHFL@MAP413@ DB 'MAP413', 00H		; `string'
CONST	ENDS
;	COMDAT ??_C@_06MMIJGBK@MAP412@
CONST	SEGMENT
??_C@_06MMIJGBK@MAP412@ DB 'MAP412', 00H		; `string'
CONST	ENDS
;	COMDAT ??_C@_06CHOFMFNJ@MAP411@
CONST	SEGMENT
??_C@_06CHOFMFNJ@MAP411@ DB 'MAP411', 00H		; `string'
CONST	ENDS
;	COMDAT ??_C@_06DOPOPEJI@MAP410@
CONST	SEGMENT
??_C@_06DOPOPEJI@MAP410@ DB 'MAP410', 00H		; `string'
CONST	ENDS
;	COMDAT ??_C@_06OOPOCFOG@MAP409@
CONST	SEGMENT
??_C@_06OOPOCFOG@MAP409@ DB 'MAP409', 00H		; `string'
CONST	ENDS
;	COMDAT ??_C@_06PHOFBEKH@MAP408@
CONST	SEGMENT
??_C@_06PHOFBEKH@MAP408@ DB 'MAP408', 00H		; `string'
CONST	ENDS
;	COMDAT ??_C@_06HAHNAIGI@MAP407@
CONST	SEGMENT
??_C@_06HAHNAIGI@MAP407@ DB 'MAP407', 00H		; `string'
CONST	ENDS
;	COMDAT ??_C@_06GJGGDJCJ@MAP406@
CONST	SEGMENT
??_C@_06GJGGDJCJ@MAP406@ DB 'MAP406', 00H		; `string'
CONST	ENDS
;	COMDAT ??_C@_06ECELGKOK@MAP405@
CONST	SEGMENT
??_C@_06ECELGKOK@MAP405@ DB 'MAP405', 00H		; `string'
CONST	ENDS
;	COMDAT ??_C@_06FLFAFLKL@MAP404@
CONST	SEGMENT
??_C@_06FLFAFLKL@MAP404@ DB 'MAP404', 00H		; `string'
CONST	ENDS
;	COMDAT ??_C@_06BEBBMNGM@MAP403@
CONST	SEGMENT
??_C@_06BEBBMNGM@MAP403@ DB 'MAP403', 00H		; `string'
CONST	ENDS
;	COMDAT ??_C@_06NAKPMCN@MAP402@
CONST	SEGMENT
??_C@_06NAKPMCN@MAP402@ DB 'MAP402', 00H		; `string'
CONST	ENDS
;	COMDAT ??_C@_06CGCHKPOO@MAP401@
CONST	SEGMENT
??_C@_06CGCHKPOO@MAP401@ DB 'MAP401', 00H		; `string'
CONST	ENDS
;	COMDAT ??_C@_06DPDMJOKP@MAP400@
CONST	SEGMENT
??_C@_06DPDMJOKP@MAP400@ DB 'MAP400', 00H		; `string'
CONST	ENDS
;	COMDAT ??_C@_06HMPICGNA@MAP399@
CONST	SEGMENT
??_C@_06HMPICGNA@MAP399@ DB 'MAP399', 00H		; `string'
CONST	ENDS
;	COMDAT ??_C@_06GFODBHJB@MAP398@
CONST	SEGMENT
??_C@_06GFODBHJB@MAP398@ DB 'MAP398', 00H		; `string'
CONST	ENDS
;	COMDAT ??_C@_06OCHLALFO@MAP397@
CONST	SEGMENT
??_C@_06OCHLALFO@MAP397@ DB 'MAP397', 00H		; `string'
CONST	ENDS
;	COMDAT ??_C@_06PLGADKBP@MAP396@
CONST	SEGMENT
??_C@_06PLGADKBP@MAP396@ DB 'MAP396', 00H		; `string'
CONST	ENDS
;	COMDAT ??_C@_06NAENGJNM@MAP395@
CONST	SEGMENT
??_C@_06NAENGJNM@MAP395@ DB 'MAP395', 00H		; `string'
CONST	ENDS
;	COMDAT ??_C@_06MJFGFIJN@MAP394@
CONST	SEGMENT
??_C@_06MJFGFIJN@MAP394@ DB 'MAP394', 00H		; `string'
CONST	ENDS
;	COMDAT ??_C@_06IGBHMOFK@MAP393@
CONST	SEGMENT
??_C@_06IGBHMOFK@MAP393@ DB 'MAP393', 00H		; `string'
CONST	ENDS
;	COMDAT ??_C@_06JPAMPPBL@MAP392@
CONST	SEGMENT
??_C@_06JPAMPPBL@MAP392@ DB 'MAP392', 00H		; `string'
CONST	ENDS
;	COMDAT ??_C@_06LECBKMNI@MAP391@
CONST	SEGMENT
??_C@_06LECBKMNI@MAP391@ DB 'MAP391', 00H		; `string'
CONST	ENDS
;	COMDAT ??_C@_06KNDKJNJJ@MAP390@
CONST	SEGMENT
??_C@_06KNDKJNJJ@MAP390@ DB 'MAP390', 00H		; `string'
CONST	ENDS
;	COMDAT ??_C@_06HNDKEMOH@MAP389@
CONST	SEGMENT
??_C@_06HNDKEMOH@MAP389@ DB 'MAP389', 00H		; `string'
CONST	ENDS
;	COMDAT ??_C@_06GECBHNKG@MAP388@
CONST	SEGMENT
??_C@_06GECBHNKG@MAP388@ DB 'MAP388', 00H		; `string'
CONST	ENDS
;	COMDAT ??_C@_06ODLJGBGJ@MAP387@
CONST	SEGMENT
??_C@_06ODLJGBGJ@MAP387@ DB 'MAP387', 00H		; `string'
CONST	ENDS
;	COMDAT ??_C@_06PKKCFACI@MAP386@
CONST	SEGMENT
??_C@_06PKKCFACI@MAP386@ DB 'MAP386', 00H		; `string'
CONST	ENDS
;	COMDAT ??_C@_06NBIPADOL@MAP385@
CONST	SEGMENT
??_C@_06NBIPADOL@MAP385@ DB 'MAP385', 00H		; `string'
CONST	ENDS
;	COMDAT ??_C@_06MIJEDCKK@MAP384@
CONST	SEGMENT
??_C@_06MIJEDCKK@MAP384@ DB 'MAP384', 00H		; `string'
CONST	ENDS
;	COMDAT ??_C@_06IHNFKEGN@MAP383@
CONST	SEGMENT
??_C@_06IHNFKEGN@MAP383@ DB 'MAP383', 00H		; `string'
CONST	ENDS
;	COMDAT ??_C@_06JOMOJFCM@MAP382@
CONST	SEGMENT
??_C@_06JOMOJFCM@MAP382@ DB 'MAP382', 00H		; `string'
CONST	ENDS
;	COMDAT ??_C@_06LFODMGOP@MAP381@
CONST	SEGMENT
??_C@_06LFODMGOP@MAP381@ DB 'MAP381', 00H		; `string'
CONST	ENDS
;	COMDAT ??_C@_06KMPIPHKO@MAP380@
CONST	SEGMENT
??_C@_06KMPIPHKO@MAP380@ DB 'MAP380', 00H		; `string'
CONST	ENDS
;	COMDAT ??_C@_06HGGGALNK@MAP379@
CONST	SEGMENT
??_C@_06HGGGALNK@MAP379@ DB 'MAP379', 00H		; `string'
CONST	ENDS
;	COMDAT ??_C@_06GPHNDKJL@MAP378@
CONST	SEGMENT
??_C@_06GPHNDKJL@MAP378@ DB 'MAP378', 00H		; `string'
CONST	ENDS
;	COMDAT ??_C@_06OIOFCGFE@MAP377@
CONST	SEGMENT
??_C@_06OIOFCGFE@MAP377@ DB 'MAP377', 00H		; `string'
CONST	ENDS
;	COMDAT ??_C@_06PBPOBHBF@MAP376@
CONST	SEGMENT
??_C@_06PBPOBHBF@MAP376@ DB 'MAP376', 00H		; `string'
CONST	ENDS
;	COMDAT ??_C@_06NKNDEENG@MAP375@
CONST	SEGMENT
??_C@_06NKNDEENG@MAP375@ DB 'MAP375', 00H		; `string'
CONST	ENDS
;	COMDAT ??_C@_06MDMIHFJH@MAP374@
CONST	SEGMENT
??_C@_06MDMIHFJH@MAP374@ DB 'MAP374', 00H		; `string'
CONST	ENDS
;	COMDAT ??_C@_06IMIJODFA@MAP373@
CONST	SEGMENT
??_C@_06IMIJODFA@MAP373@ DB 'MAP373', 00H		; `string'
CONST	ENDS
;	COMDAT ??_C@_06JFJCNCBB@MAP372@
CONST	SEGMENT
??_C@_06JFJCNCBB@MAP372@ DB 'MAP372', 00H		; `string'
CONST	ENDS
;	COMDAT ??_C@_06LOLPIBNC@MAP371@
CONST	SEGMENT
??_C@_06LOLPIBNC@MAP371@ DB 'MAP371', 00H		; `string'
CONST	ENDS
;	COMDAT ??_C@_06KHKELAJD@MAP370@
CONST	SEGMENT
??_C@_06KHKELAJD@MAP370@ DB 'MAP370', 00H		; `string'
CONST	ENDS
;	COMDAT ??_C@_06HHKEGBON@MAP369@
CONST	SEGMENT
??_C@_06HHKEGBON@MAP369@ DB 'MAP369', 00H		; `string'
CONST	ENDS
;	COMDAT ??_C@_06GOLPFAKM@MAP368@
CONST	SEGMENT
??_C@_06GOLPFAKM@MAP368@ DB 'MAP368', 00H		; `string'
CONST	ENDS
;	COMDAT ??_C@_06OJCHEMGD@MAP367@
CONST	SEGMENT
??_C@_06OJCHEMGD@MAP367@ DB 'MAP367', 00H		; `string'
CONST	ENDS
;	COMDAT ??_C@_06PADMHNCC@MAP366@
CONST	SEGMENT
??_C@_06PADMHNCC@MAP366@ DB 'MAP366', 00H		; `string'
CONST	ENDS
;	COMDAT ??_C@_06NLBBCOOB@MAP365@
CONST	SEGMENT
??_C@_06NLBBCOOB@MAP365@ DB 'MAP365', 00H		; `string'
CONST	ENDS
;	COMDAT ??_C@_06MCAKBPKA@MAP364@
CONST	SEGMENT
??_C@_06MCAKBPKA@MAP364@ DB 'MAP364', 00H		; `string'
CONST	ENDS
;	COMDAT ??_C@_06INELIJGH@MAP363@
CONST	SEGMENT
??_C@_06INELIJGH@MAP363@ DB 'MAP363', 00H		; `string'
CONST	ENDS
;	COMDAT ??_C@_06JEFALICG@MAP362@
CONST	SEGMENT
??_C@_06JEFALICG@MAP362@ DB 'MAP362', 00H		; `string'
CONST	ENDS
;	COMDAT ??_C@_06LPHNOLOF@MAP361@
CONST	SEGMENT
??_C@_06LPHNOLOF@MAP361@ DB 'MAP361', 00H		; `string'
CONST	ENDS
;	COMDAT ??_C@_06KGGGNKKE@MAP360@
CONST	SEGMENT
??_C@_06KGGGNKKE@MAP360@ DB 'MAP360', 00H		; `string'
CONST	ENDS
;	COMDAT ??_C@_06HFOCNPLE@MAP359@
CONST	SEGMENT
??_C@_06HFOCNPLE@MAP359@ DB 'MAP359', 00H		; `string'
CONST	ENDS
;	COMDAT ??_C@_06GMPJOOPF@MAP358@
CONST	SEGMENT
??_C@_06GMPJOOPF@MAP358@ DB 'MAP358', 00H		; `string'
CONST	ENDS
;	COMDAT ??_C@_06OLGBPCDK@MAP357@
CONST	SEGMENT
??_C@_06OLGBPCDK@MAP357@ DB 'MAP357', 00H		; `string'
CONST	ENDS
;	COMDAT ??_C@_06PCHKMDHL@MAP356@
CONST	SEGMENT
??_C@_06PCHKMDHL@MAP356@ DB 'MAP356', 00H		; `string'
CONST	ENDS
;	COMDAT ??_C@_06NJFHJALI@MAP355@
CONST	SEGMENT
??_C@_06NJFHJALI@MAP355@ DB 'MAP355', 00H		; `string'
CONST	ENDS
;	COMDAT ??_C@_06MAEMKBPJ@MAP354@
CONST	SEGMENT
??_C@_06MAEMKBPJ@MAP354@ DB 'MAP354', 00H		; `string'
CONST	ENDS
;	COMDAT ??_C@_06IPANDHDO@MAP353@
CONST	SEGMENT
??_C@_06IPANDHDO@MAP353@ DB 'MAP353', 00H		; `string'
CONST	ENDS
;	COMDAT ??_C@_06JGBGAGHP@MAP352@
CONST	SEGMENT
??_C@_06JGBGAGHP@MAP352@ DB 'MAP352', 00H		; `string'
CONST	ENDS
;	COMDAT ??_C@_06LNDLFFLM@MAP351@
CONST	SEGMENT
??_C@_06LNDLFFLM@MAP351@ DB 'MAP351', 00H		; `string'
CONST	ENDS
;	COMDAT ??_C@_06KECAGEPN@MAP350@
CONST	SEGMENT
??_C@_06KECAGEPN@MAP350@ DB 'MAP350', 00H		; `string'
CONST	ENDS
;	COMDAT ??_C@_06HECALFID@MAP349@
CONST	SEGMENT
??_C@_06HECALFID@MAP349@ DB 'MAP349', 00H		; `string'
CONST	ENDS
;	COMDAT ??_C@_06GNDLIEMC@MAP348@
CONST	SEGMENT
??_C@_06GNDLIEMC@MAP348@ DB 'MAP348', 00H		; `string'
CONST	ENDS
;	COMDAT ??_C@_06OKKDJIAN@MAP347@
CONST	SEGMENT
??_C@_06OKKDJIAN@MAP347@ DB 'MAP347', 00H		; `string'
CONST	ENDS
;	COMDAT ??_C@_06PDLIKJEM@MAP346@
CONST	SEGMENT
??_C@_06PDLIKJEM@MAP346@ DB 'MAP346', 00H		; `string'
CONST	ENDS
;	COMDAT ??_C@_06NIJFPKIP@MAP345@
CONST	SEGMENT
??_C@_06NIJFPKIP@MAP345@ DB 'MAP345', 00H		; `string'
CONST	ENDS
;	COMDAT ??_C@_06MBIOMLMO@MAP344@
CONST	SEGMENT
??_C@_06MBIOMLMO@MAP344@ DB 'MAP344', 00H		; `string'
CONST	ENDS
;	COMDAT ??_C@_06IOMPFNAJ@MAP343@
CONST	SEGMENT
??_C@_06IOMPFNAJ@MAP343@ DB 'MAP343', 00H		; `string'
CONST	ENDS
;	COMDAT ??_C@_06JHNEGMEI@MAP342@
CONST	SEGMENT
??_C@_06JHNEGMEI@MAP342@ DB 'MAP342', 00H		; `string'
CONST	ENDS
;	COMDAT ??_C@_06LMPJDPIL@MAP341@
CONST	SEGMENT
??_C@_06LMPJDPIL@MAP341@ DB 'MAP341', 00H		; `string'
CONST	ENDS
;	COMDAT ??_C@_06KFOCAOMK@MAP340@
CONST	SEGMENT
??_C@_06KFOCAOMK@MAP340@ DB 'MAP340', 00H		; `string'
CONST	ENDS
;	COMDAT ??_C@_06HBGPKDAG@MAP339@
CONST	SEGMENT
??_C@_06HBGPKDAG@MAP339@ DB 'MAP339', 00H		; `string'
CONST	ENDS
;	COMDAT ??_C@_06GIHEJCEH@MAP338@
CONST	SEGMENT
??_C@_06GIHEJCEH@MAP338@ DB 'MAP338', 00H		; `string'
CONST	ENDS
;	COMDAT ??_C@_06OPOMIOII@MAP337@
CONST	SEGMENT
??_C@_06OPOMIOII@MAP337@ DB 'MAP337', 00H		; `string'
CONST	ENDS
;	COMDAT ??_C@_06PGPHLPMJ@MAP336@
CONST	SEGMENT
??_C@_06PGPHLPMJ@MAP336@ DB 'MAP336', 00H		; `string'
CONST	ENDS
;	COMDAT ??_C@_06NNNKOMAK@MAP335@
CONST	SEGMENT
??_C@_06NNNKOMAK@MAP335@ DB 'MAP335', 00H		; `string'
CONST	ENDS
;	COMDAT ??_C@_06MEMBNNEL@MAP334@
CONST	SEGMENT
??_C@_06MEMBNNEL@MAP334@ DB 'MAP334', 00H		; `string'
CONST	ENDS
;	COMDAT ??_C@_06ILIAELIM@MAP333@
CONST	SEGMENT
??_C@_06ILIAELIM@MAP333@ DB 'MAP333', 00H		; `string'
CONST	ENDS
;	COMDAT ??_C@_06JCJLHKMN@MAP332@
CONST	SEGMENT
??_C@_06JCJLHKMN@MAP332@ DB 'MAP332', 00H		; `string'
CONST	ENDS
;	COMDAT ??_C@_06LJLGCJAO@MAP331@
CONST	SEGMENT
??_C@_06LJLGCJAO@MAP331@ DB 'MAP331', 00H		; `string'
CONST	ENDS
;	COMDAT ??_C@_06KAKNBIEP@MAP330@
CONST	SEGMENT
??_C@_06KAKNBIEP@MAP330@ DB 'MAP330', 00H		; `string'
CONST	ENDS
;	COMDAT ??_C@_06HAKNMJDB@MAP329@
CONST	SEGMENT
??_C@_06HAKNMJDB@MAP329@ DB 'MAP329', 00H		; `string'
CONST	ENDS
;	COMDAT ??_C@_06GJLGPIHA@MAP328@
CONST	SEGMENT
??_C@_06GJLGPIHA@MAP328@ DB 'MAP328', 00H		; `string'
CONST	ENDS
;	COMDAT ??_C@_06OOCOOELP@MAP327@
CONST	SEGMENT
??_C@_06OOCOOELP@MAP327@ DB 'MAP327', 00H		; `string'
CONST	ENDS
;	COMDAT ??_C@_06PHDFNFPO@MAP326@
CONST	SEGMENT
??_C@_06PHDFNFPO@MAP326@ DB 'MAP326', 00H		; `string'
CONST	ENDS
;	COMDAT ??_C@_06NMBIIGDN@MAP325@
CONST	SEGMENT
??_C@_06NMBIIGDN@MAP325@ DB 'MAP325', 00H		; `string'
CONST	ENDS
;	COMDAT ??_C@_06MFADLHHM@MAP324@
CONST	SEGMENT
??_C@_06MFADLHHM@MAP324@ DB 'MAP324', 00H		; `string'
CONST	ENDS
;	COMDAT ??_C@_06IKECCBLL@MAP323@
CONST	SEGMENT
??_C@_06IKECCBLL@MAP323@ DB 'MAP323', 00H		; `string'
CONST	ENDS
;	COMDAT ??_C@_06JDFJBAPK@MAP322@
CONST	SEGMENT
??_C@_06JDFJBAPK@MAP322@ DB 'MAP322', 00H		; `string'
CONST	ENDS
;	COMDAT ??_C@_06LIHEEDDJ@MAP321@
CONST	SEGMENT
??_C@_06LIHEEDDJ@MAP321@ DB 'MAP321', 00H		; `string'
CONST	ENDS
;	COMDAT ??_C@_06KBGPHCHI@MAP320@
CONST	SEGMENT
??_C@_06KBGPHCHI@MAP320@ DB 'MAP320', 00H		; `string'
CONST	ENDS
;	COMDAT ??_C@_06HCOLHHGI@MAP319@
CONST	SEGMENT
??_C@_06HCOLHHGI@MAP319@ DB 'MAP319', 00H		; `string'
CONST	ENDS
;	COMDAT ??_C@_06GLPAEGCJ@MAP318@
CONST	SEGMENT
??_C@_06GLPAEGCJ@MAP318@ DB 'MAP318', 00H		; `string'
CONST	ENDS
;	COMDAT ??_C@_06OMGIFKOG@MAP317@
CONST	SEGMENT
??_C@_06OMGIFKOG@MAP317@ DB 'MAP317', 00H		; `string'
CONST	ENDS
;	COMDAT ??_C@_06PFHDGLKH@MAP316@
CONST	SEGMENT
??_C@_06PFHDGLKH@MAP316@ DB 'MAP316', 00H		; `string'
CONST	ENDS
;	COMDAT ??_C@_06NOFODIGE@MAP315@
CONST	SEGMENT
??_C@_06NOFODIGE@MAP315@ DB 'MAP315', 00H		; `string'
CONST	ENDS
;	COMDAT ??_C@_06MHEFAJCF@MAP314@
CONST	SEGMENT
??_C@_06MHEFAJCF@MAP314@ DB 'MAP314', 00H		; `string'
CONST	ENDS
;	COMDAT ??_C@_06IIAEJPOC@MAP313@
CONST	SEGMENT
??_C@_06IIAEJPOC@MAP313@ DB 'MAP313', 00H		; `string'
CONST	ENDS
;	COMDAT ??_C@_06JBBPKOKD@MAP312@
CONST	SEGMENT
??_C@_06JBBPKOKD@MAP312@ DB 'MAP312', 00H		; `string'
CONST	ENDS
;	COMDAT ??_C@_06LKDCPNGA@MAP311@
CONST	SEGMENT
??_C@_06LKDCPNGA@MAP311@ DB 'MAP311', 00H		; `string'
CONST	ENDS
;	COMDAT ??_C@_06KDCJMMCB@MAP310@
CONST	SEGMENT
??_C@_06KDCJMMCB@MAP310@ DB 'MAP310', 00H		; `string'
CONST	ENDS
;	COMDAT ??_C@_06HDCJBNFP@MAP309@
CONST	SEGMENT
??_C@_06HDCJBNFP@MAP309@ DB 'MAP309', 00H		; `string'
CONST	ENDS
;	COMDAT ??_C@_06GKDCCMBO@MAP308@
CONST	SEGMENT
??_C@_06GKDCCMBO@MAP308@ DB 'MAP308', 00H		; `string'
CONST	ENDS
;	COMDAT ??_C@_06ONKKDANB@MAP307@
CONST	SEGMENT
??_C@_06ONKKDANB@MAP307@ DB 'MAP307', 00H		; `string'
CONST	ENDS
;	COMDAT ??_C@_06PELBABJA@MAP306@
CONST	SEGMENT
??_C@_06PELBABJA@MAP306@ DB 'MAP306', 00H		; `string'
CONST	ENDS
;	COMDAT ??_C@_06NPJMFCFD@MAP305@
CONST	SEGMENT
??_C@_06NPJMFCFD@MAP305@ DB 'MAP305', 00H		; `string'
CONST	ENDS
;	COMDAT ??_C@_06MGIHGDBC@MAP304@
CONST	SEGMENT
??_C@_06MGIHGDBC@MAP304@ DB 'MAP304', 00H		; `string'
CONST	ENDS
;	COMDAT ??_C@_06IJMGPFNF@MAP303@
CONST	SEGMENT
??_C@_06IJMGPFNF@MAP303@ DB 'MAP303', 00H		; `string'
CONST	ENDS
;	COMDAT ??_C@_06JANNMEJE@MAP302@
CONST	SEGMENT
??_C@_06JANNMEJE@MAP302@ DB 'MAP302', 00H		; `string'
CONST	ENDS
;	COMDAT ??_C@_06LLPAJHFH@MAP301@
CONST	SEGMENT
??_C@_06LLPAJHFH@MAP301@ DB 'MAP301', 00H		; `string'
CONST	ENDS
;	COMDAT ??_C@_06KCOLKGBG@MAP300@
CONST	SEGMENT
??_C@_06KCOLKGBG@MAP300@ DB 'MAP300', 00H		; `string'
CONST	ENDS
;	COMDAT ??_C@_06MEEEEBLF@MAP299@
CONST	SEGMENT
??_C@_06MEEEEBLF@MAP299@ DB 'MAP299', 00H		; `string'
CONST	ENDS
;	COMDAT ??_C@_06NNFPHAPE@MAP298@
CONST	SEGMENT
??_C@_06NNFPHAPE@MAP298@ DB 'MAP298', 00H		; `string'
CONST	ENDS
;	COMDAT ??_C@_06FKMHGMDL@MAP297@
CONST	SEGMENT
??_C@_06FKMHGMDL@MAP297@ DB 'MAP297', 00H		; `string'
CONST	ENDS
;	COMDAT ??_C@_06EDNMFNHK@MAP296@
CONST	SEGMENT
??_C@_06EDNMFNHK@MAP296@ DB 'MAP296', 00H		; `string'
CONST	ENDS
;	COMDAT ??_C@_06GIPBAOLJ@MAP295@
CONST	SEGMENT
??_C@_06GIPBAOLJ@MAP295@ DB 'MAP295', 00H		; `string'
CONST	ENDS
;	COMDAT ??_C@_06HBOKDPPI@MAP294@
CONST	SEGMENT
??_C@_06HBOKDPPI@MAP294@ DB 'MAP294', 00H		; `string'
CONST	ENDS
;	COMDAT ??_C@_06DOKLKJDP@MAP293@
CONST	SEGMENT
??_C@_06DOKLKJDP@MAP293@ DB 'MAP293', 00H		; `string'
CONST	ENDS
;	COMDAT ??_C@_06CHLAJIHO@MAP292@
CONST	SEGMENT
??_C@_06CHLAJIHO@MAP292@ DB 'MAP292', 00H		; `string'
CONST	ENDS
;	COMDAT ??_C@_06MJNMLLN@MAP291@
CONST	SEGMENT
??_C@_06MJNMLLN@MAP291@ DB 'MAP291', 00H		; `string'
CONST	ENDS
;	COMDAT ??_C@_06BFIGPKPM@MAP290@
CONST	SEGMENT
??_C@_06BFIGPKPM@MAP290@ DB 'MAP290', 00H		; `string'
CONST	ENDS
;	COMDAT ??_C@_06MFIGCLIC@MAP289@
CONST	SEGMENT
??_C@_06MFIGCLIC@MAP289@ DB 'MAP289', 00H		; `string'
CONST	ENDS
;	COMDAT ??_C@_06NMJNBKMD@MAP288@
CONST	SEGMENT
??_C@_06NMJNBKMD@MAP288@ DB 'MAP288', 00H		; `string'
CONST	ENDS
;	COMDAT ??_C@_06FLAFAGAM@MAP287@
CONST	SEGMENT
??_C@_06FLAFAGAM@MAP287@ DB 'MAP287', 00H		; `string'
CONST	ENDS
;	COMDAT ??_C@_06ECBODHEN@MAP286@
CONST	SEGMENT
??_C@_06ECBODHEN@MAP286@ DB 'MAP286', 00H		; `string'
CONST	ENDS
;	COMDAT ??_C@_06GJDDGEIO@MAP285@
CONST	SEGMENT
??_C@_06GJDDGEIO@MAP285@ DB 'MAP285', 00H		; `string'
CONST	ENDS
;	COMDAT ??_C@_06HACIFFMP@MAP284@
CONST	SEGMENT
??_C@_06HACIFFMP@MAP284@ DB 'MAP284', 00H		; `string'
CONST	ENDS
;	COMDAT ??_C@_06DPGJMDAI@MAP283@
CONST	SEGMENT
??_C@_06DPGJMDAI@MAP283@ DB 'MAP283', 00H		; `string'
CONST	ENDS
;	COMDAT ??_C@_06CGHCPCEJ@MAP282@
CONST	SEGMENT
??_C@_06CGHCPCEJ@MAP282@ DB 'MAP282', 00H		; `string'
CONST	ENDS
;	COMDAT ??_C@_06NFPKBIK@MAP281@
CONST	SEGMENT
??_C@_06NFPKBIK@MAP281@ DB 'MAP281', 00H		; `string'
CONST	ENDS
;	COMDAT ??_C@_06BEEEJAML@MAP280@
CONST	SEGMENT
??_C@_06BEEEJAML@MAP280@ DB 'MAP280', 00H		; `string'
CONST	ENDS
;	COMDAT ??_C@_06MONKGMLP@MAP279@
CONST	SEGMENT
??_C@_06MONKGMLP@MAP279@ DB 'MAP279', 00H		; `string'
CONST	ENDS
;	COMDAT ??_C@_06NHMBFNPO@MAP278@
CONST	SEGMENT
??_C@_06NHMBFNPO@MAP278@ DB 'MAP278', 00H		; `string'
CONST	ENDS
;	COMDAT ??_C@_06FAFJEBDB@MAP277@
CONST	SEGMENT
??_C@_06FAFJEBDB@MAP277@ DB 'MAP277', 00H		; `string'
CONST	ENDS
;	COMDAT ??_C@_06EJECHAHA@MAP276@
CONST	SEGMENT
??_C@_06EJECHAHA@MAP276@ DB 'MAP276', 00H		; `string'
CONST	ENDS
;	COMDAT ??_C@_06GCGPCDLD@MAP275@
CONST	SEGMENT
??_C@_06GCGPCDLD@MAP275@ DB 'MAP275', 00H		; `string'
CONST	ENDS
;	COMDAT ??_C@_06HLHEBCPC@MAP274@
CONST	SEGMENT
??_C@_06HLHEBCPC@MAP274@ DB 'MAP274', 00H		; `string'
CONST	ENDS
;	COMDAT ??_C@_06DEDFIEDF@MAP273@
CONST	SEGMENT
??_C@_06DEDFIEDF@MAP273@ DB 'MAP273', 00H		; `string'
CONST	ENDS
;	COMDAT ??_C@_06CNCOLFHE@MAP272@
CONST	SEGMENT
??_C@_06CNCOLFHE@MAP272@ DB 'MAP272', 00H		; `string'
CONST	ENDS
;	COMDAT ??_C@_06GADOGLH@MAP271@
CONST	SEGMENT
??_C@_06GADOGLH@MAP271@ DB 'MAP271', 00H		; `string'
CONST	ENDS
;	COMDAT ??_C@_06BPBINHPG@MAP270@
CONST	SEGMENT
??_C@_06BPBINHPG@MAP270@ DB 'MAP270', 00H		; `string'
CONST	ENDS
;	COMDAT ??_C@_06MPBIAGII@MAP269@
CONST	SEGMENT
??_C@_06MPBIAGII@MAP269@ DB 'MAP269', 00H		; `string'
CONST	ENDS
;	COMDAT ??_C@_06NGADDHMJ@MAP268@
CONST	SEGMENT
??_C@_06NGADDHMJ@MAP268@ DB 'MAP268', 00H		; `string'
CONST	ENDS
;	COMDAT ??_C@_06FBJLCLAG@MAP267@
CONST	SEGMENT
??_C@_06FBJLCLAG@MAP267@ DB 'MAP267', 00H		; `string'
CONST	ENDS
;	COMDAT ??_C@_06EIIABKEH@MAP266@
CONST	SEGMENT
??_C@_06EIIABKEH@MAP266@ DB 'MAP266', 00H		; `string'
CONST	ENDS
;	COMDAT ??_C@_06GDKNEJIE@MAP265@
CONST	SEGMENT
??_C@_06GDKNEJIE@MAP265@ DB 'MAP265', 00H		; `string'
CONST	ENDS
;	COMDAT ??_C@_06HKLGHIMF@MAP264@
CONST	SEGMENT
??_C@_06HKLGHIMF@MAP264@ DB 'MAP264', 00H		; `string'
CONST	ENDS
;	COMDAT ??_C@_06DFPHOOAC@MAP263@
CONST	SEGMENT
??_C@_06DFPHOOAC@MAP263@ DB 'MAP263', 00H		; `string'
CONST	ENDS
;	COMDAT ??_C@_06CMOMNPED@MAP262@
CONST	SEGMENT
??_C@_06CMOMNPED@MAP262@ DB 'MAP262', 00H		; `string'
CONST	ENDS
;	COMDAT ??_C@_06HMBIMIA@MAP261@
CONST	SEGMENT
??_C@_06HMBIMIA@MAP261@ DB 'MAP261', 00H		; `string'
CONST	ENDS
;	COMDAT ??_C@_06BONKLNMB@MAP260@
CONST	SEGMENT
??_C@_06BONKLNMB@MAP260@ DB 'MAP260', 00H		; `string'
CONST	ENDS
;	COMDAT ??_C@_06MNFOLINB@MAP259@
CONST	SEGMENT
??_C@_06MNFOLINB@MAP259@ DB 'MAP259', 00H		; `string'
CONST	ENDS
;	COMDAT ??_C@_06NEEFIJJA@MAP258@
CONST	SEGMENT
??_C@_06NEEFIJJA@MAP258@ DB 'MAP258', 00H		; `string'
CONST	ENDS
;	COMDAT ??_C@_06FDNNJFFP@MAP257@
CONST	SEGMENT
??_C@_06FDNNJFFP@MAP257@ DB 'MAP257', 00H		; `string'
CONST	ENDS
;	COMDAT ??_C@_06EKMGKEBO@MAP256@
CONST	SEGMENT
??_C@_06EKMGKEBO@MAP256@ DB 'MAP256', 00H		; `string'
CONST	ENDS
;	COMDAT ??_C@_06GBOLPHNN@MAP255@
CONST	SEGMENT
??_C@_06GBOLPHNN@MAP255@ DB 'MAP255', 00H		; `string'
CONST	ENDS
;	COMDAT ??_C@_06HIPAMGJM@MAP254@
CONST	SEGMENT
??_C@_06HIPAMGJM@MAP254@ DB 'MAP254', 00H		; `string'
CONST	ENDS
;	COMDAT ??_C@_06DHLBFAFL@MAP253@
CONST	SEGMENT
??_C@_06DHLBFAFL@MAP253@ DB 'MAP253', 00H		; `string'
CONST	ENDS
;	COMDAT ??_C@_06COKKGBBK@MAP252@
CONST	SEGMENT
??_C@_06COKKGBBK@MAP252@ DB 'MAP252', 00H		; `string'
CONST	ENDS
;	COMDAT ??_C@_06FIHDCNJ@MAP251@
CONST	SEGMENT
??_C@_06FIHDCNJ@MAP251@ DB 'MAP251', 00H		; `string'
CONST	ENDS
;	COMDAT ??_C@_06BMJMADJI@MAP250@
CONST	SEGMENT
??_C@_06BMJMADJI@MAP250@ DB 'MAP250', 00H		; `string'
CONST	ENDS
;	COMDAT ??_C@_06MMJMNCOG@MAP249@
CONST	SEGMENT
??_C@_06MMJMNCOG@MAP249@ DB 'MAP249', 00H		; `string'
CONST	ENDS
;	COMDAT ??_C@_06NFIHODKH@MAP248@
CONST	SEGMENT
??_C@_06NFIHODKH@MAP248@ DB 'MAP248', 00H		; `string'
CONST	ENDS
;	COMDAT ??_C@_06FCBPPPGI@MAP247@
CONST	SEGMENT
??_C@_06FCBPPPGI@MAP247@ DB 'MAP247', 00H		; `string'
CONST	ENDS
;	COMDAT ??_C@_06ELAEMOCJ@MAP246@
CONST	SEGMENT
??_C@_06ELAEMOCJ@MAP246@ DB 'MAP246', 00H		; `string'
CONST	ENDS
;	COMDAT ??_C@_06GACJJNOK@MAP245@
CONST	SEGMENT
??_C@_06GACJJNOK@MAP245@ DB 'MAP245', 00H		; `string'
CONST	ENDS
;	COMDAT ??_C@_06HJDCKMKL@MAP244@
CONST	SEGMENT
??_C@_06HJDCKMKL@MAP244@ DB 'MAP244', 00H		; `string'
CONST	ENDS
;	COMDAT ??_C@_06DGHDDKGM@MAP243@
CONST	SEGMENT
??_C@_06DGHDDKGM@MAP243@ DB 'MAP243', 00H		; `string'
CONST	ENDS
;	COMDAT ??_C@_06CPGIALCN@MAP242@
CONST	SEGMENT
??_C@_06CPGIALCN@MAP242@ DB 'MAP242', 00H		; `string'
CONST	ENDS
;	COMDAT ??_C@_06EEFFIOO@MAP241@
CONST	SEGMENT
??_C@_06EEFFIOO@MAP241@ DB 'MAP241', 00H		; `string'
CONST	ENDS
;	COMDAT ??_C@_06BNFOGJKP@MAP240@
CONST	SEGMENT
??_C@_06BNFOGJKP@MAP240@ DB 'MAP240', 00H		; `string'
CONST	ENDS
;	COMDAT ??_C@_06MJNDMEGD@MAP239@
CONST	SEGMENT
??_C@_06MJNDMEGD@MAP239@ DB 'MAP239', 00H		; `string'
CONST	ENDS
;	COMDAT ??_C@_06NAMIPFCC@MAP238@
CONST	SEGMENT
??_C@_06NAMIPFCC@MAP238@ DB 'MAP238', 00H		; `string'
CONST	ENDS
;	COMDAT ??_C@_06FHFAOJON@MAP237@
CONST	SEGMENT
??_C@_06FHFAOJON@MAP237@ DB 'MAP237', 00H		; `string'
CONST	ENDS
;	COMDAT ??_C@_06EOELNIKM@MAP236@
CONST	SEGMENT
??_C@_06EOELNIKM@MAP236@ DB 'MAP236', 00H		; `string'
CONST	ENDS
;	COMDAT ??_C@_06GFGGILGP@MAP235@
CONST	SEGMENT
??_C@_06GFGGILGP@MAP235@ DB 'MAP235', 00H		; `string'
CONST	ENDS
;	COMDAT ??_C@_06HMHNLKCO@MAP234@
CONST	SEGMENT
??_C@_06HMHNLKCO@MAP234@ DB 'MAP234', 00H		; `string'
CONST	ENDS
;	COMDAT ??_C@_06DDDMCMOJ@MAP233@
CONST	SEGMENT
??_C@_06DDDMCMOJ@MAP233@ DB 'MAP233', 00H		; `string'
CONST	ENDS
;	COMDAT ??_C@_06CKCHBNKI@MAP232@
CONST	SEGMENT
??_C@_06CKCHBNKI@MAP232@ DB 'MAP232', 00H		; `string'
CONST	ENDS
;	COMDAT ??_C@_06BAKEOGL@MAP231@
CONST	SEGMENT
??_C@_06BAKEOGL@MAP231@ DB 'MAP231', 00H		; `string'
CONST	ENDS
;	COMDAT ??_C@_06BIBBHPCK@MAP230@
CONST	SEGMENT
??_C@_06BIBBHPCK@MAP230@ DB 'MAP230', 00H		; `string'
CONST	ENDS
;	COMDAT ??_C@_06MIBBKOFE@MAP229@
CONST	SEGMENT
??_C@_06MIBBKOFE@MAP229@ DB 'MAP229', 00H		; `string'
CONST	ENDS
;	COMDAT ??_C@_06NBAKJPBF@MAP228@
CONST	SEGMENT
??_C@_06NBAKJPBF@MAP228@ DB 'MAP228', 00H		; `string'
CONST	ENDS
;	COMDAT ??_C@_06FGJCIDNK@MAP227@
CONST	SEGMENT
??_C@_06FGJCIDNK@MAP227@ DB 'MAP227', 00H		; `string'
CONST	ENDS
;	COMDAT ??_C@_06EPIJLCJL@MAP226@
CONST	SEGMENT
??_C@_06EPIJLCJL@MAP226@ DB 'MAP226', 00H		; `string'
CONST	ENDS
;	COMDAT ??_C@_06GEKEOBFI@MAP225@
CONST	SEGMENT
??_C@_06GEKEOBFI@MAP225@ DB 'MAP225', 00H		; `string'
CONST	ENDS
;	COMDAT ??_C@_06HNLPNABJ@MAP224@
CONST	SEGMENT
??_C@_06HNLPNABJ@MAP224@ DB 'MAP224', 00H		; `string'
CONST	ENDS
;	COMDAT ??_C@_06DCPOEGNO@MAP223@
CONST	SEGMENT
??_C@_06DCPOEGNO@MAP223@ DB 'MAP223', 00H		; `string'
CONST	ENDS
;	COMDAT ??_C@_06CLOFHHJP@MAP222@
CONST	SEGMENT
??_C@_06CLOFHHJP@MAP222@ DB 'MAP222', 00H		; `string'
CONST	ENDS
;	COMDAT ??_C@_06MICEFM@MAP221@
CONST	SEGMENT
??_C@_06MICEFM@MAP221@ DB 'MAP221', 00H			; `string'
CONST	ENDS
;	COMDAT ??_C@_06BJNDBFBN@MAP220@
CONST	SEGMENT
??_C@_06BJNDBFBN@MAP220@ DB 'MAP220', 00H		; `string'
CONST	ENDS
;	COMDAT ??_C@_06MKFHBAAN@MAP219@
CONST	SEGMENT
??_C@_06MKFHBAAN@MAP219@ DB 'MAP219', 00H		; `string'
CONST	ENDS
;	COMDAT ??_C@_06NDEMCBEM@MAP218@
CONST	SEGMENT
??_C@_06NDEMCBEM@MAP218@ DB 'MAP218', 00H		; `string'
CONST	ENDS
;	COMDAT ??_C@_06FENEDNID@MAP217@
CONST	SEGMENT
??_C@_06FENEDNID@MAP217@ DB 'MAP217', 00H		; `string'
CONST	ENDS
;	COMDAT ??_C@_06ENMPAMMC@MAP216@
CONST	SEGMENT
??_C@_06ENMPAMMC@MAP216@ DB 'MAP216', 00H		; `string'
CONST	ENDS
;	COMDAT ??_C@_06GGOCFPAB@MAP215@
CONST	SEGMENT
??_C@_06GGOCFPAB@MAP215@ DB 'MAP215', 00H		; `string'
CONST	ENDS
;	COMDAT ??_C@_06HPPJGOEA@MAP214@
CONST	SEGMENT
??_C@_06HPPJGOEA@MAP214@ DB 'MAP214', 00H		; `string'
CONST	ENDS
;	COMDAT ??_C@_06DALIPIIH@MAP213@
CONST	SEGMENT
??_C@_06DALIPIIH@MAP213@ DB 'MAP213', 00H		; `string'
CONST	ENDS
;	COMDAT ??_C@_06CJKDMJMG@MAP212@
CONST	SEGMENT
??_C@_06CJKDMJMG@MAP212@ DB 'MAP212', 00H		; `string'
CONST	ENDS
;	COMDAT ??_C@_06CIOJKAF@MAP211@
CONST	SEGMENT
??_C@_06CIOJKAF@MAP211@ DB 'MAP211', 00H		; `string'
CONST	ENDS
;	COMDAT ??_C@_06BLJFKLEE@MAP210@
CONST	SEGMENT
??_C@_06BLJFKLEE@MAP210@ DB 'MAP210', 00H		; `string'
CONST	ENDS
;	COMDAT ??_C@_06MLJFHKDK@MAP209@
CONST	SEGMENT
??_C@_06MLJFHKDK@MAP209@ DB 'MAP209', 00H		; `string'
CONST	ENDS
;	COMDAT ??_C@_06NCIOELHL@MAP208@
CONST	SEGMENT
??_C@_06NCIOELHL@MAP208@ DB 'MAP208', 00H		; `string'
CONST	ENDS
;	COMDAT ??_C@_06FFBGFHLE@MAP207@
CONST	SEGMENT
??_C@_06FFBGFHLE@MAP207@ DB 'MAP207', 00H		; `string'
CONST	ENDS
;	COMDAT ??_C@_06EMANGGPF@MAP206@
CONST	SEGMENT
??_C@_06EMANGGPF@MAP206@ DB 'MAP206', 00H		; `string'
CONST	ENDS
;	COMDAT ??_C@_06GHCADFDG@MAP205@
CONST	SEGMENT
??_C@_06GHCADFDG@MAP205@ DB 'MAP205', 00H		; `string'
CONST	ENDS
;	COMDAT ??_C@_06HODLAEHH@MAP204@
CONST	SEGMENT
??_C@_06HODLAEHH@MAP204@ DB 'MAP204', 00H		; `string'
CONST	ENDS
;	COMDAT ??_C@_06DBHKJCLA@MAP203@
CONST	SEGMENT
??_C@_06DBHKJCLA@MAP203@ DB 'MAP203', 00H		; `string'
CONST	ENDS
;	COMDAT ??_C@_06CIGBKDPB@MAP202@
CONST	SEGMENT
??_C@_06CIGBKDPB@MAP202@ DB 'MAP202', 00H		; `string'
CONST	ENDS
;	COMDAT ??_C@_06DEMPADC@MAP201@
CONST	SEGMENT
??_C@_06DEMPADC@MAP201@ DB 'MAP201', 00H		; `string'
CONST	ENDS
;	COMDAT ??_C@_06BKFHMBHD@MAP200@
CONST	SEGMENT
??_C@_06BKFHMBHD@MAP200@ DB 'MAP200', 00H		; `string'
CONST	ENDS
;	COMDAT ??_C@_06NGPBOOFL@MAP199@
CONST	SEGMENT
??_C@_06NGPBOOFL@MAP199@ DB 'MAP199', 00H		; `string'
CONST	ENDS
;	COMDAT ??_C@_06MPOKNPBK@MAP198@
CONST	SEGMENT
??_C@_06MPOKNPBK@MAP198@ DB 'MAP198', 00H		; `string'
CONST	ENDS
;	COMDAT ??_C@_06EIHCMDNF@MAP197@
CONST	SEGMENT
??_C@_06EIHCMDNF@MAP197@ DB 'MAP197', 00H		; `string'
CONST	ENDS
;	COMDAT ??_C@_06FBGJPCJE@MAP196@
CONST	SEGMENT
??_C@_06FBGJPCJE@MAP196@ DB 'MAP196', 00H		; `string'
CONST	ENDS
;	COMDAT ??_C@_06HKEEKBFH@MAP195@
CONST	SEGMENT
??_C@_06HKEEKBFH@MAP195@ DB 'MAP195', 00H		; `string'
CONST	ENDS
;	COMDAT ??_C@_06GDFPJABG@MAP194@
CONST	SEGMENT
??_C@_06GDFPJABG@MAP194@ DB 'MAP194', 00H		; `string'
CONST	ENDS
;	COMDAT ??_C@_06CMBOAGNB@MAP193@
CONST	SEGMENT
??_C@_06CMBOAGNB@MAP193@ DB 'MAP193', 00H		; `string'
CONST	ENDS
;	COMDAT ??_C@_06DFAFDHJA@MAP192@
CONST	SEGMENT
??_C@_06DFAFDHJA@MAP192@ DB 'MAP192', 00H		; `string'
CONST	ENDS
;	COMDAT ??_C@_06BOCIGEFD@MAP191@
CONST	SEGMENT
??_C@_06BOCIGEFD@MAP191@ DB 'MAP191', 00H		; `string'
CONST	ENDS
;	COMDAT ??_C@_06HDDFFBC@MAP190@
CONST	SEGMENT
??_C@_06HDDFFBC@MAP190@ DB 'MAP190', 00H		; `string'
CONST	ENDS
;	COMDAT ??_C@_06NHDDIEGM@MAP189@
CONST	SEGMENT
??_C@_06NHDDIEGM@MAP189@ DB 'MAP189', 00H		; `string'
CONST	ENDS
;	COMDAT ??_C@_06MOCILFCN@MAP188@
CONST	SEGMENT
??_C@_06MOCILFCN@MAP188@ DB 'MAP188', 00H		; `string'
CONST	ENDS
;	COMDAT ??_C@_06EJLAKJOC@MAP187@
CONST	SEGMENT
??_C@_06EJLAKJOC@MAP187@ DB 'MAP187', 00H		; `string'
CONST	ENDS
;	COMDAT ??_C@_06FAKLJIKD@MAP186@
CONST	SEGMENT
??_C@_06FAKLJIKD@MAP186@ DB 'MAP186', 00H		; `string'
CONST	ENDS
;	COMDAT ??_C@_06HLIGMLGA@MAP185@
CONST	SEGMENT
??_C@_06HLIGMLGA@MAP185@ DB 'MAP185', 00H		; `string'
CONST	ENDS
;	COMDAT ??_C@_06GCJNPKCB@MAP184@
CONST	SEGMENT
??_C@_06GCJNPKCB@MAP184@ DB 'MAP184', 00H		; `string'
CONST	ENDS
;	COMDAT ??_C@_06CNNMGMOG@MAP183@
CONST	SEGMENT
??_C@_06CNNMGMOG@MAP183@ DB 'MAP183', 00H		; `string'
CONST	ENDS
;	COMDAT ??_C@_06DEMHFNKH@MAP182@
CONST	SEGMENT
??_C@_06DEMHFNKH@MAP182@ DB 'MAP182', 00H		; `string'
CONST	ENDS
;	COMDAT ??_C@_06BPOKAOGE@MAP181@
CONST	SEGMENT
??_C@_06BPOKAOGE@MAP181@ DB 'MAP181', 00H		; `string'
CONST	ENDS
;	COMDAT ??_C@_06GPBDPCF@MAP180@
CONST	SEGMENT
??_C@_06GPBDPCF@MAP180@ DB 'MAP180', 00H		; `string'
CONST	ENDS
;	COMDAT ??_C@_06NMGPMDFB@MAP179@
CONST	SEGMENT
??_C@_06NMGPMDFB@MAP179@ DB 'MAP179', 00H		; `string'
CONST	ENDS
;	COMDAT ??_C@_06MFHEPCBA@MAP178@
CONST	SEGMENT
??_C@_06MFHEPCBA@MAP178@ DB 'MAP178', 00H		; `string'
CONST	ENDS
;	COMDAT ??_C@_06ECOMOONP@MAP177@
CONST	SEGMENT
??_C@_06ECOMOONP@MAP177@ DB 'MAP177', 00H		; `string'
CONST	ENDS
;	COMDAT ??_C@_06FLPHNPJO@MAP176@
CONST	SEGMENT
??_C@_06FLPHNPJO@MAP176@ DB 'MAP176', 00H		; `string'
CONST	ENDS
;	COMDAT ??_C@_06HANKIMFN@MAP175@
CONST	SEGMENT
??_C@_06HANKIMFN@MAP175@ DB 'MAP175', 00H		; `string'
CONST	ENDS
;	COMDAT ??_C@_06GJMBLNBM@MAP174@
CONST	SEGMENT
??_C@_06GJMBLNBM@MAP174@ DB 'MAP174', 00H		; `string'
CONST	ENDS
;	COMDAT ??_C@_06CGIACLNL@MAP173@
CONST	SEGMENT
??_C@_06CGIACLNL@MAP173@ DB 'MAP173', 00H		; `string'
CONST	ENDS
;	COMDAT ??_C@_06DPJLBKJK@MAP172@
CONST	SEGMENT
??_C@_06DPJLBKJK@MAP172@ DB 'MAP172', 00H		; `string'
CONST	ENDS
;	COMDAT ??_C@_06BELGEJFJ@MAP171@
CONST	SEGMENT
??_C@_06BELGEJFJ@MAP171@ DB 'MAP171', 00H		; `string'
CONST	ENDS
;	COMDAT ??_C@_06NKNHIBI@MAP170@
CONST	SEGMENT
??_C@_06NKNHIBI@MAP170@ DB 'MAP170', 00H		; `string'
CONST	ENDS
;	COMDAT ??_C@_06NNKNKJGG@MAP169@
CONST	SEGMENT
??_C@_06NNKNKJGG@MAP169@ DB 'MAP169', 00H		; `string'
CONST	ENDS
;	COMDAT ??_C@_06MELGJICH@MAP168@
CONST	SEGMENT
??_C@_06MELGJICH@MAP168@ DB 'MAP168', 00H		; `string'
CONST	ENDS
;	COMDAT ??_C@_06EDCOIEOI@MAP167@
CONST	SEGMENT
??_C@_06EDCOIEOI@MAP167@ DB 'MAP167', 00H		; `string'
CONST	ENDS
;	COMDAT ??_C@_06FKDFLFKJ@MAP166@
CONST	SEGMENT
??_C@_06FKDFLFKJ@MAP166@ DB 'MAP166', 00H		; `string'
CONST	ENDS
;	COMDAT ??_C@_06HBBIOGGK@MAP165@
CONST	SEGMENT
??_C@_06HBBIOGGK@MAP165@ DB 'MAP165', 00H		; `string'
CONST	ENDS
;	COMDAT ??_C@_06GIADNHCL@MAP164@
CONST	SEGMENT
??_C@_06GIADNHCL@MAP164@ DB 'MAP164', 00H		; `string'
CONST	ENDS
;	COMDAT ??_C@_06CHECEBOM@MAP163@
CONST	SEGMENT
??_C@_06CHECEBOM@MAP163@ DB 'MAP163', 00H		; `string'
CONST	ENDS
;	COMDAT ??_C@_06DOFJHAKN@MAP162@
CONST	SEGMENT
??_C@_06DOFJHAKN@MAP162@ DB 'MAP162', 00H		; `string'
CONST	ENDS
;	COMDAT ??_C@_06BFHECDGO@MAP161@
CONST	SEGMENT
??_C@_06BFHECDGO@MAP161@ DB 'MAP161', 00H		; `string'
CONST	ENDS
;	COMDAT ??_C@_06MGPBCCP@MAP160@
CONST	SEGMENT
??_C@_06MGPBCCP@MAP160@ DB 'MAP160', 00H		; `string'
CONST	ENDS
;	COMDAT ??_C@_06NPOLBHDP@MAP159@
CONST	SEGMENT
??_C@_06NPOLBHDP@MAP159@ DB 'MAP159', 00H		; `string'
CONST	ENDS
;	COMDAT ??_C@_06MGPACGHO@MAP158@
CONST	SEGMENT
??_C@_06MGPACGHO@MAP158@ DB 'MAP158', 00H		; `string'
CONST	ENDS
;	COMDAT ??_C@_06EBGIDKLB@MAP157@
CONST	SEGMENT
??_C@_06EBGIDKLB@MAP157@ DB 'MAP157', 00H		; `string'
CONST	ENDS
;	COMDAT ??_C@_06FIHDALPA@MAP156@
CONST	SEGMENT
??_C@_06FIHDALPA@MAP156@ DB 'MAP156', 00H		; `string'
CONST	ENDS
;	COMDAT ??_C@_06HDFOFIDD@MAP155@
CONST	SEGMENT
??_C@_06HDFOFIDD@MAP155@ DB 'MAP155', 00H		; `string'
CONST	ENDS
;	COMDAT ??_C@_06GKEFGJHC@MAP154@
CONST	SEGMENT
??_C@_06GKEFGJHC@MAP154@ DB 'MAP154', 00H		; `string'
CONST	ENDS
;	COMDAT ??_C@_06CFAEPPLF@MAP153@
CONST	SEGMENT
??_C@_06CFAEPPLF@MAP153@ DB 'MAP153', 00H		; `string'
CONST	ENDS
;	COMDAT ??_C@_06DMBPMOPE@MAP152@
CONST	SEGMENT
??_C@_06DMBPMOPE@MAP152@ DB 'MAP152', 00H		; `string'
CONST	ENDS
;	COMDAT ??_C@_06BHDCJNDH@MAP151@
CONST	SEGMENT
??_C@_06BHDCJNDH@MAP151@ DB 'MAP151', 00H		; `string'
CONST	ENDS
;	COMDAT ??_C@_06OCJKMHG@MAP150@
CONST	SEGMENT
??_C@_06OCJKMHG@MAP150@ DB 'MAP150', 00H		; `string'
CONST	ENDS
;	COMDAT ??_C@_06NOCJHNAI@MAP149@
CONST	SEGMENT
??_C@_06NOCJHNAI@MAP149@ DB 'MAP149', 00H		; `string'
CONST	ENDS
;	COMDAT ??_C@_06MHDCEMEJ@MAP148@
CONST	SEGMENT
??_C@_06MHDCEMEJ@MAP148@ DB 'MAP148', 00H		; `string'
CONST	ENDS
;	COMDAT ??_C@_06EAKKFAIG@MAP147@
CONST	SEGMENT
??_C@_06EAKKFAIG@MAP147@ DB 'MAP147', 00H		; `string'
CONST	ENDS
;	COMDAT ??_C@_06FJLBGBMH@MAP146@
CONST	SEGMENT
??_C@_06FJLBGBMH@MAP146@ DB 'MAP146', 00H		; `string'
CONST	ENDS
;	COMDAT ??_C@_06HCJMDCAE@MAP145@
CONST	SEGMENT
??_C@_06HCJMDCAE@MAP145@ DB 'MAP145', 00H		; `string'
CONST	ENDS
;	COMDAT ??_C@_06GLIHADEF@MAP144@
CONST	SEGMENT
??_C@_06GLIHADEF@MAP144@ DB 'MAP144', 00H		; `string'
CONST	ENDS
;	COMDAT ??_C@_06CEMGJFIC@MAP143@
CONST	SEGMENT
??_C@_06CEMGJFIC@MAP143@ DB 'MAP143', 00H		; `string'
CONST	ENDS
;	COMDAT ??_C@_06DNNNKEMD@MAP142@
CONST	SEGMENT
??_C@_06DNNNKEMD@MAP142@ DB 'MAP142', 00H		; `string'
CONST	ENDS
;	COMDAT ??_C@_06BGPAPHAA@MAP141@
CONST	SEGMENT
??_C@_06BGPAPHAA@MAP141@ DB 'MAP141', 00H		; `string'
CONST	ENDS
;	COMDAT ??_C@_06POLMGEB@MAP140@
CONST	SEGMENT
??_C@_06POLMGEB@MAP140@ DB 'MAP140', 00H		; `string'
CONST	ENDS
;	COMDAT ??_C@_06NLGGGLIN@MAP139@
CONST	SEGMENT
??_C@_06NLGGGLIN@MAP139@ DB 'MAP139', 00H		; `string'
CONST	ENDS
;	COMDAT ??_C@_06MCHNFKMM@MAP138@
CONST	SEGMENT
??_C@_06MCHNFKMM@MAP138@ DB 'MAP138', 00H		; `string'
CONST	ENDS
;	COMDAT ??_C@_06EFOFEGAD@MAP137@
CONST	SEGMENT
??_C@_06EFOFEGAD@MAP137@ DB 'MAP137', 00H		; `string'
CONST	ENDS
;	COMDAT ??_C@_06FMPOHHEC@MAP136@
CONST	SEGMENT
??_C@_06FMPOHHEC@MAP136@ DB 'MAP136', 00H		; `string'
CONST	ENDS
;	COMDAT ??_C@_06HHNDCEIB@MAP135@
CONST	SEGMENT
??_C@_06HHNDCEIB@MAP135@ DB 'MAP135', 00H		; `string'
CONST	ENDS
;	COMDAT ??_C@_06GOMIBFMA@MAP134@
CONST	SEGMENT
??_C@_06GOMIBFMA@MAP134@ DB 'MAP134', 00H		; `string'
CONST	ENDS
;	COMDAT ??_C@_06CBIJIDAH@MAP133@
CONST	SEGMENT
??_C@_06CBIJIDAH@MAP133@ DB 'MAP133', 00H		; `string'
CONST	ENDS
;	COMDAT ??_C@_06DIJCLCEG@MAP132@
CONST	SEGMENT
??_C@_06DIJCLCEG@MAP132@ DB 'MAP132', 00H		; `string'
CONST	ENDS
;	COMDAT ??_C@_06BDLPOBIF@MAP131@
CONST	SEGMENT
??_C@_06BDLPOBIF@MAP131@ DB 'MAP131', 00H		; `string'
CONST	ENDS
;	COMDAT ??_C@_06KKENAME@MAP130@
CONST	SEGMENT
??_C@_06KKENAME@MAP130@ DB 'MAP130', 00H		; `string'
CONST	ENDS
;	COMDAT ??_C@_06NKKEABLK@MAP129@
CONST	SEGMENT
??_C@_06NKKEABLK@MAP129@ DB 'MAP129', 00H		; `string'
CONST	ENDS
;	COMDAT ??_C@_06MDLPDAPL@MAP128@
CONST	SEGMENT
??_C@_06MDLPDAPL@MAP128@ DB 'MAP128', 00H		; `string'
CONST	ENDS
;	COMDAT ??_C@_06EECHCMDE@MAP127@
CONST	SEGMENT
??_C@_06EECHCMDE@MAP127@ DB 'MAP127', 00H		; `string'
CONST	ENDS
;	COMDAT ??_C@_06FNDMBNHF@MAP126@
CONST	SEGMENT
??_C@_06FNDMBNHF@MAP126@ DB 'MAP126', 00H		; `string'
CONST	ENDS
;	COMDAT ??_C@_06HGBBEOLG@MAP125@
CONST	SEGMENT
??_C@_06HGBBEOLG@MAP125@ DB 'MAP125', 00H		; `string'
CONST	ENDS
;	COMDAT ??_C@_06GPAKHPPH@MAP124@
CONST	SEGMENT
??_C@_06GPAKHPPH@MAP124@ DB 'MAP124', 00H		; `string'
CONST	ENDS
;	COMDAT ??_C@_06CAELOJDA@MAP123@
CONST	SEGMENT
??_C@_06CAELOJDA@MAP123@ DB 'MAP123', 00H		; `string'
CONST	ENDS
;	COMDAT ??_C@_06DJFANIHB@MAP122@
CONST	SEGMENT
??_C@_06DJFANIHB@MAP122@ DB 'MAP122', 00H		; `string'
CONST	ENDS
;	COMDAT ??_C@_06BCHNILLC@MAP121@
CONST	SEGMENT
??_C@_06BCHNILLC@MAP121@ DB 'MAP121', 00H		; `string'
CONST	ENDS
;	COMDAT ??_C@_06LGGLKPD@MAP120@
CONST	SEGMENT
??_C@_06LGGLKPD@MAP120@ DB 'MAP120', 00H		; `string'
CONST	ENDS
;	COMDAT ??_C@_06NIOCLPOD@MAP119@
CONST	SEGMENT
??_C@_06NIOCLPOD@MAP119@ DB 'MAP119', 00H		; `string'
CONST	ENDS
;	COMDAT ??_C@_06MBPJIOKC@MAP118@
CONST	SEGMENT
??_C@_06MBPJIOKC@MAP118@ DB 'MAP118', 00H		; `string'
CONST	ENDS
;	COMDAT ??_C@_06EGGBJCGN@MAP117@
CONST	SEGMENT
??_C@_06EGGBJCGN@MAP117@ DB 'MAP117', 00H		; `string'
CONST	ENDS
;	COMDAT ??_C@_06FPHKKDCM@MAP116@
CONST	SEGMENT
??_C@_06FPHKKDCM@MAP116@ DB 'MAP116', 00H		; `string'
CONST	ENDS
;	COMDAT ??_C@_06HEFHPAOP@MAP115@
CONST	SEGMENT
??_C@_06HEFHPAOP@MAP115@ DB 'MAP115', 00H		; `string'
CONST	ENDS
;	COMDAT ??_C@_06GNEMMBKO@MAP114@
CONST	SEGMENT
??_C@_06GNEMMBKO@MAP114@ DB 'MAP114', 00H		; `string'
CONST	ENDS
;	COMDAT ??_C@_06CCANFHGJ@MAP113@
CONST	SEGMENT
??_C@_06CCANFHGJ@MAP113@ DB 'MAP113', 00H		; `string'
CONST	ENDS
;	COMDAT ??_C@_06DLBGGGCI@MAP112@
CONST	SEGMENT
??_C@_06DLBGGGCI@MAP112@ DB 'MAP112', 00H		; `string'
CONST	ENDS
;	COMDAT ??_C@_06BADLDFOL@MAP111@
CONST	SEGMENT
??_C@_06BADLDFOL@MAP111@ DB 'MAP111', 00H		; `string'
CONST	ENDS
;	COMDAT ??_C@_06JCAAEKK@MAP110@
CONST	SEGMENT
??_C@_06JCAAEKK@MAP110@ DB 'MAP110', 00H		; `string'
CONST	ENDS
;	COMDAT ??_C@_06NJCANFNE@MAP109@
CONST	SEGMENT
??_C@_06NJCANFNE@MAP109@ DB 'MAP109', 00H		; `string'
CONST	ENDS
;	COMDAT ??_C@_06MADLOEJF@MAP108@
CONST	SEGMENT
??_C@_06MADLOEJF@MAP108@ DB 'MAP108', 00H		; `string'
CONST	ENDS
;	COMDAT ??_C@_06EHKDPIFK@MAP107@
CONST	SEGMENT
??_C@_06EHKDPIFK@MAP107@ DB 'MAP107', 00H		; `string'
CONST	ENDS
;	COMDAT ??_C@_06FOLIMJBL@MAP106@
CONST	SEGMENT
??_C@_06FOLIMJBL@MAP106@ DB 'MAP106', 00H		; `string'
CONST	ENDS
;	COMDAT ??_C@_06HFJFJKNI@MAP105@
CONST	SEGMENT
??_C@_06HFJFJKNI@MAP105@ DB 'MAP105', 00H		; `string'
CONST	ENDS
;	COMDAT ??_C@_06GMIOKLJJ@MAP104@
CONST	SEGMENT
??_C@_06GMIOKLJJ@MAP104@ DB 'MAP104', 00H		; `string'
CONST	ENDS
;	COMDAT ??_C@_06CDMPDNFO@MAP103@
CONST	SEGMENT
??_C@_06CDMPDNFO@MAP103@ DB 'MAP103', 00H		; `string'
CONST	ENDS
;	COMDAT ??_C@_06DKNEAMBP@MAP102@
CONST	SEGMENT
??_C@_06DKNEAMBP@MAP102@ DB 'MAP102', 00H		; `string'
CONST	ENDS
;	COMDAT ??_C@_06BBPJFPNM@MAP101@
CONST	SEGMENT
??_C@_06BBPJFPNM@MAP101@ DB 'MAP101', 00H		; `string'
CONST	ENDS
;	COMDAT ??_C@_06IOCGOJN@MAP100@
CONST	SEGMENT
??_C@_06IOCGOJN@MAP100@ DB 'MAP100', 00H		; `string'
CONST	ENDS
;	COMDAT ??_C@_05HGFLGKBA@MAP99@
CONST	SEGMENT
??_C@_05HGFLGKBA@MAP99@ DB 'MAP99', 00H			; `string'
CONST	ENDS
;	COMDAT ??_C@_05GPEAFLFB@MAP98@
CONST	SEGMENT
??_C@_05GPEAFLFB@MAP98@ DB 'MAP98', 00H			; `string'
CONST	ENDS
;	COMDAT ??_C@_05OINIEHJO@MAP97@
CONST	SEGMENT
??_C@_05OINIEHJO@MAP97@ DB 'MAP97', 00H			; `string'
CONST	ENDS
;	COMDAT ??_C@_05PBMDHGNP@MAP96@
CONST	SEGMENT
??_C@_05PBMDHGNP@MAP96@ DB 'MAP96', 00H			; `string'
CONST	ENDS
;	COMDAT ??_C@_05NKOOCFBM@MAP95@
CONST	SEGMENT
??_C@_05NKOOCFBM@MAP95@ DB 'MAP95', 00H			; `string'
CONST	ENDS
;	COMDAT ??_C@_05MDPFBEFN@MAP94@
CONST	SEGMENT
??_C@_05MDPFBEFN@MAP94@ DB 'MAP94', 00H			; `string'
CONST	ENDS
;	COMDAT ??_C@_05IMLEICJK@MAP93@
CONST	SEGMENT
??_C@_05IMLEICJK@MAP93@ DB 'MAP93', 00H			; `string'
CONST	ENDS
;	COMDAT ??_C@_05JFKPLDNL@MAP92@
CONST	SEGMENT
??_C@_05JFKPLDNL@MAP92@ DB 'MAP92', 00H			; `string'
CONST	ENDS
;	COMDAT ??_C@_05LOICOABI@MAP91@
CONST	SEGMENT
??_C@_05LOICOABI@MAP91@ DB 'MAP91', 00H			; `string'
CONST	ENDS
;	COMDAT ??_C@_05KHJJNBFJ@MAP90@
CONST	SEGMENT
??_C@_05KHJJNBFJ@MAP90@ DB 'MAP90', 00H			; `string'
CONST	ENDS
;	COMDAT ??_C@_05HHJJAACH@MAP89@
CONST	SEGMENT
??_C@_05HHJJAACH@MAP89@ DB 'MAP89', 00H			; `string'
CONST	ENDS
;	COMDAT ??_C@_05GOICDBGG@MAP88@
CONST	SEGMENT
??_C@_05GOICDBGG@MAP88@ DB 'MAP88', 00H			; `string'
CONST	ENDS
;	COMDAT ??_C@_05OJBKCNKJ@MAP87@
CONST	SEGMENT
??_C@_05OJBKCNKJ@MAP87@ DB 'MAP87', 00H			; `string'
CONST	ENDS
;	COMDAT ??_C@_05PAABBMOI@MAP86@
CONST	SEGMENT
??_C@_05PAABBMOI@MAP86@ DB 'MAP86', 00H			; `string'
CONST	ENDS
;	COMDAT ??_C@_05NLCMEPCL@MAP85@
CONST	SEGMENT
??_C@_05NLCMEPCL@MAP85@ DB 'MAP85', 00H			; `string'
CONST	ENDS
;	COMDAT ??_C@_05MCDHHOGK@MAP84@
CONST	SEGMENT
??_C@_05MCDHHOGK@MAP84@ DB 'MAP84', 00H			; `string'
CONST	ENDS
;	COMDAT ??_C@_05INHGOIKN@MAP83@
CONST	SEGMENT
??_C@_05INHGOIKN@MAP83@ DB 'MAP83', 00H			; `string'
CONST	ENDS
;	COMDAT ??_C@_05JEGNNJOM@MAP82@
CONST	SEGMENT
??_C@_05JEGNNJOM@MAP82@ DB 'MAP82', 00H			; `string'
CONST	ENDS
;	COMDAT ??_C@_05LPEAIKCP@MAP81@
CONST	SEGMENT
??_C@_05LPEAIKCP@MAP81@ DB 'MAP81', 00H			; `string'
CONST	ENDS
;	COMDAT ??_C@_05KGFLLLGO@MAP80@
CONST	SEGMENT
??_C@_05KGFLLLGO@MAP80@ DB 'MAP80', 00H			; `string'
CONST	ENDS
;	COMDAT ??_C@_05HMMFEHBK@MAP79@
CONST	SEGMENT
??_C@_05HMMFEHBK@MAP79@ DB 'MAP79', 00H			; `string'
CONST	ENDS
;	COMDAT ??_C@_05GFNOHGFL@MAP78@
CONST	SEGMENT
??_C@_05GFNOHGFL@MAP78@ DB 'MAP78', 00H			; `string'
CONST	ENDS
;	COMDAT ??_C@_05OCEGGKJE@MAP77@
CONST	SEGMENT
??_C@_05OCEGGKJE@MAP77@ DB 'MAP77', 00H			; `string'
CONST	ENDS
;	COMDAT ??_C@_05PLFNFLNF@MAP76@
CONST	SEGMENT
??_C@_05PLFNFLNF@MAP76@ DB 'MAP76', 00H			; `string'
CONST	ENDS
;	COMDAT ??_C@_05NAHAAIBG@MAP75@
CONST	SEGMENT
??_C@_05NAHAAIBG@MAP75@ DB 'MAP75', 00H			; `string'
CONST	ENDS
;	COMDAT ??_C@_05MJGLDJFH@MAP74@
CONST	SEGMENT
??_C@_05MJGLDJFH@MAP74@ DB 'MAP74', 00H			; `string'
CONST	ENDS
;	COMDAT ??_C@_05IGCKKPJA@MAP73@
CONST	SEGMENT
??_C@_05IGCKKPJA@MAP73@ DB 'MAP73', 00H			; `string'
CONST	ENDS
;	COMDAT ??_C@_05JPDBJONB@MAP72@
CONST	SEGMENT
??_C@_05JPDBJONB@MAP72@ DB 'MAP72', 00H			; `string'
CONST	ENDS
;	COMDAT ??_C@_05LEBMMNBC@MAP71@
CONST	SEGMENT
??_C@_05LEBMMNBC@MAP71@ DB 'MAP71', 00H			; `string'
CONST	ENDS
;	COMDAT ??_C@_05KNAHPMFD@MAP70@
CONST	SEGMENT
??_C@_05KNAHPMFD@MAP70@ DB 'MAP70', 00H			; `string'
CONST	ENDS
;	COMDAT ??_C@_05HNAHCNCN@MAP69@
CONST	SEGMENT
??_C@_05HNAHCNCN@MAP69@ DB 'MAP69', 00H			; `string'
CONST	ENDS
;	COMDAT ??_C@_05GEBMBMGM@MAP68@
CONST	SEGMENT
??_C@_05GEBMBMGM@MAP68@ DB 'MAP68', 00H			; `string'
CONST	ENDS
;	COMDAT ??_C@_05ODIEAAKD@MAP67@
CONST	SEGMENT
??_C@_05ODIEAAKD@MAP67@ DB 'MAP67', 00H			; `string'
CONST	ENDS
;	COMDAT ??_C@_05PKJPDBOC@MAP66@
CONST	SEGMENT
??_C@_05PKJPDBOC@MAP66@ DB 'MAP66', 00H			; `string'
CONST	ENDS
;	COMDAT ??_C@_05NBLCGCCB@MAP65@
CONST	SEGMENT
??_C@_05NBLCGCCB@MAP65@ DB 'MAP65', 00H			; `string'
CONST	ENDS
;	COMDAT ??_C@_05MIKJFDGA@MAP64@
CONST	SEGMENT
??_C@_05MIKJFDGA@MAP64@ DB 'MAP64', 00H			; `string'
CONST	ENDS
;	COMDAT ??_C@_05IHOIMFKH@MAP63@
CONST	SEGMENT
??_C@_05IHOIMFKH@MAP63@ DB 'MAP63', 00H			; `string'
CONST	ENDS
;	COMDAT ??_C@_05JOPDPEOG@MAP62@
CONST	SEGMENT
??_C@_05JOPDPEOG@MAP62@ DB 'MAP62', 00H			; `string'
CONST	ENDS
;	COMDAT ??_C@_05LFNOKHCF@MAP61@
CONST	SEGMENT
??_C@_05LFNOKHCF@MAP61@ DB 'MAP61', 00H			; `string'
CONST	ENDS
;	COMDAT ??_C@_05KMMFJGGE@MAP60@
CONST	SEGMENT
??_C@_05KMMFJGGE@MAP60@ DB 'MAP60', 00H			; `string'
CONST	ENDS
;	COMDAT ??_C@_05HPEBJDHE@MAP59@
CONST	SEGMENT
??_C@_05HPEBJDHE@MAP59@ DB 'MAP59', 00H			; `string'
CONST	ENDS
;	COMDAT ??_C@_05GGFKKCDF@MAP58@
CONST	SEGMENT
??_C@_05GGFKKCDF@MAP58@ DB 'MAP58', 00H			; `string'
CONST	ENDS
;	COMDAT ??_C@_05OBMCLOPK@MAP57@
CONST	SEGMENT
??_C@_05OBMCLOPK@MAP57@ DB 'MAP57', 00H			; `string'
CONST	ENDS
;	COMDAT ??_C@_05PINJIPLL@MAP56@
CONST	SEGMENT
??_C@_05PINJIPLL@MAP56@ DB 'MAP56', 00H			; `string'
CONST	ENDS
;	COMDAT ??_C@_05NDPENMHI@MAP55@
CONST	SEGMENT
??_C@_05NDPENMHI@MAP55@ DB 'MAP55', 00H			; `string'
CONST	ENDS
;	COMDAT ??_C@_05MKOPONDJ@MAP54@
CONST	SEGMENT
??_C@_05MKOPONDJ@MAP54@ DB 'MAP54', 00H			; `string'
CONST	ENDS
;	COMDAT ??_C@_05IFKOHLPO@MAP53@
CONST	SEGMENT
??_C@_05IFKOHLPO@MAP53@ DB 'MAP53', 00H			; `string'
CONST	ENDS
;	COMDAT ??_C@_05JMLFEKLP@MAP52@
CONST	SEGMENT
??_C@_05JMLFEKLP@MAP52@ DB 'MAP52', 00H			; `string'
CONST	ENDS
;	COMDAT ??_C@_05LHJIBJHM@MAP51@
CONST	SEGMENT
??_C@_05LHJIBJHM@MAP51@ DB 'MAP51', 00H			; `string'
CONST	ENDS
;	COMDAT ??_C@_05KOIDCIDN@MAP50@
CONST	SEGMENT
??_C@_05KOIDCIDN@MAP50@ DB 'MAP50', 00H			; `string'
CONST	ENDS
;	COMDAT ??_C@_05HOIDPJED@MAP49@
CONST	SEGMENT
??_C@_05HOIDPJED@MAP49@ DB 'MAP49', 00H			; `string'
CONST	ENDS
;	COMDAT ??_C@_05GHJIMIAC@MAP48@
CONST	SEGMENT
??_C@_05GHJIMIAC@MAP48@ DB 'MAP48', 00H			; `string'
CONST	ENDS
;	COMDAT ??_C@_05OAAANEMN@MAP47@
CONST	SEGMENT
??_C@_05OAAANEMN@MAP47@ DB 'MAP47', 00H			; `string'
CONST	ENDS
;	COMDAT ??_C@_05PJBLOFIM@MAP46@
CONST	SEGMENT
??_C@_05PJBLOFIM@MAP46@ DB 'MAP46', 00H			; `string'
CONST	ENDS
;	COMDAT ??_C@_05NCDGLGEP@MAP45@
CONST	SEGMENT
??_C@_05NCDGLGEP@MAP45@ DB 'MAP45', 00H			; `string'
CONST	ENDS
;	COMDAT ??_C@_05MLCNIHAO@MAP44@
CONST	SEGMENT
??_C@_05MLCNIHAO@MAP44@ DB 'MAP44', 00H			; `string'
CONST	ENDS
;	COMDAT ??_C@_05IEGMBBMJ@MAP43@
CONST	SEGMENT
??_C@_05IEGMBBMJ@MAP43@ DB 'MAP43', 00H			; `string'
CONST	ENDS
;	COMDAT ??_C@_05JNHHCAII@MAP42@
CONST	SEGMENT
??_C@_05JNHHCAII@MAP42@ DB 'MAP42', 00H			; `string'
CONST	ENDS
;	COMDAT ??_C@_05LGFKHDEL@MAP41@
CONST	SEGMENT
??_C@_05LGFKHDEL@MAP41@ DB 'MAP41', 00H			; `string'
CONST	ENDS
;	COMDAT ??_C@_05KPEBECAK@MAP40@
CONST	SEGMENT
??_C@_05KPEBECAK@MAP40@ DB 'MAP40', 00H			; `string'
CONST	ENDS
;	COMDAT ??_C@_05HLMMOPMG@MAP39@
CONST	SEGMENT
??_C@_05HLMMOPMG@MAP39@ DB 'MAP39', 00H			; `string'
CONST	ENDS
;	COMDAT ??_C@_05GCNHNOIH@MAP38@
CONST	SEGMENT
??_C@_05GCNHNOIH@MAP38@ DB 'MAP38', 00H			; `string'
CONST	ENDS
;	COMDAT ??_C@_05OFEPMCEI@MAP37@
CONST	SEGMENT
??_C@_05OFEPMCEI@MAP37@ DB 'MAP37', 00H			; `string'
CONST	ENDS
;	COMDAT ??_C@_05PMFEPDAJ@MAP36@
CONST	SEGMENT
??_C@_05PMFEPDAJ@MAP36@ DB 'MAP36', 00H			; `string'
CONST	ENDS
;	COMDAT ??_C@_05NHHJKAMK@MAP35@
CONST	SEGMENT
??_C@_05NHHJKAMK@MAP35@ DB 'MAP35', 00H			; `string'
CONST	ENDS
;	COMDAT ??_C@_05MOGCJBIL@MAP34@
CONST	SEGMENT
??_C@_05MOGCJBIL@MAP34@ DB 'MAP34', 00H			; `string'
CONST	ENDS
;	COMDAT ??_C@_05IBCDAHEM@MAP33@
CONST	SEGMENT
??_C@_05IBCDAHEM@MAP33@ DB 'MAP33', 00H			; `string'
CONST	ENDS
;	COMDAT ??_C@_05JIDIDGAN@MAP32@
CONST	SEGMENT
??_C@_05JIDIDGAN@MAP32@ DB 'MAP32', 00H			; `string'
CONST	ENDS
;	COMDAT ??_C@_05LDBFGFMO@MAP31@
CONST	SEGMENT
??_C@_05LDBFGFMO@MAP31@ DB 'MAP31', 00H			; `string'
CONST	ENDS
;	COMDAT ??_C@_05KKAOFEIP@MAP30@
CONST	SEGMENT
??_C@_05KKAOFEIP@MAP30@ DB 'MAP30', 00H			; `string'
CONST	ENDS
;	COMDAT ??_C@_05HKAOIFPB@MAP29@
CONST	SEGMENT
??_C@_05HKAOIFPB@MAP29@ DB 'MAP29', 00H			; `string'
CONST	ENDS
;	COMDAT ??_C@_05GDBFLELA@MAP28@
CONST	SEGMENT
??_C@_05GDBFLELA@MAP28@ DB 'MAP28', 00H			; `string'
CONST	ENDS
;	COMDAT ??_C@_05OEINKIHP@MAP27@
CONST	SEGMENT
??_C@_05OEINKIHP@MAP27@ DB 'MAP27', 00H			; `string'
CONST	ENDS
;	COMDAT ??_C@_05PNJGJJDO@MAP26@
CONST	SEGMENT
??_C@_05PNJGJJDO@MAP26@ DB 'MAP26', 00H			; `string'
CONST	ENDS
;	COMDAT ??_C@_05NGLLMKPN@MAP25@
CONST	SEGMENT
??_C@_05NGLLMKPN@MAP25@ DB 'MAP25', 00H			; `string'
CONST	ENDS
;	COMDAT ??_C@_05MPKAPLLM@MAP24@
CONST	SEGMENT
??_C@_05MPKAPLLM@MAP24@ DB 'MAP24', 00H			; `string'
CONST	ENDS
;	COMDAT ??_C@_05IAOBGNHL@MAP23@
CONST	SEGMENT
??_C@_05IAOBGNHL@MAP23@ DB 'MAP23', 00H			; `string'
CONST	ENDS
;	COMDAT ??_C@_05JJPKFMDK@MAP22@
CONST	SEGMENT
??_C@_05JJPKFMDK@MAP22@ DB 'MAP22', 00H			; `string'
CONST	ENDS
;	COMDAT ??_C@_05LCNHAPPJ@MAP21@
CONST	SEGMENT
??_C@_05LCNHAPPJ@MAP21@ DB 'MAP21', 00H			; `string'
CONST	ENDS
;	COMDAT ??_C@_05KLMMDOLI@MAP20@
CONST	SEGMENT
??_C@_05KLMMDOLI@MAP20@ DB 'MAP20', 00H			; `string'
CONST	ENDS
;	COMDAT ??_C@_05HIEIDLKI@MAP19@
CONST	SEGMENT
??_C@_05HIEIDLKI@MAP19@ DB 'MAP19', 00H			; `string'
CONST	ENDS
;	COMDAT ??_C@_05GBFDAKOJ@MAP18@
CONST	SEGMENT
??_C@_05GBFDAKOJ@MAP18@ DB 'MAP18', 00H			; `string'
CONST	ENDS
;	COMDAT ??_C@_05OGMLBGCG@MAP17@
CONST	SEGMENT
??_C@_05OGMLBGCG@MAP17@ DB 'MAP17', 00H			; `string'
CONST	ENDS
;	COMDAT ??_C@_05PPNACHGH@MAP16@
CONST	SEGMENT
??_C@_05PPNACHGH@MAP16@ DB 'MAP16', 00H			; `string'
CONST	ENDS
;	COMDAT ??_C@_05NEPNHEKE@MAP15@
CONST	SEGMENT
??_C@_05NEPNHEKE@MAP15@ DB 'MAP15', 00H			; `string'
CONST	ENDS
;	COMDAT ??_C@_05MNOGEFOF@MAP14@
CONST	SEGMENT
??_C@_05MNOGEFOF@MAP14@ DB 'MAP14', 00H			; `string'
CONST	ENDS
;	COMDAT ??_C@_05ICKHNDCC@MAP13@
CONST	SEGMENT
??_C@_05ICKHNDCC@MAP13@ DB 'MAP13', 00H			; `string'
CONST	ENDS
;	COMDAT ??_C@_05JLLMOCGD@MAP12@
CONST	SEGMENT
??_C@_05JLLMOCGD@MAP12@ DB 'MAP12', 00H			; `string'
CONST	ENDS
;	COMDAT ??_C@_05LAJBLBKA@MAP11@
CONST	SEGMENT
??_C@_05LAJBLBKA@MAP11@ DB 'MAP11', 00H			; `string'
CONST	ENDS
;	COMDAT ??_C@_05KJIKIAOB@MAP10@
CONST	SEGMENT
??_C@_05KJIKIAOB@MAP10@ DB 'MAP10', 00H			; `string'
CONST	ENDS
;	COMDAT ??_C@_05HJIKFBJP@MAP09@
CONST	SEGMENT
??_C@_05HJIKFBJP@MAP09@ DB 'MAP09', 00H			; `string'
CONST	ENDS
;	COMDAT ??_C@_05GAJBGANO@MAP08@
CONST	SEGMENT
??_C@_05GAJBGANO@MAP08@ DB 'MAP08', 00H			; `string'
CONST	ENDS
;	COMDAT ??_C@_05OHAJHMBB@MAP07@
CONST	SEGMENT
??_C@_05OHAJHMBB@MAP07@ DB 'MAP07', 00H			; `string'
CONST	ENDS
;	COMDAT ??_C@_05POBCENFA@MAP06@
CONST	SEGMENT
??_C@_05POBCENFA@MAP06@ DB 'MAP06', 00H			; `string'
CONST	ENDS
;	COMDAT ??_C@_05NFDPBOJD@MAP05@
CONST	SEGMENT
??_C@_05NFDPBOJD@MAP05@ DB 'MAP05', 00H			; `string'
CONST	ENDS
;	COMDAT ??_C@_05MMCECPNC@MAP04@
CONST	SEGMENT
??_C@_05MMCECPNC@MAP04@ DB 'MAP04', 00H			; `string'
CONST	ENDS
;	COMDAT ??_C@_05IDGFLJBF@MAP03@
CONST	SEGMENT
??_C@_05IDGFLJBF@MAP03@ DB 'MAP03', 00H			; `string'
CONST	ENDS
;	COMDAT ??_C@_05JKHOIIFE@MAP02@
CONST	SEGMENT
??_C@_05JKHOIIFE@MAP02@ DB 'MAP02', 00H			; `string'
CONST	ENDS
;	COMDAT ??_C@_05LBFDNLJH@MAP01@
CONST	SEGMENT
??_C@_05LBFDNLJH@MAP01@ DB 'MAP01', 00H			; `string'
CONST	ENDS
;	COMDAT ??_C@_0O@DFGKGEIG@?5?5IP?5Address?3@
CONST	SEGMENT
??_C@_0O@DFGKGEIG@?5?5IP?5Address?3@ DB '  IP Address:', 00H ; `string'
CONST	ENDS
;	COMDAT ??_C@_0BD@IEDNBGAL@Connect?5LAN?5Server@
CONST	SEGMENT
??_C@_0BD@IEDNBGAL@Connect?5LAN?5Server@ DB 'Connect LAN Server', 00H ; `string'
CONST	ENDS
;	COMDAT ??_C@_0P@IHKIPJCO@Connect?5Server@
CONST	SEGMENT
??_C@_0P@IHKIPJCO@Connect?5Server@ DB 'Connect Server', 00H ; `string'
CONST	ENDS
;	COMDAT ??_C@_00CNPNBAHC@@
CONST	SEGMENT
??_C@_00CNPNBAHC@@ DB 00H				; `string'
CONST	ENDS
;	COMDAT ??_C@_0M@EHMFLPNI@Server?5Name@
CONST	SEGMENT
??_C@_0M@EHMFLPNI@Server?5Name@ DB 'Server Name', 00H	; `string'
CONST	ENDS
;	COMDAT ??_C@_07POIENIBA@Refresh@
CONST	SEGMENT
??_C@_07POIENIBA@Refresh@ DB 'Refresh', 00H		; `string'
CONST	ENDS
;	COMDAT ??_C@_0O@LKOCLJD@Previous?5Page@
CONST	SEGMENT
??_C@_0O@LKOCLJD@Previous?5Page@ DB 'Previous Page', 00H ; `string'
CONST	ENDS
;	COMDAT ??_C@_09EFHACLA@Next?5Page@
CONST	SEGMENT
??_C@_09EFHACLA@Next?5Page@ DB 'Next Page', 00H		; `string'
CONST	ENDS
;	COMDAT ??_C@_07FLODDGFF@Sort?5By@
CONST	SEGMENT
??_C@_07FLODDGFF@Sort?5By@ DB 'Sort By', 00H		; `string'
CONST	ENDS
;	COMDAT ??_C@_09OGGNGPHP@Room?5Info@
CONST	SEGMENT
??_C@_09OGGNGPHP@Room?5Info@ DB 'Room Info', 00H	; `string'
CONST	ENDS
;	COMDAT ??_C@_04ILJDOKOL@Room@
CONST	SEGMENT
??_C@_04ILJDOKOL@Room@ DB 'Room', 00H			; `string'
CONST	ENDS
;	COMDAT ??_C@_0L@ODFJJPJO@chooseroom@
CONST	SEGMENT
??_C@_0L@ODFJJPJO@chooseroom@ DB 'chooseroom', 00H	; `string'
CONST	ENDS
;	COMDAT ??_C@_07BMIEDOEC@Offline@
CONST	SEGMENT
??_C@_07BMIEDOEC@Offline@ DB 'Offline', 00H		; `string'
CONST	ENDS
;	COMDAT ??_C@_0N@OFLEAIKH@serversearch@
CONST	SEGMENT
??_C@_0N@OFLEAIKH@serversearch@ DB 'serversearch', 00H	; `string'
CONST	ENDS
;	COMDAT ??_C@_08LDBMAAPD@Internet@
CONST	SEGMENT
??_C@_08LDBMAAPD@Internet@ DB 'Internet', 00H		; `string'
CONST	ENDS
;	COMDAT ??_C@_09LFNCDOEF@Local?5Lan@
CONST	SEGMENT
??_C@_09LFNCDOEF@Local?5Lan@ DB 'Local Lan', 00H	; `string'
CONST	ENDS
;	COMDAT ??_C@_0L@COGJHEJP@serversort@
CONST	SEGMENT
??_C@_0L@COGJHEJP@serversort@ DB 'serversort', 00H	; `string'
CONST	ENDS
;	COMDAT ??_C@_08FLACMINN@Gametype@
CONST	SEGMENT
??_C@_08FLACMINN@Gametype@ DB 'Gametype', 00H		; `string'
CONST	ENDS
;	COMDAT ??_C@_07OLBIDKLK@Players@
CONST	SEGMENT
??_C@_07OLBIDKLK@Players@ DB 'Players', 00H		; `string'
CONST	ENDS
;	COMDAT ??_C@_04CPBFGEOK@Ping@
CONST	SEGMENT
??_C@_04CPBFGEOK@Ping@ DB 'Ping', 00H			; `string'
CONST	ENDS
;	COMDAT ??_C@_0O@NNAOEDOE@Single?5Player@
CONST	SEGMENT
??_C@_0O@NNAOEDOE@Single?5Player@ DB 'Single Player', 00H ; `string'
CONST	ENDS
;	COMDAT ??_C@_08BALKBPO@End?5Game@
CONST	SEGMENT
??_C@_08BALKBPO@End?5Game@ DB 'End Game', 00H		; `string'
CONST	ENDS
;	COMDAT ??_C@_0L@HOODANMK@Statistics@
CONST	SEGMENT
??_C@_0L@HOODANMK@Statistics@ DB 'Statistics', 00H	; `string'
CONST	ENDS
;	COMDAT ??_C@_0M@GKMKPJEF@Time?5Attack@
CONST	SEGMENT
??_C@_0M@GKMKPJEF@Time?5Attack@ DB 'Time Attack', 00H	; `string'
CONST	ENDS
;	COMDAT ??_C@_0L@BKMPBHO@Start?5Game@
CONST	SEGMENT
??_C@_0L@BKMPBHO@Start?5Game@ DB 'Start Game', 00H	; `string'
CONST	ENDS
;	COMDAT ??_C@_04MOKMKBJN@NEXT@
CONST	SEGMENT
??_C@_04MOKMKBJN@NEXT@ DB 'NEXT', 00H			; `string'
CONST	ENDS
;	COMDAT ??_C@_0L@FLHCOFGJ@quit?5?5game@
CONST	SEGMENT
??_C@_0L@FLHCOFGJ@quit?5?5game@ DB 'quit  game', 00H	; `string'
CONST	ENDS
;	COMDAT ??_C@_07FOPBDDAL@options@
CONST	SEGMENT
??_C@_07FOPBDDAL@options@ DB 'options', 00H		; `string'
CONST	ENDS
;	COMDAT ??_C@_0M@GGLMNLCO@multiplayer@
CONST	SEGMENT
??_C@_0M@GGLMNLCO@multiplayer@ DB 'multiplayer', 00H	; `string'
CONST	ENDS
;	COMDAT ??_C@_08KLOEOBMI@1?5player@
CONST	SEGMENT
??_C@_08KLOEOBMI@1?5player@ DB '1 player', 00H		; `string'
CONST	ENDS
;	COMDAT ??_C@_07DHOMPGHE@secrets@
CONST	SEGMENT
??_C@_07DHOMPGHE@secrets@ DB 'secrets', 00H		; `string'
CONST	ENDS
;	COMDAT ??_C@_0O@LCLAJJB@Switch?5Map?4?4?4@
CONST	SEGMENT
??_C@_0O@LCLAJJB@Switch?5Map?4?4?4@ DB 'Switch Map...', 00H ; `string'
CONST	ENDS
;	COMDAT ??_C@_0P@MMGGHMED@Switch?5Team?4?4?4@
CONST	SEGMENT
??_C@_0P@MMGGHMED@Switch?5Team?4?4?4@ DB 'Switch Team...', 00H ; `string'
CONST	ENDS
;	COMDAT ??_C@_0M@NOEOEENA@Spectate?4?4?4@
CONST	SEGMENT
??_C@_0M@NOEOEENA@Spectate?4?4?4@ DB 'Spectate...', 00H	; `string'
CONST	ENDS
;	COMDAT ??_C@_0BC@JKGLIILD@Scramble?5Teams?4?4?4@
CONST	SEGMENT
??_C@_0BC@JKGLIILD@Scramble?5Teams?4?4?4@ DB 'Scramble Teams...', 00H ; `string'
CONST	ENDS
;	COMDAT ??_C@_0EF@JOHOLOFN@You?5are?5already?5playing?4?6Do?5you@
CONST	SEGMENT
??_C@_0EF@JOHOLOFN@You?5are?5already?5playing?4?6Do?5you@ DB 'You are alr'
	DB	'eady playing.', 0aH, 'Do you wish to end the', 0aH, 'current '
	DB	'game? (Y/N)', 0aH, 00H			; `string'
CONST	ENDS
_DATA	SEGMENT
_PlayerMenu DW	020H
	ORG $+2
	DD	00H
	DD	FLAT:??_C@_05MBFAGOBK@SONIC@
	DD	FLAT:_M_ChoosePlayer
	DB	00H
	ORG $+3
	DW	020H
	ORG $+2
	DD	00H
	DD	FLAT:??_C@_05LCLLAIMA@TAILS@
	DD	FLAT:_M_ChoosePlayer
	DB	00H
	ORG $+3
	DW	020H
	ORG $+2
	DD	00H
	DD	FLAT:??_C@_08JICBNHOH@KNUCKLES@
	DD	FLAT:_M_ChoosePlayer
	DB	00H
	ORG $+3
	DW	07aH
	ORG $+2
	DD	00H
	DD	FLAT:??_C@_07MFIPBJAI@PLAYER4@
	DD	FLAT:_M_ChoosePlayer
	DB	00H
	ORG $+3
	DW	07aH
	ORG $+2
	DD	00H
	DD	FLAT:??_C@_07NMJECIEJ@PLAYER5@
	DD	FLAT:_M_ChoosePlayer
	DB	00H
	ORG $+3
	DW	07aH
	ORG $+2
	DD	00H
	DD	FLAT:??_C@_07PHLJHLIK@PLAYER6@
	DD	FLAT:_M_ChoosePlayer
	DB	00H
	ORG $+3
	DW	07aH
	ORG $+2
	DD	00H
	DD	FLAT:??_C@_07OOKCEKML@PLAYER7@
	DD	FLAT:_M_ChoosePlayer
	DB	00H
	ORG $+3
	DW	07aH
	ORG $+2
	DD	00H
	DD	FLAT:??_C@_07GJDKFGAE@PLAYER8@
	DD	FLAT:_M_ChoosePlayer
	DB	00H
	ORG $+3
	DW	07aH
	ORG $+2
	DD	00H
	DD	FLAT:??_C@_07HACBGHEF@PLAYER9@
	DD	FLAT:_M_ChoosePlayer
	DB	00H
	ORG $+3
	DW	07aH
	ORG $+2
	DD	00H
	DD	FLAT:??_C@_08NHJDPDDD@PLAYER10@
	DD	FLAT:_M_ChoosePlayer
	DB	00H
	ORG $+3
	DW	07aH
	ORG $+2
	DD	00H
	DD	FLAT:??_C@_08MOIIMCHC@PLAYER11@
	DD	FLAT:_M_ChoosePlayer
	DB	00H
	ORG $+3
	DW	07aH
	ORG $+2
	DD	00H
	DD	FLAT:??_C@_08OFKFJBLB@PLAYER12@
	DD	FLAT:_M_ChoosePlayer
	DB	00H
	ORG $+3
	DW	07aH
	ORG $+2
	DD	00H
	DD	FLAT:??_C@_08PMLOKAPA@PLAYER13@
	DD	FLAT:_M_ChoosePlayer
	DB	00H
	ORG $+3
	DW	07aH
	ORG $+2
	DD	00H
	DD	FLAT:??_C@_08LDPPDGDH@PLAYER14@
	DD	FLAT:_M_ChoosePlayer
	DB	00H
	ORG $+3
	DW	07aH
	ORG $+2
	DD	00H
	DD	FLAT:??_C@_08KKOEAHHG@PLAYER15@
	DD	FLAT:_M_ChoosePlayer
	DB	00H
	ORG $+3
_currentMenu DD	FLAT:_MainDef
_MainDef DD	00H
	DD	00H
	DW	09H
	ORG $+2
	DD	00H
	DD	FLAT:_MainMenu
	DD	FLAT:_M_DrawCenteredMenu
	DW	0a0H
	DW	048H
	DW	00H
	ORG $+2
	DD	00H
_SinglePlayerDef DD 00H
	DD	FLAT:??_C@_0O@NNAOEDOE@Single?5Player@
	DW	04H
	ORG $+2
	DD	FLAT:_MainDef
	DD	FLAT:_SinglePlayerMenu
	DD	FLAT:_M_DrawGenericMenu
	DW	082H
	DW	048H
	DW	00H
	ORG $+2
	DD	00H
_MultiPlayerDef DD FLAT:??_C@_07CFCBKCFI@M_MULTI@
	DD	FLAT:??_C@_0M@HOINAANG@Multiplayer@
	DW	09H
	ORG $+2
	DD	FLAT:_MainDef
	DD	FLAT:_MultiPlayerMenu
	DD	FLAT:_M_DrawGenericMenu
	DW	055H
	DW	028H
	DW	00H
	ORG $+2
	DD	00H
_SetupMultiPlayerDef DD FLAT:??_C@_07OLGAJEJN@M_PICKP@
	DD	FLAT:??_C@_0M@HOINAANG@Multiplayer@
	DW	05H
	ORG $+2
	DD	FLAT:_MultiPlayerDef
	DD	FLAT:_SetupMultiPlayerMenu
	DD	FLAT:_M_DrawSetupMultiPlayerMenu
	DW	01bH
	DW	028H
	DW	00H
	ORG $+2
	DD	FLAT:_M_QuitMultiPlayerMenu
_OptionsDef DD	FLAT:??_C@_08LKGFJEJH@M_OPTTTL@
	DD	FLAT:??_C@_07KDKMIPIP@OPTIONS@
	DW	06H
	ORG $+2
	DD	FLAT:_MainDef
	DD	FLAT:_OptionsMenu
	DD	FLAT:_M_DrawGenericMenu
	DW	03cH
	DW	028H
	DW	00H
	ORG $+2
	DD	00H
_VidModeDef DD	FLAT:??_C@_07GHCKGMKN@M_VIDEO@
	DD	FLAT:??_C@_0L@FOCFLGDA@Video?5Mode@
	DW	01H
	ORG $+2
	DD	FLAT:_VideoOptionsDef
	DD	FLAT:_VideoModeMenu
	DD	FLAT:_M_DrawVideoMode
	DW	030H
	DW	024H
	DW	00H
	ORG $+2
	DD	00H
_ControlDef DD	FLAT:??_C@_08IKLFOOPP@M_CONTRO@
	DD	FLAT:??_C@_0P@MIALJLPD@Setup?5Controls@
	DW	012H
	ORG $+2
	DD	FLAT:_ControlsDef
	DD	FLAT:_ControlMenu
	DD	FLAT:_M_DrawControl
	DW	018H
	DW	028H
	DW	00H
	ORG $+2
	DD	00H
_SoundDef DD	FLAT:??_C@_06MEIKBIL@M_SVOL@
	DD	FLAT:??_C@_0N@EHKOAFEG@Sound?5Volume@
	DW	06H
	ORG $+2
	DD	FLAT:_OptionsDef
	DD	FLAT:_SoundMenu
	DD	FLAT:_M_DrawGenericMenu
	DW	03cH
	DW	028H
	DW	00H
	ORG $+2
	DD	00H
_ReadDef2 DD	00H
	DD	00H
	DW	01H
	ORG $+2
	DD	00H
	DD	FLAT:_ReadMenu2
	DD	FLAT:_M_DrawReadThis2
	DW	014aH
	DW	0afH
	DW	00H
	ORG $+2
	DD	00H
_ReadDef1 DD	00H
	DD	00H
	DW	01H
	ORG $+2
	DD	00H
	DD	FLAT:_ReadMenu1
	DD	FLAT:_M_DrawReadThis1
	DW	014aH
	DW	0a5H
	DW	00H
	ORG $+2
	DD	00H
_LoadDef DD	FLAT:??_C@_07OOODBAAL@M_PICKG@
	DD	FLAT:??_C@_09EOPBCAJJ@Load?5Game@
	DW	06H
	ORG $+2
	DD	FLAT:_SinglePlayerDef
	DD	FLAT:_LoadGameMenu
	DD	FLAT:_M_DrawLoad
	DW	050H
	DW	036H
	DW	00H
	ORG $+2
	DD	00H
_ControlDef2 DD	FLAT:??_C@_08IKLFOOPP@M_CONTRO@
	DD	FLAT:??_C@_0P@MIALJLPD@Setup?5Controls@
	DW	012H
	ORG $+2
	DD	FLAT:_ControlsDef
	DD	FLAT:_ControlMenu2
	DD	FLAT:_M_DrawControl
	DW	018H
	DW	028H
	DW	00H
	ORG $+2
	DD	00H
_GameOptionDef DD FLAT:??_C@_08LKGFJEJH@M_OPTTTL@
	DD	FLAT:??_C@_07KDKMIPIP@OPTIONS@
	DW	06H
	ORG $+2
	DD	FLAT:_OptionsDef
	DD	FLAT:_GameOptionsMenu
	DD	FLAT:_M_DrawGenericMenu
	DW	03cH
	DW	028H
	DW	00H
	ORG $+2
	DD	00H
_NetOptionDef DD FLAT:??_C@_08LKGFJEJH@M_OPTTTL@
	DD	FLAT:??_C@_07KDKMIPIP@OPTIONS@
	DW	0cH
	ORG $+2
	DD	FLAT:_MultiPlayerDef
	DD	FLAT:_NetOptionsMenu
	DD	FLAT:_M_DrawGenericMenu
	DW	03cH
	DW	01eH
	DW	00H
	ORG $+2
	DD	00H
_MonitorToggleDef DD FLAT:??_C@_08LKGFJEJH@M_OPTTTL@
	DD	FLAT:??_C@_07KDKMIPIP@OPTIONS@
	DW	0cH
	ORG $+2
	DD	FLAT:_NetOptionDef
	DD	FLAT:_MonitorToggleMenu
	DD	FLAT:_M_DrawGenericMenu
	DW	03cH
	DW	028H
	DW	00H
	ORG $+2
	DD	00H
_SecretsDef DD	FLAT:??_C@_08LKGFJEJH@M_OPTTTL@
	DD	FLAT:??_C@_07KDKMIPIP@OPTIONS@
	DW	0aH
	ORG $+2
	DD	FLAT:_MainDef
	DD	FLAT:_SecretsMenu
	DD	FLAT:_M_DrawGenericMenu
	DW	03cH
	DW	028H
	DW	00H
	ORG $+2
	DD	00H
_CustomSecretsDef DD FLAT:??_C@_08LKGFJEJH@M_OPTTTL@
	DD	FLAT:??_C@_07KDKMIPIP@OPTIONS@
	DW	010H
	ORG $+2
	DD	FLAT:_MainDef
	DD	FLAT:_CustomSecretsMenu
	DD	FLAT:_M_DrawGenericMenu
	DW	03cH
	DW	028H
	DW	00H
	ORG $+2
	DD	00H
_VideoOptionsDef DD FLAT:??_C@_08LKGFJEJH@M_OPTTTL@
	DD	FLAT:??_C@_07KDKMIPIP@OPTIONS@
	DW	07H
	ORG $+2
	DD	FLAT:_OptionsDef
	DD	FLAT:_VideoOptionsMenu
	DD	FLAT:_M_DrawGenericMenu
	DW	03cH
	DW	028H
	DW	00H
	ORG $+2
	DD	00H
_MouseOptionsDef DD FLAT:??_C@_08LKGFJEJH@M_OPTTTL@
	DD	FLAT:??_C@_07KDKMIPIP@OPTIONS@
	DW	06H
	ORG $+2
	DD	FLAT:_OptionsDef
	DD	FLAT:_MouseOptionsMenu
	DD	FLAT:_M_DrawGenericMenu
	DW	03cH
	DW	028H
	DW	00H
	ORG $+2
	DD	00H
_ServerOptionsDef DD FLAT:??_C@_08LKGFJEJH@M_OPTTTL@
	DD	FLAT:??_C@_07KDKMIPIP@OPTIONS@
	DW	07H
	ORG $+2
	DD	FLAT:_OptionsDef
	DD	FLAT:_ServerOptionsMenu
	DD	FLAT:_M_DrawGenericMenu
	DW	01cH
	DW	028H
	DW	00H
	ORG $+2
	DD	00H
_RewardDef DD	FLAT:??_C@_08LKGFJEJH@M_OPTTTL@
	DD	FLAT:??_C@_07KDKMIPIP@OPTIONS@
	DW	05H
	ORG $+2
	DD	FLAT:_SecretsDef
	DD	FLAT:_RewardMenu
	DD	FLAT:_M_DrawGenericMenu
	DW	03cH
	DW	028H
	DW	00H
	ORG $+2
	DD	00H
_LevelSelectDef DD 00H
	DD	FLAT:??_C@_0N@BOMJPEGC@Level?5Select@
	DW	02H
	ORG $+2
	DD	FLAT:_SecretsDef
	DD	FLAT:_LevelSelectMenu
	DD	FLAT:_M_DrawLevelSelectMenu
	DW	028H
	DW	028H
	DW	00H
	ORG $+2
	DD	00H
_JoystickDef DD	FLAT:??_C@_08IKLFOOPP@M_CONTRO@
	DD	FLAT:??_C@_0P@PILIMKEI@Setup?5Joystick@
	DW	010H
	ORG $+2
	DD	FLAT:_ControlsDef
	DD	FLAT:_JoystickMenu
	DD	FLAT:_M_DrawGenericMenu
	DW	032H
	DW	014H
	DW	01H
	ORG $+2
	DD	00H
_TimeAttackDef DD 00H
	DD	FLAT:??_C@_0M@GKMKPJEF@Time?5Attack@
	DW	05H
	ORG $+2
	DD	FLAT:_SinglePlayerDef
	DD	FLAT:_TimeAttackMenu
	DD	FLAT:_M_DrawTimeAttackMenu
	DW	028H
	DW	028H
	DW	00H
	ORG $+2
	DD	00H
_StatsDef DD	00H
	DD	00H
	DW	01H
	ORG $+2
	DD	FLAT:_SinglePlayerDef
	DD	FLAT:_StatsMenu
	DD	FLAT:_M_DrawStats
	DW	0118H
	DW	0b9H
	DW	00H
	ORG $+2
	DD	00H
_Stats2Def DD	00H
	DD	00H
	DW	01H
	ORG $+2
	DD	FLAT:_SinglePlayerDef
	DD	FLAT:_Stats2Menu
	DD	FLAT:_M_DrawStats2
	DW	0118H
	DW	0b9H
	DW	00H
	ORG $+2
	DD	00H
_Stats3Def DD	00H
	DD	00H
	DW	01H
	ORG $+2
	DD	FLAT:_SinglePlayerDef
	DD	FLAT:_Stats3Menu
	DD	FLAT:_M_DrawStats3
	DW	0118H
	DW	0b9H
	DW	00H
	ORG $+2
	DD	00H
_Stats4Def DD	00H
	DD	00H
	DW	01H
	ORG $+2
	DD	FLAT:_SinglePlayerDef
	DD	FLAT:_Stats4Menu
	DD	FLAT:_M_DrawStats4
	DW	0118H
	DW	0b9H
	DW	00H
	ORG $+2
	DD	00H
_PlayerDef DD	FLAT:??_C@_07OLGAJEJN@M_PICKP@
	DD	FLAT:??_C@_0BG@LOEPDJFL@Choose?5Your?5Character@
	DW	0fH
	ORG $+2
	DD	FLAT:_MainDef
	DD	FLAT:_PlayerMenu
	DD	FLAT:_M_DrawSetupChoosePlayerMenu
	DW	018H
	DW	010H
	DW	00H
	ORG $+2
	DD	FLAT:_M_QuitChoosePlayerMenu
_CoopOptionsDef DD FLAT:??_C@_08LKGFJEJH@M_OPTTTL@
	DD	FLAT:??_C@_07KDKMIPIP@OPTIONS@
	DW	01H
	ORG $+2
	DD	FLAT:_GametypeOptionsDef
	DD	FLAT:_CoopOptionsMenu
	DD	FLAT:_M_DrawGenericMenu
	DW	03cH
	DW	028H
	DW	00H
	ORG $+2
	DD	00H
_RaceOptionsDef DD FLAT:??_C@_08LKGFJEJH@M_OPTTTL@
	DD	FLAT:??_C@_07KDKMIPIP@OPTIONS@
	DW	03H
	ORG $+2
	DD	FLAT:_GametypeOptionsDef
	DD	FLAT:_RaceOptionsMenu
	DD	FLAT:_M_DrawGenericMenu
	DW	03cH
	DW	028H
	DW	00H
	ORG $+2
	DD	00H
_MatchOptionsDef DD FLAT:??_C@_08LKGFJEJH@M_OPTTTL@
	DD	FLAT:??_C@_07KDKMIPIP@OPTIONS@
	DW	03H
	ORG $+2
	DD	FLAT:_GametypeOptionsDef
	DD	FLAT:_MatchOptionsMenu
	DD	FLAT:_M_DrawGenericMenu
	DW	03cH
	DW	028H
	DW	00H
	ORG $+2
	DD	00H
_TagOptionsDef DD FLAT:??_C@_08LKGFJEJH@M_OPTTTL@
	DD	FLAT:??_C@_07KDKMIPIP@OPTIONS@
	DW	01H
	ORG $+2
	DD	FLAT:_GametypeOptionsDef
	DD	FLAT:_TagOptionsMenu
	DD	FLAT:_M_DrawGenericMenu
	DW	03cH
	DW	028H
	DW	00H
	ORG $+2
	DD	00H
_CTFOptionsDef DD FLAT:??_C@_08LKGFJEJH@M_OPTTTL@
	DD	FLAT:??_C@_07KDKMIPIP@OPTIONS@
	DW	04H
	ORG $+2
	DD	FLAT:_GametypeOptionsDef
	DD	FLAT:_CTFOptionsMenu
	DD	FLAT:_M_DrawGenericMenu
	DW	03cH
	DW	028H
	DW	00H
	ORG $+2
	DD	00H
_OGL_FogDef DD	FLAT:??_C@_08LKGFJEJH@M_OPTTTL@
	DD	FLAT:??_C@_07KDKMIPIP@OPTIONS@
	DW	04H
	ORG $+2
	DD	FLAT:_OpenGLOptionDef
	DD	FLAT:_OGL_FogMenu
	DD	FLAT:_M_OGL_DrawFogMenu
	DW	03cH
	DW	028H
	DW	00H
	ORG $+2
	DD	00H
_OGL_ColorDef DD FLAT:??_C@_08LKGFJEJH@M_OPTTTL@
	DD	FLAT:??_C@_07KDKMIPIP@OPTIONS@
	DW	03H
	ORG $+2
	DD	FLAT:_OpenGLOptionDef
	DD	FLAT:_OGL_ColorMenu
	DD	FLAT:_M_OGL_DrawColorMenu
	DW	03cH
	DW	028H
	DW	00H
	ORG $+2
	DD	00H
_description DB	'             Fastest', 0aH, '                 Speed Thok'
	DB	0aH, '             Not a good pick', 0aH, 'for starters, but w'
	DB	'hen', 0aH, 'controlled properly,', 0aH, 'Sonic is the most', 0aH
	DB	'powerful of the three.', 00H
	ORG $+92
	DB	'SONCCHAR', 00H
	DB	00H
	ORG $+63
	DB	'SONIC', 00H
	ORG $+10
	DB	'             Slowest', 0aH, '                 Fly/Swim', 0aH
	DB	'             Good for', 0aH, 'beginners. Tails', 0aH, 'handle'
	DB	's the best. His', 0aH, 'flying and swimming', 0aH, 'will come'
	DB	' in handy.', 00H
	ORG $+107
	DB	'TAILCHAR', 00H
	DB	00H
	ORG $+63
	DB	'TAILS', 00H
	ORG $+10
	DB	'             Medium', 0aH, '                 Glide/Climb'
	DB	0aH, '             A well rounded', 0aH, 'choice, Knuckles', 0aH
	DB	'compromises the speed', 0aH, 'of Sonic with the', 0aH, 'handl'
	DB	'ing of Tails.', 00H
	ORG $+102
	DB	'KNUXCHAR', 00H
	DB	00H
	ORG $+63
	DB	'KNUCKLES', 00H
	ORG $+7
	DB	'             Unknown', 0aH, '                 Unknown', 0aH
	DB	'             None', 00H
	ORG $+191
	DB	'SONCCHAR', 00H
	DB	00H
	ORG $+63
	DB	00H
	ORG $+15
	DB	'             Unknown', 0aH, '                 Unknown', 0aH
	DB	'             None', 00H
	ORG $+191
	DB	'SONCCHAR', 00H
	DB	00H
	ORG $+63
	DB	00H
	ORG $+15
	DB	'             Unknown', 0aH, '                 Unknown', 0aH
	DB	'             None', 00H
	ORG $+191
	DB	'SONCCHAR', 00H
	DB	00H
	ORG $+63
	DB	00H
	ORG $+15
	DB	'             Unknown', 0aH, '                 Unknown', 0aH
	DB	'             None', 00H
	ORG $+191
	DB	'SONCCHAR', 00H
	DB	00H
	ORG $+63
	DB	00H
	ORG $+15
	DB	'             Unknown', 0aH, '                 Unknown', 0aH
	DB	'             None', 00H
	ORG $+191
	DB	'SONCCHAR', 00H
	DB	00H
	ORG $+63
	DB	00H
	ORG $+15
	DB	'             Unknown', 0aH, '                 Unknown', 0aH
	DB	'             None', 00H
	ORG $+191
	DB	'SONCCHAR', 00H
	DB	00H
	ORG $+63
	DB	00H
	ORG $+15
	DB	'             Unknown', 0aH, '                 Unknown', 0aH
	DB	'             None', 00H
	ORG $+191
	DB	'SONCCHAR', 00H
	DB	00H
	ORG $+63
	DB	00H
	ORG $+15
	DB	'             Unknown', 0aH, '                 Unknown', 0aH
	DB	'             None', 00H
	ORG $+191
	DB	'SONCCHAR', 00H
	DB	00H
	ORG $+63
	DB	00H
	ORG $+15
	DB	'             Unknown', 0aH, '                 Unknown', 0aH
	DB	'             None', 00H
	ORG $+191
	DB	'SONCCHAR', 00H
	DB	00H
	ORG $+63
	DB	00H
	ORG $+15
	DB	'             Unknown', 0aH, '                 Unknown', 0aH
	DB	'             None', 00H
	ORG $+191
	DB	'SONCCHAR', 00H
	DB	00H
	ORG $+63
	DB	00H
	ORG $+15
	DB	'             Unknown', 0aH, '                 Unknown', 0aH
	DB	'             None', 00H
	ORG $+191
	DB	'SONCCHAR', 00H
	DB	00H
	ORG $+63
	DB	00H
	ORG $+15
	DB	'             Unknown', 0aH, '                 Unknown', 0aH
	DB	'             None', 00H
	ORG $+191
	DB	'SONCCHAR', 00H
	DB	00H
	ORG $+63
	DB	00H
	ORG $+15
_cv_newgametype DD FLAT:??_C@_0M@LAFKIDDC@newgametype@
	DD	FLAT:??_C@_04CJHPDIMF@Coop@
	DD	0402H
	DD	FLAT:_gametype_cons_t
	DD	FLAT:_Newgametype_OnChange
	DD	00H
	DD	00H
	DD	00H
	DW	00H
	DB	00H
	ORG $+1
	DD	00H
_cv_nextmap DD	FLAT:??_C@_07MCHHMPMB@nextmap@
	DD	FLAT:??_C@_05LBFDNLJH@MAP01@
	DD	0402H
	DD	FLAT:_map_cons_t
	DD	FLAT:_Nextmap_OnChange
	DD	00H
	DD	00H
	DD	00H
	DW	00H
	DB	00H
	ORG $+1
	DD	00H
_cv_chooseskin DD FLAT:??_C@_0L@HOPLAOAI@chooseskin@
	DD	FLAT:??_C@_0BA@GCLAIBNI@sonic?$AA?$AA?$AA?$AA?$AA?$AA?$AA?$AA?$AA?$AA@
	DD	0402H
	DD	FLAT:_skins_cons_t
	DD	FLAT:_Nextmap_OnChange
	DD	00H
	DD	00H
	DD	00H
	DW	00H
	DB	00H
	ORG $+1
	DD	00H
_cv_serversort DD FLAT:??_C@_0L@COGJHEJP@serversort@
	DD	FLAT:??_C@_04CPBFGEOK@Ping@
	DD	0402H
	DD	FLAT:_serversort_cons_t
	DD	FLAT:_M_SortServerList
	DD	00H
	DD	00H
	DD	00H
	DW	00H
	DB	00H
	ORG $+1
	DD	00H
_cv_chooseroom DD FLAT:??_C@_0L@ODFJJPJO@chooseroom@
	DD	FLAT:??_C@_07BMIEDOEC@Offline@
	DD	0402H
	DD	FLAT:_rooms_cons_t
	DD	FLAT:_M_Chooseroom_Onchange
	DD	00H
	DD	00H
	DD	00H
	DW	00H
	DB	00H
	ORG $+1
	DD	00H
_gametype_cons_t DD 00H
	DD	FLAT:??_C@_04CJHPDIMF@Coop@
	DD	01H
	DD	FLAT:??_C@_05FKEBLKAO@Match@
	DD	02aH
	DD	FLAT:??_C@_0L@LAOGNCMC@Team?5Match@
	DD	02H
	DD	FLAT:??_C@_04KKIPOOLE@Race@
	DD	02bH
	DD	FLAT:??_C@_0N@HJJKODGK@Classic?5Race@
	DD	03H
	DD	FLAT:??_C@_03PJHNOEGB@Tag@
	DD	02cH
	DD	FLAT:??_C@_0O@NNDKJCLH@Hide?5and?5Seek@
	DD	04H
	DD	FLAT:??_C@_03JKIMLJNP@CTF@
	DD	00H
	DD	00H
_MainMenu DW	020H
	ORG $+2
	DD	00H
	DD	FLAT:??_C@_0BC@JKGLIILD@Scramble?5Teams?4?4?4@
	DD	FLAT:_M_TeamScramble
	DB	038H
	ORG $+3
	DW	020H
	ORG $+2
	DD	00H
	DD	FLAT:??_C@_0M@NOEOEENA@Spectate?4?4?4@
	DD	FLAT:_M_ConfirmSpectate
	DB	040H
	ORG $+3
	DW	020H
	ORG $+2
	DD	00H
	DD	FLAT:??_C@_0P@MMGGHMED@Switch?5Team?4?4?4@
	DD	FLAT:_M_TeamChange
	DB	040H
	ORG $+3
	DW	020H
	ORG $+2
	DD	00H
	DD	FLAT:??_C@_0O@LCLAJJB@Switch?5Map?4?4?4@
	DD	FLAT:_M_MapChange
	DB	048H
	ORG $+3
	DW	020H
	ORG $+2
	DD	00H
	DD	FLAT:??_C@_07DHOMPGHE@secrets@
	DD	FLAT:_M_SecretsMenu
	DB	054H
	ORG $+3
	DW	026H
	ORG $+2
	DD	00H
	DD	FLAT:??_C@_08KLOEOBMI@1?5player@
	DD	FLAT:_SinglePlayerDef
	DB	05cH
	ORG $+3
	DW	026H
	ORG $+2
	DD	00H
	DD	FLAT:??_C@_0M@GGLMNLCO@multiplayer@
	DD	FLAT:_MultiPlayerDef
	DB	064H
	ORG $+3
	DW	020H
	ORG $+2
	DD	00H
	DD	FLAT:??_C@_07FOPBDDAL@options@
	DD	FLAT:_M_OptionsMenu
	DB	06cH
	ORG $+3
	DW	020H
	ORG $+2
	DD	00H
	DD	FLAT:??_C@_0L@FLHCOFGJ@quit?5?5game@
	DD	FLAT:_M_QuitSRB2
	DB	074H
	ORG $+3
_Stats5Menu DW	026H
	ORG $+2
	DD	00H
	DD	FLAT:??_C@_04MOKMKBJN@NEXT@
	DD	FLAT:_StatsDef
	DB	0c0H
	ORG $+3
_Stats5Def DD	00H
	DD	00H
	DW	01H
	ORG $+2
	DD	FLAT:_SinglePlayerDef
	DD	FLAT:_Stats5Menu
	DD	FLAT:_M_DrawStats5
	DW	0118H
	DW	0b9H
	DW	00H
	ORG $+2
	DD	00H
_Stats4Menu DW	026H
	ORG $+2
	DD	00H
	DD	FLAT:??_C@_04MOKMKBJN@NEXT@
	DD	FLAT:_Stats5Def
	DB	0c0H
	ORG $+3
_Stats3Menu DW	020H
	ORG $+2
	DD	00H
	DD	FLAT:??_C@_04MOKMKBJN@NEXT@
	DD	FLAT:_M_Stats4
	DB	0c0H
	ORG $+3
_Stats2Menu DW	020H
	ORG $+2
	DD	00H
	DD	FLAT:??_C@_04MOKMKBJN@NEXT@
	DD	FLAT:_M_Stats3
	DB	0c0H
	ORG $+3
_StatsMenu DW	020H
	ORG $+2
	DD	00H
	DD	FLAT:??_C@_04MOKMKBJN@NEXT@
	DD	FLAT:_M_Stats2
	DB	0c0H
	ORG $+3
	ORG $+4
_SinglePlayerMenu DW 020H
	ORG $+2
	DD	00H
	DD	FLAT:??_C@_0L@BKMPBHO@Start?5Game@
	DD	FLAT:_M_LoadGame
	DB	05cH
	ORG $+3
	DW	020H
	ORG $+2
	DD	00H
	DD	FLAT:??_C@_0M@GKMKPJEF@Time?5Attack@
	DD	FLAT:_M_TimeAttack
	DB	064H
	ORG $+3
	DW	020H
	ORG $+2
	DD	00H
	DD	FLAT:??_C@_0L@HOODANMK@Statistics@
	DD	FLAT:_M_Statistics
	DB	06cH
	ORG $+3
	DW	020H
	ORG $+2
	DD	00H
	DD	FLAT:??_C@_08BALKBPO@End?5Game@
	DD	FLAT:_M_EndGame
	DB	074H
	ORG $+3
_serversort_cons_t DD 00H
	DD	FLAT:??_C@_04CPBFGEOK@Ping@
	DD	01H
	DD	FLAT:??_C@_07OLBIDKLK@Players@
	DD	02H
	DD	FLAT:??_C@_08FLACMINN@Gametype@
	DD	00H
	DD	00H
_serversearch_cons_t DD 00H
	DD	FLAT:??_C@_09LFNCDOEF@Local?5Lan@
	DD	01H
	DD	FLAT:??_C@_08LDBMAAPD@Internet@
	DD	00H
	DD	00H
_rooms_cons_t DD 01H
	DD	FLAT:??_C@_07BMIEDOEC@Offline@
	ORG $+256
_ConnectMenu DW	028H
	ORG $+2
	DD	00H
	DD	FLAT:??_C@_04ILJDOKOL@Room@
	DD	FLAT:_cv_chooseroom
	DB	00H
	ORG $+3
	DW	020H
	ORG $+2
	DD	00H
	DD	FLAT:??_C@_09OGGNGPHP@Room?5Info@
	DD	FLAT:_M_RoomInfoMenu
	DB	00H
	ORG $+3
	DW	028H
	ORG $+2
	DD	00H
	DD	FLAT:??_C@_07FLODDGFF@Sort?5By@
	DD	FLAT:_cv_serversort
	DB	00H
	ORG $+3
	DW	020H
	ORG $+2
	DD	00H
	DD	FLAT:??_C@_09EFHACLA@Next?5Page@
	DD	FLAT:_M_NextServerPage
	DB	00H
	ORG $+3
	DW	020H
	ORG $+2
	DD	00H
	DD	FLAT:??_C@_0O@LKOCLJD@Previous?5Page@
	DD	FLAT:_M_PrevServerPage
	DB	00H
	ORG $+3
	DW	020H
	ORG $+2
	DD	00H
	DD	FLAT:??_C@_07POIENIBA@Refresh@
	DD	FLAT:_M_Refresh
	DB	00H
	ORG $+3
	DW	03aH
	ORG $+2
	DD	00H
	DD	FLAT:??_C@_0M@EHMFLPNI@Server?5Name@
	DD	00H
	DB	00H
	ORG $+3
	DW	02aH
	ORG $+2
	DD	00H
	DD	FLAT:??_C@_00CNPNBAHC@@
	DD	FLAT:_M_Connect
	DB	00H
	ORG $+3
	DW	02aH
	ORG $+2
	DD	00H
	DD	FLAT:??_C@_00CNPNBAHC@@
	DD	FLAT:_M_Connect
	DB	00H
	ORG $+3
	DW	02aH
	ORG $+2
	DD	00H
	DD	FLAT:??_C@_00CNPNBAHC@@
	DD	FLAT:_M_Connect
	DB	00H
	ORG $+3
	DW	02aH
	ORG $+2
	DD	00H
	DD	FLAT:??_C@_00CNPNBAHC@@
	DD	FLAT:_M_Connect
	DB	00H
	ORG $+3
	DW	02aH
	ORG $+2
	DD	00H
	DD	FLAT:??_C@_00CNPNBAHC@@
	DD	FLAT:_M_Connect
	DB	00H
	ORG $+3
	DW	02aH
	ORG $+2
	DD	00H
	DD	FLAT:??_C@_00CNPNBAHC@@
	DD	FLAT:_M_Connect
	DB	00H
	ORG $+3
	DW	02aH
	ORG $+2
	DD	00H
	DD	FLAT:??_C@_00CNPNBAHC@@
	DD	FLAT:_M_Connect
	DB	00H
	ORG $+3
	DW	02aH
	ORG $+2
	DD	00H
	DD	FLAT:??_C@_00CNPNBAHC@@
	DD	FLAT:_M_Connect
	DB	00H
	ORG $+3
	DW	02aH
	ORG $+2
	DD	00H
	DD	FLAT:??_C@_00CNPNBAHC@@
	DD	FLAT:_M_Connect
	DB	00H
	ORG $+3
	DW	02aH
	ORG $+2
	DD	00H
	DD	FLAT:??_C@_00CNPNBAHC@@
	DD	FLAT:_M_Connect
	DB	00H
	ORG $+3
	DW	02aH
	ORG $+2
	DD	00H
	DD	FLAT:??_C@_00CNPNBAHC@@
	DD	FLAT:_M_Connect
	DB	00H
	ORG $+3
	DW	02aH
	ORG $+2
	DD	00H
	DD	FLAT:??_C@_00CNPNBAHC@@
	DD	FLAT:_M_Connect
	DB	00H
	ORG $+3
	DW	02aH
	ORG $+2
	DD	00H
	DD	FLAT:??_C@_00CNPNBAHC@@
	DD	FLAT:_M_Connect
	DB	00H
	ORG $+3
_ConnectLANMenu DW 028H
	ORG $+2
	DD	00H
	DD	FLAT:??_C@_07FLODDGFF@Sort?5By@
	DD	FLAT:_cv_serversort
	DB	00H
	ORG $+3
	DW	020H
	ORG $+2
	DD	00H
	DD	FLAT:??_C@_09EFHACLA@Next?5Page@
	DD	FLAT:_M_NextServerPage
	DB	00H
	ORG $+3
	DW	020H
	ORG $+2
	DD	00H
	DD	FLAT:??_C@_0O@LKOCLJD@Previous?5Page@
	DD	FLAT:_M_PrevServerPage
	DB	00H
	ORG $+3
	DW	020H
	ORG $+2
	DD	00H
	DD	FLAT:??_C@_07POIENIBA@Refresh@
	DD	FLAT:_M_Refresh
	DB	00H
	ORG $+3
	DW	03aH
	ORG $+2
	DD	00H
	DD	FLAT:??_C@_0M@EHMFLPNI@Server?5Name@
	DD	00H
	DB	00H
	ORG $+3
	DW	02aH
	ORG $+2
	DD	00H
	DD	FLAT:??_C@_00CNPNBAHC@@
	DD	FLAT:_M_Connect
	DB	00H
	ORG $+3
	DW	02aH
	ORG $+2
	DD	00H
	DD	FLAT:??_C@_00CNPNBAHC@@
	DD	FLAT:_M_Connect
	DB	00H
	ORG $+3
	DW	02aH
	ORG $+2
	DD	00H
	DD	FLAT:??_C@_00CNPNBAHC@@
	DD	FLAT:_M_Connect
	DB	00H
	ORG $+3
	DW	02aH
	ORG $+2
	DD	00H
	DD	FLAT:??_C@_00CNPNBAHC@@
	DD	FLAT:_M_Connect
	DB	00H
	ORG $+3
	DW	02aH
	ORG $+2
	DD	00H
	DD	FLAT:??_C@_00CNPNBAHC@@
	DD	FLAT:_M_Connect
	DB	00H
	ORG $+3
	DW	02aH
	ORG $+2
	DD	00H
	DD	FLAT:??_C@_00CNPNBAHC@@
	DD	FLAT:_M_Connect
	DB	00H
	ORG $+3
	DW	02aH
	ORG $+2
	DD	00H
	DD	FLAT:??_C@_00CNPNBAHC@@
	DD	FLAT:_M_Connect
	DB	00H
	ORG $+3
	DW	02aH
	ORG $+2
	DD	00H
	DD	FLAT:??_C@_00CNPNBAHC@@
	DD	FLAT:_M_Connect
	DB	00H
	ORG $+3
	DW	02aH
	ORG $+2
	DD	00H
	DD	FLAT:??_C@_00CNPNBAHC@@
	DD	FLAT:_M_Connect
	DB	00H
	ORG $+3
	DW	02aH
	ORG $+2
	DD	00H
	DD	FLAT:??_C@_00CNPNBAHC@@
	DD	FLAT:_M_Connect
	DB	00H
	ORG $+3
	DW	02aH
	ORG $+2
	DD	00H
	DD	FLAT:??_C@_00CNPNBAHC@@
	DD	FLAT:_M_Connect
	DB	00H
	ORG $+3
	DW	02aH
	ORG $+2
	DD	00H
	DD	FLAT:??_C@_00CNPNBAHC@@
	DD	FLAT:_M_Connect
	DB	00H
	ORG $+3
	DW	02aH
	ORG $+2
	DD	00H
	DD	FLAT:??_C@_00CNPNBAHC@@
	DD	FLAT:_M_Connect
	DB	00H
	ORG $+3
_Connectdef DD	00H
	DD	FLAT:??_C@_0P@IHKIPJCO@Connect?5Server@
	DW	014H
	ORG $+2
	DD	FLAT:_MultiPlayerDef
	DD	FLAT:_ConnectMenu
	DD	FLAT:_M_DrawConnectMenu
	DW	01bH
	DW	028H
	DW	00H
	ORG $+2
	DD	FLAT:_M_CancelConnect
_ConnectLANdef DD 00H
	DD	FLAT:??_C@_0BD@IEDNBGAL@Connect?5LAN?5Server@
	DW	012H
	ORG $+2
	DD	FLAT:_MultiPlayerDef
	DD	FLAT:_ConnectLANMenu
	DD	FLAT:_M_DrawConnectLANMenu
	DW	01bH
	DW	028H
	DW	00H
	ORG $+2
	DD	FLAT:_M_CancelConnect
_ConnectIPMenu DW 024H
	ORG $+2
	DD	00H
	DD	FLAT:??_C@_0O@DFGKGEIG@?5?5IP?5Address?3@
	DD	FLAT:_M_HandleConnectIP
	DB	00H
	ORG $+3
_RoomInfoMenu DW 028H
	ORG $+2
	DD	00H
	DD	FLAT:??_C@_04ILJDOKOL@Room@
	DD	FLAT:_cv_chooseroom
	DB	00H
	ORG $+3
_ConnectIPdef DD 00H
	DD	FLAT:??_C@_0P@IHKIPJCO@Connect?5Server@
	DW	01H
	ORG $+2
	DD	FLAT:_MultiPlayerDef
	DD	FLAT:_ConnectIPMenu
	DD	FLAT:_M_DrawConnectIPMenu
	DW	01bH
	DW	028H
	DW	00H
	ORG $+2
	DD	FLAT:_M_CancelConnect
_RoomInfodef DD	00H
	DD	FLAT:??_C@_09OGGNGPHP@Room?5Info@
	DW	01H
	ORG $+2
	DD	FLAT:_Connectdef
	DD	FLAT:_RoomInfoMenu
	DD	FLAT:_M_DrawRoomInfoMenu
	DW	01bH
	DW	028H
	DW	00H
	ORG $+2
	DD	00H
_map_cons_t DD	01H
	DD	FLAT:??_C@_05LBFDNLJH@MAP01@
	DD	02H
	DD	FLAT:??_C@_05JKHOIIFE@MAP02@
	DD	03H
	DD	FLAT:??_C@_05IDGFLJBF@MAP03@
	DD	04H
	DD	FLAT:??_C@_05MMCECPNC@MAP04@
	DD	05H
	DD	FLAT:??_C@_05NFDPBOJD@MAP05@
	DD	06H
	DD	FLAT:??_C@_05POBCENFA@MAP06@
	DD	07H
	DD	FLAT:??_C@_05OHAJHMBB@MAP07@
	DD	08H
	DD	FLAT:??_C@_05GAJBGANO@MAP08@
	DD	09H
	DD	FLAT:??_C@_05HJIKFBJP@MAP09@
	DD	0aH
	DD	FLAT:??_C@_05KJIKIAOB@MAP10@
	DD	0bH
	DD	FLAT:??_C@_05LAJBLBKA@MAP11@
	DD	0cH
	DD	FLAT:??_C@_05JLLMOCGD@MAP12@
	DD	0dH
	DD	FLAT:??_C@_05ICKHNDCC@MAP13@
	DD	0eH
	DD	FLAT:??_C@_05MNOGEFOF@MAP14@
	DD	0fH
	DD	FLAT:??_C@_05NEPNHEKE@MAP15@
	DD	010H
	DD	FLAT:??_C@_05PPNACHGH@MAP16@
	DD	011H
	DD	FLAT:??_C@_05OGMLBGCG@MAP17@
	DD	012H
	DD	FLAT:??_C@_05GBFDAKOJ@MAP18@
	DD	013H
	DD	FLAT:??_C@_05HIEIDLKI@MAP19@
	DD	014H
	DD	FLAT:??_C@_05KLMMDOLI@MAP20@
	DD	015H
	DD	FLAT:??_C@_05LCNHAPPJ@MAP21@
	DD	016H
	DD	FLAT:??_C@_05JJPKFMDK@MAP22@
	DD	017H
	DD	FLAT:??_C@_05IAOBGNHL@MAP23@
	DD	018H
	DD	FLAT:??_C@_05MPKAPLLM@MAP24@
	DD	019H
	DD	FLAT:??_C@_05NGLLMKPN@MAP25@
	DD	01aH
	DD	FLAT:??_C@_05PNJGJJDO@MAP26@
	DD	01bH
	DD	FLAT:??_C@_05OEINKIHP@MAP27@
	DD	01cH
	DD	FLAT:??_C@_05GDBFLELA@MAP28@
	DD	01dH
	DD	FLAT:??_C@_05HKAOIFPB@MAP29@
	DD	01eH
	DD	FLAT:??_C@_05KKAOFEIP@MAP30@
	DD	01fH
	DD	FLAT:??_C@_05LDBFGFMO@MAP31@
	DD	020H
	DD	FLAT:??_C@_05JIDIDGAN@MAP32@
	DD	021H
	DD	FLAT:??_C@_05IBCDAHEM@MAP33@
	DD	022H
	DD	FLAT:??_C@_05MOGCJBIL@MAP34@
	DD	023H
	DD	FLAT:??_C@_05NHHJKAMK@MAP35@
	DD	024H
	DD	FLAT:??_C@_05PMFEPDAJ@MAP36@
	DD	025H
	DD	FLAT:??_C@_05OFEPMCEI@MAP37@
	DD	026H
	DD	FLAT:??_C@_05GCNHNOIH@MAP38@
	DD	027H
	DD	FLAT:??_C@_05HLMMOPMG@MAP39@
	DD	028H
	DD	FLAT:??_C@_05KPEBECAK@MAP40@
	DD	029H
	DD	FLAT:??_C@_05LGFKHDEL@MAP41@
	DD	02aH
	DD	FLAT:??_C@_05JNHHCAII@MAP42@
	DD	02bH
	DD	FLAT:??_C@_05IEGMBBMJ@MAP43@
	DD	02cH
	DD	FLAT:??_C@_05MLCNIHAO@MAP44@
	DD	02dH
	DD	FLAT:??_C@_05NCDGLGEP@MAP45@
	DD	02eH
	DD	FLAT:??_C@_05PJBLOFIM@MAP46@
	DD	02fH
	DD	FLAT:??_C@_05OAAANEMN@MAP47@
	DD	030H
	DD	FLAT:??_C@_05GHJIMIAC@MAP48@
	DD	031H
	DD	FLAT:??_C@_05HOIDPJED@MAP49@
	DD	032H
	DD	FLAT:??_C@_05KOIDCIDN@MAP50@
	DD	033H
	DD	FLAT:??_C@_05LHJIBJHM@MAP51@
	DD	034H
	DD	FLAT:??_C@_05JMLFEKLP@MAP52@
	DD	035H
	DD	FLAT:??_C@_05IFKOHLPO@MAP53@
	DD	036H
	DD	FLAT:??_C@_05MKOPONDJ@MAP54@
	DD	037H
	DD	FLAT:??_C@_05NDPENMHI@MAP55@
	DD	038H
	DD	FLAT:??_C@_05PINJIPLL@MAP56@
	DD	039H
	DD	FLAT:??_C@_05OBMCLOPK@MAP57@
	DD	03aH
	DD	FLAT:??_C@_05GGFKKCDF@MAP58@
	DD	03bH
	DD	FLAT:??_C@_05HPEBJDHE@MAP59@
	DD	03cH
	DD	FLAT:??_C@_05KMMFJGGE@MAP60@
	DD	03dH
	DD	FLAT:??_C@_05LFNOKHCF@MAP61@
	DD	03eH
	DD	FLAT:??_C@_05JOPDPEOG@MAP62@
	DD	03fH
	DD	FLAT:??_C@_05IHOIMFKH@MAP63@
	DD	040H
	DD	FLAT:??_C@_05MIKJFDGA@MAP64@
	DD	041H
	DD	FLAT:??_C@_05NBLCGCCB@MAP65@
	DD	042H
	DD	FLAT:??_C@_05PKJPDBOC@MAP66@
	DD	043H
	DD	FLAT:??_C@_05ODIEAAKD@MAP67@
	DD	044H
	DD	FLAT:??_C@_05GEBMBMGM@MAP68@
	DD	045H
	DD	FLAT:??_C@_05HNAHCNCN@MAP69@
	DD	046H
	DD	FLAT:??_C@_05KNAHPMFD@MAP70@
	DD	047H
	DD	FLAT:??_C@_05LEBMMNBC@MAP71@
	DD	048H
	DD	FLAT:??_C@_05JPDBJONB@MAP72@
	DD	049H
	DD	FLAT:??_C@_05IGCKKPJA@MAP73@
	DD	04aH
	DD	FLAT:??_C@_05MJGLDJFH@MAP74@
	DD	04bH
	DD	FLAT:??_C@_05NAHAAIBG@MAP75@
	DD	04cH
	DD	FLAT:??_C@_05PLFNFLNF@MAP76@
	DD	04dH
	DD	FLAT:??_C@_05OCEGGKJE@MAP77@
	DD	04eH
	DD	FLAT:??_C@_05GFNOHGFL@MAP78@
	DD	04fH
	DD	FLAT:??_C@_05HMMFEHBK@MAP79@
	DD	050H
	DD	FLAT:??_C@_05KGFLLLGO@MAP80@
	DD	051H
	DD	FLAT:??_C@_05LPEAIKCP@MAP81@
	DD	052H
	DD	FLAT:??_C@_05JEGNNJOM@MAP82@
	DD	053H
	DD	FLAT:??_C@_05INHGOIKN@MAP83@
	DD	054H
	DD	FLAT:??_C@_05MCDHHOGK@MAP84@
	DD	055H
	DD	FLAT:??_C@_05NLCMEPCL@MAP85@
	DD	056H
	DD	FLAT:??_C@_05PAABBMOI@MAP86@
	DD	057H
	DD	FLAT:??_C@_05OJBKCNKJ@MAP87@
	DD	058H
	DD	FLAT:??_C@_05GOICDBGG@MAP88@
	DD	059H
	DD	FLAT:??_C@_05HHJJAACH@MAP89@
	DD	05aH
	DD	FLAT:??_C@_05KHJJNBFJ@MAP90@
	DD	05bH
	DD	FLAT:??_C@_05LOICOABI@MAP91@
	DD	05cH
	DD	FLAT:??_C@_05JFKPLDNL@MAP92@
	DD	05dH
	DD	FLAT:??_C@_05IMLEICJK@MAP93@
	DD	05eH
	DD	FLAT:??_C@_05MDPFBEFN@MAP94@
	DD	05fH
	DD	FLAT:??_C@_05NKOOCFBM@MAP95@
	DD	060H
	DD	FLAT:??_C@_05PBMDHGNP@MAP96@
	DD	061H
	DD	FLAT:??_C@_05OINIEHJO@MAP97@
	DD	062H
	DD	FLAT:??_C@_05GPEAFLFB@MAP98@
	DD	063H
	DD	FLAT:??_C@_05HGFLGKBA@MAP99@
	DD	064H
	DD	FLAT:??_C@_06IOCGOJN@MAP100@
	DD	065H
	DD	FLAT:??_C@_06BBPJFPNM@MAP101@
	DD	066H
	DD	FLAT:??_C@_06DKNEAMBP@MAP102@
	DD	067H
	DD	FLAT:??_C@_06CDMPDNFO@MAP103@
	DD	068H
	DD	FLAT:??_C@_06GMIOKLJJ@MAP104@
	DD	069H
	DD	FLAT:??_C@_06HFJFJKNI@MAP105@
	DD	06aH
	DD	FLAT:??_C@_06FOLIMJBL@MAP106@
	DD	06bH
	DD	FLAT:??_C@_06EHKDPIFK@MAP107@
	DD	06cH
	DD	FLAT:??_C@_06MADLOEJF@MAP108@
	DD	06dH
	DD	FLAT:??_C@_06NJCANFNE@MAP109@
	DD	06eH
	DD	FLAT:??_C@_06JCAAEKK@MAP110@
	DD	06fH
	DD	FLAT:??_C@_06BADLDFOL@MAP111@
	DD	070H
	DD	FLAT:??_C@_06DLBGGGCI@MAP112@
	DD	071H
	DD	FLAT:??_C@_06CCANFHGJ@MAP113@
	DD	072H
	DD	FLAT:??_C@_06GNEMMBKO@MAP114@
	DD	073H
	DD	FLAT:??_C@_06HEFHPAOP@MAP115@
	DD	074H
	DD	FLAT:??_C@_06FPHKKDCM@MAP116@
	DD	075H
	DD	FLAT:??_C@_06EGGBJCGN@MAP117@
	DD	076H
	DD	FLAT:??_C@_06MBPJIOKC@MAP118@
	DD	077H
	DD	FLAT:??_C@_06NIOCLPOD@MAP119@
	DD	078H
	DD	FLAT:??_C@_06LGGLKPD@MAP120@
	DD	079H
	DD	FLAT:??_C@_06BCHNILLC@MAP121@
	DD	07aH
	DD	FLAT:??_C@_06DJFANIHB@MAP122@
	DD	07bH
	DD	FLAT:??_C@_06CAELOJDA@MAP123@
	DD	07cH
	DD	FLAT:??_C@_06GPAKHPPH@MAP124@
	DD	07dH
	DD	FLAT:??_C@_06HGBBEOLG@MAP125@
	DD	07eH
	DD	FLAT:??_C@_06FNDMBNHF@MAP126@
	DD	07fH
	DD	FLAT:??_C@_06EECHCMDE@MAP127@
	DD	080H
	DD	FLAT:??_C@_06MDLPDAPL@MAP128@
	DD	081H
	DD	FLAT:??_C@_06NKKEABLK@MAP129@
	DD	082H
	DD	FLAT:??_C@_06KKENAME@MAP130@
	DD	083H
	DD	FLAT:??_C@_06BDLPOBIF@MAP131@
	DD	084H
	DD	FLAT:??_C@_06DIJCLCEG@MAP132@
	DD	085H
	DD	FLAT:??_C@_06CBIJIDAH@MAP133@
	DD	086H
	DD	FLAT:??_C@_06GOMIBFMA@MAP134@
	DD	087H
	DD	FLAT:??_C@_06HHNDCEIB@MAP135@
	DD	088H
	DD	FLAT:??_C@_06FMPOHHEC@MAP136@
	DD	089H
	DD	FLAT:??_C@_06EFOFEGAD@MAP137@
	DD	08aH
	DD	FLAT:??_C@_06MCHNFKMM@MAP138@
	DD	08bH
	DD	FLAT:??_C@_06NLGGGLIN@MAP139@
	DD	08cH
	DD	FLAT:??_C@_06POLMGEB@MAP140@
	DD	08dH
	DD	FLAT:??_C@_06BGPAPHAA@MAP141@
	DD	08eH
	DD	FLAT:??_C@_06DNNNKEMD@MAP142@
	DD	08fH
	DD	FLAT:??_C@_06CEMGJFIC@MAP143@
	DD	090H
	DD	FLAT:??_C@_06GLIHADEF@MAP144@
	DD	091H
	DD	FLAT:??_C@_06HCJMDCAE@MAP145@
	DD	092H
	DD	FLAT:??_C@_06FJLBGBMH@MAP146@
	DD	093H
	DD	FLAT:??_C@_06EAKKFAIG@MAP147@
	DD	094H
	DD	FLAT:??_C@_06MHDCEMEJ@MAP148@
	DD	095H
	DD	FLAT:??_C@_06NOCJHNAI@MAP149@
	DD	096H
	DD	FLAT:??_C@_06OCJKMHG@MAP150@
	DD	097H
	DD	FLAT:??_C@_06BHDCJNDH@MAP151@
	DD	098H
	DD	FLAT:??_C@_06DMBPMOPE@MAP152@
	DD	099H
	DD	FLAT:??_C@_06CFAEPPLF@MAP153@
	DD	09aH
	DD	FLAT:??_C@_06GKEFGJHC@MAP154@
	DD	09bH
	DD	FLAT:??_C@_06HDFOFIDD@MAP155@
	DD	09cH
	DD	FLAT:??_C@_06FIHDALPA@MAP156@
	DD	09dH
	DD	FLAT:??_C@_06EBGIDKLB@MAP157@
	DD	09eH
	DD	FLAT:??_C@_06MGPACGHO@MAP158@
	DD	09fH
	DD	FLAT:??_C@_06NPOLBHDP@MAP159@
	DD	0a0H
	DD	FLAT:??_C@_06MGPBCCP@MAP160@
	DD	0a1H
	DD	FLAT:??_C@_06BFHECDGO@MAP161@
	DD	0a2H
	DD	FLAT:??_C@_06DOFJHAKN@MAP162@
	DD	0a3H
	DD	FLAT:??_C@_06CHECEBOM@MAP163@
	DD	0a4H
	DD	FLAT:??_C@_06GIADNHCL@MAP164@
	DD	0a5H
	DD	FLAT:??_C@_06HBBIOGGK@MAP165@
	DD	0a6H
	DD	FLAT:??_C@_06FKDFLFKJ@MAP166@
	DD	0a7H
