; Listing generated by Microsoft (R) Optimizing Compiler Version 19.41.34123.0 

	TITLE	C:\Users\RafaTheFox\Downloads\SRB2-Public-master\objs\VC10\Win32\Debug\p_inter.obj
	.686P
	.XMM
	include listing.inc
	.model	flat

INCLUDELIB LIBCMTD
INCLUDELIB OLDNAMES

_DATA	SEGMENT
COMM	_ATTRPACK:DWORD
_DATA	ENDS
PUBLIC	_P_ForceFeed
PUBLIC	_P_ForceConstant
PUBLIC	_P_RampConstant
PUBLIC	_P_DamageMobj
PUBLIC	_P_KillMobj
PUBLIC	_P_PlayerRingBurst
PUBLIC	_P_PlayerEmeraldBurst
PUBLIC	_P_TouchSpecialThing
PUBLIC	_P_PlayerFlagBurst
PUBLIC	_P_CheckPointLimit
PUBLIC	_P_CheckSurvivors
PUBLIC	_P_CheckRacers
PUBLIC	_P_PlayRinglossSound
PUBLIC	_P_PlayDeathSound
PUBLIC	_P_PlayVictorySound
PUBLIC	_P_PlayTauntSound
PUBLIC	_P_ClearStarPost
PUBLIC	_P_CanPickupItem
PUBLIC	??_C@_0BM@MIIHFIPM@Mario?5Koopa?5Blast?5Unlocked?$CB@ ; `string'
PUBLIC	??_C@_0BM@BADGNGJC@Sonic?5Into?5Dreams?5Unlocked?$CB@ ; `string'
PUBLIC	??_C@_0BI@PFNHFABN@Pandora?8s?5Box?5Unlocked?$CB@ ; `string'
PUBLIC	??_C@_0BG@MHBGBANL@Bad?5Starpost?5Number?$CB?6@	; `string'
PUBLIC	??_C@_01IFKFHFEL@?$IA@				; `string'
PUBLIC	??_C@_00CNPNBAHC@@				; `string'
PUBLIC	??_C@_01PINCIBAO@?$IF@				; `string'
PUBLIC	??_C@_01OBMJLAEP@?$IE@				; `string'
PUBLIC	??_C@_0CC@FOHBJDHA@The?5IT?5player?5has?5left?5the?5game@ ; `string'
PUBLIC	??_C@_0L@FKKLEDAE@?$CFs?5is?5it?$CB?6@		; `string'
PUBLIC	??_C@_0BP@NLDNGKCA@All?5players?5have?5been?5tagged?$CB?6@ ; `string'
PUBLIC	??_C@_0CJ@BGBGIPOA@There?5are?5no?5players?5able?5to?5be@ ; `string'
PUBLIC	??_C@_0P@IJKKFILK@?$CFs?5was?5found?$CB?6@	; `string'
PUBLIC	??_C@_0BL@NFFMIKMN@?$CFs?2is?5no?5longer?5super?4?2?2?2?2@ ; `string'
PUBLIC	??_C@_0BI@JKFKFBCG@?$CFs?5is?5no?5longer?5super?4?6@ ; `string'
PUBLIC	??_C@_03FAAAOPJM@red@				; `string'
PUBLIC	??_C@_04OBGPFBCN@blue@				; `string'
EXTRN	_abs:PROC
EXTRN	_CONS_Printf:PROC
EXTRN	_va:PROC
EXTRN	_FixedMul:PROC
EXTRN	_FixedDiv2:PROC
EXTRN	_I_Tactile:PROC
EXTRN	_I_Tactile2:PROC
EXTRN	_I_OutputMsg:PROC
EXTRN	_AM_Stop:PROC
EXTRN	_FixedAngle:PROC
EXTRN	_P_SpawnParaloop:PROC
EXTRN	_P_SetScale:PROC
EXTRN	_SendNetXCmd:PROC
EXTRN	_D_NumPlayers:PROC
EXTRN	_G_SaveGameData:PROC
EXTRN	_G_IsSpecialStage:PROC
EXTRN	_P_Random:PROC
EXTRN	_P_SetTarget:PROC
EXTRN	_P_AproxDistance:PROC
EXTRN	_P_AddPlayerScore:PROC
EXTRN	_P_DoPlayerPain:PROC
EXTRN	_P_ResetPlayer:PROC
EXTRN	_P_IsLocalPlayer:PROC
EXTRN	_P_IsObjectOnGround:PROC
EXTRN	_P_SetObjectMomZ:PROC
EXTRN	_P_RestoreMusic:PROC
EXTRN	_P_GivePlayerRings:PROC
EXTRN	_P_GiveEmerald:PROC
EXTRN	_P_ResetScore:PROC
EXTRN	_P_NightserizePlayer:PROC
EXTRN	_P_InstaThrust:PROC
EXTRN	_P_ReturnThrustX:PROC
EXTRN	_P_ReturnThrustY:PROC
EXTRN	_P_SpawnMobj:PROC
EXTRN	_P_RemoveMobj:PROC
EXTRN	_P_SetPlayerMobjState:PROC
EXTRN	_P_SetMobjState:PROC
EXTRN	_P_MobjThinker:PROC
EXTRN	_P_SPMAngle:PROC
EXTRN	_P_ColorTeamMissile:PROC
EXTRN	_P_UnsetThingPosition:PROC
EXTRN	_P_SetThingPosition:PROC
EXTRN	_P_RadiusAttack:PROC
EXTRN	_P_PlayerTouchingSectorSpecial:PROC
EXTRN	_EV_DoElevator:PROC
EXTRN	_S_StartSound:PROC
EXTRN	_S_ChangeMusic:PROC
EXTRN	_S_StopMusic:PROC
EXTRN	_S_SoundPlaying:PROC
EXTRN	_R_PointToAngle2:PROC
EXTRN	_HU_SetCEchoDuration:PROC
EXTRN	_HU_SetCEchoFlags:PROC
EXTRN	_HU_DoCEcho:PROC
EXTRN	@__security_check_cookie@4:PROC
EXTRN	_ultimatemode:BYTE
EXTRN	_automapactive:DWORD
EXTRN	_text:BYTE
EXTRN	_finesine:BYTE
EXTRN	_finecosine:DWORD
EXTRN	_states:BYTE
EXTRN	_mobjinfo:BYTE
EXTRN	_gamemap:WORD
EXTRN	_maptol:WORD
EXTRN	_modifiedgame:DWORD
EXTRN	_savemoddata:DWORD
EXTRN	_timeattacking:DWORD
EXTRN	_netgame:DWORD
EXTRN	_multiplayer:DWORD
EXTRN	_gametype:WORD
EXTRN	_splitscreen:DWORD
EXTRN	_circuitmap:DWORD
EXTRN	_consoleplayer:DWORD
EXTRN	_secondarydisplayplayer:DWORD
EXTRN	_sstage_start:WORD
EXTRN	_sstage_end:WORD
EXTRN	_useNightsSS:DWORD
EXTRN	_redflag:DWORD
EXTRN	_blueflag:DWORD
EXTRN	_rflagpoint:DWORD
EXTRN	_bflagpoint:DWORD
EXTRN	_emeralds:WORD
EXTRN	_numemblems:DWORD
EXTRN	_nummaprings:DWORD
EXTRN	_emblemlocations:BYTE
EXTRN	_token:DWORD
EXTRN	_tokenlist:DWORD
EXTRN	_sstimer:DWORD
EXTRN	_bluescore:DWORD
EXTRN	_redscore:DWORD
EXTRN	_flashingtics:DWORD
EXTRN	_underwatertics:DWORD
EXTRN	_paralooptics:DWORD
EXTRN	_helpertics:DWORD
EXTRN	_hunt1:DWORD
EXTRN	_hunt2:DWORD
EXTRN	_hunt3:DWORD
EXTRN	_countdown:DWORD
EXTRN	_countdown2:DWORD
EXTRN	_hidetime:DWORD
EXTRN	_grade:DWORD
EXTRN	_cv_itemrespawntime:BYTE
EXTRN	_cv_itemrespawn:BYTE
EXTRN	_cv_flagtime:BYTE
EXTRN	_cv_suddendeath:BYTE
EXTRN	_cv_tagtype:BYTE
EXTRN	_cv_matchtype:BYTE
EXTRN	_cv_friendlyfire:BYTE
EXTRN	_cv_pointlimit:BYTE
EXTRN	_cv_killingdead:BYTE
EXTRN	_cv_objectplace:BYTE
EXTRN	_cv_soniccd:BYTE
EXTRN	_cv_match_scoring:BYTE
EXTRN	_server:DWORD
EXTRN	_player_names:BYTE
EXTRN	_players:BYTE
EXTRN	_playeringame:BYTE
EXTRN	_demoplayback:DWORD
EXTRN	_localangle:DWORD
EXTRN	_localangle2:DWORD
EXTRN	_localaiming:DWORD
EXTRN	_localaiming2:DWORD
EXTRN	_leveltime:DWORD
EXTRN	_thinkercap:BYTE
EXTRN	_camera:BYTE
EXTRN	___security_cookie:DWORD
;	COMDAT ??_C@_04OBGPFBCN@blue@
CONST	SEGMENT
??_C@_04OBGPFBCN@blue@ DB 'blue', 00H			; `string'
CONST	ENDS
;	COMDAT ??_C@_03FAAAOPJM@red@
CONST	SEGMENT
??_C@_03FAAAOPJM@red@ DB 'red', 00H			; `string'
CONST	ENDS
;	COMDAT ??_C@_0BI@JKFKFBCG@?$CFs?5is?5no?5longer?5super?4?6@
CONST	SEGMENT
??_C@_0BI@JKFKFBCG@?$CFs?5is?5no?5longer?5super?4?6@ DB '%s is no longer '
	DB	'super.', 0aH, 00H				; `string'
CONST	ENDS
;	COMDAT ??_C@_0BL@NFFMIKMN@?$CFs?2is?5no?5longer?5super?4?2?2?2?2@
CONST	SEGMENT
??_C@_0BL@NFFMIKMN@?$CFs?2is?5no?5longer?5super?4?2?2?2?2@ DB '%s\is no l'
	DB	'onger super.\\\\', 00H			; `string'
CONST	ENDS
;	COMDAT ??_C@_0P@IJKKFILK@?$CFs?5was?5found?$CB?6@
CONST	SEGMENT
??_C@_0P@IJKKFILK@?$CFs?5was?5found?$CB?6@ DB '%s was found!', 0aH, 00H ; `string'
CONST	ENDS
;	COMDAT ??_C@_0CJ@BGBGIPOA@There?5are?5no?5players?5able?5to?5be@
CONST	SEGMENT
??_C@_0CJ@BGBGIPOA@There?5are?5no?5players?5able?5to?5be@ DB 'There are n'
	DB	'o players able to become IT.', 0aH, 00H	; `string'
CONST	ENDS
;	COMDAT ??_C@_0BP@NLDNGKCA@All?5players?5have?5been?5tagged?$CB?6@
CONST	SEGMENT
??_C@_0BP@NLDNGKCA@All?5players?5have?5been?5tagged?$CB?6@ DB 'All player'
	DB	's have been tagged!', 0aH, 00H		; `string'
CONST	ENDS
;	COMDAT ??_C@_0L@FKKLEDAE@?$CFs?5is?5it?$CB?6@
CONST	SEGMENT
??_C@_0L@FKKLEDAE@?$CFs?5is?5it?$CB?6@ DB '%s is it!', 0aH, 00H ; `string'
CONST	ENDS
;	COMDAT ??_C@_0CC@FOHBJDHA@The?5IT?5player?5has?5left?5the?5game@
CONST	SEGMENT
??_C@_0CC@FOHBJDHA@The?5IT?5player?5has?5left?5the?5game@ DB 'The IT play'
	DB	'er has left the game.', 0aH, 00H		; `string'
CONST	ENDS
;	COMDAT ??_C@_01OBMJLAEP@?$IE@
CONST	SEGMENT
??_C@_01OBMJLAEP@?$IE@ DB 084H, 00H			; `string'
CONST	ENDS
;	COMDAT ??_C@_01PINCIBAO@?$IF@
CONST	SEGMENT
??_C@_01PINCIBAO@?$IF@ DB 085H, 00H			; `string'
CONST	ENDS
;	COMDAT ??_C@_00CNPNBAHC@@
CONST	SEGMENT
??_C@_00CNPNBAHC@@ DB 00H				; `string'
CONST	ENDS
;	COMDAT ??_C@_01IFKFHFEL@?$IA@
CONST	SEGMENT
??_C@_01IFKFHFEL@?$IA@ DB 080H, 00H			; `string'
CONST	ENDS
;	COMDAT ??_C@_0BG@MHBGBANL@Bad?5Starpost?5Number?$CB?6@
CONST	SEGMENT
??_C@_0BG@MHBGBANL@Bad?5Starpost?5Number?$CB?6@ DB 'Bad Starpost Number!', 0aH
	DB	00H						; `string'
CONST	ENDS
;	COMDAT ??_C@_0BI@PFNHFABN@Pandora?8s?5Box?5Unlocked?$CB@
CONST	SEGMENT
??_C@_0BI@PFNHFABN@Pandora?8s?5Box?5Unlocked?$CB@ DB 'Pandora''s Box Unlo'
	DB	'cked!', 00H					; `string'
CONST	ENDS
;	COMDAT ??_C@_0BM@BADGNGJC@Sonic?5Into?5Dreams?5Unlocked?$CB@
CONST	SEGMENT
??_C@_0BM@BADGNGJC@Sonic?5Into?5Dreams?5Unlocked?$CB@ DB 'Sonic Into Drea'
	DB	'ms Unlocked!', 00H				; `string'
CONST	ENDS
;	COMDAT ??_C@_0BM@MIIHFIPM@Mario?5Koopa?5Blast?5Unlocked?$CB@
CONST	SEGMENT
??_C@_0BM@MIIHFIPM@Mario?5Koopa?5Blast?5Unlocked?$CB@ DB 'Mario Koopa Bla'
	DB	'st Unlocked!', 00H				; `string'
CONST	ENDS
;	COMDAT voltbl
voltbl	SEGMENT
_volmd	DW	010H
	DW	0224H
voltbl	ENDS
;	COMDAT voltbl
voltbl	SEGMENT
_volmd	DW	010H
	DW	038ecH
voltbl	ENDS
;	COMDAT voltbl
voltbl	SEGMENT
_volmd	DB	0dH
	DB	0b7H
voltbl	ENDS
;	COMDAT voltbl
voltbl	SEGMENT
_volmd	DB	0dH
	DB	0abH
voltbl	ENDS
; Function compile flags: /Odtp /ZI
; File C:\Users\RafaTheFox\Downloads\SRB2-Public-master\src\p_inter.c
;	COMDAT _P_RingDamage
_TEXT	SEGMENT
tv94 = -68						; size = 4
_player$ = 8						; size = 4
_inflictor$ = 12					; size = 4
_source$ = 16						; size = 4
_damage$ = 20						; size = 4
_P_RingDamage PROC					; COMDAT

; 2712 : {

  00000	55		 push	 ebp
  00001	8b ec		 mov	 ebp, esp
  00003	83 ec 44	 sub	 esp, 68			; 00000044H
  00006	53		 push	 ebx
  00007	56		 push	 esi
  00008	57		 push	 edi

; 2713 : 	if (!(inflictor && ((inflictor->flags & MF_MISSILE) || inflictor->player) && player->powers[pw_super] && ALL7EMERALDS(player->powers[pw_emeralds])))

  00009	83 7d 0c 00	 cmp	 DWORD PTR _inflictor$[ebp], 0
  0000d	74 47		 je	 SHORT $LN4@P_RingDama
  0000f	8b 45 0c	 mov	 eax, DWORD PTR _inflictor$[ebp]
  00012	8b 48 60	 mov	 ecx, DWORD PTR [eax+96]
  00015	81 e1 00 00 01
	00		 and	 ecx, 65536		; 00010000H
  0001b	75 0c		 jne	 SHORT $LN5@P_RingDama
  0001d	8b 45 0c	 mov	 eax, DWORD PTR _inflictor$[ebp]
  00020	83 b8 a4 00 00
	00 00		 cmp	 DWORD PTR [eax+164], 0
  00027	74 2d		 je	 SHORT $LN4@P_RingDama
$LN5@P_RingDama:
  00029	b8 04 00 00 00	 mov	 eax, 4
  0002e	6b c8 0f	 imul	 ecx, eax, 15
  00031	8b 55 08	 mov	 edx, DWORD PTR _player$[ebp]
  00034	83 7c 0a 38 00	 cmp	 DWORD PTR [edx+ecx+56], 0
  00039	74 1b		 je	 SHORT $LN4@P_RingDama
  0003b	b8 04 00 00 00	 mov	 eax, 4
  00040	6b c8 18	 imul	 ecx, eax, 24
  00043	8b 55 08	 mov	 edx, DWORD PTR _player$[ebp]
  00046	8b 44 0a 38	 mov	 eax, DWORD PTR [edx+ecx+56]
  0004a	83 e0 7f	 and	 eax, 127		; 0000007fH
  0004d	83 f8 7f	 cmp	 eax, 127		; 0000007fH
  00050	0f 84 35 01 00
	00		 je	 $LN2@P_RingDama
$LN4@P_RingDama:

; 2714 : 	{
; 2715 : 		player->powers[pw_fireflower] = false;

  00056	b8 04 00 00 00	 mov	 eax, 4
  0005b	6b c8 11	 imul	 ecx, eax, 17
  0005e	8b 55 08	 mov	 edx, DWORD PTR _player$[ebp]
  00061	c7 44 0a 38 00
	00 00 00	 mov	 DWORD PTR [edx+ecx+56], 0

; 2716 : 		player->mo->flags |= MF_TRANSLATION;

  00069	8b 45 08	 mov	 eax, DWORD PTR _player$[ebp]
  0006c	8b 08		 mov	 ecx, DWORD PTR [eax]
  0006e	8b 51 60	 mov	 edx, DWORD PTR [ecx+96]
  00071	81 ca 00 00 00
	04		 or	 edx, 67108864		; 04000000H
  00077	8b 45 08	 mov	 eax, DWORD PTR _player$[ebp]
  0007a	8b 08		 mov	 ecx, DWORD PTR [eax]
  0007c	89 51 60	 mov	 DWORD PTR [ecx+96], edx

; 2717 : 		player->mo->color =  (UINT8)player->skincolor;

  0007f	8b 45 08	 mov	 eax, DWORD PTR _player$[ebp]
  00082	8b 08		 mov	 ecx, DWORD PTR [eax]
  00084	8b 55 08	 mov	 edx, DWORD PTR _player$[ebp]
  00087	8a 82 b4 00 00
	00		 mov	 al, BYTE PTR [edx+180]
  0008d	88 41 68	 mov	 BYTE PTR [ecx+104], al

; 2718 : 
; 2719 : 		P_DoPlayerPain(player, source, inflictor);

  00090	8b 45 0c	 mov	 eax, DWORD PTR _inflictor$[ebp]
  00093	50		 push	 eax
  00094	8b 4d 10	 mov	 ecx, DWORD PTR _source$[ebp]
  00097	51		 push	 ecx
  00098	8b 55 08	 mov	 edx, DWORD PTR _player$[ebp]
  0009b	52		 push	 edx
  0009c	e8 00 00 00 00	 call	 _P_DoPlayerPain
  000a1	83 c4 0c	 add	 esp, 12			; 0000000cH

; 2720 : 
; 2721 : 		P_ForceFeed(player, 40, 10, TICRATE, 40 + min(damage, 100)*2);

  000a4	83 7d 14 64	 cmp	 DWORD PTR _damage$[ebp], 100 ; 00000064H
  000a8	7d 08		 jge	 SHORT $LN23@P_RingDama
  000aa	8b 45 14	 mov	 eax, DWORD PTR _damage$[ebp]
  000ad	89 45 bc	 mov	 DWORD PTR tv94[ebp], eax
  000b0	eb 07		 jmp	 SHORT $LN24@P_RingDama
$LN23@P_RingDama:
  000b2	c7 45 bc 64 00
	00 00		 mov	 DWORD PTR tv94[ebp], 100 ; 00000064H
$LN24@P_RingDama:
  000b9	8b 4d bc	 mov	 ecx, DWORD PTR tv94[ebp]
  000bc	8d 54 09 28	 lea	 edx, DWORD PTR [ecx+ecx+40]
  000c0	52		 push	 edx
  000c1	6a 23		 push	 35			; 00000023H
  000c3	6a 0a		 push	 10			; 0000000aH
  000c5	6a 28		 push	 40			; 00000028H
  000c7	8b 45 08	 mov	 eax, DWORD PTR _player$[ebp]
  000ca	50		 push	 eax
  000cb	e8 00 00 00 00	 call	 _P_ForceFeed
  000d0	83 c4 14	 add	 esp, 20			; 00000014H

; 2722 : 
; 2723 : 		if (source && (source->type == MT_DISS || source->type == MT_FLOORSPIKE || source->type == MT_CEILINGSPIKE) && source->threshold == 43) // spikes

  000d3	83 7d 10 00	 cmp	 DWORD PTR _source$[ebp], 0
  000d7	74 3d		 je	 SHORT $LN6@P_RingDama
  000d9	8b 45 10	 mov	 eax, DWORD PTR _source$[ebp]
  000dc	81 78 7c 05 01
	00 00		 cmp	 DWORD PTR [eax+124], 261 ; 00000105H
  000e3	74 12		 je	 SHORT $LN7@P_RingDama
  000e5	8b 45 10	 mov	 eax, DWORD PTR _source$[ebp]
  000e8	83 78 7c 49	 cmp	 DWORD PTR [eax+124], 73	; 00000049H
  000ec	74 09		 je	 SHORT $LN7@P_RingDama
  000ee	8b 45 10	 mov	 eax, DWORD PTR _source$[ebp]
  000f1	83 78 7c 48	 cmp	 DWORD PTR [eax+124], 72	; 00000048H
  000f5	75 1f		 jne	 SHORT $LN6@P_RingDama
$LN7@P_RingDama:
  000f7	8b 45 10	 mov	 eax, DWORD PTR _source$[ebp]
  000fa	83 b8 a0 00 00
	00 2b		 cmp	 DWORD PTR [eax+160], 43	; 0000002bH
  00101	75 13		 jne	 SHORT $LN6@P_RingDama

; 2724 : 			S_StartSound(player->mo, sfx_spkdth);

  00103	68 d4 00 00 00	 push	 212			; 000000d4H
  00108	8b 45 08	 mov	 eax, DWORD PTR _player$[ebp]
  0010b	8b 08		 mov	 ecx, DWORD PTR [eax]
  0010d	51		 push	 ecx
  0010e	e8 00 00 00 00	 call	 _S_StartSound
  00113	83 c4 08	 add	 esp, 8
$LN6@P_RingDama:

; 2725 : 
; 2726 : 		if (source && source->player && !player->powers[pw_super]) //don't score points against super players

  00116	83 7d 10 00	 cmp	 DWORD PTR _source$[ebp], 0
  0011a	74 6d		 je	 SHORT $LN9@P_RingDama
  0011c	8b 45 10	 mov	 eax, DWORD PTR _source$[ebp]
  0011f	83 b8 a4 00 00
	00 00		 cmp	 DWORD PTR [eax+164], 0
  00126	74 61		 je	 SHORT $LN9@P_RingDama
  00128	b8 04 00 00 00	 mov	 eax, 4
  0012d	6b c8 0f	 imul	 ecx, eax, 15
  00130	8b 55 08	 mov	 edx, DWORD PTR _player$[ebp]
  00133	83 7c 0a 38 00	 cmp	 DWORD PTR [edx+ecx+56], 0
  00138	75 4f		 jne	 SHORT $LN9@P_RingDama

; 2727 : 		{
; 2728 : 			// Award no points when players shoot each other when cv_friendlyfire is on.
; 2729 : 			if (!((gametype == GT_CTF || (gametype == GT_MATCH && cv_matchtype.value))

  0013a	0f bf 05 00 00
	00 00		 movsx	 eax, WORD PTR _gametype
  00141	83 f8 04	 cmp	 eax, 4
  00144	74 15		 je	 SHORT $LN11@P_RingDama
  00146	0f bf 05 00 00
	00 00		 movsx	 eax, WORD PTR _gametype
  0014d	83 f8 01	 cmp	 eax, 1
  00150	75 23		 jne	 SHORT $LN10@P_RingDama
  00152	83 3d 14 00 00
	00 00		 cmp	 DWORD PTR _cv_matchtype+20, 0
  00159	74 1a		 je	 SHORT $LN10@P_RingDama
$LN11@P_RingDama:
  0015b	8b 45 10	 mov	 eax, DWORD PTR _source$[ebp]
  0015e	8b 88 a4 00 00
	00		 mov	 ecx, DWORD PTR [eax+164]
  00164	8b 55 08	 mov	 edx, DWORD PTR _player$[ebp]
  00167	8b 81 60 01 00
	00		 mov	 eax, DWORD PTR [ecx+352]
  0016d	3b 82 60 01 00
	00		 cmp	 eax, DWORD PTR [edx+352]
  00173	74 14		 je	 SHORT $LN9@P_RingDama
$LN10@P_RingDama:

; 2730 : 				&& (source->player->ctfteam == player->ctfteam)))
; 2731 : 				P_AddPlayerScore(source->player, 50);

  00175	6a 32		 push	 50			; 00000032H
  00177	8b 45 10	 mov	 eax, DWORD PTR _source$[ebp]
  0017a	8b 88 a4 00 00
	00		 mov	 ecx, DWORD PTR [eax+164]
  00180	51		 push	 ecx
  00181	e8 00 00 00 00	 call	 _P_AddPlayerScore
  00186	83 c4 08	 add	 esp, 8
$LN9@P_RingDama:

; 2732 : 		}
; 2733 : 	}

  00189	eb 73		 jmp	 SHORT $LN13@P_RingDama
$LN2@P_RingDama:

; 2734 : 	else
; 2735 : 	{
; 2736 : 		if (source && source->player && !player->powers[pw_super]) //don't score points against super players

  0018b	83 7d 10 00	 cmp	 DWORD PTR _source$[ebp], 0
  0018f	74 6d		 je	 SHORT $LN13@P_RingDama
  00191	8b 45 10	 mov	 eax, DWORD PTR _source$[ebp]
  00194	83 b8 a4 00 00
	00 00		 cmp	 DWORD PTR [eax+164], 0
  0019b	74 61		 je	 SHORT $LN13@P_RingDama
  0019d	b8 04 00 00 00	 mov	 eax, 4
  001a2	6b c8 0f	 imul	 ecx, eax, 15
  001a5	8b 55 08	 mov	 edx, DWORD PTR _player$[ebp]
  001a8	83 7c 0a 38 00	 cmp	 DWORD PTR [edx+ecx+56], 0
  001ad	75 4f		 jne	 SHORT $LN13@P_RingDama

; 2737 : 		{
; 2738 : 			// Award no points when players shoot each other when cv_friendlyfire is on.
; 2739 : 			if (!((gametype == GT_CTF || (gametype == GT_MATCH && cv_matchtype.value))

  001af	0f bf 05 00 00
	00 00		 movsx	 eax, WORD PTR _gametype
  001b6	83 f8 04	 cmp	 eax, 4
  001b9	74 15		 je	 SHORT $LN15@P_RingDama
  001bb	0f bf 05 00 00
	00 00		 movsx	 eax, WORD PTR _gametype
  001c2	83 f8 01	 cmp	 eax, 1
  001c5	75 23		 jne	 SHORT $LN14@P_RingDama
  001c7	83 3d 14 00 00
	00 00		 cmp	 DWORD PTR _cv_matchtype+20, 0
  001ce	74 1a		 je	 SHORT $LN14@P_RingDama
$LN15@P_RingDama:
  001d0	8b 45 10	 mov	 eax, DWORD PTR _source$[ebp]
  001d3	8b 88 a4 00 00
	00		 mov	 ecx, DWORD PTR [eax+164]
  001d9	8b 55 08	 mov	 edx, DWORD PTR _player$[ebp]
  001dc	8b 81 60 01 00
	00		 mov	 eax, DWORD PTR [ecx+352]
  001e2	3b 82 60 01 00
	00		 cmp	 eax, DWORD PTR [edx+352]
  001e8	74 14		 je	 SHORT $LN13@P_RingDama
$LN14@P_RingDama:

; 2740 : 				&& (source->player->ctfteam == player->ctfteam)))
; 2741 : 				P_AddPlayerScore(source->player, 50);

  001ea	6a 32		 push	 50			; 00000032H
  001ec	8b 45 10	 mov	 eax, DWORD PTR _source$[ebp]
  001ef	8b 88 a4 00 00
	00		 mov	 ecx, DWORD PTR [eax+164]
  001f5	51		 push	 ecx
  001f6	e8 00 00 00 00	 call	 _P_AddPlayerScore
  001fb	83 c4 08	 add	 esp, 8
$LN13@P_RingDama:

; 2742 : 		}
; 2743 : 	}
; 2744 : 
; 2745 : 	if (gametype == GT_CTF && (player->gotflag & MF_REDFLAG || player->gotflag & MF_BLUEFLAG))

  001fe	0f bf 05 00 00
	00 00		 movsx	 eax, WORD PTR _gametype
  00205	83 f8 04	 cmp	 eax, 4
  00208	0f 85 8d 00 00
	00		 jne	 $LN19@P_RingDama
  0020e	8b 45 08	 mov	 eax, DWORD PTR _player$[ebp]
  00211	0f b7 88 64 01
	00 00		 movzx	 ecx, WORD PTR [eax+356]
  00218	83 e1 01	 and	 ecx, 1
  0021b	75 0f		 jne	 SHORT $LN17@P_RingDama
  0021d	8b 45 08	 mov	 eax, DWORD PTR _player$[ebp]
  00220	0f b7 88 64 01
	00 00		 movzx	 ecx, WORD PTR [eax+356]
  00227	83 e1 02	 and	 ecx, 2
  0022a	74 6f		 je	 SHORT $LN19@P_RingDama
$LN17@P_RingDama:

; 2746 : 	{
; 2747 : 		P_PlayerFlagBurst(player, false);

  0022c	6a 00		 push	 0
  0022e	8b 45 08	 mov	 eax, DWORD PTR _player$[ebp]
  00231	50		 push	 eax
  00232	e8 00 00 00 00	 call	 _P_PlayerFlagBurst
  00237	83 c4 08	 add	 esp, 8

; 2748 : 		if (source && source->player)

  0023a	83 7d 10 00	 cmp	 DWORD PTR _source$[ebp], 0
  0023e	74 5b		 je	 SHORT $LN19@P_RingDama
  00240	8b 45 10	 mov	 eax, DWORD PTR _source$[ebp]
  00243	83 b8 a4 00 00
	00 00		 cmp	 DWORD PTR [eax+164], 0
  0024a	74 4f		 je	 SHORT $LN19@P_RingDama

; 2749 : 		{
; 2750 : 			// Award no points when players shoot each other when cv_friendlyfire is on.
; 2751 : 			if (!((gametype == GT_CTF || (gametype == GT_MATCH && cv_matchtype.value))

  0024c	0f bf 05 00 00
	00 00		 movsx	 eax, WORD PTR _gametype
  00253	83 f8 04	 cmp	 eax, 4
  00256	74 15		 je	 SHORT $LN21@P_RingDama
  00258	0f bf 05 00 00
	00 00		 movsx	 eax, WORD PTR _gametype
  0025f	83 f8 01	 cmp	 eax, 1
  00262	75 23		 jne	 SHORT $LN20@P_RingDama
  00264	83 3d 14 00 00
	00 00		 cmp	 DWORD PTR _cv_matchtype+20, 0
  0026b	74 1a		 je	 SHORT $LN20@P_RingDama
$LN21@P_RingDama:
  0026d	8b 45 10	 mov	 eax, DWORD PTR _source$[ebp]
  00270	8b 88 a4 00 00
	00		 mov	 ecx, DWORD PTR [eax+164]
  00276	8b 55 08	 mov	 edx, DWORD PTR _player$[ebp]
  00279	8b 81 60 01 00
	00		 mov	 eax, DWORD PTR [ecx+352]
  0027f	3b 82 60 01 00
	00		 cmp	 eax, DWORD PTR [edx+352]
  00285	74 14		 je	 SHORT $LN19@P_RingDama
$LN20@P_RingDama:

; 2752 : 				&& (source->player->ctfteam == player->ctfteam)))
; 2753 : 				P_AddPlayerScore(source->player, 25);

  00287	6a 19		 push	 25			; 00000019H
  00289	8b 45 10	 mov	 eax, DWORD PTR _source$[ebp]
  0028c	8b 88 a4 00 00
	00		 mov	 ecx, DWORD PTR [eax+164]
  00292	51		 push	 ecx
  00293	e8 00 00 00 00	 call	 _P_AddPlayerScore
  00298	83 c4 08	 add	 esp, 8
$LN19@P_RingDama:

; 2754 : 		}
; 2755 : 	}
; 2756 : 
; 2757 : 	// Ring loss sound plays despite hitting spikes
; 2758 : 	P_PlayRinglossSound(player->mo); // Ringledingle!

  0029b	8b 45 08	 mov	 eax, DWORD PTR _player$[ebp]
  0029e	8b 08		 mov	 ecx, DWORD PTR [eax]
  002a0	51		 push	 ecx
  002a1	e8 00 00 00 00	 call	 _P_PlayRinglossSound
  002a6	83 c4 04	 add	 esp, 4

; 2759 : }

  002a9	5f		 pop	 edi
  002aa	5e		 pop	 esi
  002ab	5b		 pop	 ebx
  002ac	8b e5		 mov	 esp, ebp
  002ae	5d		 pop	 ebp
  002af	c3		 ret	 0
_P_RingDamage ENDP
_TEXT	ENDS
; Function compile flags: /Odtp /ZI
; File C:\Users\RafaTheFox\Downloads\SRB2-Public-master\src\p_inter.c
;	COMDAT _P_ShieldDamage
_TEXT	SEGMENT
tv176 = -76						; size = 4
tv243 = -76						; size = 4
_mo$1 = -8						; size = 4
_reflected$ = -4					; size = 4
_player$ = 8						; size = 4
_inflictor$ = 12					; size = 4
_source$ = 16						; size = 4
_damage$ = 20						; size = 4
_P_ShieldDamage PROC					; COMDAT

; 2646 : {

  00000	55		 push	 ebp
  00001	8b ec		 mov	 ebp, esp
  00003	83 ec 4c	 sub	 esp, 76			; 0000004cH
  00006	53		 push	 ebx
  00007	56		 push	 esi
  00008	57		 push	 edi

; 2647 : 	boolean reflected = false;

  00009	c7 45 fc 00 00
	00 00		 mov	 DWORD PTR _reflected$[ebp], 0

; 2648 : 	player->powers[pw_jumpshield] = false; // Get rid of shield

  00010	b8 04 00 00 00	 mov	 eax, 4
  00015	6b c8 03	 imul	 ecx, eax, 3
  00018	8b 55 08	 mov	 edx, DWORD PTR _player$[ebp]
  0001b	c7 44 0a 38 00
	00 00 00	 mov	 DWORD PTR [edx+ecx+56], 0

; 2649 : 	player->powers[pw_ringshield] = false;

  00023	b8 04 00 00 00	 mov	 eax, 4
  00028	6b c8 09	 imul	 ecx, eax, 9
  0002b	8b 55 08	 mov	 edx, DWORD PTR _player$[ebp]
  0002e	c7 44 0a 38 00
	00 00 00	 mov	 DWORD PTR [edx+ecx+56], 0

; 2650 : 	player->powers[pw_watershield] = false;

  00036	b8 04 00 00 00	 mov	 eax, 4
  0003b	6b c8 0b	 imul	 ecx, eax, 11
  0003e	8b 55 08	 mov	 edx, DWORD PTR _player$[ebp]
  00041	c7 44 0a 38 00
	00 00 00	 mov	 DWORD PTR [edx+ecx+56], 0

; 2651 : 
; 2652 : 	if (player->powers[pw_forceshield] > 0) // Multi-hit and reflection effect

  00049	b8 04 00 00 00	 mov	 eax, 4
  0004e	c1 e0 02	 shl	 eax, 2
  00051	8b 4d 08	 mov	 ecx, DWORD PTR _player$[ebp]
  00054	83 7c 01 38 00	 cmp	 DWORD PTR [ecx+eax+56], 0
  00059	0f 8e 1f 01 00
	00		 jle	 $LN3@P_ShieldDa

; 2653 : 	{
; 2654 : 		mobj_t *mo;
; 2655 : 
; 2656 : 		player->powers[pw_forceshield]--;

  0005f	b8 04 00 00 00	 mov	 eax, 4
  00064	c1 e0 02	 shl	 eax, 2
  00067	8b 4d 08	 mov	 ecx, DWORD PTR _player$[ebp]
  0006a	8b 54 01 38	 mov	 edx, DWORD PTR [ecx+eax+56]
  0006e	83 ea 01	 sub	 edx, 1
  00071	b8 04 00 00 00	 mov	 eax, 4
  00076	c1 e0 02	 shl	 eax, 2
  00079	8b 4d 08	 mov	 ecx, DWORD PTR _player$[ebp]
  0007c	89 54 01 38	 mov	 DWORD PTR [ecx+eax+56], edx

; 2657 : 
; 2658 : 		if ((inflictor && inflictor->flags & MF_MISSILE) && !(inflictor->flags2 & MF2_REFLECTED) &&
; 2659 : 			inflictor->type != MT_SPINFIRE && // don't reflect firetrails

  00080	83 7d 0c 00	 cmp	 DWORD PTR _inflictor$[ebp], 0
  00084	0f 84 f4 00 00
	00		 je	 $LN3@P_ShieldDa
  0008a	8b 45 0c	 mov	 eax, DWORD PTR _inflictor$[ebp]
  0008d	8b 48 60	 mov	 ecx, DWORD PTR [eax+96]
  00090	81 e1 00 00 01
	00		 and	 ecx, 65536		; 00010000H
  00096	0f 84 e2 00 00
	00		 je	 $LN3@P_ShieldDa
  0009c	8b 45 0c	 mov	 eax, DWORD PTR _inflictor$[ebp]
  0009f	8b 88 88 00 00
	00		 mov	 ecx, DWORD PTR [eax+136]
  000a5	81 e1 00 00 00
	20		 and	 ecx, 536870912		; 20000000H
  000ab	0f 85 cd 00 00
	00		 jne	 $LN3@P_ShieldDa
  000b1	8b 45 0c	 mov	 eax, DWORD PTR _inflictor$[ebp]
  000b4	83 78 7c 47	 cmp	 DWORD PTR [eax+124], 71	; 00000047H
  000b8	0f 84 c0 00 00
	00		 je	 $LN3@P_ShieldDa
  000be	8b 45 0c	 mov	 eax, DWORD PTR _inflictor$[ebp]
  000c1	8b 88 88 00 00
	00		 mov	 ecx, DWORD PTR [eax+136]
  000c7	81 e1 00 00 02
	00		 and	 ecx, 131072		; 00020000H
  000cd	0f 85 ab 00 00
	00		 jne	 $LN3@P_ShieldDa
  000d3	8b 45 0c	 mov	 eax, DWORD PTR _inflictor$[ebp]
  000d6	8b 88 88 00 00
	00		 mov	 ecx, DWORD PTR [eax+136]
  000dc	81 e1 00 00 20
	00		 and	 ecx, 2097152		; 00200000H
  000e2	0f 85 96 00 00
	00		 jne	 $LN3@P_ShieldDa
  000e8	8b 45 0c	 mov	 eax, DWORD PTR _inflictor$[ebp]
  000eb	8b 88 88 00 00
	00		 mov	 ecx, DWORD PTR [eax+136]
  000f1	83 e1 40	 and	 ecx, 64			; 00000040H
  000f4	0f 85 84 00 00
	00		 jne	 $LN3@P_ShieldDa

; 2660 : 			!(inflictor->flags2 & MF2_RAILRING || inflictor->flags2 & MF2_GRENADE || inflictor->flags2 & MF2_DEBRIS))
; 2661 : 		{
; 2662 : 			// Return to sender!
; 2663 : 			mo = P_SpawnPlayerMissile(player->mo, inflictor->type, inflictor->flags2, true);

  000fa	6a 01		 push	 1
  000fc	8b 45 0c	 mov	 eax, DWORD PTR _inflictor$[ebp]
  000ff	8b 88 88 00 00
	00		 mov	 ecx, DWORD PTR [eax+136]
  00105	51		 push	 ecx
  00106	6a 00		 push	 0
  00108	6a 00		 push	 0
  0010a	8b 55 08	 mov	 edx, DWORD PTR _player$[ebp]
  0010d	8b 02		 mov	 eax, DWORD PTR [edx]
  0010f	8b 48 24	 mov	 ecx, DWORD PTR [eax+36]
  00112	51		 push	 ecx
  00113	8b 55 0c	 mov	 edx, DWORD PTR _inflictor$[ebp]
  00116	8b 42 7c	 mov	 eax, DWORD PTR [edx+124]
  00119	50		 push	 eax
  0011a	8b 4d 08	 mov	 ecx, DWORD PTR _player$[ebp]
  0011d	8b 11		 mov	 edx, DWORD PTR [ecx]
  0011f	52		 push	 edx
  00120	e8 00 00 00 00	 call	 _P_SPMAngle
  00125	83 c4 1c	 add	 esp, 28			; 0000001cH
  00128	89 45 f8	 mov	 DWORD PTR _mo$1[ebp], eax

; 2664 : 
; 2665 : 			if (mo)

  0012b	83 7d f8 00	 cmp	 DWORD PTR _mo$1[ebp], 0
  0012f	74 46		 je	 SHORT $LN5@P_ShieldDa

; 2666 : 			{
; 2667 : 				mo->momx = -inflictor->momx;

  00131	8b 45 0c	 mov	 eax, DWORD PTR _inflictor$[ebp]
  00134	8b 48 48	 mov	 ecx, DWORD PTR [eax+72]
  00137	f7 d9		 neg	 ecx
  00139	8b 55 f8	 mov	 edx, DWORD PTR _mo$1[ebp]
  0013c	89 4a 48	 mov	 DWORD PTR [edx+72], ecx

; 2668 : 				mo->momy = -inflictor->momy;

  0013f	8b 45 0c	 mov	 eax, DWORD PTR _inflictor$[ebp]
  00142	8b 48 4c	 mov	 ecx, DWORD PTR [eax+76]
  00145	f7 d9		 neg	 ecx
  00147	8b 55 f8	 mov	 edx, DWORD PTR _mo$1[ebp]
  0014a	89 4a 4c	 mov	 DWORD PTR [edx+76], ecx

; 2669 : 				mo->momz = -inflictor->momz;

  0014d	8b 45 0c	 mov	 eax, DWORD PTR _inflictor$[ebp]
  00150	8b 48 50	 mov	 ecx, DWORD PTR [eax+80]
  00153	f7 d9		 neg	 ecx
  00155	8b 55 f8	 mov	 edx, DWORD PTR _mo$1[ebp]
  00158	89 4a 50	 mov	 DWORD PTR [edx+80], ecx

; 2670 : 
; 2671 : 				if (mo->type == MT_REDRING)

  0015b	8b 45 f8	 mov	 eax, DWORD PTR _mo$1[ebp]
  0015e	81 78 7c cf 00
	00 00		 cmp	 DWORD PTR [eax+124], 207 ; 000000cfH
  00165	75 10		 jne	 SHORT $LN5@P_ShieldDa

; 2672 : 					P_ColorTeamMissile(mo, player);

  00167	8b 45 08	 mov	 eax, DWORD PTR _player$[ebp]
  0016a	50		 push	 eax
  0016b	8b 4d f8	 mov	 ecx, DWORD PTR _mo$1[ebp]
  0016e	51		 push	 ecx
  0016f	e8 00 00 00 00	 call	 _P_ColorTeamMissile
  00174	83 c4 08	 add	 esp, 8
$LN5@P_ShieldDa:

; 2673 : 			}
; 2674 : 
; 2675 : 			reflected = true;

  00177	c7 45 fc 01 00
	00 00		 mov	 DWORD PTR _reflected$[ebp], 1
$LN3@P_ShieldDa:

; 2676 : 		}
; 2677 : 	}
; 2678 : 
; 2679 : 	if (player->powers[pw_bombshield]) // Give them what's coming to them!

  0017e	b8 04 00 00 00	 mov	 eax, 4
  00183	6b c8 0a	 imul	 ecx, eax, 10
  00186	8b 55 08	 mov	 edx, DWORD PTR _player$[ebp]
  00189	83 7c 0a 38 00	 cmp	 DWORD PTR [edx+ecx+56], 0
  0018e	74 35		 je	 SHORT $LN6@P_ShieldDa

; 2680 : 	{
; 2681 : 		player->blackow = 1; // BAM!

  00190	8b 45 08	 mov	 eax, DWORD PTR _player$[ebp]
  00193	c7 80 34 01 00
	00 01 00 00 00	 mov	 DWORD PTR [eax+308], 1

; 2682 : 		player->powers[pw_bombshield] = false;

  0019d	b8 04 00 00 00	 mov	 eax, 4
  001a2	6b c8 0a	 imul	 ecx, eax, 10
  001a5	8b 55 08	 mov	 edx, DWORD PTR _player$[ebp]
  001a8	c7 44 0a 38 00
	00 00 00	 mov	 DWORD PTR [edx+ecx+56], 0

; 2683 : 		player->pflags |= PF_JUMPDOWN;

  001b0	8b 45 08	 mov	 eax, DWORD PTR _player$[ebp]
  001b3	8b 88 ac 00 00
	00		 mov	 ecx, DWORD PTR [eax+172]
  001b9	83 c9 08	 or	 ecx, 8
  001bc	8b 55 08	 mov	 edx, DWORD PTR _player$[ebp]
  001bf	89 8a ac 00 00
	00		 mov	 DWORD PTR [edx+172], ecx
$LN6@P_ShieldDa:

; 2684 : 	}
; 2685 : 	P_ForceFeed(player, 40, 10, TICRATE, 40 + min(damage, 100)*2);

  001c5	83 7d 14 64	 cmp	 DWORD PTR _damage$[ebp], 100 ; 00000064H
  001c9	7d 08		 jge	 SHORT $LN17@P_ShieldDa
  001cb	8b 45 14	 mov	 eax, DWORD PTR _damage$[ebp]
  001ce	89 45 b4	 mov	 DWORD PTR tv176[ebp], eax
  001d1	eb 07		 jmp	 SHORT $LN18@P_ShieldDa
$LN17@P_ShieldDa:
  001d3	c7 45 b4 64 00
	00 00		 mov	 DWORD PTR tv176[ebp], 100 ; 00000064H
$LN18@P_ShieldDa:
  001da	8b 4d b4	 mov	 ecx, DWORD PTR tv176[ebp]
  001dd	8d 54 09 28	 lea	 edx, DWORD PTR [ecx+ecx+40]
  001e1	52		 push	 edx
  001e2	6a 23		 push	 35			; 00000023H
  001e4	6a 0a		 push	 10			; 0000000aH
  001e6	6a 28		 push	 40			; 00000028H
  001e8	8b 45 08	 mov	 eax, DWORD PTR _player$[ebp]
  001eb	50		 push	 eax
  001ec	e8 00 00 00 00	 call	 _P_ForceFeed
  001f1	83 c4 14	 add	 esp, 20			; 00000014H

; 2686 : 	damage = 0; // Don't take rings away

  001f4	c7 45 14 00 00
	00 00		 mov	 DWORD PTR _damage$[ebp], 0

; 2687 : 
; 2688 : 	P_DoPlayerPain(player, source, inflictor);

  001fb	8b 45 0c	 mov	 eax, DWORD PTR _inflictor$[ebp]
  001fe	50		 push	 eax
  001ff	8b 4d 10	 mov	 ecx, DWORD PTR _source$[ebp]
  00202	51		 push	 ecx
  00203	8b 55 08	 mov	 edx, DWORD PTR _player$[ebp]
  00206	52		 push	 edx
  00207	e8 00 00 00 00	 call	 _P_DoPlayerPain
  0020c	83 c4 0c	 add	 esp, 12			; 0000000cH

; 2689 : 
; 2690 : 	player->powers[pw_fireflower] = false;

  0020f	b8 04 00 00 00	 mov	 eax, 4
  00214	6b c8 11	 imul	 ecx, eax, 17
  00217	8b 55 08	 mov	 edx, DWORD PTR _player$[ebp]
  0021a	c7 44 0a 38 00
	00 00 00	 mov	 DWORD PTR [edx+ecx+56], 0

; 2691 : 	player->mo->flags |= MF_TRANSLATION;

  00222	8b 45 08	 mov	 eax, DWORD PTR _player$[ebp]
  00225	8b 08		 mov	 ecx, DWORD PTR [eax]
  00227	8b 51 60	 mov	 edx, DWORD PTR [ecx+96]
  0022a	81 ca 00 00 00
	04		 or	 edx, 67108864		; 04000000H
  00230	8b 45 08	 mov	 eax, DWORD PTR _player$[ebp]
  00233	8b 08		 mov	 ecx, DWORD PTR [eax]
  00235	89 51 60	 mov	 DWORD PTR [ecx+96], edx

; 2692 : 	player->mo->color = (UINT8)player->skincolor;

  00238	8b 45 08	 mov	 eax, DWORD PTR _player$[ebp]
  0023b	8b 08		 mov	 ecx, DWORD PTR [eax]
  0023d	8b 55 08	 mov	 edx, DWORD PTR _player$[ebp]
  00240	8a 82 b4 00 00
	00		 mov	 al, BYTE PTR [edx+180]
  00246	88 41 68	 mov	 BYTE PTR [ecx+104], al

; 2693 : 
; 2694 : 	if (source && (source->type == MT_DISS || source->type == MT_FLOORSPIKE || source->type == MT_CEILINGSPIKE) && source->threshold == 43) // spikes

  00249	83 7d 10 00	 cmp	 DWORD PTR _source$[ebp], 0
  0024d	74 3f		 je	 SHORT $LN7@P_ShieldDa
  0024f	8b 45 10	 mov	 eax, DWORD PTR _source$[ebp]
  00252	81 78 7c 05 01
	00 00		 cmp	 DWORD PTR [eax+124], 261 ; 00000105H
  00259	74 12		 je	 SHORT $LN9@P_ShieldDa
  0025b	8b 45 10	 mov	 eax, DWORD PTR _source$[ebp]
  0025e	83 78 7c 49	 cmp	 DWORD PTR [eax+124], 73	; 00000049H
  00262	74 09		 je	 SHORT $LN9@P_ShieldDa
  00264	8b 45 10	 mov	 eax, DWORD PTR _source$[ebp]
  00267	83 78 7c 48	 cmp	 DWORD PTR [eax+124], 72	; 00000048H
  0026b	75 21		 jne	 SHORT $LN7@P_ShieldDa
$LN9@P_ShieldDa:
  0026d	8b 45 10	 mov	 eax, DWORD PTR _source$[ebp]
  00270	83 b8 a0 00 00
	00 2b		 cmp	 DWORD PTR [eax+160], 43	; 0000002bH
  00277	75 15		 jne	 SHORT $LN7@P_ShieldDa

; 2695 : 		S_StartSound(player->mo, sfx_spkdth);

  00279	68 d4 00 00 00	 push	 212			; 000000d4H
  0027e	8b 45 08	 mov	 eax, DWORD PTR _player$[ebp]
  00281	8b 08		 mov	 ecx, DWORD PTR [eax]
  00283	51		 push	 ecx
  00284	e8 00 00 00 00	 call	 _S_StartSound
  00289	83 c4 08	 add	 esp, 8
  0028c	eb 2e		 jmp	 SHORT $LN11@P_ShieldDa
$LN7@P_ShieldDa:

; 2696 : 	else if (reflected) //play the reflect sound if reflected.

  0028e	83 7d fc 00	 cmp	 DWORD PTR _reflected$[ebp], 0
  00292	74 15		 je	 SHORT $LN10@P_ShieldDa

; 2697 : 		S_StartSound(player->mo, sfx_shield);

  00294	68 d0 00 00 00	 push	 208			; 000000d0H
  00299	8b 45 08	 mov	 eax, DWORD PTR _player$[ebp]
  0029c	8b 08		 mov	 ecx, DWORD PTR [eax]
  0029e	51		 push	 ecx
  0029f	e8 00 00 00 00	 call	 _S_StartSound
  002a4	83 c4 08	 add	 esp, 8
  002a7	eb 13		 jmp	 SHORT $LN11@P_ShieldDa
$LN10@P_ShieldDa:

; 2698 : 	else
; 2699 : 		S_StartSound (player->mo, sfx_shldls); // Ba-Dum! Shield loss.

  002a9	68 d1 00 00 00	 push	 209			; 000000d1H
  002ae	8b 45 08	 mov	 eax, DWORD PTR _player$[ebp]
  002b1	8b 08		 mov	 ecx, DWORD PTR [eax]
  002b3	51		 push	 ecx
  002b4	e8 00 00 00 00	 call	 _S_StartSound
  002b9	83 c4 08	 add	 esp, 8
$LN11@P_ShieldDa:

; 2700 : 
; 2701 : 	if (gametype == GT_CTF && (player->gotflag & MF_REDFLAG || player->gotflag & MF_BLUEFLAG))

  002bc	0f bf 05 00 00
	00 00		 movsx	 eax, WORD PTR _gametype
  002c3	83 f8 04	 cmp	 eax, 4
  002c6	75 52		 jne	 SHORT $LN14@P_ShieldDa
  002c8	8b 45 08	 mov	 eax, DWORD PTR _player$[ebp]
  002cb	0f b7 88 64 01
	00 00		 movzx	 ecx, WORD PTR [eax+356]
  002d2	83 e1 01	 and	 ecx, 1
  002d5	75 0f		 jne	 SHORT $LN13@P_ShieldDa
  002d7	8b 45 08	 mov	 eax, DWORD PTR _player$[ebp]
  002da	0f b7 88 64 01
	00 00		 movzx	 ecx, WORD PTR [eax+356]
  002e1	83 e1 02	 and	 ecx, 2
  002e4	74 34		 je	 SHORT $LN14@P_ShieldDa
$LN13@P_ShieldDa:

; 2702 : 	{
; 2703 : 		P_PlayerFlagBurst(player, false);

  002e6	6a 00		 push	 0
  002e8	8b 45 08	 mov	 eax, DWORD PTR _player$[ebp]
  002eb	50		 push	 eax
  002ec	e8 00 00 00 00	 call	 _P_PlayerFlagBurst
  002f1	83 c4 08	 add	 esp, 8

; 2704 : 		if (source && source->player)

  002f4	83 7d 10 00	 cmp	 DWORD PTR _source$[ebp], 0
  002f8	74 20		 je	 SHORT $LN14@P_ShieldDa
  002fa	8b 45 10	 mov	 eax, DWORD PTR _source$[ebp]
  002fd	83 b8 a4 00 00
	00 00		 cmp	 DWORD PTR [eax+164], 0
  00304	74 14		 je	 SHORT $LN14@P_ShieldDa

; 2705 : 			P_AddPlayerScore(source->player, 25);

  00306	6a 19		 push	 25			; 00000019H
  00308	8b 45 10	 mov	 eax, DWORD PTR _source$[ebp]
  0030b	8b 88 a4 00 00
	00		 mov	 ecx, DWORD PTR [eax+164]
  00311	51		 push	 ecx
  00312	e8 00 00 00 00	 call	 _P_AddPlayerScore
  00317	83 c4 08	 add	 esp, 8
$LN14@P_ShieldDa:

; 2706 : 	}
; 2707 : 	if (source && source->player && !player->powers[pw_super]) //don't score points against super players

  0031a	83 7d 10 00	 cmp	 DWORD PTR _source$[ebp], 0
  0031e	74 4d		 je	 SHORT $LN15@P_ShieldDa
  00320	8b 45 10	 mov	 eax, DWORD PTR _source$[ebp]
  00323	83 b8 a4 00 00
	00 00		 cmp	 DWORD PTR [eax+164], 0
  0032a	74 41		 je	 SHORT $LN15@P_ShieldDa
  0032c	b8 04 00 00 00	 mov	 eax, 4
  00331	6b c8 0f	 imul	 ecx, eax, 15
  00334	8b 55 08	 mov	 edx, DWORD PTR _player$[ebp]
  00337	83 7c 0a 38 00	 cmp	 DWORD PTR [edx+ecx+56], 0
  0033c	75 2f		 jne	 SHORT $LN15@P_ShieldDa

; 2708 : 		P_AddPlayerScore(source->player, cv_match_scoring.value == 1 ? 25 : 50);

  0033e	83 3d 14 00 00
	00 01		 cmp	 DWORD PTR _cv_match_scoring+20, 1
  00345	75 09		 jne	 SHORT $LN19@P_ShieldDa
  00347	c7 45 b4 19 00
	00 00		 mov	 DWORD PTR tv243[ebp], 25 ; 00000019H
  0034e	eb 07		 jmp	 SHORT $LN20@P_ShieldDa
$LN19@P_ShieldDa:
  00350	c7 45 b4 32 00
	00 00		 mov	 DWORD PTR tv243[ebp], 50 ; 00000032H
$LN20@P_ShieldDa:
  00357	8b 45 b4	 mov	 eax, DWORD PTR tv243[ebp]
  0035a	50		 push	 eax
  0035b	8b 4d 10	 mov	 ecx, DWORD PTR _source$[ebp]
  0035e	8b 91 a4 00 00
	00		 mov	 edx, DWORD PTR [ecx+164]
  00364	52		 push	 edx
  00365	e8 00 00 00 00	 call	 _P_AddPlayerScore
  0036a	83 c4 08	 add	 esp, 8
$LN15@P_ShieldDa:

; 2709 : }

  0036d	5f		 pop	 edi
  0036e	5e		 pop	 esi
  0036f	5b		 pop	 ebx
  00370	8b e5		 mov	 esp, ebp
  00372	5d		 pop	 ebp
  00373	c3		 ret	 0
_P_ShieldDamage ENDP
_TEXT	ENDS
; Function compile flags: /Odtp /ZI
; File C:\Users\RafaTheFox\Downloads\SRB2-Public-master\src\p_inter.c
;	COMDAT _P_SuperDamage
_TEXT	SEGMENT
tv65 = -80						; size = 4
_dist$1 = -12						; size = 4
_ang$ = -8						; size = 4
_fallbackspeed$ = -4					; size = 4
_player$ = 8						; size = 4
_inflictor$ = 12					; size = 4
_source$ = 16						; size = 4
_damage$ = 20						; size = 4
_P_SuperDamage PROC					; COMDAT

; 2595 : {

  00000	55		 push	 ebp
  00001	8b ec		 mov	 ebp, esp
  00003	83 ec 50	 sub	 esp, 80			; 00000050H
  00006	53		 push	 ebx
  00007	56		 push	 esi
  00008	57		 push	 edi

; 2596 : 	fixed_t fallbackspeed;
; 2597 : 	angle_t ang;
; 2598 : 
; 2599 : 	P_ForceFeed(player, 40, 10, TICRATE, 40 + min(damage, 100)*2);

  00009	83 7d 14 64	 cmp	 DWORD PTR _damage$[ebp], 100 ; 00000064H
  0000d	7d 08		 jge	 SHORT $LN16@P_SuperDam
  0000f	8b 45 14	 mov	 eax, DWORD PTR _damage$[ebp]
  00012	89 45 b0	 mov	 DWORD PTR tv65[ebp], eax
  00015	eb 07		 jmp	 SHORT $LN17@P_SuperDam
$LN16@P_SuperDam:
  00017	c7 45 b0 64 00
	00 00		 mov	 DWORD PTR tv65[ebp], 100 ; 00000064H
$LN17@P_SuperDam:
  0001e	8b 4d b0	 mov	 ecx, DWORD PTR tv65[ebp]
  00021	8d 54 09 28	 lea	 edx, DWORD PTR [ecx+ecx+40]
  00025	52		 push	 edx
  00026	6a 23		 push	 35			; 00000023H
  00028	6a 0a		 push	 10			; 0000000aH
  0002a	6a 28		 push	 40			; 00000028H
  0002c	8b 45 08	 mov	 eax, DWORD PTR _player$[ebp]
  0002f	50		 push	 eax
  00030	e8 00 00 00 00	 call	 _P_ForceFeed
  00035	83 c4 14	 add	 esp, 20			; 00000014H

; 2600 : 	damage = 0; // Don't take rings away

  00038	c7 45 14 00 00
	00 00		 mov	 DWORD PTR _damage$[ebp], 0

; 2601 : 	player->mo->z++;

  0003f	8b 45 08	 mov	 eax, DWORD PTR _player$[ebp]
  00042	8b 08		 mov	 ecx, DWORD PTR [eax]
  00044	8b 51 18	 mov	 edx, DWORD PTR [ecx+24]
  00047	83 c2 01	 add	 edx, 1
  0004a	8b 45 08	 mov	 eax, DWORD PTR _player$[ebp]
  0004d	8b 08		 mov	 ecx, DWORD PTR [eax]
  0004f	89 51 18	 mov	 DWORD PTR [ecx+24], edx

; 2602 : 
; 2603 : 	if (player->mo->eflags & MFE_UNDERWATER)

  00052	8b 45 08	 mov	 eax, DWORD PTR _player$[ebp]
  00055	8b 08		 mov	 ecx, DWORD PTR [eax]
  00057	8b 91 84 00 00
	00		 mov	 edx, DWORD PTR [ecx+132]
  0005d	83 e2 08	 and	 edx, 8
  00060	74 25		 je	 SHORT $LN2@P_SuperDam

; 2604 : 		P_SetObjectMomZ(player->mo, FixedDiv(10511*FRACUNIT,2600*FRACUNIT), false);

  00062	6a 00		 push	 0
  00064	68 00 00 28 0a	 push	 170393600		; 0a280000H
  00069	68 00 00 0f 29	 push	 688848896		; 290f0000H
  0006e	e8 00 00 00 00	 call	 _FixedDiv
  00073	83 c4 08	 add	 esp, 8
  00076	50		 push	 eax
  00077	8b 45 08	 mov	 eax, DWORD PTR _player$[ebp]
  0007a	8b 08		 mov	 ecx, DWORD PTR [eax]
  0007c	51		 push	 ecx
  0007d	e8 00 00 00 00	 call	 _P_SetObjectMomZ
  00082	83 c4 0c	 add	 esp, 12			; 0000000cH
  00085	eb 23		 jmp	 SHORT $LN3@P_SuperDam
$LN2@P_SuperDam:

; 2605 : 	else
; 2606 : 		P_SetObjectMomZ(player->mo, FixedDiv(69*FRACUNIT,10*FRACUNIT), false);

  00087	6a 00		 push	 0
  00089	68 00 00 0a 00	 push	 655360			; 000a0000H
  0008e	68 00 00 45 00	 push	 4521984			; 00450000H
  00093	e8 00 00 00 00	 call	 _FixedDiv
  00098	83 c4 08	 add	 esp, 8
  0009b	50		 push	 eax
  0009c	8b 45 08	 mov	 eax, DWORD PTR _player$[ebp]
  0009f	8b 08		 mov	 ecx, DWORD PTR [eax]
  000a1	51		 push	 ecx
  000a2	e8 00 00 00 00	 call	 _P_SetObjectMomZ
  000a7	83 c4 0c	 add	 esp, 12			; 0000000cH
$LN3@P_SuperDam:

; 2607 : 
; 2608 : 	ang = R_PointToAngle2(inflictor->x,	inflictor->y, player->mo->x, player->mo->y);

  000aa	8b 45 08	 mov	 eax, DWORD PTR _player$[ebp]
  000ad	8b 08		 mov	 ecx, DWORD PTR [eax]
  000af	8b 51 14	 mov	 edx, DWORD PTR [ecx+20]
  000b2	52		 push	 edx
  000b3	8b 45 08	 mov	 eax, DWORD PTR _player$[ebp]
  000b6	8b 08		 mov	 ecx, DWORD PTR [eax]
  000b8	8b 51 10	 mov	 edx, DWORD PTR [ecx+16]
  000bb	52		 push	 edx
  000bc	8b 45 0c	 mov	 eax, DWORD PTR _inflictor$[ebp]
  000bf	8b 48 14	 mov	 ecx, DWORD PTR [eax+20]
  000c2	51		 push	 ecx
  000c3	8b 55 0c	 mov	 edx, DWORD PTR _inflictor$[ebp]
  000c6	8b 42 10	 mov	 eax, DWORD PTR [edx+16]
  000c9	50		 push	 eax
  000ca	e8 00 00 00 00	 call	 _R_PointToAngle2
  000cf	83 c4 10	 add	 esp, 16			; 00000010H
  000d2	89 45 f8	 mov	 DWORD PTR _ang$[ebp], eax

; 2609 : 
; 2610 : 	// explosion and rail rings send you farther back, making it more difficult
; 2611 : 	// to recover
; 2612 : 	if (inflictor->flags2 & MF2_SCATTER)

  000d5	8b 45 0c	 mov	 eax, DWORD PTR _inflictor$[ebp]
  000d8	8b 88 88 00 00
	00		 mov	 ecx, DWORD PTR [eax+136]
  000de	81 e1 00 00 10
	00		 and	 ecx, 1048576		; 00100000H
  000e4	74 6f		 je	 SHORT $LN4@P_SuperDam

; 2613 : 	{
; 2614 : 		fixed_t dist = P_AproxDistance(P_AproxDistance(source->x-player->mo->x, source->y-player->mo->y), source->z-player->mo->z);

  000e6	8b 45 08	 mov	 eax, DWORD PTR _player$[ebp]
  000e9	8b 08		 mov	 ecx, DWORD PTR [eax]
  000eb	8b 55 10	 mov	 edx, DWORD PTR _source$[ebp]
  000ee	8b 42 18	 mov	 eax, DWORD PTR [edx+24]
  000f1	2b 41 18	 sub	 eax, DWORD PTR [ecx+24]
  000f4	50		 push	 eax
  000f5	8b 4d 08	 mov	 ecx, DWORD PTR _player$[ebp]
  000f8	8b 11		 mov	 edx, DWORD PTR [ecx]
  000fa	8b 45 10	 mov	 eax, DWORD PTR _source$[ebp]
  000fd	8b 48 14	 mov	 ecx, DWORD PTR [eax+20]
  00100	2b 4a 14	 sub	 ecx, DWORD PTR [edx+20]
  00103	51		 push	 ecx
  00104	8b 55 08	 mov	 edx, DWORD PTR _player$[ebp]
  00107	8b 02		 mov	 eax, DWORD PTR [edx]
  00109	8b 4d 10	 mov	 ecx, DWORD PTR _source$[ebp]
  0010c	8b 51 10	 mov	 edx, DWORD PTR [ecx+16]
  0010f	2b 50 10	 sub	 edx, DWORD PTR [eax+16]
  00112	52		 push	 edx
  00113	e8 00 00 00 00	 call	 _P_AproxDistance
  00118	83 c4 08	 add	 esp, 8
  0011b	50		 push	 eax
  0011c	e8 00 00 00 00	 call	 _P_AproxDistance
  00121	83 c4 08	 add	 esp, 8
  00124	89 45 f4	 mov	 DWORD PTR _dist$1[ebp], eax

; 2615 : 
; 2616 : 		dist = 128*FRACUNIT - dist/4;

  00127	8b 45 f4	 mov	 eax, DWORD PTR _dist$1[ebp]
  0012a	99		 cdq
  0012b	83 e2 03	 and	 edx, 3
  0012e	03 c2		 add	 eax, edx
  00130	c1 f8 02	 sar	 eax, 2
  00133	b9 00 00 80 00	 mov	 ecx, 8388608		; 00800000H
  00138	2b c8		 sub	 ecx, eax
  0013a	89 4d f4	 mov	 DWORD PTR _dist$1[ebp], ecx

; 2617 : 
; 2618 : 		if (dist < 4*FRACUNIT)

  0013d	81 7d f4 00 00
	04 00		 cmp	 DWORD PTR _dist$1[ebp], 262144 ; 00040000H
  00144	7d 07		 jge	 SHORT $LN6@P_SuperDam

; 2619 : 			dist = 4*FRACUNIT;

  00146	c7 45 f4 00 00
	04 00		 mov	 DWORD PTR _dist$1[ebp], 262144 ; 00040000H
$LN6@P_SuperDam:

; 2620 : 
; 2621 : 		fallbackspeed = dist;

  0014d	8b 45 f4	 mov	 eax, DWORD PTR _dist$1[ebp]
  00150	89 45 fc	 mov	 DWORD PTR _fallbackspeed$[ebp], eax

; 2622 : 	}

  00153	eb 55		 jmp	 SHORT $LN12@P_SuperDam
$LN4@P_SuperDam:

; 2623 : 	else if (inflictor->flags2 & MF2_EXPLOSION)

  00155	8b 45 0c	 mov	 eax, DWORD PTR _inflictor$[ebp]
  00158	8b 88 88 00 00
	00		 mov	 ecx, DWORD PTR [eax+136]
  0015e	81 e1 00 00 08
	00		 and	 ecx, 524288		; 00080000H
  00164	74 23		 je	 SHORT $LN7@P_SuperDam

; 2624 : 	{
; 2625 : 		if (inflictor->flags2 & MF2_RAILRING)

  00166	8b 45 0c	 mov	 eax, DWORD PTR _inflictor$[ebp]
  00169	8b 88 88 00 00
	00		 mov	 ecx, DWORD PTR [eax+136]
  0016f	81 e1 00 00 02
	00		 and	 ecx, 131072		; 00020000H
  00175	74 09		 je	 SHORT $LN9@P_SuperDam

; 2626 : 			fallbackspeed = 28*FRACUNIT; // 7x

  00177	c7 45 fc 00 00
	1c 00		 mov	 DWORD PTR _fallbackspeed$[ebp], 1835008 ; 001c0000H
  0017e	eb 07		 jmp	 SHORT $LN10@P_SuperDam
$LN9@P_SuperDam:

; 2627 : 		else
; 2628 : 			fallbackspeed = 20*FRACUNIT; // 5x

  00180	c7 45 fc 00 00
	14 00		 mov	 DWORD PTR _fallbackspeed$[ebp], 1310720 ; 00140000H
$LN10@P_SuperDam:

; 2629 : 	}

  00187	eb 21		 jmp	 SHORT $LN12@P_SuperDam
$LN7@P_SuperDam:

; 2630 : 	else if (inflictor->flags2 & MF2_RAILRING)

  00189	8b 45 0c	 mov	 eax, DWORD PTR _inflictor$[ebp]
  0018c	8b 88 88 00 00
	00		 mov	 ecx, DWORD PTR [eax+136]
  00192	81 e1 00 00 02
	00		 and	 ecx, 131072		; 00020000H
  00198	74 09		 je	 SHORT $LN11@P_SuperDam

; 2631 : 		fallbackspeed = 16*FRACUNIT; // 4x

  0019a	c7 45 fc 00 00
	10 00		 mov	 DWORD PTR _fallbackspeed$[ebp], 1048576 ; 00100000H
  001a1	eb 07		 jmp	 SHORT $LN12@P_SuperDam
$LN11@P_SuperDam:

; 2632 : 	else
; 2633 : 		fallbackspeed = 4*FRACUNIT; // the usual amount of force

  001a3	c7 45 fc 00 00
	04 00		 mov	 DWORD PTR _fallbackspeed$[ebp], 262144 ; 00040000H
$LN12@P_SuperDam:

; 2634 : 
; 2635 : 	P_InstaThrust(player->mo, ang, fallbackspeed);

  001aa	8b 45 fc	 mov	 eax, DWORD PTR _fallbackspeed$[ebp]
  001ad	50		 push	 eax
  001ae	8b 4d f8	 mov	 ecx, DWORD PTR _ang$[ebp]
  001b1	51		 push	 ecx
  001b2	8b 55 08	 mov	 edx, DWORD PTR _player$[ebp]
  001b5	8b 02		 mov	 eax, DWORD PTR [edx]
  001b7	50		 push	 eax
  001b8	e8 00 00 00 00	 call	 _P_InstaThrust
  001bd	83 c4 0c	 add	 esp, 12			; 0000000cH

; 2636 : 
; 2637 : 	if (player->charflags & SF_SUPERANIMS)

  001c0	8b 45 08	 mov	 eax, DWORD PTR _player$[ebp]
  001c3	8b 88 e0 00 00
	00		 mov	 ecx, DWORD PTR [eax+224]
  001c9	83 e1 01	 and	 ecx, 1
  001cc	74 12		 je	 SHORT $LN13@P_SuperDam

; 2638 : 		P_SetPlayerMobjState(player->mo, S_PLAY_SUPERHIT);

  001ce	6a 30		 push	 48			; 00000030H
  001d0	8b 45 08	 mov	 eax, DWORD PTR _player$[ebp]
  001d3	8b 08		 mov	 ecx, DWORD PTR [eax]
  001d5	51		 push	 ecx
  001d6	e8 00 00 00 00	 call	 _P_SetPlayerMobjState
  001db	83 c4 08	 add	 esp, 8
  001de	eb 1d		 jmp	 SHORT $LN14@P_SuperDam
$LN13@P_SuperDam:

; 2639 : 	else
; 2640 : 		P_SetPlayerMobjState(player->mo, player->mo->info->painstate);

  001e0	8b 45 08	 mov	 eax, DWORD PTR _player$[ebp]
  001e3	8b 08		 mov	 ecx, DWORD PTR [eax]
  001e5	8b 91 80 00 00
	00		 mov	 edx, DWORD PTR [ecx+128]
  001eb	8b 42 1c	 mov	 eax, DWORD PTR [edx+28]
  001ee	50		 push	 eax
  001ef	8b 4d 08	 mov	 ecx, DWORD PTR _player$[ebp]
  001f2	8b 11		 mov	 edx, DWORD PTR [ecx]
  001f4	52		 push	 edx
  001f5	e8 00 00 00 00	 call	 _P_SetPlayerMobjState
  001fa	83 c4 08	 add	 esp, 8
$LN14@P_SuperDam:

; 2641 : 
; 2642 : 	P_ResetPlayer(player);

  001fd	8b 45 08	 mov	 eax, DWORD PTR _player$[ebp]
  00200	50		 push	 eax
  00201	e8 00 00 00 00	 call	 _P_ResetPlayer
  00206	83 c4 04	 add	 esp, 4

; 2643 : }

  00209	5f		 pop	 edi
  0020a	5e		 pop	 esi
  0020b	5b		 pop	 ebx
  0020c	8b e5		 mov	 esp, ebp
  0020e	5d		 pop	 ebp
  0020f	c3		 ret	 0
_P_SuperDamage ENDP
_TEXT	ENDS
; Function compile flags: /Odtp /ZI
; File C:\Users\RafaTheFox\Downloads\SRB2-Public-master\src\p_inter.c
;	COMDAT _P_KillPlayer
_TEXT	SEGMENT
tv155 = -68						; size = 4
_player$ = 8						; size = 4
_source$ = 12						; size = 4
_damage$ = 16						; size = 4
_P_KillPlayer PROC					; COMDAT

; 2524 : {

  00000	55		 push	 ebp
  00001	8b ec		 mov	 ebp, esp
  00003	83 ec 44	 sub	 esp, 68			; 00000044H
  00006	53		 push	 ebx
  00007	56		 push	 esi
  00008	57		 push	 edi

; 2525 : 	// Burst weapons and emeralds in Match/CTF only
; 2526 : 	if (source && (gametype == GT_MATCH || gametype == GT_CTF))

  00009	83 7d 0c 00	 cmp	 DWORD PTR _source$[ebp], 0
  0000d	74 3c		 je	 SHORT $LN2@P_KillPlay
  0000f	0f bf 05 00 00
	00 00		 movsx	 eax, WORD PTR _gametype
  00016	83 f8 01	 cmp	 eax, 1
  00019	74 0c		 je	 SHORT $LN3@P_KillPlay
  0001b	0f bf 05 00 00
	00 00		 movsx	 eax, WORD PTR _gametype
  00022	83 f8 04	 cmp	 eax, 4
  00025	75 24		 jne	 SHORT $LN2@P_KillPlay
$LN3@P_KillPlay:

; 2527 : 	{
; 2528 : 		P_PlayerRingBurst(player, player->health - 1);

  00027	8b 45 08	 mov	 eax, DWORD PTR _player$[ebp]
  0002a	8b 48 28	 mov	 ecx, DWORD PTR [eax+40]
  0002d	83 e9 01	 sub	 ecx, 1
  00030	51		 push	 ecx
  00031	8b 55 08	 mov	 edx, DWORD PTR _player$[ebp]
  00034	52		 push	 edx
  00035	e8 00 00 00 00	 call	 _P_PlayerRingBurst
  0003a	83 c4 08	 add	 esp, 8

; 2529 : 		P_PlayerEmeraldBurst(player, false);

  0003d	6a 00		 push	 0
  0003f	8b 45 08	 mov	 eax, DWORD PTR _player$[ebp]
  00042	50		 push	 eax
  00043	e8 00 00 00 00	 call	 _P_PlayerEmeraldBurst
  00048	83 c4 08	 add	 esp, 8
$LN2@P_KillPlay:

; 2530 : 	}
; 2531 : 
; 2532 : 	// Get rid of shield
; 2533 : 	player->powers[pw_forceshield] = false;

  0004b	b8 04 00 00 00	 mov	 eax, 4
  00050	c1 e0 02	 shl	 eax, 2
  00053	8b 4d 08	 mov	 ecx, DWORD PTR _player$[ebp]
  00056	c7 44 01 38 00
	00 00 00	 mov	 DWORD PTR [ecx+eax+56], 0

; 2534 : 	player->powers[pw_jumpshield] = false;

  0005e	b8 04 00 00 00	 mov	 eax, 4
  00063	6b c8 03	 imul	 ecx, eax, 3
  00066	8b 55 08	 mov	 edx, DWORD PTR _player$[ebp]
  00069	c7 44 0a 38 00
	00 00 00	 mov	 DWORD PTR [edx+ecx+56], 0

; 2535 : 	player->powers[pw_ringshield] = false;

  00071	b8 04 00 00 00	 mov	 eax, 4
  00076	6b c8 09	 imul	 ecx, eax, 9
  00079	8b 55 08	 mov	 edx, DWORD PTR _player$[ebp]
  0007c	c7 44 0a 38 00
	00 00 00	 mov	 DWORD PTR [edx+ecx+56], 0

; 2536 : 	player->powers[pw_bombshield] = false;

  00084	b8 04 00 00 00	 mov	 eax, 4
  00089	6b c8 0a	 imul	 ecx, eax, 10
  0008c	8b 55 08	 mov	 edx, DWORD PTR _player$[ebp]
  0008f	c7 44 0a 38 00
	00 00 00	 mov	 DWORD PTR [edx+ecx+56], 0

; 2537 : 	player->powers[pw_watershield] = false;

  00097	b8 04 00 00 00	 mov	 eax, 4
  0009c	6b c8 0b	 imul	 ecx, eax, 11
  0009f	8b 55 08	 mov	 edx, DWORD PTR _player$[ebp]
  000a2	c7 44 0a 38 00
	00 00 00	 mov	 DWORD PTR [edx+ecx+56], 0

; 2538 : 	player->mo->momx = player->mo->momy = player->mo->momz = 0;

  000aa	8b 45 08	 mov	 eax, DWORD PTR _player$[ebp]
  000ad	8b 08		 mov	 ecx, DWORD PTR [eax]
  000af	c7 41 50 00 00
	00 00		 mov	 DWORD PTR [ecx+80], 0
  000b6	8b 55 08	 mov	 edx, DWORD PTR _player$[ebp]
  000b9	8b 02		 mov	 eax, DWORD PTR [edx]
  000bb	c7 40 4c 00 00
	00 00		 mov	 DWORD PTR [eax+76], 0
  000c2	8b 4d 08	 mov	 ecx, DWORD PTR _player$[ebp]
  000c5	8b 11		 mov	 edx, DWORD PTR [ecx]
  000c7	c7 42 48 00 00
	00 00		 mov	 DWORD PTR [edx+72], 0

; 2539 : 
; 2540 : 	// Get rid of emeralds
; 2541 : 	player->powers[pw_emeralds] = 0;

  000ce	b8 04 00 00 00	 mov	 eax, 4
  000d3	6b c8 18	 imul	 ecx, eax, 24
  000d6	8b 55 08	 mov	 edx, DWORD PTR _player$[ebp]
  000d9	c7 44 0a 38 00
	00 00 00	 mov	 DWORD PTR [edx+ecx+56], 0

; 2542 : 
; 2543 : 	player->powers[pw_fireflower] = false;

  000e1	b8 04 00 00 00	 mov	 eax, 4
  000e6	6b c8 11	 imul	 ecx, eax, 17
  000e9	8b 55 08	 mov	 edx, DWORD PTR _player$[ebp]
  000ec	c7 44 0a 38 00
	00 00 00	 mov	 DWORD PTR [edx+ecx+56], 0

; 2544 : 	player->mo->flags |= MF_TRANSLATION;

  000f4	8b 45 08	 mov	 eax, DWORD PTR _player$[ebp]
  000f7	8b 08		 mov	 ecx, DWORD PTR [eax]
  000f9	8b 51 60	 mov	 edx, DWORD PTR [ecx+96]
  000fc	81 ca 00 00 00
	04		 or	 edx, 67108864		; 04000000H
  00102	8b 45 08	 mov	 eax, DWORD PTR _player$[ebp]
  00105	8b 08		 mov	 ecx, DWORD PTR [eax]
  00107	89 51 60	 mov	 DWORD PTR [ecx+96], edx

; 2545 : 	player->mo->color = (UINT8)player->skincolor;

  0010a	8b 45 08	 mov	 eax, DWORD PTR _player$[ebp]
  0010d	8b 08		 mov	 ecx, DWORD PTR [eax]
  0010f	8b 55 08	 mov	 edx, DWORD PTR _player$[ebp]
  00112	8a 82 b4 00 00
	00		 mov	 al, BYTE PTR [edx+180]
  00118	88 41 68	 mov	 BYTE PTR [ecx+104], al

; 2546 : 
; 2547 : 	if (player->powers[pw_underwater] != 1) // Don't jump up when drowning

  0011b	b8 04 00 00 00	 mov	 eax, 4
  00120	6b c8 06	 imul	 ecx, eax, 6
  00123	8b 55 08	 mov	 edx, DWORD PTR _player$[ebp]
  00126	83 7c 0a 38 01	 cmp	 DWORD PTR [edx+ecx+56], 1
  0012b	74 17		 je	 SHORT $LN4@P_KillPlay

; 2548 : 		P_SetObjectMomZ(player->mo, 18*FRACUNIT, false);

  0012d	6a 00		 push	 0
  0012f	68 00 00 12 00	 push	 1179648			; 00120000H
  00134	8b 45 08	 mov	 eax, DWORD PTR _player$[ebp]
  00137	8b 08		 mov	 ecx, DWORD PTR [eax]
  00139	51		 push	 ecx
  0013a	e8 00 00 00 00	 call	 _P_SetObjectMomZ
  0013f	83 c4 0c	 add	 esp, 12			; 0000000cH
  00142	eb 12		 jmp	 SHORT $LN5@P_KillPlay
$LN4@P_KillPlay:

; 2549 : 	else
; 2550 : 		P_SetObjectMomZ(player->mo, 1, true);

  00144	6a 01		 push	 1
  00146	6a 01		 push	 1
  00148	8b 45 08	 mov	 eax, DWORD PTR _player$[ebp]
  0014b	8b 08		 mov	 ecx, DWORD PTR [eax]
  0014d	51		 push	 ecx
  0014e	e8 00 00 00 00	 call	 _P_SetObjectMomZ
  00153	83 c4 0c	 add	 esp, 12			; 0000000cH
$LN5@P_KillPlay:

; 2551 : 
; 2552 : 	P_ForceFeed(player, 40, 10, TICRATE, 40 + min(damage, 100)*2);

  00156	83 7d 10 64	 cmp	 DWORD PTR _damage$[ebp], 100 ; 00000064H
  0015a	7d 08		 jge	 SHORT $LN23@P_KillPlay
  0015c	8b 45 10	 mov	 eax, DWORD PTR _damage$[ebp]
  0015f	89 45 bc	 mov	 DWORD PTR tv155[ebp], eax
  00162	eb 07		 jmp	 SHORT $LN24@P_KillPlay
$LN23@P_KillPlay:
  00164	c7 45 bc 64 00
	00 00		 mov	 DWORD PTR tv155[ebp], 100 ; 00000064H
$LN24@P_KillPlay:
  0016b	8b 4d bc	 mov	 ecx, DWORD PTR tv155[ebp]
  0016e	8d 54 09 28	 lea	 edx, DWORD PTR [ecx+ecx+40]
  00172	52		 push	 edx
  00173	6a 23		 push	 35			; 00000023H
  00175	6a 0a		 push	 10			; 0000000aH
  00177	6a 28		 push	 40			; 00000028H
  00179	8b 45 08	 mov	 eax, DWORD PTR _player$[ebp]
  0017c	50		 push	 eax
  0017d	e8 00 00 00 00	 call	 _P_ForceFeed
  00182	83 c4 14	 add	 esp, 20			; 00000014H

; 2553 : 
; 2554 : 	P_ResetPlayer(player);

  00185	8b 45 08	 mov	 eax, DWORD PTR _player$[ebp]
  00188	50		 push	 eax
  00189	e8 00 00 00 00	 call	 _P_ResetPlayer
  0018e	83 c4 04	 add	 esp, 4

; 2555 : 
; 2556 : 	if (source && source->type == MT_DISS && source->threshold == 42) // drowned

  00191	83 7d 0c 00	 cmp	 DWORD PTR _source$[ebp], 0
  00195	74 2a		 je	 SHORT $LN6@P_KillPlay
  00197	8b 45 0c	 mov	 eax, DWORD PTR _source$[ebp]
  0019a	81 78 7c 05 01
	00 00		 cmp	 DWORD PTR [eax+124], 261 ; 00000105H
  001a1	75 1e		 jne	 SHORT $LN6@P_KillPlay
  001a3	8b 45 0c	 mov	 eax, DWORD PTR _source$[ebp]
  001a6	83 b8 a0 00 00
	00 2a		 cmp	 DWORD PTR [eax+160], 42	; 0000002aH
  001ad	75 12		 jne	 SHORT $LN6@P_KillPlay

; 2557 : 		S_StartSound(player->mo, sfx_drown);

  001af	6a 3b		 push	 59			; 0000003bH
  001b1	8b 45 08	 mov	 eax, DWORD PTR _player$[ebp]
  001b4	8b 08		 mov	 ecx, DWORD PTR [eax]
  001b6	51		 push	 ecx
  001b7	e8 00 00 00 00	 call	 _S_StartSound
  001bc	83 c4 08	 add	 esp, 8
  001bf	eb 53		 jmp	 SHORT $LN9@P_KillPlay
$LN6@P_KillPlay:

; 2558 : 	else if (source && (source->type == MT_DISS || source->type == MT_FLOORSPIKE || source->type == MT_CEILINGSPIKE) && source->threshold == 43) // Spikes

  001c1	83 7d 0c 00	 cmp	 DWORD PTR _source$[ebp], 0
  001c5	74 3f		 je	 SHORT $LN8@P_KillPlay
  001c7	8b 45 0c	 mov	 eax, DWORD PTR _source$[ebp]
  001ca	81 78 7c 05 01
	00 00		 cmp	 DWORD PTR [eax+124], 261 ; 00000105H
  001d1	74 12		 je	 SHORT $LN10@P_KillPlay
  001d3	8b 45 0c	 mov	 eax, DWORD PTR _source$[ebp]
  001d6	83 78 7c 49	 cmp	 DWORD PTR [eax+124], 73	; 00000049H
  001da	74 09		 je	 SHORT $LN10@P_KillPlay
  001dc	8b 45 0c	 mov	 eax, DWORD PTR _source$[ebp]
  001df	83 78 7c 48	 cmp	 DWORD PTR [eax+124], 72	; 00000048H
  001e3	75 21		 jne	 SHORT $LN8@P_KillPlay
$LN10@P_KillPlay:
  001e5	8b 45 0c	 mov	 eax, DWORD PTR _source$[ebp]
  001e8	83 b8 a0 00 00
	00 2b		 cmp	 DWORD PTR [eax+160], 43	; 0000002bH
  001ef	75 15		 jne	 SHORT $LN8@P_KillPlay

; 2559 : 		S_StartSound(player->mo, sfx_spkdth);

  001f1	68 d4 00 00 00	 push	 212			; 000000d4H
  001f6	8b 45 08	 mov	 eax, DWORD PTR _player$[ebp]
  001f9	8b 08		 mov	 ecx, DWORD PTR [eax]
  001fb	51		 push	 ecx
  001fc	e8 00 00 00 00	 call	 _S_StartSound
  00201	83 c4 08	 add	 esp, 8
  00204	eb 0e		 jmp	 SHORT $LN9@P_KillPlay
$LN8@P_KillPlay:

; 2560 : 	else
; 2561 : 		P_PlayDeathSound(player->mo);

  00206	8b 45 08	 mov	 eax, DWORD PTR _player$[ebp]
  00209	8b 08		 mov	 ecx, DWORD PTR [eax]
  0020b	51		 push	 ecx
  0020c	e8 00 00 00 00	 call	 _P_PlayDeathSound
  00211	83 c4 04	 add	 esp, 4
$LN9@P_KillPlay:

; 2562 : 
; 2563 : 	P_SetPlayerMobjState(player->mo, player->mo->info->deathstate);

  00214	8b 45 08	 mov	 eax, DWORD PTR _player$[ebp]
  00217	8b 08		 mov	 ecx, DWORD PTR [eax]
  00219	8b 91 80 00 00
	00		 mov	 edx, DWORD PTR [ecx+128]
  0021f	8b 42 30	 mov	 eax, DWORD PTR [edx+48]
  00222	50		 push	 eax
  00223	8b 4d 08	 mov	 ecx, DWORD PTR _player$[ebp]
  00226	8b 11		 mov	 edx, DWORD PTR [ecx]
  00228	52		 push	 edx
  00229	e8 00 00 00 00	 call	 _P_SetPlayerMobjState
  0022e	83 c4 08	 add	 esp, 8

; 2564 : 	if (gametype == GT_CTF && (player->gotflag & MF_REDFLAG || player->gotflag & MF_BLUEFLAG))

  00231	0f bf 05 00 00
	00 00		 movsx	 eax, WORD PTR _gametype
  00238	83 f8 04	 cmp	 eax, 4
  0023b	0f 85 8d 00 00
	00		 jne	 $LN14@P_KillPlay
  00241	8b 45 08	 mov	 eax, DWORD PTR _player$[ebp]
  00244	0f b7 88 64 01
	00 00		 movzx	 ecx, WORD PTR [eax+356]
  0024b	83 e1 01	 and	 ecx, 1
  0024e	75 0f		 jne	 SHORT $LN12@P_KillPlay
  00250	8b 45 08	 mov	 eax, DWORD PTR _player$[ebp]
  00253	0f b7 88 64 01
	00 00		 movzx	 ecx, WORD PTR [eax+356]
  0025a	83 e1 02	 and	 ecx, 2
  0025d	74 6f		 je	 SHORT $LN14@P_KillPlay
$LN12@P_KillPlay:

; 2565 : 	{
; 2566 : 		P_PlayerFlagBurst(player, false);

  0025f	6a 00		 push	 0
  00261	8b 45 08	 mov	 eax, DWORD PTR _player$[ebp]
  00264	50		 push	 eax
  00265	e8 00 00 00 00	 call	 _P_PlayerFlagBurst
  0026a	83 c4 08	 add	 esp, 8

; 2567 : 		if (source && source->player)

  0026d	83 7d 0c 00	 cmp	 DWORD PTR _source$[ebp], 0
  00271	74 5b		 je	 SHORT $LN14@P_KillPlay
  00273	8b 45 0c	 mov	 eax, DWORD PTR _source$[ebp]
  00276	83 b8 a4 00 00
	00 00		 cmp	 DWORD PTR [eax+164], 0
  0027d	74 4f		 je	 SHORT $LN14@P_KillPlay

; 2568 : 		{
; 2569 : 			// Award no points when players shoot each other when cv_friendlyfire is on.
; 2570 : 			if (!((gametype == GT_CTF || (gametype == GT_MATCH && cv_matchtype.value))

  0027f	0f bf 05 00 00
	00 00		 movsx	 eax, WORD PTR _gametype
  00286	83 f8 04	 cmp	 eax, 4
  00289	74 15		 je	 SHORT $LN16@P_KillPlay
  0028b	0f bf 05 00 00
	00 00		 movsx	 eax, WORD PTR _gametype
  00292	83 f8 01	 cmp	 eax, 1
  00295	75 23		 jne	 SHORT $LN15@P_KillPlay
  00297	83 3d 14 00 00
	00 00		 cmp	 DWORD PTR _cv_matchtype+20, 0
  0029e	74 1a		 je	 SHORT $LN15@P_KillPlay
$LN16@P_KillPlay:
  002a0	8b 45 0c	 mov	 eax, DWORD PTR _source$[ebp]
  002a3	8b 88 a4 00 00
	00		 mov	 ecx, DWORD PTR [eax+164]
  002a9	8b 55 08	 mov	 edx, DWORD PTR _player$[ebp]
  002ac	8b 81 60 01 00
	00		 mov	 eax, DWORD PTR [ecx+352]
  002b2	3b 82 60 01 00
	00		 cmp	 eax, DWORD PTR [edx+352]
  002b8	74 14		 je	 SHORT $LN14@P_KillPlay
$LN15@P_KillPlay:

; 2571 : 				&& (source->player->ctfteam == player->ctfteam)))
; 2572 : 				P_AddPlayerScore(source->player, 25);

  002ba	6a 19		 push	 25			; 00000019H
  002bc	8b 45 0c	 mov	 eax, DWORD PTR _source$[ebp]
  002bf	8b 88 a4 00 00
	00		 mov	 ecx, DWORD PTR [eax+164]
  002c5	51		 push	 ecx
  002c6	e8 00 00 00 00	 call	 _P_AddPlayerScore
  002cb	83 c4 08	 add	 esp, 8
$LN14@P_KillPlay:

; 2573 : 		}
; 2574 : 	}
; 2575 : 	if (source && source->player && !player->powers[pw_super]) //don't score points against super players

  002ce	83 7d 0c 00	 cmp	 DWORD PTR _source$[ebp], 0
  002d2	74 6d		 je	 SHORT $LN18@P_KillPlay
  002d4	8b 45 0c	 mov	 eax, DWORD PTR _source$[ebp]
  002d7	83 b8 a4 00 00
	00 00		 cmp	 DWORD PTR [eax+164], 0
  002de	74 61		 je	 SHORT $LN18@P_KillPlay
  002e0	b8 04 00 00 00	 mov	 eax, 4
  002e5	6b c8 0f	 imul	 ecx, eax, 15
  002e8	8b 55 08	 mov	 edx, DWORD PTR _player$[ebp]
  002eb	83 7c 0a 38 00	 cmp	 DWORD PTR [edx+ecx+56], 0
  002f0	75 4f		 jne	 SHORT $LN18@P_KillPlay

; 2576 : 	{
; 2577 : 		// Award no points when players shoot each other when cv_friendlyfire is on.
; 2578 : 		if (!((gametype == GT_CTF || (gametype == GT_MATCH && cv_matchtype.value))

  002f2	0f bf 05 00 00
	00 00		 movsx	 eax, WORD PTR _gametype
  002f9	83 f8 04	 cmp	 eax, 4
  002fc	74 15		 je	 SHORT $LN20@P_KillPlay
  002fe	0f bf 05 00 00
	00 00		 movsx	 eax, WORD PTR _gametype
  00305	83 f8 01	 cmp	 eax, 1
  00308	75 23		 jne	 SHORT $LN19@P_KillPlay
  0030a	83 3d 14 00 00
	00 00		 cmp	 DWORD PTR _cv_matchtype+20, 0
  00311	74 1a		 je	 SHORT $LN19@P_KillPlay
$LN20@P_KillPlay:
  00313	8b 45 0c	 mov	 eax, DWORD PTR _source$[ebp]
  00316	8b 88 a4 00 00
	00		 mov	 ecx, DWORD PTR [eax+164]
  0031c	8b 55 08	 mov	 edx, DWORD PTR _player$[ebp]
  0031f	8b 81 60 01 00
	00		 mov	 eax, DWORD PTR [ecx+352]
  00325	3b 82 60 01 00
	00		 cmp	 eax, DWORD PTR [edx+352]
  0032b	74 14		 je	 SHORT $LN18@P_KillPlay
$LN19@P_KillPlay:

; 2579 : 			&& (source->player->ctfteam == player->ctfteam)))
; 2580 : 			P_AddPlayerScore(source->player, 100);

  0032d	6a 64		 push	 100			; 00000064H
  0032f	8b 45 0c	 mov	 eax, DWORD PTR _source$[ebp]
  00332	8b 88 a4 00 00
	00		 mov	 ecx, DWORD PTR [eax+164]
  00338	51		 push	 ecx
  00339	e8 00 00 00 00	 call	 _P_AddPlayerScore
  0033e	83 c4 08	 add	 esp, 8
$LN18@P_KillPlay:

; 2581 : 	}
; 2582 : 
; 2583 : 	// If the player was super, tell them he/she ain't so super nomore.
; 2584 : 	if (gametype != GT_COOP && player->powers[pw_super])

  00341	0f bf 05 00 00
	00 00		 movsx	 eax, WORD PTR _gametype
  00348	85 c0		 test	 eax, eax
  0034a	0f 84 8c 00 00
	00		 je	 $LN21@P_KillPlay
  00350	b8 04 00 00 00	 mov	 eax, 4
  00355	6b c8 0f	 imul	 ecx, eax, 15
  00358	8b 55 08	 mov	 edx, DWORD PTR _player$[ebp]
  0035b	83 7c 0a 38 00	 cmp	 DWORD PTR [edx+ecx+56], 0
  00360	74 7a		 je	 SHORT $LN21@P_KillPlay

; 2585 : 	{
; 2586 : 		S_StartSound(NULL, sfx_s3k_52); //let all players hear it.

  00362	68 a6 00 00 00	 push	 166			; 000000a6H
  00367	6a 00		 push	 0
  00369	e8 00 00 00 00	 call	 _S_StartSound
  0036e	83 c4 08	 add	 esp, 8

; 2587 : 		HU_SetCEchoFlags(0);

  00371	6a 00		 push	 0
  00373	e8 00 00 00 00	 call	 _HU_SetCEchoFlags
  00378	83 c4 04	 add	 esp, 4

; 2588 : 		HU_SetCEchoDuration(5);

  0037b	6a 05		 push	 5
  0037d	e8 00 00 00 00	 call	 _HU_SetCEchoDuration
  00382	83 c4 04	 add	 esp, 4

; 2589 : 		HU_DoCEcho(va("%s\\is no longer super.\\\\\\\\", player_names[player-players]));

  00385	8b 45 08	 mov	 eax, DWORD PTR _player$[ebp]
  00388	2d 00 00 00 00	 sub	 eax, OFFSET _players
  0038d	99		 cdq
  0038e	b9 fc 01 00 00	 mov	 ecx, 508		; 000001fcH
  00393	f7 f9		 idiv	 ecx
  00395	6b d0 16	 imul	 edx, eax, 22
  00398	81 c2 00 00 00
	00		 add	 edx, OFFSET _player_names
  0039e	52		 push	 edx
  0039f	68 00 00 00 00	 push	 OFFSET ??_C@_0BL@NFFMIKMN@?$CFs?2is?5no?5longer?5super?4?2?2?2?2@
  003a4	e8 00 00 00 00	 call	 _va
  003a9	83 c4 08	 add	 esp, 8
  003ac	50		 push	 eax
  003ad	e8 00 00 00 00	 call	 _HU_DoCEcho
  003b2	83 c4 04	 add	 esp, 4

; 2590 : 		I_OutputMsg("%s is no longer super.\n", player_names[player-players]);

  003b5	8b 45 08	 mov	 eax, DWORD PTR _player$[ebp]
  003b8	2d 00 00 00 00	 sub	 eax, OFFSET _players
  003bd	99		 cdq
  003be	b9 fc 01 00 00	 mov	 ecx, 508		; 000001fcH
  003c3	f7 f9		 idiv	 ecx
  003c5	6b d0 16	 imul	 edx, eax, 22
  003c8	81 c2 00 00 00
	00		 add	 edx, OFFSET _player_names
  003ce	52		 push	 edx
  003cf	68 00 00 00 00	 push	 OFFSET ??_C@_0BI@JKFKFBCG@?$CFs?5is?5no?5longer?5super?4?6@
  003d4	e8 00 00 00 00	 call	 _I_OutputMsg
  003d9	83 c4 08	 add	 esp, 8
$LN21@P_KillPlay:

; 2591 : 	}
; 2592 : }

  003dc	5f		 pop	 edi
  003dd	5e		 pop	 esi
  003de	5b		 pop	 ebx
  003df	8b e5		 mov	 esp, ebp
  003e1	5d		 pop	 ebp
  003e2	c3		 ret	 0
_P_KillPlayer ENDP
_TEXT	ENDS
; Function compile flags: /Odtp /ZI
; File C:\Users\RafaTheFox\Downloads\SRB2-Public-master\src\p_inter.c
;	COMDAT _P_PlayerHitsPlayer
_TEXT	SEGMENT
_player$ = -4						; size = 4
_target$ = 8						; size = 4
_inflictor$ = 12					; size = 4
_source$ = 16						; size = 4
_damage$ = 20						; size = 4
_P_PlayerHitsPlayer PROC				; COMDAT

; 2486 : {

  00000	55		 push	 ebp
  00001	8b ec		 mov	 ebp, esp
  00003	83 ec 44	 sub	 esp, 68			; 00000044H
  00006	53		 push	 ebx
  00007	56		 push	 esi
  00008	57		 push	 edi

; 2487 : 	player_t *player = target->player;

  00009	8b 45 08	 mov	 eax, DWORD PTR _target$[ebp]
  0000c	8b 88 a4 00 00
	00		 mov	 ecx, DWORD PTR [eax+164]
  00012	89 4d fc	 mov	 DWORD PTR _player$[ebp], ecx

; 2488 : 
; 2489 : 	if (source == target) // You can't kill yourself, idiot...

  00015	8b 45 10	 mov	 eax, DWORD PTR _source$[ebp]
  00018	3b 45 08	 cmp	 eax, DWORD PTR _target$[ebp]
  0001b	75 07		 jne	 SHORT $LN2@P_PlayerHi

; 2490 : 		return false;

  0001d	33 c0		 xor	 eax, eax
  0001f	e9 1f 01 00 00	 jmp	 $LN1@P_PlayerHi
$LN2@P_PlayerHi:

; 2491 : 
; 2492 : 	// In COOP/RACE/CHAOS, you can't hurt other players unless cv_friendlyfire is on
; 2493 : 	if (!cv_friendlyfire.value && (gametype == GT_COOP ||

  00024	83 3d 14 00 00
	00 00		 cmp	 DWORD PTR _cv_friendlyfire+20, 0
  0002b	75 1e		 jne	 SHORT $LN3@P_PlayerHi
  0002d	0f bf 05 00 00
	00 00		 movsx	 eax, WORD PTR _gametype
  00034	85 c0		 test	 eax, eax
  00036	74 0c		 je	 SHORT $LN4@P_PlayerHi
  00038	0f bf 05 00 00
	00 00		 movsx	 eax, WORD PTR _gametype
  0003f	83 f8 02	 cmp	 eax, 2
  00042	75 07		 jne	 SHORT $LN3@P_PlayerHi
$LN4@P_PlayerHi:

; 2494 : 		gametype == GT_RACE
; 2495 : #ifdef CHAOSISNOTDEADYET
; 2496 : 		|| gametype == GT_CHAOS
; 2497 : #endif
; 2498 : 		))
; 2499 : 		return false;

  00044	33 c0		 xor	 eax, eax
  00046	e9 f8 00 00 00	 jmp	 $LN1@P_PlayerHi
$LN3@P_PlayerHi:

; 2500 : 
; 2501 : 	// Tag handling
; 2502 : 	if (gametype == GT_TAG)

  0004b	0f bf 05 00 00
	00 00		 movsx	 eax, WORD PTR _gametype
  00052	83 f8 03	 cmp	 eax, 3
  00055	75 1f		 jne	 SHORT $LN5@P_PlayerHi

; 2503 : 		return P_TagDamage(target, inflictor, source, damage);

  00057	8b 45 14	 mov	 eax, DWORD PTR _damage$[ebp]
  0005a	50		 push	 eax
  0005b	8b 4d 10	 mov	 ecx, DWORD PTR _source$[ebp]
  0005e	51		 push	 ecx
  0005f	8b 55 0c	 mov	 edx, DWORD PTR _inflictor$[ebp]
  00062	52		 push	 edx
  00063	8b 45 08	 mov	 eax, DWORD PTR _target$[ebp]
  00066	50		 push	 eax
  00067	e8 00 00 00 00	 call	 _P_TagDamage
  0006c	83 c4 10	 add	 esp, 16			; 00000010H
  0006f	e9 cf 00 00 00	 jmp	 $LN1@P_PlayerHi
  00074	eb 72		 jmp	 SHORT $LN9@P_PlayerHi
$LN5@P_PlayerHi:

; 2504 : 	else if (gametype == GT_CTF || (gametype == GT_MATCH && cv_matchtype.value)) // CTF + Team Match

  00076	0f bf 05 00 00
	00 00		 movsx	 eax, WORD PTR _gametype
  0007d	83 f8 04	 cmp	 eax, 4
  00080	74 15		 je	 SHORT $LN8@P_PlayerHi
  00082	0f bf 05 00 00
	00 00		 movsx	 eax, WORD PTR _gametype
  00089	83 f8 01	 cmp	 eax, 1
  0008c	75 5a		 jne	 SHORT $LN9@P_PlayerHi
  0008e	83 3d 14 00 00
	00 00		 cmp	 DWORD PTR _cv_matchtype+20, 0
  00095	74 51		 je	 SHORT $LN9@P_PlayerHi
$LN8@P_PlayerHi:

; 2505 : 	{
; 2506 : 		// Don't allow players on the same team to hurt one another,
; 2507 : 		// unless cv_friendlyfire is on.
; 2508 : 		if (!cv_friendlyfire.value && target->player->ctfteam == source->player->ctfteam)

  00097	83 3d 14 00 00
	00 00		 cmp	 DWORD PTR _cv_friendlyfire+20, 0
  0009e	75 48		 jne	 SHORT $LN9@P_PlayerHi
  000a0	8b 45 08	 mov	 eax, DWORD PTR _target$[ebp]
  000a3	8b 88 a4 00 00
	00		 mov	 ecx, DWORD PTR [eax+164]
  000a9	8b 55 10	 mov	 edx, DWORD PTR _source$[ebp]
  000ac	8b 82 a4 00 00
	00		 mov	 eax, DWORD PTR [edx+164]
  000b2	8b 89 60 01 00
	00		 mov	 ecx, DWORD PTR [ecx+352]
  000b8	3b 88 60 01 00
	00		 cmp	 ecx, DWORD PTR [eax+352]
  000be	75 28		 jne	 SHORT $LN9@P_PlayerHi

; 2509 : 		{
; 2510 : 			if (!(inflictor->flags & MF_FIRE))

  000c0	8b 45 0c	 mov	 eax, DWORD PTR _inflictor$[ebp]
  000c3	8b 48 60	 mov	 ecx, DWORD PTR [eax+96]
  000c6	81 e1 00 00 40
	00		 and	 ecx, 4194304		; 00400000H
  000cc	75 16		 jne	 SHORT $LN10@P_PlayerHi

; 2511 : 				P_GivePlayerRings(target->player, 1, false);

  000ce	6a 00		 push	 0
  000d0	6a 01		 push	 1
  000d2	8b 45 08	 mov	 eax, DWORD PTR _target$[ebp]
  000d5	8b 88 a4 00 00
	00		 mov	 ecx, DWORD PTR [eax+164]
  000db	51		 push	 ecx
  000dc	e8 00 00 00 00	 call	 _P_GivePlayerRings
  000e1	83 c4 0c	 add	 esp, 12			; 0000000cH
$LN10@P_PlayerHi:

; 2512 : 
; 2513 : 			return false;

  000e4	33 c0		 xor	 eax, eax
  000e6	eb 5b		 jmp	 SHORT $LN1@P_PlayerHi
$LN9@P_PlayerHi:

; 2514 : 		}
; 2515 : 	}
; 2516 : 
; 2517 : 	if ((player->health-damage) > 0 && !(player->powers[pw_flashing] || player->powers[pw_invulnerability] || player->powers[pw_super]))

  000e8	8b 45 fc	 mov	 eax, DWORD PTR _player$[ebp]
  000eb	8b 48 28	 mov	 ecx, DWORD PTR [eax+40]
  000ee	2b 4d 14	 sub	 ecx, DWORD PTR _damage$[ebp]
  000f1	85 c9		 test	 ecx, ecx
  000f3	7e 49		 jle	 SHORT $LN11@P_PlayerHi
  000f5	b8 04 00 00 00	 mov	 eax, 4
  000fa	d1 e0		 shl	 eax, 1
  000fc	8b 4d fc	 mov	 ecx, DWORD PTR _player$[ebp]
  000ff	83 7c 01 38 00	 cmp	 DWORD PTR [ecx+eax+56], 0
  00104	75 38		 jne	 SHORT $LN11@P_PlayerHi
  00106	b8 04 00 00 00	 mov	 eax, 4
  0010b	6b c8 00	 imul	 ecx, eax, 0
  0010e	8b 55 fc	 mov	 edx, DWORD PTR _player$[ebp]
  00111	83 7c 0a 38 00	 cmp	 DWORD PTR [edx+ecx+56], 0
  00116	75 26		 jne	 SHORT $LN11@P_PlayerHi
  00118	b8 04 00 00 00	 mov	 eax, 4
  0011d	6b c8 0f	 imul	 ecx, eax, 15
  00120	8b 55 fc	 mov	 edx, DWORD PTR _player$[ebp]
  00123	83 7c 0a 38 00	 cmp	 DWORD PTR [edx+ecx+56], 0
  00128	75 14		 jne	 SHORT $LN11@P_PlayerHi

; 2518 : 		P_HitMessages(target, inflictor, source);

  0012a	8b 45 10	 mov	 eax, DWORD PTR _source$[ebp]
  0012d	50		 push	 eax
  0012e	8b 4d 0c	 mov	 ecx, DWORD PTR _inflictor$[ebp]
  00131	51		 push	 ecx
  00132	8b 55 08	 mov	 edx, DWORD PTR _target$[ebp]
  00135	52		 push	 edx
  00136	e8 00 00 00 00	 call	 _P_HitMessages
  0013b	83 c4 0c	 add	 esp, 12			; 0000000cH
$LN11@P_PlayerHi:

; 2519 : 
; 2520 : 	return true;

  0013e	b8 01 00 00 00	 mov	 eax, 1
$LN1@P_PlayerHi:

; 2521 : }

  00143	5f		 pop	 edi
  00144	5e		 pop	 esi
  00145	5b		 pop	 ebx
  00146	8b e5		 mov	 esp, ebp
  00148	5d		 pop	 ebp
  00149	c3		 ret	 0
_P_PlayerHitsPlayer ENDP
_TEXT	ENDS
; Function compile flags: /Odtp /ZI
; File C:\Users\RafaTheFox\Downloads\SRB2-Public-master\src\p_inter.c
;	COMDAT _P_TagDamage
_TEXT	SEGMENT
_player$ = -4						; size = 4
_target$ = 8						; size = 4
_inflictor$ = 12					; size = 4
_source$ = 16						; size = 4
_damage$ = 20						; size = 4
_P_TagDamage PROC					; COMDAT

; 2397 : {

  00000	55		 push	 ebp
  00001	8b ec		 mov	 ebp, esp
  00003	83 ec 44	 sub	 esp, 68			; 00000044H
  00006	53		 push	 ebx
  00007	56		 push	 esi
  00008	57		 push	 edi

; 2398 : 	player_t *player = target->player;

  00009	8b 45 08	 mov	 eax, DWORD PTR _target$[ebp]
  0000c	8b 88 a4 00 00
	00		 mov	 ecx, DWORD PTR [eax+164]
  00012	89 4d fc	 mov	 DWORD PTR _player$[ebp], ecx

; 2399 : 	(void)damage; //unused parm
; 2400 : 
; 2401 : 	// If flashing or invulnerable, ignore the tag,
; 2402 : 	if (player->powers[pw_flashing] || player->powers[pw_invulnerability])

  00015	b8 04 00 00 00	 mov	 eax, 4
  0001a	d1 e0		 shl	 eax, 1
  0001c	8b 4d fc	 mov	 ecx, DWORD PTR _player$[ebp]
  0001f	83 7c 01 38 00	 cmp	 DWORD PTR [ecx+eax+56], 0
  00024	75 12		 jne	 SHORT $LN3@P_TagDamag
  00026	b8 04 00 00 00	 mov	 eax, 4
  0002b	6b c8 00	 imul	 ecx, eax, 0
  0002e	8b 55 fc	 mov	 edx, DWORD PTR _player$[ebp]
  00031	83 7c 0a 38 00	 cmp	 DWORD PTR [edx+ecx+56], 0
  00036	74 07		 je	 SHORT $LN2@P_TagDamag
$LN3@P_TagDamag:

; 2403 : 		return false;

  00038	33 c0		 xor	 eax, eax
  0003a	e9 5b 04 00 00	 jmp	 $LN1@P_TagDamag
$LN2@P_TagDamag:

; 2404 : 
; 2405 : 	// Ignore IT players shooting each other, unless friendlyfire is on.
; 2406 : 	if ((player->pflags & PF_TAGIT && !(cv_friendlyfire.value &&

  0003f	8b 45 fc	 mov	 eax, DWORD PTR _player$[ebp]
  00042	8b 88 ac 00 00
	00		 mov	 ecx, DWORD PTR [eax+172]
  00048	81 e1 00 00 00
	10		 and	 ecx, 268435456		; 10000000H
  0004e	74 39		 je	 SHORT $LN4@P_TagDamag
  00050	83 3d 14 00 00
	00 00		 cmp	 DWORD PTR _cv_friendlyfire+20, 0
  00057	74 29		 je	 SHORT $LN5@P_TagDamag
  00059	83 7d 10 00	 cmp	 DWORD PTR _source$[ebp], 0
  0005d	74 23		 je	 SHORT $LN5@P_TagDamag
  0005f	8b 45 10	 mov	 eax, DWORD PTR _source$[ebp]
  00062	83 b8 a4 00 00
	00 00		 cmp	 DWORD PTR [eax+164], 0
  00069	74 17		 je	 SHORT $LN5@P_TagDamag
  0006b	8b 45 10	 mov	 eax, DWORD PTR _source$[ebp]
  0006e	8b 88 a4 00 00
	00		 mov	 ecx, DWORD PTR [eax+164]
  00074	8b 91 ac 00 00
	00		 mov	 edx, DWORD PTR [ecx+172]
  0007a	81 e2 00 00 00
	10		 and	 edx, 268435456		; 10000000H
  00080	75 07		 jne	 SHORT $LN4@P_TagDamag
$LN5@P_TagDamag:

; 2407 : 		source && source->player && source->player->pflags & PF_TAGIT)))
; 2408 : 		return false;

  00082	33 c0		 xor	 eax, eax
  00084	e9 11 04 00 00	 jmp	 $LN1@P_TagDamag
$LN4@P_TagDamag:

; 2409 : 
; 2410 : 	// Don't allow any damage before the round starts.
; 2411 : 	if (leveltime <= hidetime * TICRATE)

  00089	6b 05 00 00 00
	00 23		 imul	 eax, DWORD PTR _hidetime, 35
  00090	39 05 00 00 00
	00		 cmp	 DWORD PTR _leveltime, eax
  00096	77 07		 ja	 SHORT $LN6@P_TagDamag

; 2412 : 		return false;

  00098	33 c0		 xor	 eax, eax
  0009a	e9 fb 03 00 00	 jmp	 $LN1@P_TagDamag
$LN6@P_TagDamag:

; 2413 : 
; 2414 : 	// Don't allow players on the same team to hurt one another,
; 2415 : 	// unless cv_friendlyfire is on.
; 2416 : 	if (!cv_friendlyfire.value && (target->player->pflags & PF_TAGIT) == (source->player->pflags & PF_TAGIT))

  0009f	83 3d 14 00 00
	00 00		 cmp	 DWORD PTR _cv_friendlyfire+20, 0
  000a6	75 58		 jne	 SHORT $LN7@P_TagDamag
  000a8	8b 45 08	 mov	 eax, DWORD PTR _target$[ebp]
  000ab	8b 88 a4 00 00
	00		 mov	 ecx, DWORD PTR [eax+164]
  000b1	8b 91 ac 00 00
	00		 mov	 edx, DWORD PTR [ecx+172]
  000b7	81 e2 00 00 00
	10		 and	 edx, 268435456		; 10000000H
  000bd	8b 45 10	 mov	 eax, DWORD PTR _source$[ebp]
  000c0	8b 88 a4 00 00
	00		 mov	 ecx, DWORD PTR [eax+164]
  000c6	8b 81 ac 00 00
	00		 mov	 eax, DWORD PTR [ecx+172]
  000cc	25 00 00 00 10	 and	 eax, 268435456		; 10000000H
  000d1	3b d0		 cmp	 edx, eax
  000d3	75 2b		 jne	 SHORT $LN7@P_TagDamag

; 2417 : 	{
; 2418 : 		if (!(inflictor->flags & MF_FIRE))

  000d5	8b 45 0c	 mov	 eax, DWORD PTR _inflictor$[ebp]
  000d8	8b 48 60	 mov	 ecx, DWORD PTR [eax+96]
  000db	81 e1 00 00 40
	00		 and	 ecx, 4194304		; 00400000H
  000e1	75 16		 jne	 SHORT $LN8@P_TagDamag

; 2419 : 			P_GivePlayerRings(target->player, 1, false);

  000e3	6a 00		 push	 0
  000e5	6a 01		 push	 1
  000e7	8b 45 08	 mov	 eax, DWORD PTR _target$[ebp]
  000ea	8b 88 a4 00 00
	00		 mov	 ecx, DWORD PTR [eax+164]
  000f0	51		 push	 ecx
  000f1	e8 00 00 00 00	 call	 _P_GivePlayerRings
  000f6	83 c4 0c	 add	 esp, 12			; 0000000cH
$LN8@P_TagDamag:

; 2420 : 
; 2421 : 		return false;

  000f9	33 c0		 xor	 eax, eax
  000fb	e9 9a 03 00 00	 jmp	 $LN1@P_TagDamag
$LN7@P_TagDamag:

; 2422 : 	}
; 2423 : 
; 2424 : 	// The tag occurs so long as you aren't shooting another tagger with friendlyfire on.
; 2425 : 	if (source->player->pflags & PF_TAGIT && !(target->player->pflags & PF_TAGIT))

  00100	8b 45 10	 mov	 eax, DWORD PTR _source$[ebp]
  00103	8b 88 a4 00 00
	00		 mov	 ecx, DWORD PTR [eax+164]
  00109	8b 91 ac 00 00
	00		 mov	 edx, DWORD PTR [ecx+172]
  0010f	81 e2 00 00 00
	10		 and	 edx, 268435456		; 10000000H
  00115	0f 84 f6 00 00
	00		 je	 $LN9@P_TagDamag
  0011b	8b 45 08	 mov	 eax, DWORD PTR _target$[ebp]
  0011e	8b 88 a4 00 00
	00		 mov	 ecx, DWORD PTR [eax+164]
  00124	8b 91 ac 00 00
	00		 mov	 edx, DWORD PTR [ecx+172]
  0012a	81 e2 00 00 00
	10		 and	 edx, 268435456		; 10000000H
  00130	0f 85 db 00 00
	00		 jne	 $LN9@P_TagDamag

; 2426 : 	{
; 2427 : 		P_AddPlayerScore(source->player, 100); //award points to tagger.

  00136	6a 64		 push	 100			; 00000064H
  00138	8b 45 10	 mov	 eax, DWORD PTR _source$[ebp]
  0013b	8b 88 a4 00 00
	00		 mov	 ecx, DWORD PTR [eax+164]
  00141	51		 push	 ecx
  00142	e8 00 00 00 00	 call	 _P_AddPlayerScore
  00147	83 c4 08	 add	 esp, 8

; 2428 : 		P_HitMessages(target, inflictor, source);

  0014a	8b 45 10	 mov	 eax, DWORD PTR _source$[ebp]
  0014d	50		 push	 eax
  0014e	8b 4d 0c	 mov	 ecx, DWORD PTR _inflictor$[ebp]
  00151	51		 push	 ecx
  00152	8b 55 08	 mov	 edx, DWORD PTR _target$[ebp]
  00155	52		 push	 edx
  00156	e8 00 00 00 00	 call	 _P_HitMessages
  0015b	83 c4 0c	 add	 esp, 12			; 0000000cH

; 2429 : 
; 2430 : 		if (cv_tagtype.value == 0) //survivor

  0015e	83 3d 14 00 00
	00 00		 cmp	 DWORD PTR _cv_tagtype+20, 0
  00165	75 53		 jne	 SHORT $LN10@P_TagDamag

; 2431 : 		{
; 2432 : 			target->player->pflags |= PF_TAGIT; //in survivor, the player becomes IT and helps hunt down the survivors.

  00167	8b 45 08	 mov	 eax, DWORD PTR _target$[ebp]
  0016a	8b 88 a4 00 00
	00		 mov	 ecx, DWORD PTR [eax+164]
  00170	8b 91 ac 00 00
	00		 mov	 edx, DWORD PTR [ecx+172]
  00176	81 ca 00 00 00
	10		 or	 edx, 268435456		; 10000000H
  0017c	8b 45 08	 mov	 eax, DWORD PTR _target$[ebp]
  0017f	8b 88 a4 00 00
	00		 mov	 ecx, DWORD PTR [eax+164]
  00185	89 91 ac 00 00
	00		 mov	 DWORD PTR [ecx+172], edx

; 2433 : 			CONS_Printf("%s is it!\n", player_names[target->player-players]); // Tell everyone who is it!

  0018b	8b 45 08	 mov	 eax, DWORD PTR _target$[ebp]
  0018e	8b 80 a4 00 00
	00		 mov	 eax, DWORD PTR [eax+164]
  00194	2d 00 00 00 00	 sub	 eax, OFFSET _players
  00199	99		 cdq
  0019a	b9 fc 01 00 00	 mov	 ecx, 508		; 000001fcH
  0019f	f7 f9		 idiv	 ecx
  001a1	6b d0 16	 imul	 edx, eax, 22
  001a4	81 c2 00 00 00
	00		 add	 edx, OFFSET _player_names
  001aa	52		 push	 edx
  001ab	68 00 00 00 00	 push	 OFFSET ??_C@_0L@FKKLEDAE@?$CFs?5is?5it?$CB?6@
  001b0	e8 00 00 00 00	 call	 _CONS_Printf
  001b5	83 c4 08	 add	 esp, 8

; 2434 : 		}

  001b8	eb 51		 jmp	 SHORT $LN11@P_TagDamag
$LN10@P_TagDamag:

; 2435 : 		else
; 2436 : 		{
; 2437 : 			target->player->pflags |= PF_TAGGED; //in hide and seek, the player is tagged and stays stationary.

  001ba	8b 45 08	 mov	 eax, DWORD PTR _target$[ebp]
  001bd	8b 88 a4 00 00
	00		 mov	 ecx, DWORD PTR [eax+164]
  001c3	8b 91 ac 00 00
	00		 mov	 edx, DWORD PTR [ecx+172]
  001c9	81 ca 00 00 00
	04		 or	 edx, 67108864		; 04000000H
  001cf	8b 45 08	 mov	 eax, DWORD PTR _target$[ebp]
  001d2	8b 88 a4 00 00
	00		 mov	 ecx, DWORD PTR [eax+164]
  001d8	89 91 ac 00 00
	00		 mov	 DWORD PTR [ecx+172], edx

; 2438 : 			CONS_Printf("%s was found!\n", player_names[target->player-players]); // Tell everyone who is it!

  001de	8b 45 08	 mov	 eax, DWORD PTR _target$[ebp]
  001e1	8b 80 a4 00 00
	00		 mov	 eax, DWORD PTR [eax+164]
  001e7	2d 00 00 00 00	 sub	 eax, OFFSET _players
  001ec	99		 cdq
  001ed	b9 fc 01 00 00	 mov	 ecx, 508		; 000001fcH
  001f2	f7 f9		 idiv	 ecx
  001f4	6b d0 16	 imul	 edx, eax, 22
  001f7	81 c2 00 00 00
	00		 add	 edx, OFFSET _player_names
  001fd	52		 push	 edx
  001fe	68 00 00 00 00	 push	 OFFSET ??_C@_0P@IJKKFILK@?$CFs?5was?5found?$CB?6@
  00203	e8 00 00 00 00	 call	 _CONS_Printf
  00208	83 c4 08	 add	 esp, 8
$LN11@P_TagDamag:

; 2439 : 		}
; 2440 : 
; 2441 : 		//checks if tagger has tagged all players, if so, end round early.
; 2442 : 		P_CheckSurvivors();

  0020b	e8 00 00 00 00	 call	 _P_CheckSurvivors
  00210	90		 npad	 1
$LN9@P_TagDamag:

; 2443 : 	}
; 2444 : 
; 2445 : 	P_DoPlayerPain(player, source, inflictor);

  00211	8b 45 0c	 mov	 eax, DWORD PTR _inflictor$[ebp]
  00214	50		 push	 eax
  00215	8b 4d 10	 mov	 ecx, DWORD PTR _source$[ebp]
  00218	51		 push	 ecx
  00219	8b 55 fc	 mov	 edx, DWORD PTR _player$[ebp]
  0021c	52		 push	 edx
  0021d	e8 00 00 00 00	 call	 _P_DoPlayerPain
  00222	83 c4 0c	 add	 esp, 12			; 0000000cH

; 2446 : 
; 2447 : 	// Check for a shield
; 2448 : 	if (target->player->powers[pw_forceshield] || target->player->powers[pw_jumpshield] || target->player->powers[pw_ringshield] || target->player->powers[pw_bombshield] || target->player->powers[pw_watershield])

  00225	8b 45 08	 mov	 eax, DWORD PTR _target$[ebp]
  00228	8b 88 a4 00 00
	00		 mov	 ecx, DWORD PTR [eax+164]
  0022e	ba 04 00 00 00	 mov	 edx, 4
  00233	c1 e2 02	 shl	 edx, 2
  00236	83 7c 11 38 00	 cmp	 DWORD PTR [ecx+edx+56], 0
  0023b	75 64		 jne	 SHORT $LN13@P_TagDamag
  0023d	8b 45 08	 mov	 eax, DWORD PTR _target$[ebp]
  00240	8b 88 a4 00 00
	00		 mov	 ecx, DWORD PTR [eax+164]
  00246	ba 04 00 00 00	 mov	 edx, 4
  0024b	6b c2 03	 imul	 eax, edx, 3
  0024e	83 7c 01 38 00	 cmp	 DWORD PTR [ecx+eax+56], 0
  00253	75 4c		 jne	 SHORT $LN13@P_TagDamag
  00255	8b 45 08	 mov	 eax, DWORD PTR _target$[ebp]
  00258	8b 88 a4 00 00
	00		 mov	 ecx, DWORD PTR [eax+164]
  0025e	ba 04 00 00 00	 mov	 edx, 4
  00263	6b c2 09	 imul	 eax, edx, 9
  00266	83 7c 01 38 00	 cmp	 DWORD PTR [ecx+eax+56], 0
  0026b	75 34		 jne	 SHORT $LN13@P_TagDamag
  0026d	8b 45 08	 mov	 eax, DWORD PTR _target$[ebp]
  00270	8b 88 a4 00 00
	00		 mov	 ecx, DWORD PTR [eax+164]
  00276	ba 04 00 00 00	 mov	 edx, 4
  0027b	6b c2 0a	 imul	 eax, edx, 10
  0027e	83 7c 01 38 00	 cmp	 DWORD PTR [ecx+eax+56], 0
  00283	75 1c		 jne	 SHORT $LN13@P_TagDamag
  00285	8b 45 08	 mov	 eax, DWORD PTR _target$[ebp]
  00288	8b 88 a4 00 00
	00		 mov	 ecx, DWORD PTR [eax+164]
  0028e	ba 04 00 00 00	 mov	 edx, 4
  00293	6b c2 0b	 imul	 eax, edx, 11
  00296	83 7c 01 38 00	 cmp	 DWORD PTR [ecx+eax+56], 0
  0029b	0f 84 c4 00 00
	00		 je	 $LN12@P_TagDamag
$LN13@P_TagDamag:

; 2449 : 	{
; 2450 : 		if (target->player->powers[pw_forceshield] > 0) // Multi-hit

  002a1	8b 45 08	 mov	 eax, DWORD PTR _target$[ebp]
  002a4	8b 88 a4 00 00
	00		 mov	 ecx, DWORD PTR [eax+164]
  002aa	ba 04 00 00 00	 mov	 edx, 4
  002af	c1 e2 02	 shl	 edx, 2
  002b2	83 7c 11 38 00	 cmp	 DWORD PTR [ecx+edx+56], 0
  002b7	7e 2d		 jle	 SHORT $LN14@P_TagDamag

; 2451 : 			target->player->powers[pw_forceshield]--;

  002b9	b8 04 00 00 00	 mov	 eax, 4
  002be	c1 e0 02	 shl	 eax, 2
  002c1	8b 4d 08	 mov	 ecx, DWORD PTR _target$[ebp]
  002c4	8b 91 a4 00 00
	00		 mov	 edx, DWORD PTR [ecx+164]
  002ca	8b 44 02 38	 mov	 eax, DWORD PTR [edx+eax+56]
  002ce	83 e8 01	 sub	 eax, 1
  002d1	b9 04 00 00 00	 mov	 ecx, 4
  002d6	c1 e1 02	 shl	 ecx, 2
  002d9	8b 55 08	 mov	 edx, DWORD PTR _target$[ebp]
  002dc	8b 92 a4 00 00
	00		 mov	 edx, DWORD PTR [edx+164]
  002e2	89 44 0a 38	 mov	 DWORD PTR [edx+ecx+56], eax
$LN14@P_TagDamag:

; 2452 : 
; 2453 : 		target->player->powers[pw_jumpshield] = false; // Get rid of shield

  002e6	8b 45 08	 mov	 eax, DWORD PTR _target$[ebp]
  002e9	8b 88 a4 00 00
	00		 mov	 ecx, DWORD PTR [eax+164]
  002ef	ba 04 00 00 00	 mov	 edx, 4
  002f4	6b c2 03	 imul	 eax, edx, 3
  002f7	c7 44 01 38 00
	00 00 00	 mov	 DWORD PTR [ecx+eax+56], 0

; 2454 : 		target->player->powers[pw_ringshield] = false;

  002ff	8b 45 08	 mov	 eax, DWORD PTR _target$[ebp]
  00302	8b 88 a4 00 00
	00		 mov	 ecx, DWORD PTR [eax+164]
  00308	ba 04 00 00 00	 mov	 edx, 4
  0030d	6b c2 09	 imul	 eax, edx, 9
  00310	c7 44 01 38 00
	00 00 00	 mov	 DWORD PTR [ecx+eax+56], 0

; 2455 : 		target->player->powers[pw_bombshield] = false;

  00318	8b 45 08	 mov	 eax, DWORD PTR _target$[ebp]
  0031b	8b 88 a4 00 00
	00		 mov	 ecx, DWORD PTR [eax+164]
  00321	ba 04 00 00 00	 mov	 edx, 4
  00326	6b c2 0a	 imul	 eax, edx, 10
  00329	c7 44 01 38 00
	00 00 00	 mov	 DWORD PTR [ecx+eax+56], 0

; 2456 : 		target->player->powers[pw_watershield] = false;

  00331	8b 45 08	 mov	 eax, DWORD PTR _target$[ebp]
  00334	8b 88 a4 00 00
	00		 mov	 ecx, DWORD PTR [eax+164]
  0033a	ba 04 00 00 00	 mov	 edx, 4
  0033f	6b c2 0b	 imul	 eax, edx, 11
  00342	c7 44 01 38 00
	00 00 00	 mov	 DWORD PTR [ecx+eax+56], 0

; 2457 : 		S_StartSound(target, sfx_shldls);

  0034a	68 d1 00 00 00	 push	 209			; 000000d1H
  0034f	8b 45 08	 mov	 eax, DWORD PTR _target$[ebp]
  00352	50		 push	 eax
  00353	e8 00 00 00 00	 call	 _S_StartSound
  00358	83 c4 08	 add	 esp, 8

; 2458 : 		return true;

  0035b	b8 01 00 00 00	 mov	 eax, 1
  00360	e9 35 01 00 00	 jmp	 $LN1@P_TagDamag
$LN12@P_TagDamag:

; 2459 : 	}
; 2460 : 
; 2461 : 	if (target->health <= 1) // Death

  00365	8b 45 08	 mov	 eax, DWORD PTR _target$[ebp]
  00368	83 b8 8c 00 00
	00 01		 cmp	 DWORD PTR [eax+140], 1
  0036f	7f 1a		 jg	 SHORT $LN15@P_TagDamag

; 2462 : 	{
; 2463 : 		P_PlayDeathSound(target);

  00371	8b 45 08	 mov	 eax, DWORD PTR _target$[ebp]
  00374	50		 push	 eax
  00375	e8 00 00 00 00	 call	 _P_PlayDeathSound
  0037a	83 c4 04	 add	 esp, 4

; 2464 : 		P_PlayVictorySound(source); // Killer laughs at you! LAUGHS! BWAHAHAHHAHAA!!

  0037d	8b 45 10	 mov	 eax, DWORD PTR _source$[ebp]
  00380	50		 push	 eax
  00381	e8 00 00 00 00	 call	 _P_PlayVictorySound
  00386	83 c4 04	 add	 esp, 4

; 2465 : 	}

  00389	eb 3f		 jmp	 SHORT $LN17@P_TagDamag
$LN15@P_TagDamag:

; 2466 : 	else if (target->health > 1) // Ring loss

  0038b	8b 45 08	 mov	 eax, DWORD PTR _target$[ebp]
  0038e	83 b8 8c 00 00
	00 01		 cmp	 DWORD PTR [eax+140], 1
  00395	7e 33		 jle	 SHORT $LN17@P_TagDamag

; 2467 : 	{
; 2468 : 		P_PlayRinglossSound(target);

  00397	8b 45 08	 mov	 eax, DWORD PTR _target$[ebp]
  0039a	50		 push	 eax
  0039b	e8 00 00 00 00	 call	 _P_PlayRinglossSound
  003a0	83 c4 04	 add	 esp, 4

; 2469 : 		P_PlayerRingBurst(target->player, target->player->mo->health - 1);

  003a3	8b 45 08	 mov	 eax, DWORD PTR _target$[ebp]
  003a6	8b 88 a4 00 00
	00		 mov	 ecx, DWORD PTR [eax+164]
  003ac	8b 11		 mov	 edx, DWORD PTR [ecx]
  003ae	8b 82 8c 00 00
	00		 mov	 eax, DWORD PTR [edx+140]
  003b4	83 e8 01	 sub	 eax, 1
  003b7	50		 push	 eax
  003b8	8b 4d 08	 mov	 ecx, DWORD PTR _target$[ebp]
  003bb	8b 91 a4 00 00
	00		 mov	 edx, DWORD PTR [ecx+164]
  003c1	52		 push	 edx
  003c2	e8 00 00 00 00	 call	 _P_PlayerRingBurst
  003c7	83 c4 08	 add	 esp, 8
$LN17@P_TagDamag:

; 2470 : 	}
; 2471 : 
; 2472 : 	if (inflictor && ((inflictor->flags & MF_MISSILE) || inflictor->player) && target->player->powers[pw_super] && ALL7EMERALDS(target->player->powers[pw_emeralds]))

  003ca	83 7d 0c 00	 cmp	 DWORD PTR _inflictor$[ebp], 0
  003ce	0f 84 a4 00 00
	00		 je	 $LN18@P_TagDamag
  003d4	8b 45 0c	 mov	 eax, DWORD PTR _inflictor$[ebp]
  003d7	8b 48 60	 mov	 ecx, DWORD PTR [eax+96]
  003da	81 e1 00 00 01
	00		 and	 ecx, 65536		; 00010000H
  003e0	75 10		 jne	 SHORT $LN20@P_TagDamag
  003e2	8b 45 0c	 mov	 eax, DWORD PTR _inflictor$[ebp]
  003e5	83 b8 a4 00 00
	00 00		 cmp	 DWORD PTR [eax+164], 0
  003ec	0f 84 86 00 00
	00		 je	 $LN18@P_TagDamag
$LN20@P_TagDamag:
  003f2	8b 45 08	 mov	 eax, DWORD PTR _target$[ebp]
  003f5	8b 88 a4 00 00
	00		 mov	 ecx, DWORD PTR [eax+164]
  003fb	ba 04 00 00 00	 mov	 edx, 4
  00400	6b c2 0f	 imul	 eax, edx, 15
  00403	83 7c 01 38 00	 cmp	 DWORD PTR [ecx+eax+56], 0
  00408	74 6e		 je	 SHORT $LN18@P_TagDamag
  0040a	8b 45 08	 mov	 eax, DWORD PTR _target$[ebp]
  0040d	8b 88 a4 00 00
	00		 mov	 ecx, DWORD PTR [eax+164]
  00413	ba 04 00 00 00	 mov	 edx, 4
  00418	6b c2 18	 imul	 eax, edx, 24
  0041b	8b 4c 01 38	 mov	 ecx, DWORD PTR [ecx+eax+56]
  0041f	83 e1 7f	 and	 ecx, 127		; 0000007fH
  00422	83 f9 7f	 cmp	 ecx, 127		; 0000007fH
  00425	75 51		 jne	 SHORT $LN18@P_TagDamag

; 2473 : 	{
; 2474 : 		target->player->health -= 10;

  00427	8b 45 08	 mov	 eax, DWORD PTR _target$[ebp]
  0042a	8b 88 a4 00 00
	00		 mov	 ecx, DWORD PTR [eax+164]
  00430	8b 51 28	 mov	 edx, DWORD PTR [ecx+40]
  00433	83 ea 0a	 sub	 edx, 10			; 0000000aH
  00436	8b 45 08	 mov	 eax, DWORD PTR _target$[ebp]
  00439	8b 88 a4 00 00
	00		 mov	 ecx, DWORD PTR [eax+164]
  0043f	89 51 28	 mov	 DWORD PTR [ecx+40], edx

; 2475 : 		if (target->player->health < 2)

  00442	8b 45 08	 mov	 eax, DWORD PTR _target$[ebp]
  00445	8b 88 a4 00 00
	00		 mov	 ecx, DWORD PTR [eax+164]
  0044b	83 79 28 02	 cmp	 DWORD PTR [ecx+40], 2
  0044f	7d 10		 jge	 SHORT $LN21@P_TagDamag

; 2476 : 			target->player->health = 2;

  00451	8b 45 08	 mov	 eax, DWORD PTR _target$[ebp]
  00454	8b 88 a4 00 00
	00		 mov	 ecx, DWORD PTR [eax+164]
  0045a	c7 41 28 02 00
	00 00		 mov	 DWORD PTR [ecx+40], 2
$LN21@P_TagDamag:

; 2477 : 		target->health = target->player->health;

  00461	8b 45 08	 mov	 eax, DWORD PTR _target$[ebp]
  00464	8b 88 a4 00 00
	00		 mov	 ecx, DWORD PTR [eax+164]
  0046a	8b 55 08	 mov	 edx, DWORD PTR _target$[ebp]
  0046d	8b 41 28	 mov	 eax, DWORD PTR [ecx+40]
  00470	89 82 8c 00 00
	00		 mov	 DWORD PTR [edx+140], eax

; 2478 : 	}

  00476	eb 1d		 jmp	 SHORT $LN19@P_TagDamag
$LN18@P_TagDamag:

; 2479 : 	else
; 2480 : 		target->player->health = target->health = 1;

  00478	8b 45 08	 mov	 eax, DWORD PTR _target$[ebp]
  0047b	c7 80 8c 00 00
	00 01 00 00 00	 mov	 DWORD PTR [eax+140], 1
  00485	8b 4d 08	 mov	 ecx, DWORD PTR _target$[ebp]
  00488	8b 91 a4 00 00
	00		 mov	 edx, DWORD PTR [ecx+164]
  0048e	c7 42 28 01 00
	00 00		 mov	 DWORD PTR [edx+40], 1
$LN19@P_TagDamag:

; 2481 : 
; 2482 : 	return true;

  00495	b8 01 00 00 00	 mov	 eax, 1
$LN1@P_TagDamag:

; 2483 : }

  0049a	5f		 pop	 edi
  0049b	5e		 pop	 esi
  0049c	5b		 pop	 ebx
  0049d	8b e5		 mov	 esp, ebp
  0049f	5d		 pop	 ebp
  004a0	c3		 ret	 0
_P_TagDamage ENDP
_TEXT	ENDS
; Function compile flags: /Odtp /ZI
; File C:\Users\RafaTheFox\Downloads\SRB2-Public-master\src\p_inter.c
;	COMDAT _P_NiGHTSDamage
_TEXT	SEGMENT
_fa$1 = -8						; size = 4
_player$ = -4						; size = 4
_target$ = 8						; size = 4
_source$ = 12						; size = 4
_P_NiGHTSDamage PROC					; COMDAT

; 2344 : {

  00000	55		 push	 ebp
  00001	8b ec		 mov	 ebp, esp
  00003	83 ec 48	 sub	 esp, 72			; 00000048H
  00006	53		 push	 ebx
  00007	56		 push	 esi
  00008	57		 push	 edi

; 2345 : 	player_t *player = target->player;

  00009	8b 45 08	 mov	 eax, DWORD PTR _target$[ebp]
  0000c	8b 88 a4 00 00
	00		 mov	 ecx, DWORD PTR [eax+164]
  00012	89 4d fc	 mov	 DWORD PTR _player$[ebp], ecx

; 2346 : 
; 2347 : 	if (!player->powers[pw_flashing]
; 2348 : 		&& !(player->pflags & PF_GODMODE))

  00015	b8 04 00 00 00	 mov	 eax, 4
  0001a	d1 e0		 shl	 eax, 1
  0001c	8b 4d fc	 mov	 ecx, DWORD PTR _player$[ebp]
  0001f	83 7c 01 38 00	 cmp	 DWORD PTR [ecx+eax+56], 0
  00024	0f 85 cc 01 00
	00		 jne	 $LN2@P_NiGHTSDa
  0002a	8b 45 fc	 mov	 eax, DWORD PTR _player$[ebp]
  0002d	8b 88 ac 00 00
	00		 mov	 ecx, DWORD PTR [eax+172]
  00033	83 e1 20	 and	 ecx, 32			; 00000020H
  00036	0f 85 ba 01 00
	00		 jne	 $LN2@P_NiGHTSDa

; 2349 : 	{
; 2350 : 		angle_t fa;
; 2351 : 
; 2352 : 		player->angle_pos = player->old_angle_pos;

  0003c	8b 45 fc	 mov	 eax, DWORD PTR _player$[ebp]
  0003f	8b 4d fc	 mov	 ecx, DWORD PTR _player$[ebp]
  00042	8b 91 a0 01 00
	00		 mov	 edx, DWORD PTR [ecx+416]
  00048	89 90 9c 01 00
	00		 mov	 DWORD PTR [eax+412], edx

; 2353 : 		player->speed /= 5;

  0004e	8b 45 fc	 mov	 eax, DWORD PTR _player$[ebp]
  00051	8b 80 0c 01 00
	00		 mov	 eax, DWORD PTR [eax+268]
  00057	99		 cdq
  00058	b9 05 00 00 00	 mov	 ecx, 5
  0005d	f7 f9		 idiv	 ecx
  0005f	8b 55 fc	 mov	 edx, DWORD PTR _player$[ebp]
  00062	89 82 0c 01 00
	00		 mov	 DWORD PTR [edx+268], eax

; 2354 : 		player->flyangle += 180; // Shuffle's BETTERNIGHTSMOVEMENT?

  00068	8b 45 fc	 mov	 eax, DWORD PTR _player$[ebp]
  0006b	8b 88 b0 01 00
	00		 mov	 ecx, DWORD PTR [eax+432]
  00071	81 c1 b4 00 00
	00		 add	 ecx, 180		; 000000b4H
  00077	8b 55 fc	 mov	 edx, DWORD PTR _player$[ebp]
  0007a	89 8a b0 01 00
	00		 mov	 DWORD PTR [edx+432], ecx

; 2355 : 		player->flyangle %= 360;

  00080	8b 45 fc	 mov	 eax, DWORD PTR _player$[ebp]
  00083	8b 80 b0 01 00
	00		 mov	 eax, DWORD PTR [eax+432]
  00089	99		 cdq
  0008a	b9 68 01 00 00	 mov	 ecx, 360		; 00000168H
  0008f	f7 f9		 idiv	 ecx
  00091	8b 45 fc	 mov	 eax, DWORD PTR _player$[ebp]
  00094	89 90 b0 01 00
	00		 mov	 DWORD PTR [eax+432], edx

; 2356 : 
; 2357 : 		if (gametype == GT_RACE)

  0009a	0f bf 05 00 00
	00 00		 movsx	 eax, WORD PTR _gametype
  000a1	83 f8 02	 cmp	 eax, 2
  000a4	75 17		 jne	 SHORT $LN3@P_NiGHTSDa

; 2358 : 			player->drillmeter -= 5*20;

  000a6	8b 45 fc	 mov	 eax, DWORD PTR _player$[ebp]
  000a9	8b 88 c8 01 00
	00		 mov	 ecx, DWORD PTR [eax+456]
  000af	83 e9 64	 sub	 ecx, 100		; 00000064H
  000b2	8b 55 fc	 mov	 edx, DWORD PTR _player$[ebp]
  000b5	89 8a c8 01 00
	00		 mov	 DWORD PTR [edx+456], ecx
  000bb	eb 74		 jmp	 SHORT $LN10@P_NiGHTSDa
$LN3@P_NiGHTSDa:

; 2359 : 		else
; 2360 : 		{
; 2361 : 			if (source && source->player)

  000bd	83 7d 0c 00	 cmp	 DWORD PTR _source$[ebp], 0
  000c1	74 3e		 je	 SHORT $LN5@P_NiGHTSDa
  000c3	8b 45 0c	 mov	 eax, DWORD PTR _source$[ebp]
  000c6	83 b8 a4 00 00
	00 00		 cmp	 DWORD PTR [eax+164], 0
  000cd	74 32		 je	 SHORT $LN5@P_NiGHTSDa

; 2362 : 			{
; 2363 : 				if (player->nightstime > 20)

  000cf	8b 45 fc	 mov	 eax, DWORD PTR _player$[ebp]
  000d2	83 b8 c4 01 00
	00 14		 cmp	 DWORD PTR [eax+452], 20	; 00000014H
  000d9	76 17		 jbe	 SHORT $LN7@P_NiGHTSDa

; 2364 : 					player->nightstime -= 20;

  000db	8b 45 fc	 mov	 eax, DWORD PTR _player$[ebp]
  000de	8b 88 c4 01 00
	00		 mov	 ecx, DWORD PTR [eax+452]
  000e4	83 e9 14	 sub	 ecx, 20			; 00000014H
  000e7	8b 55 fc	 mov	 edx, DWORD PTR _player$[ebp]
  000ea	89 8a c4 01 00
	00		 mov	 DWORD PTR [edx+452], ecx
  000f0	eb 0d		 jmp	 SHORT $LN8@P_NiGHTSDa
$LN7@P_NiGHTSDa:

; 2365 : 				else
; 2366 : 					player->nightstime = 1;

  000f2	8b 45 fc	 mov	 eax, DWORD PTR _player$[ebp]
  000f5	c7 80 c4 01 00
	00 01 00 00 00	 mov	 DWORD PTR [eax+452], 1
$LN8@P_NiGHTSDa:

; 2367 : 			}

  000ff	eb 30		 jmp	 SHORT $LN10@P_NiGHTSDa
$LN5@P_NiGHTSDa:

; 2368 : 			else
; 2369 : 			{
; 2370 : 				if (player->nightstime > 5)

  00101	8b 45 fc	 mov	 eax, DWORD PTR _player$[ebp]
  00104	83 b8 c4 01 00
	00 05		 cmp	 DWORD PTR [eax+452], 5
  0010b	76 17		 jbe	 SHORT $LN9@P_NiGHTSDa

; 2371 : 					player->nightstime -= 5;

  0010d	8b 45 fc	 mov	 eax, DWORD PTR _player$[ebp]
  00110	8b 88 c4 01 00
	00		 mov	 ecx, DWORD PTR [eax+452]
  00116	83 e9 05	 sub	 ecx, 5
  00119	8b 55 fc	 mov	 edx, DWORD PTR _player$[ebp]
  0011c	89 8a c4 01 00
	00		 mov	 DWORD PTR [edx+452], ecx
  00122	eb 0d		 jmp	 SHORT $LN10@P_NiGHTSDa
$LN9@P_NiGHTSDa:

; 2372 : 				else
; 2373 : 					player->nightstime = 1;

  00124	8b 45 fc	 mov	 eax, DWORD PTR _player$[ebp]
  00127	c7 80 c4 01 00
	00 01 00 00 00	 mov	 DWORD PTR [eax+452], 1
$LN10@P_NiGHTSDa:

; 2374 : 			}
; 2375 : 		}
; 2376 : 
; 2377 : 		if (player->pflags & PF_TRANSFERTOCLOSEST)

  00131	8b 45 fc	 mov	 eax, DWORD PTR _player$[ebp]
  00134	8b 88 ac 00 00
	00		 mov	 ecx, DWORD PTR [eax+172]
  0013a	81 e1 00 00 40
	00		 and	 ecx, 4194304		; 00400000H
  00140	74 1e		 je	 SHORT $LN11@P_NiGHTSDa

; 2378 : 		{
; 2379 : 			target->momx = -target->momx;

  00142	8b 45 08	 mov	 eax, DWORD PTR _target$[ebp]
  00145	8b 48 48	 mov	 ecx, DWORD PTR [eax+72]
  00148	f7 d9		 neg	 ecx
  0014a	8b 55 08	 mov	 edx, DWORD PTR _target$[ebp]
  0014d	89 4a 48	 mov	 DWORD PTR [edx+72], ecx

; 2380 : 			target->momy = -target->momy;

  00150	8b 45 08	 mov	 eax, DWORD PTR _target$[ebp]
  00153	8b 48 4c	 mov	 ecx, DWORD PTR [eax+76]
  00156	f7 d9		 neg	 ecx
  00158	8b 55 08	 mov	 edx, DWORD PTR _target$[ebp]
  0015b	89 4a 4c	 mov	 DWORD PTR [edx+76], ecx

; 2381 : 		}

  0015e	eb 5d		 jmp	 SHORT $LN12@P_NiGHTSDa
$LN11@P_NiGHTSDa:

; 2382 : 		else
; 2383 : 		{
; 2384 : 			fa = player->old_angle_pos>>ANGLETOFINESHIFT;

  00160	8b 45 fc	 mov	 eax, DWORD PTR _player$[ebp]
  00163	8b 88 a0 01 00
	00		 mov	 ecx, DWORD PTR [eax+416]
  00169	c1 e9 13	 shr	 ecx, 19			; 00000013H
  0016c	89 4d f8	 mov	 DWORD PTR _fa$1[ebp], ecx

; 2385 : 
; 2386 : 			target->momx = FixedMul(FINECOSINE(fa),target->target->radius);

  0016f	8b 45 08	 mov	 eax, DWORD PTR _target$[ebp]
  00172	8b 88 98 00 00
	00		 mov	 ecx, DWORD PTR [eax+152]
  00178	8b 51 40	 mov	 edx, DWORD PTR [ecx+64]
  0017b	52		 push	 edx
  0017c	8b 45 f8	 mov	 eax, DWORD PTR _fa$1[ebp]
  0017f	8b 0d 00 00 00
	00		 mov	 ecx, DWORD PTR _finecosine
  00185	8b 14 81	 mov	 edx, DWORD PTR [ecx+eax*4]
  00188	52		 push	 edx
  00189	e8 00 00 00 00	 call	 _FixedMul
  0018e	83 c4 08	 add	 esp, 8
  00191	8b 4d 08	 mov	 ecx, DWORD PTR _target$[ebp]
  00194	89 41 48	 mov	 DWORD PTR [ecx+72], eax

; 2387 : 			target->momy = FixedMul(FINESINE(fa),target->target->radius);

  00197	8b 45 08	 mov	 eax, DWORD PTR _target$[ebp]
  0019a	8b 88 98 00 00
	00		 mov	 ecx, DWORD PTR [eax+152]
  001a0	8b 51 40	 mov	 edx, DWORD PTR [ecx+64]
  001a3	52		 push	 edx
  001a4	8b 45 f8	 mov	 eax, DWORD PTR _fa$1[ebp]
  001a7	8b 0c 85 00 00
	00 00		 mov	 ecx, DWORD PTR _finesine[eax*4]
  001ae	51		 push	 ecx
  001af	e8 00 00 00 00	 call	 _FixedMul
  001b4	83 c4 08	 add	 esp, 8
  001b7	8b 55 08	 mov	 edx, DWORD PTR _target$[ebp]
  001ba	89 42 4c	 mov	 DWORD PTR [edx+76], eax
$LN12@P_NiGHTSDa:

; 2388 : 		}
; 2389 : 
; 2390 : 		player->powers[pw_flashing] = flashingtics;

  001bd	b8 04 00 00 00	 mov	 eax, 4
  001c2	d1 e0		 shl	 eax, 1
  001c4	8b 4d fc	 mov	 ecx, DWORD PTR _player$[ebp]
  001c7	8b 15 00 00 00
	00		 mov	 edx, DWORD PTR _flashingtics
  001cd	89 54 01 38	 mov	 DWORD PTR [ecx+eax+56], edx

; 2391 : 		P_SetMobjState(target->tracer, S_NIGHTSHURT1);

  001d1	68 db 05 00 00	 push	 1499			; 000005dbH
  001d6	8b 45 08	 mov	 eax, DWORD PTR _target$[ebp]
  001d9	8b 88 b0 00 00
	00		 mov	 ecx, DWORD PTR [eax+176]
  001df	51		 push	 ecx
  001e0	e8 00 00 00 00	 call	 _P_SetMobjState
  001e5	83 c4 08	 add	 esp, 8

; 2392 : 		S_StartSound(target, sfx_nghurt);

  001e8	6a 6e		 push	 110			; 0000006eH
  001ea	8b 45 08	 mov	 eax, DWORD PTR _target$[ebp]
  001ed	50		 push	 eax
  001ee	e8 00 00 00 00	 call	 _S_StartSound
  001f3	83 c4 08	 add	 esp, 8
$LN2@P_NiGHTSDa:

; 2393 : 	}
; 2394 : }

  001f6	5f		 pop	 edi
  001f7	5e		 pop	 esi
  001f8	5b		 pop	 ebx
  001f9	8b e5		 mov	 esp, ebp
  001fb	5d		 pop	 ebp
  001fc	c3		 ret	 0
_P_NiGHTSDamage ENDP
_TEXT	ENDS
; Function compile flags: /Odtp /ZI
; File C:\Users\RafaTheFox\Downloads\SRB2-Public-master\src\p_inter.c
;	COMDAT _P_HitMessages
_TEXT	SEGMENT
tv194 = -104						; size = 4
tv192 = -100						; size = 4
tv235 = -100						; size = 4
tv179 = -96						; size = 4
tv233 = -96						; size = 4
tv171 = -92						; size = 4
tv220 = -92						; size = 4
tv169 = -88						; size = 4
tv215 = -88						; size = 4
tv156 = -84						; size = 4
tv213 = -84						; size = 4
tv93 = -80						; size = 4
tv151 = -80						; size = 4
tv200 = -80						; size = 4
_reflected$ = -12					; size = 4
_useverb$ = -8						; size = 4
_str$ = -4						; size = 4
_target$ = 8						; size = 4
_inflictor$ = 12					; size = 4
_source$ = 16						; size = 4
_P_HitMessages PROC					; COMDAT

; 1717 : {

  00000	55		 push	 ebp
  00001	8b ec		 mov	 ebp, esp
  00003	83 ec 68	 sub	 esp, 104		; 00000068H
  00006	53		 push	 ebx
  00007	56		 push	 esi
  00008	57		 push	 edi

; 1718 : 	const char *str;
; 1719 : 	boolean useverb = true;

  00009	c7 45 f8 01 00
	00 00		 mov	 DWORD PTR _useverb$[ebp], 1

; 1720 : 	boolean reflected = false;

  00010	c7 45 f4 00 00
	00 00		 mov	 DWORD PTR _reflected$[ebp], 0

; 1721 : 
; 1722 : 	if (!target || !target->player)

  00017	83 7d 08 00	 cmp	 DWORD PTR _target$[ebp], 0
  0001b	74 0c		 je	 SHORT $LN5@P_HitMessa
  0001d	8b 45 08	 mov	 eax, DWORD PTR _target$[ebp]
  00020	83 b8 a4 00 00
	00 00		 cmp	 DWORD PTR [eax+164], 0
  00027	75 05		 jne	 SHORT $LN4@P_HitMessa
$LN5@P_HitMessa:

; 1723 : 		return;

  00029	e9 5b 04 00 00	 jmp	 $LN1@P_HitMessa
$LN4@P_HitMessa:

; 1724 : 
; 1725 : 	if (!source || !source->player)

  0002e	83 7d 10 00	 cmp	 DWORD PTR _source$[ebp], 0
  00032	74 0c		 je	 SHORT $LN7@P_HitMessa
  00034	8b 45 10	 mov	 eax, DWORD PTR _source$[ebp]
  00037	83 b8 a4 00 00
	00 00		 cmp	 DWORD PTR [eax+164], 0
  0003e	75 05		 jne	 SHORT $LN6@P_HitMessa
$LN7@P_HitMessa:

; 1726 : 		return;

  00040	e9 44 04 00 00	 jmp	 $LN1@P_HitMessa
$LN6@P_HitMessa:

; 1727 : 
; 1728 : 	if ((gametype == GT_CTF || (gametype == GT_MATCH && cv_matchtype.value)) &&

  00045	0f bf 05 00 00
	00 00		 movsx	 eax, WORD PTR _gametype
  0004c	83 f8 04	 cmp	 eax, 4
  0004f	74 15		 je	 SHORT $LN9@P_HitMessa
  00051	0f bf 05 00 00
	00 00		 movsx	 eax, WORD PTR _gametype
  00058	83 f8 01	 cmp	 eax, 1
  0005b	75 2e		 jne	 SHORT $LN8@P_HitMessa
  0005d	83 3d 14 00 00
	00 00		 cmp	 DWORD PTR _cv_matchtype+20, 0
  00064	74 25		 je	 SHORT $LN8@P_HitMessa
$LN9@P_HitMessa:
  00066	8b 45 10	 mov	 eax, DWORD PTR _source$[ebp]
  00069	8b 88 a4 00 00
	00		 mov	 ecx, DWORD PTR [eax+164]
  0006f	8b 55 08	 mov	 edx, DWORD PTR _target$[ebp]
  00072	8b 82 a4 00 00
	00		 mov	 eax, DWORD PTR [edx+164]
  00078	8b 89 60 01 00
	00		 mov	 ecx, DWORD PTR [ecx+352]
  0007e	3b 88 60 01 00
	00		 cmp	 ecx, DWORD PTR [eax+352]
  00084	75 05		 jne	 SHORT $LN8@P_HitMessa

; 1729 : 		source->player->ctfteam == target->player->ctfteam)
; 1730 : 		return;

  00086	e9 fe 03 00 00	 jmp	 $LN1@P_HitMessa
$LN8@P_HitMessa:

; 1731 : 
; 1732 : 	str = text[PHURT_HIT];

  0008b	b8 04 00 00 00	 mov	 eax, 4
  00090	69 c8 2a 01 00
	00		 imul	 ecx, eax, 298
  00096	8b 91 00 00 00
	00		 mov	 edx, DWORD PTR _text[ecx]
  0009c	89 55 fc	 mov	 DWORD PTR _str$[ebp], edx

; 1733 : 
; 1734 : 	if (inflictor && (inflictor->flags2 & MF2_REFLECTED))

  0009f	83 7d 0c 00	 cmp	 DWORD PTR _inflictor$[ebp], 0
  000a3	74 18		 je	 SHORT $LN10@P_HitMessa
  000a5	8b 45 0c	 mov	 eax, DWORD PTR _inflictor$[ebp]
  000a8	8b 88 88 00 00
	00		 mov	 ecx, DWORD PTR [eax+136]
  000ae	81 e1 00 00 00
	20		 and	 ecx, 536870912		; 20000000H
  000b4	74 07		 je	 SHORT $LN10@P_HitMessa

; 1735 : 		reflected = true;

  000b6	c7 45 f4 01 00
	00 00		 mov	 DWORD PTR _reflected$[ebp], 1
$LN10@P_HitMessa:

; 1736 : 
; 1737 : 	if (source->player->blackow == 3)

  000bd	8b 45 10	 mov	 eax, DWORD PTR _source$[ebp]
  000c0	8b 88 a4 00 00
	00		 mov	 ecx, DWORD PTR [eax+164]
  000c6	83 b9 34 01 00
	00 03		 cmp	 DWORD PTR [ecx+308], 3
  000cd	75 20		 jne	 SHORT $LN11@P_HitMessa

; 1738 : 	{
; 1739 : 		str = text[PHURT_GOTNUKED];

  000cf	b8 04 00 00 00	 mov	 eax, 4
  000d4	69 c8 10 01 00
	00		 imul	 ecx, eax, 272
  000da	8b 91 00 00 00
	00		 mov	 edx, DWORD PTR _text[ecx]
  000e0	89 55 fc	 mov	 DWORD PTR _str$[ebp], edx

; 1740 : 		useverb = false;

  000e3	c7 45 f8 00 00
	00 00		 mov	 DWORD PTR _useverb$[ebp], 0

; 1741 : 	}

  000ea	e9 06 01 00 00	 jmp	 $LN2@P_HitMessa
$LN11@P_HitMessa:

; 1742 : 	else if (inflictor)

  000ef	83 7d 0c 00	 cmp	 DWORD PTR _inflictor$[ebp], 0
  000f3	0f 84 fc 00 00
	00		 je	 $LN2@P_HitMessa

; 1743 : 	{
; 1744 : 		switch (inflictor->type)

  000f9	8b 45 0c	 mov	 eax, DWORD PTR _inflictor$[ebp]
  000fc	8b 48 7c	 mov	 ecx, DWORD PTR [eax+124]
  000ff	89 4d b0	 mov	 DWORD PTR tv93[ebp], ecx
  00102	8b 55 b0	 mov	 edx, DWORD PTR tv93[ebp]
  00105	83 ea 47	 sub	 edx, 71			; 00000047H
  00108	89 55 b0	 mov	 DWORD PTR tv93[ebp], edx
  0010b	81 7d b0 99 00
	00 00		 cmp	 DWORD PTR tv93[ebp], 153 ; 00000099H
  00112	0f 87 dd 00 00
	00		 ja	 $LN23@P_HitMessa
  00118	8b 45 b0	 mov	 eax, DWORD PTR tv93[ebp]
  0011b	0f b6 88 00 00
	00 00		 movzx	 ecx, BYTE PTR $LN53@P_HitMessa[eax]
  00122	ff 24 8d 00 00
	00 00		 jmp	 DWORD PTR $LN54@P_HitMessa[ecx*4]
$LN14@P_HitMessa:

; 1745 : 		{
; 1746 : 			case MT_SPINFIRE:
; 1747 : 				str = text[PHURT_GOTBURNED];

  00129	b8 04 00 00 00	 mov	 eax, 4
  0012e	69 c8 11 01 00
	00		 imul	 ecx, eax, 273
  00134	8b 91 00 00 00
	00		 mov	 edx, DWORD PTR _text[ecx]
  0013a	89 55 fc	 mov	 DWORD PTR _str$[ebp], edx

; 1748 : 				useverb = false;

  0013d	c7 45 f8 00 00
	00 00		 mov	 DWORD PTR _useverb$[ebp], 0

; 1749 : 				break;

  00144	e9 ac 00 00 00	 jmp	 $LN2@P_HitMessa
$LN15@P_HitMessa:

; 1750 : 			case MT_THROWNBOUNCE:
; 1751 : 				str = text[PHURT_B];

  00149	b8 04 00 00 00	 mov	 eax, 4
  0014e	69 c8 13 01 00
	00		 imul	 ecx, eax, 275
  00154	8b 91 00 00 00
	00		 mov	 edx, DWORD PTR _text[ecx]
  0015a	89 55 fc	 mov	 DWORD PTR _str$[ebp], edx

; 1752 : 				break;

  0015d	e9 93 00 00 00	 jmp	 $LN2@P_HitMessa
$LN16@P_HitMessa:

; 1753 : 			case MT_THROWNAUTOMATIC:
; 1754 : 				str = text[PHURT_A];

  00162	b8 04 00 00 00	 mov	 eax, 4
  00167	69 c8 14 01 00
	00		 imul	 ecx, eax, 276
  0016d	8b 91 00 00 00
	00		 mov	 edx, DWORD PTR _text[ecx]
  00173	89 55 fc	 mov	 DWORD PTR _str$[ebp], edx

; 1755 : 				break;

  00176	eb 7d		 jmp	 SHORT $LN2@P_HitMessa
$LN17@P_HitMessa:

; 1756 : 			case MT_THROWNSCATTER:
; 1757 : 				str = text[PHURT_S];

  00178	b8 04 00 00 00	 mov	 eax, 4
  0017d	69 c8 17 01 00
	00		 imul	 ecx, eax, 279
  00183	8b 91 00 00 00
	00		 mov	 edx, DWORD PTR _text[ecx]
  00189	89 55 fc	 mov	 DWORD PTR _str$[ebp], edx

; 1758 : 				break;

  0018c	eb 67		 jmp	 SHORT $LN2@P_HitMessa
$LN18@P_HitMessa:

; 1759 : 			case MT_THROWNEXPLOSION:
; 1760 : 				str = text[PHURT_E];

  0018e	b8 04 00 00 00	 mov	 eax, 4
  00193	69 c8 15 01 00
	00		 imul	 ecx, eax, 277
  00199	8b 91 00 00 00
	00		 mov	 edx, DWORD PTR _text[ecx]
  0019f	89 55 fc	 mov	 DWORD PTR _str$[ebp], edx

; 1761 : 				break;

  001a2	eb 51		 jmp	 SHORT $LN2@P_HitMessa
$LN19@P_HitMessa:

; 1762 : 			case MT_THROWNGRENADE:
; 1763 : 				str = text[PHURT_G];

  001a4	b8 04 00 00 00	 mov	 eax, 4
  001a9	69 c8 18 01 00
	00		 imul	 ecx, eax, 280
  001af	8b 91 00 00 00
	00		 mov	 edx, DWORD PTR _text[ecx]
  001b5	89 55 fc	 mov	 DWORD PTR _str$[ebp], edx

; 1764 : 				break;

  001b8	eb 3b		 jmp	 SHORT $LN2@P_HitMessa
$LN20@P_HitMessa:

; 1765 : 			case MT_REDRING:
; 1766 : 				if (inflictor->flags2 & MF2_RAILRING)

  001ba	8b 45 0c	 mov	 eax, DWORD PTR _inflictor$[ebp]
  001bd	8b 88 88 00 00
	00		 mov	 ecx, DWORD PTR [eax+136]
  001c3	81 e1 00 00 02
	00		 and	 ecx, 131072		; 00020000H
  001c9	74 16		 je	 SHORT $LN21@P_HitMessa

; 1767 : 					str = text[PHURT_R];

  001cb	b8 04 00 00 00	 mov	 eax, 4
  001d0	69 c8 16 01 00
	00		 imul	 ecx, eax, 278
  001d6	8b 91 00 00 00
	00		 mov	 edx, DWORD PTR _text[ecx]
  001dc	89 55 fc	 mov	 DWORD PTR _str$[ebp], edx
  001df	eb 14		 jmp	 SHORT $LN22@P_HitMessa
$LN21@P_HitMessa:

; 1768 : 				//else if (inflictor->flags2 & MF2_SCATTER)
; 1769 : 				//	str = text[PHURT_S];
; 1770 : 				else
; 1771 : 					str = text[PHURT_RING];

  001e1	b8 04 00 00 00	 mov	 eax, 4
  001e6	69 c8 19 01 00
	00		 imul	 ecx, eax, 281
  001ec	8b 91 00 00 00
	00		 mov	 edx, DWORD PTR _text[ecx]
  001f2	89 55 fc	 mov	 DWORD PTR _str$[ebp], edx
$LN22@P_HitMessa:
$LN23@P_HitMessa:
$LN2@P_HitMessa:

; 1772 : 				break;
; 1773 : 			default:
; 1774 : 				break;
; 1775 : 		}
; 1776 : 	}
; 1777 : 
; 1778 : 	if (useverb)

  001f5	83 7d f8 00	 cmp	 DWORD PTR _useverb$[ebp], 0
  001f9	0f 84 64 01 00
	00		 je	 $LN24@P_HitMessa

; 1779 : 		CONS_Printf(str, CTFTEAMCODE(target->player), player_names[target->player-players],

  001ff	83 7d f4 00	 cmp	 DWORD PTR _reflected$[ebp], 0
  00203	74 16		 je	 SHORT $LN27@P_HitMessa
  00205	b8 04 00 00 00	 mov	 eax, 4
  0020a	69 c8 0f 01 00
	00		 imul	 ecx, eax, 271
  00210	8b 91 00 00 00
	00		 mov	 edx, DWORD PTR _text[ecx]
  00216	89 55 b0	 mov	 DWORD PTR tv151[ebp], edx
  00219	eb 07		 jmp	 SHORT $LN28@P_HitMessa
$LN27@P_HitMessa:
  0021b	c7 45 b0 00 00
	00 00		 mov	 DWORD PTR tv151[ebp], OFFSET ??_C@_00CNPNBAHC@@
$LN28@P_HitMessa:
  00222	8b 45 10	 mov	 eax, DWORD PTR _source$[ebp]
  00225	8b 88 a4 00 00
	00		 mov	 ecx, DWORD PTR [eax+164]
  0022b	83 b9 60 01 00
	00 00		 cmp	 DWORD PTR [ecx+352], 0
  00232	74 09		 je	 SHORT $LN29@P_HitMessa
  00234	c7 45 ac 00 00
	00 00		 mov	 DWORD PTR tv156[ebp], OFFSET ??_C@_01IFKFHFEL@?$IA@
  0023b	eb 07		 jmp	 SHORT $LN30@P_HitMessa
$LN29@P_HitMessa:
  0023d	c7 45 ac 00 00
	00 00		 mov	 DWORD PTR tv156[ebp], OFFSET ??_C@_00CNPNBAHC@@
$LN30@P_HitMessa:
  00244	8b 55 10	 mov	 edx, DWORD PTR _source$[ebp]
  00247	8b 82 a4 00 00
	00		 mov	 eax, DWORD PTR [edx+164]
  0024d	83 b8 60 01 00
	00 00		 cmp	 DWORD PTR [eax+352], 0
  00254	74 2a		 je	 SHORT $LN33@P_HitMessa
  00256	8b 4d 10	 mov	 ecx, DWORD PTR _source$[ebp]
  00259	8b 91 a4 00 00
	00		 mov	 edx, DWORD PTR [ecx+164]
  0025f	83 ba 60 01 00
	00 01		 cmp	 DWORD PTR [edx+352], 1
  00266	75 09		 jne	 SHORT $LN31@P_HitMessa
  00268	c7 45 a8 00 00
	00 00		 mov	 DWORD PTR tv169[ebp], OFFSET ??_C@_01PINCIBAO@?$IF@
  0026f	eb 07		 jmp	 SHORT $LN32@P_HitMessa
$LN31@P_HitMessa:
  00271	c7 45 a8 00 00
	00 00		 mov	 DWORD PTR tv169[ebp], OFFSET ??_C@_01OBMJLAEP@?$IE@
$LN32@P_HitMessa:
  00278	8b 45 a8	 mov	 eax, DWORD PTR tv169[ebp]
  0027b	89 45 a4	 mov	 DWORD PTR tv171[ebp], eax
  0027e	eb 07		 jmp	 SHORT $LN34@P_HitMessa
$LN33@P_HitMessa:
  00280	c7 45 a4 00 00
	00 00		 mov	 DWORD PTR tv171[ebp], OFFSET ??_C@_00CNPNBAHC@@
$LN34@P_HitMessa:
  00287	8b 4d 08	 mov	 ecx, DWORD PTR _target$[ebp]
  0028a	8b 91 a4 00 00
	00		 mov	 edx, DWORD PTR [ecx+164]
  00290	83 ba 60 01 00
	00 00		 cmp	 DWORD PTR [edx+352], 0
  00297	74 09		 je	 SHORT $LN35@P_HitMessa
  00299	c7 45 a0 00 00
	00 00		 mov	 DWORD PTR tv179[ebp], OFFSET ??_C@_01IFKFHFEL@?$IA@
  002a0	eb 07		 jmp	 SHORT $LN36@P_HitMessa
$LN35@P_HitMessa:
  002a2	c7 45 a0 00 00
	00 00		 mov	 DWORD PTR tv179[ebp], OFFSET ??_C@_00CNPNBAHC@@
$LN36@P_HitMessa:
  002a9	8b 45 08	 mov	 eax, DWORD PTR _target$[ebp]
  002ac	8b 88 a4 00 00
	00		 mov	 ecx, DWORD PTR [eax+164]
  002b2	83 b9 60 01 00
	00 00		 cmp	 DWORD PTR [ecx+352], 0
  002b9	74 2a		 je	 SHORT $LN39@P_HitMessa
  002bb	8b 55 08	 mov	 edx, DWORD PTR _target$[ebp]
  002be	8b 82 a4 00 00
	00		 mov	 eax, DWORD PTR [edx+164]
  002c4	83 b8 60 01 00
	00 01		 cmp	 DWORD PTR [eax+352], 1
  002cb	75 09		 jne	 SHORT $LN37@P_HitMessa
  002cd	c7 45 9c 00 00
	00 00		 mov	 DWORD PTR tv192[ebp], OFFSET ??_C@_01PINCIBAO@?$IF@
  002d4	eb 07		 jmp	 SHORT $LN38@P_HitMessa
$LN37@P_HitMessa:
  002d6	c7 45 9c 00 00
	00 00		 mov	 DWORD PTR tv192[ebp], OFFSET ??_C@_01OBMJLAEP@?$IE@
$LN38@P_HitMessa:
  002dd	8b 4d 9c	 mov	 ecx, DWORD PTR tv192[ebp]
  002e0	89 4d 98	 mov	 DWORD PTR tv194[ebp], ecx
  002e3	eb 07		 jmp	 SHORT $LN40@P_HitMessa
$LN39@P_HitMessa:
  002e5	c7 45 98 00 00
	00 00		 mov	 DWORD PTR tv194[ebp], OFFSET ??_C@_00CNPNBAHC@@
$LN40@P_HitMessa:
  002ec	8b 55 b0	 mov	 edx, DWORD PTR tv151[ebp]
  002ef	52		 push	 edx
  002f0	8b 45 ac	 mov	 eax, DWORD PTR tv156[ebp]
  002f3	50		 push	 eax
  002f4	8b 4d 10	 mov	 ecx, DWORD PTR _source$[ebp]
  002f7	8b 81 a4 00 00
	00		 mov	 eax, DWORD PTR [ecx+164]
  002fd	2d 00 00 00 00	 sub	 eax, OFFSET _players
  00302	99		 cdq
  00303	b9 fc 01 00 00	 mov	 ecx, 508		; 000001fcH
  00308	f7 f9		 idiv	 ecx
  0030a	6b d0 16	 imul	 edx, eax, 22
  0030d	81 c2 00 00 00
	00		 add	 edx, OFFSET _player_names
  00313	52		 push	 edx
  00314	8b 45 a4	 mov	 eax, DWORD PTR tv171[ebp]
  00317	50		 push	 eax
  00318	b9 04 00 00 00	 mov	 ecx, 4
  0031d	69 d1 0d 01 00
	00		 imul	 edx, ecx, 269
  00323	8b 82 00 00 00
	00		 mov	 eax, DWORD PTR _text[edx]
  00329	50		 push	 eax
  0032a	8b 4d a0	 mov	 ecx, DWORD PTR tv179[ebp]
  0032d	51		 push	 ecx
  0032e	8b 55 08	 mov	 edx, DWORD PTR _target$[ebp]
  00331	8b 82 a4 00 00
	00		 mov	 eax, DWORD PTR [edx+164]
  00337	2d 00 00 00 00	 sub	 eax, OFFSET _players
  0033c	99		 cdq
  0033d	b9 fc 01 00 00	 mov	 ecx, 508		; 000001fcH
  00342	f7 f9		 idiv	 ecx
  00344	6b d0 16	 imul	 edx, eax, 22
  00347	81 c2 00 00 00
	00		 add	 edx, OFFSET _player_names
  0034d	52		 push	 edx
  0034e	8b 45 98	 mov	 eax, DWORD PTR tv194[ebp]
  00351	50		 push	 eax
  00352	8b 4d fc	 mov	 ecx, DWORD PTR _str$[ebp]
  00355	51		 push	 ecx
  00356	e8 00 00 00 00	 call	 _CONS_Printf
  0035b	83 c4 24	 add	 esp, 36			; 00000024H
  0035e	e9 26 01 00 00	 jmp	 $LN25@P_HitMessa
$LN24@P_HitMessa:

; 1780 : 			CTFTEAMENDCODE(target->player), text[P_HITVERB], CTFTEAMCODE(source->player),
; 1781 : 			player_names[source->player-players], CTFTEAMENDCODE(source->player), reflected ? text[P_REFLECT] : "");
; 1782 : 	else
; 1783 : 		CONS_Printf(str, CTFTEAMCODE(target->player), player_names[target->player-players],

  00363	8b 45 10	 mov	 eax, DWORD PTR _source$[ebp]
  00366	8b 88 a4 00 00
	00		 mov	 ecx, DWORD PTR [eax+164]
  0036c	83 b9 60 01 00
	00 00		 cmp	 DWORD PTR [ecx+352], 0
  00373	74 09		 je	 SHORT $LN41@P_HitMessa
  00375	c7 45 b0 00 00
	00 00		 mov	 DWORD PTR tv200[ebp], OFFSET ??_C@_01IFKFHFEL@?$IA@
  0037c	eb 07		 jmp	 SHORT $LN42@P_HitMessa
$LN41@P_HitMessa:
  0037e	c7 45 b0 00 00
	00 00		 mov	 DWORD PTR tv200[ebp], OFFSET ??_C@_00CNPNBAHC@@
$LN42@P_HitMessa:
  00385	8b 55 10	 mov	 edx, DWORD PTR _source$[ebp]
  00388	8b 82 a4 00 00
	00		 mov	 eax, DWORD PTR [edx+164]
  0038e	83 b8 60 01 00
	00 00		 cmp	 DWORD PTR [eax+352], 0
  00395	74 2a		 je	 SHORT $LN45@P_HitMessa
  00397	8b 4d 10	 mov	 ecx, DWORD PTR _source$[ebp]
  0039a	8b 91 a4 00 00
	00		 mov	 edx, DWORD PTR [ecx+164]
  003a0	83 ba 60 01 00
	00 01		 cmp	 DWORD PTR [edx+352], 1
  003a7	75 09		 jne	 SHORT $LN43@P_HitMessa
  003a9	c7 45 ac 00 00
	00 00		 mov	 DWORD PTR tv213[ebp], OFFSET ??_C@_01PINCIBAO@?$IF@
  003b0	eb 07		 jmp	 SHORT $LN44@P_HitMessa
$LN43@P_HitMessa:
  003b2	c7 45 ac 00 00
	00 00		 mov	 DWORD PTR tv213[ebp], OFFSET ??_C@_01OBMJLAEP@?$IE@
$LN44@P_HitMessa:
  003b9	8b 45 ac	 mov	 eax, DWORD PTR tv213[ebp]
  003bc	89 45 a8	 mov	 DWORD PTR tv215[ebp], eax
  003bf	eb 07		 jmp	 SHORT $LN46@P_HitMessa
$LN45@P_HitMessa:
  003c1	c7 45 a8 00 00
	00 00		 mov	 DWORD PTR tv215[ebp], OFFSET ??_C@_00CNPNBAHC@@
$LN46@P_HitMessa:
  003c8	8b 4d 08	 mov	 ecx, DWORD PTR _target$[ebp]
  003cb	8b 91 a4 00 00
	00		 mov	 edx, DWORD PTR [ecx+164]
  003d1	83 ba 60 01 00
	00 00		 cmp	 DWORD PTR [edx+352], 0
  003d8	74 09		 je	 SHORT $LN47@P_HitMessa
  003da	c7 45 a4 00 00
	00 00		 mov	 DWORD PTR tv220[ebp], OFFSET ??_C@_01IFKFHFEL@?$IA@
  003e1	eb 07		 jmp	 SHORT $LN48@P_HitMessa
$LN47@P_HitMessa:
  003e3	c7 45 a4 00 00
	00 00		 mov	 DWORD PTR tv220[ebp], OFFSET ??_C@_00CNPNBAHC@@
$LN48@P_HitMessa:
  003ea	8b 45 08	 mov	 eax, DWORD PTR _target$[ebp]
  003ed	8b 88 a4 00 00
	00		 mov	 ecx, DWORD PTR [eax+164]
  003f3	83 b9 60 01 00
	00 00		 cmp	 DWORD PTR [ecx+352], 0
  003fa	74 2a		 je	 SHORT $LN51@P_HitMessa
  003fc	8b 55 08	 mov	 edx, DWORD PTR _target$[ebp]
  003ff	8b 82 a4 00 00
	00		 mov	 eax, DWORD PTR [edx+164]
  00405	83 b8 60 01 00
	00 01		 cmp	 DWORD PTR [eax+352], 1
  0040c	75 09		 jne	 SHORT $LN49@P_HitMessa
  0040e	c7 45 a0 00 00
	00 00		 mov	 DWORD PTR tv233[ebp], OFFSET ??_C@_01PINCIBAO@?$IF@
  00415	eb 07		 jmp	 SHORT $LN50@P_HitMessa
$LN49@P_HitMessa:
  00417	c7 45 a0 00 00
	00 00		 mov	 DWORD PTR tv233[ebp], OFFSET ??_C@_01OBMJLAEP@?$IE@
$LN50@P_HitMessa:
  0041e	8b 4d a0	 mov	 ecx, DWORD PTR tv233[ebp]
  00421	89 4d 9c	 mov	 DWORD PTR tv235[ebp], ecx
  00424	eb 07		 jmp	 SHORT $LN52@P_HitMessa
$LN51@P_HitMessa:
  00426	c7 45 9c 00 00
	00 00		 mov	 DWORD PTR tv235[ebp], OFFSET ??_C@_00CNPNBAHC@@
$LN52@P_HitMessa:
  0042d	8b 55 b0	 mov	 edx, DWORD PTR tv200[ebp]
  00430	52		 push	 edx
  00431	8b 45 10	 mov	 eax, DWORD PTR _source$[ebp]
  00434	8b 80 a4 00 00
	00		 mov	 eax, DWORD PTR [eax+164]
  0043a	2d 00 00 00 00	 sub	 eax, OFFSET _players
  0043f	99		 cdq
  00440	b9 fc 01 00 00	 mov	 ecx, 508		; 000001fcH
  00445	f7 f9		 idiv	 ecx
  00447	6b d0 16	 imul	 edx, eax, 22
  0044a	81 c2 00 00 00
	00		 add	 edx, OFFSET _player_names
  00450	52		 push	 edx
  00451	8b 45 a8	 mov	 eax, DWORD PTR tv215[ebp]
  00454	50		 push	 eax
  00455	8b 4d a4	 mov	 ecx, DWORD PTR tv220[ebp]
  00458	51		 push	 ecx
  00459	8b 55 08	 mov	 edx, DWORD PTR _target$[ebp]
  0045c	8b 82 a4 00 00
	00		 mov	 eax, DWORD PTR [edx+164]
  00462	2d 00 00 00 00	 sub	 eax, OFFSET _players
  00467	99		 cdq
  00468	b9 fc 01 00 00	 mov	 ecx, 508		; 000001fcH
  0046d	f7 f9		 idiv	 ecx
  0046f	6b d0 16	 imul	 edx, eax, 22
  00472	81 c2 00 00 00
	00		 add	 edx, OFFSET _player_names
  00478	52		 push	 edx
  00479	8b 45 9c	 mov	 eax, DWORD PTR tv235[ebp]
  0047c	50		 push	 eax
  0047d	8b 4d fc	 mov	 ecx, DWORD PTR _str$[ebp]
  00480	51		 push	 ecx
  00481	e8 00 00 00 00	 call	 _CONS_Printf
  00486	83 c4 1c	 add	 esp, 28			; 0000001cH
$LN25@P_HitMessa:
$LN1@P_HitMessa:

; 1784 : 			CTFTEAMENDCODE(target->player), CTFTEAMCODE(source->player),
; 1785 : 			player_names[source->player-players], CTFTEAMENDCODE(source->player));
; 1786 : 
; 1787 : 	return;
; 1788 : }

  00489	5f		 pop	 edi
  0048a	5e		 pop	 esi
  0048b	5b		 pop	 ebx
  0048c	8b e5		 mov	 esp, ebp
  0048e	5d		 pop	 ebp
  0048f	c3		 ret	 0
$LN54@P_HitMessa:
  00490	00 00 00 00	 DD	 $LN14@P_HitMessa
  00494	00 00 00 00	 DD	 $LN20@P_HitMessa
  00498	00 00 00 00	 DD	 $LN15@P_HitMessa
  0049c	00 00 00 00	 DD	 $LN16@P_HitMessa
  004a0	00 00 00 00	 DD	 $LN17@P_HitMessa
  004a4	00 00 00 00	 DD	 $LN18@P_HitMessa
  004a8	00 00 00 00	 DD	 $LN19@P_HitMessa
  004ac	00 00 00 00	 DD	 $LN23@P_HitMessa
$LN53@P_HitMessa:
  004b0	00		 DB	 0
  004b1	07		 DB	 7
  004b2	07		 DB	 7
  004b3	07		 DB	 7
  004b4	07		 DB	 7
  004b5	07		 DB	 7
  004b6	07		 DB	 7
  004b7	07		 DB	 7
  004b8	07		 DB	 7
  004b9	07		 DB	 7
  004ba	07		 DB	 7
  004bb	07		 DB	 7
  004bc	07		 DB	 7
  004bd	07		 DB	 7
  004be	07		 DB	 7
  004bf	07		 DB	 7
  004c0	07		 DB	 7
  004c1	07		 DB	 7
  004c2	07		 DB	 7
  004c3	07		 DB	 7
  004c4	07		 DB	 7
  004c5	07		 DB	 7
  004c6	07		 DB	 7
  004c7	07		 DB	 7
  004c8	07		 DB	 7
  004c9	07		 DB	 7
  004ca	07		 DB	 7
  004cb	07		 DB	 7
  004cc	07		 DB	 7
  004cd	07		 DB	 7
  004ce	07		 DB	 7
  004cf	07		 DB	 7
  004d0	07		 DB	 7
  004d1	07		 DB	 7
  004d2	07		 DB	 7
  004d3	07		 DB	 7
  004d4	07		 DB	 7
  004d5	07		 DB	 7
  004d6	07		 DB	 7
  004d7	07		 DB	 7
  004d8	07		 DB	 7
  004d9	07		 DB	 7
  004da	07		 DB	 7
  004db	07		 DB	 7
  004dc	07		 DB	 7
  004dd	07		 DB	 7
  004de	07		 DB	 7
  004df	07		 DB	 7
  004e0	07		 DB	 7
  004e1	07		 DB	 7
  004e2	07		 DB	 7
  004e3	07		 DB	 7
  004e4	07		 DB	 7
  004e5	07		 DB	 7
  004e6	07		 DB	 7
  004e7	07		 DB	 7
  004e8	07		 DB	 7
  004e9	07		 DB	 7
  004ea	07		 DB	 7
  004eb	07		 DB	 7
  004ec	07		 DB	 7
  004ed	07		 DB	 7
  004ee	07		 DB	 7
  004ef	07		 DB	 7
  004f0	07		 DB	 7
  004f1	07		 DB	 7
  004f2	07		 DB	 7
  004f3	07		 DB	 7
  004f4	07		 DB	 7
  004f5	07		 DB	 7
  004f6	07		 DB	 7
  004f7	07		 DB	 7
  004f8	07		 DB	 7
  004f9	07		 DB	 7
  004fa	07		 DB	 7
  004fb	07		 DB	 7
  004fc	07		 DB	 7
  004fd	07		 DB	 7
  004fe	07		 DB	 7
  004ff	07		 DB	 7
  00500	07		 DB	 7
  00501	07		 DB	 7
  00502	07		 DB	 7
  00503	07		 DB	 7
  00504	07		 DB	 7
  00505	07		 DB	 7
  00506	07		 DB	 7
  00507	07		 DB	 7
  00508	07		 DB	 7
  00509	07		 DB	 7
  0050a	07		 DB	 7
  0050b	07		 DB	 7
  0050c	07		 DB	 7
  0050d	07		 DB	 7
  0050e	07		 DB	 7
  0050f	07		 DB	 7
  00510	07		 DB	 7
  00511	07		 DB	 7
  00512	07		 DB	 7
  00513	07		 DB	 7
  00514	07		 DB	 7
  00515	07		 DB	 7
  00516	07		 DB	 7
  00517	07		 DB	 7
  00518	07		 DB	 7
  00519	07		 DB	 7
  0051a	07		 DB	 7
  0051b	07		 DB	 7
  0051c	07		 DB	 7
  0051d	07		 DB	 7
  0051e	07		 DB	 7
  0051f	07		 DB	 7
  00520	07		 DB	 7
  00521	07		 DB	 7
  00522	07		 DB	 7
  00523	07		 DB	 7
  00524	07		 DB	 7
  00525	07		 DB	 7
  00526	07		 DB	 7
  00527	07		 DB	 7
  00528	07		 DB	 7
  00529	07		 DB	 7
  0052a	07		 DB	 7
  0052b	07		 DB	 7
  0052c	07		 DB	 7
  0052d	07		 DB	 7
  0052e	07		 DB	 7
  0052f	07		 DB	 7
  00530	07		 DB	 7
  00531	07		 DB	 7
  00532	07		 DB	 7
  00533	07		 DB	 7
  00534	07		 DB	 7
  00535	07		 DB	 7
  00536	07		 DB	 7
  00537	07		 DB	 7
  00538	01		 DB	 1
  00539	07		 DB	 7
  0053a	07		 DB	 7
  0053b	07		 DB	 7
  0053c	07		 DB	 7
  0053d	07		 DB	 7
  0053e	07		 DB	 7
  0053f	07		 DB	 7
  00540	07		 DB	 7
  00541	07		 DB	 7
  00542	07		 DB	 7
  00543	07		 DB	 7
  00544	07		 DB	 7
  00545	02		 DB	 2
  00546	03		 DB	 3
  00547	04		 DB	 4
  00548	05		 DB	 5
  00549	06		 DB	 6
_P_HitMessages ENDP
_TEXT	ENDS
; Function compile flags: /Odtp /ZI
; File C:\Users\RafaTheFox\Downloads\SRB2-Public-master\src\p_inter.c
;	COMDAT _P_DeathMessages
_TEXT	SEGMENT
tv260 = -104						; size = 4
tv155 = -100						; size = 4
tv258 = -100						; size = 4
tv301 = -100						; size = 4
tv153 = -96						; size = 4
tv299 = -96						; size = 4
tv245 = -96						; size = 4
tv286 = -92						; size = 4
tv237 = -92						; size = 4
tv140 = -92						; size = 4
tv235 = -88						; size = 4
tv135 = -88						; size = 4
tv183 = -88						; size = 4
tv442 = -88						; size = 4
tv281 = -88						; size = 4
tv421 = -88						; size = 4
tv181 = -84						; size = 4
tv279 = -84						; size = 4
tv222 = -84						; size = 4
tv133 = -84						; size = 4
tv419 = -84						; size = 4
tv440 = -84						; size = 4
tv189 = -80						; size = 4
tv266 = -80						; size = 4
tv168 = -80						; size = 4
tv88 = -80						; size = 4
tv305 = -80						; size = 4
tv406 = -80						; size = 4
tv217 = -80						; size = 4
tv427 = -80						; size = 4
_reflected$ = -12					; size = 4
_useverb$ = -8						; size = 4
_str$ = -4						; size = 4
_target$ = 8						; size = 4
_inflictor$ = 12					; size = 4
_source$ = 16						; size = 4
_P_DeathMessages PROC					; COMDAT

; 1513 : {

  00000	55		 push	 ebp
  00001	8b ec		 mov	 ebp, esp
  00003	83 ec 68	 sub	 esp, 104		; 00000068H
  00006	53		 push	 ebx
  00007	56		 push	 esi
  00008	57		 push	 edi

; 1514 : 	const char *str;
; 1515 : 	boolean useverb = false;

  00009	c7 45 f8 00 00
	00 00		 mov	 DWORD PTR _useverb$[ebp], 0

; 1516 : 	boolean reflected = false;

  00010	c7 45 f4 00 00
	00 00		 mov	 DWORD PTR _reflected$[ebp], 0

; 1517 : 
; 1518 : 	if (gametype == GT_COOP || gametype == GT_RACE)

  00017	0f bf 05 00 00
	00 00		 movsx	 eax, WORD PTR _gametype
  0001e	85 c0		 test	 eax, eax
  00020	74 0c		 je	 SHORT $LN7@P_DeathMes
  00022	0f bf 05 00 00
	00 00		 movsx	 eax, WORD PTR _gametype
  00029	83 f8 02	 cmp	 eax, 2
  0002c	75 05		 jne	 SHORT $LN6@P_DeathMes
$LN7@P_DeathMes:

; 1519 : 		return;

  0002e	e9 5d 0b 00 00	 jmp	 $LN69@P_DeathMes
$LN6@P_DeathMes:

; 1520 : 
; 1521 : 	if (!target || !target->player)

  00033	83 7d 08 00	 cmp	 DWORD PTR _target$[ebp], 0
  00037	74 0c		 je	 SHORT $LN9@P_DeathMes
  00039	8b 45 08	 mov	 eax, DWORD PTR _target$[ebp]
  0003c	83 b8 a4 00 00
	00 00		 cmp	 DWORD PTR [eax+164], 0
  00043	75 05		 jne	 SHORT $LN8@P_DeathMes
$LN9@P_DeathMes:

; 1522 : 		return;

  00045	e9 46 0b 00 00	 jmp	 $LN69@P_DeathMes
$LN8@P_DeathMes:

; 1523 : 
; 1524 : 	if (!multiplayer && !netgame)

  0004a	83 3d 00 00 00
	00 00		 cmp	 DWORD PTR _multiplayer, 0
  00051	75 0e		 jne	 SHORT $LN10@P_DeathMes
  00053	83 3d 00 00 00
	00 00		 cmp	 DWORD PTR _netgame, 0
  0005a	75 05		 jne	 SHORT $LN10@P_DeathMes

; 1525 : 		return;

  0005c	e9 2f 0b 00 00	 jmp	 $LN69@P_DeathMes
$LN10@P_DeathMes:

; 1526 : 
; 1527 : 	str = text[PDEAD_DIED];

  00061	b8 04 00 00 00	 mov	 eax, 4
  00066	69 c8 0c 01 00
	00		 imul	 ecx, eax, 268
  0006c	8b 91 00 00 00
	00		 mov	 edx, DWORD PTR _text[ecx]
  00072	89 55 fc	 mov	 DWORD PTR _str$[ebp], edx

; 1528 : 
; 1529 : 	if (inflictor && (inflictor->flags2 & MF2_REFLECTED))

  00075	83 7d 0c 00	 cmp	 DWORD PTR _inflictor$[ebp], 0
  00079	74 18		 je	 SHORT $LN11@P_DeathMes
  0007b	8b 45 0c	 mov	 eax, DWORD PTR _inflictor$[ebp]
  0007e	8b 88 88 00 00
	00		 mov	 ecx, DWORD PTR [eax+136]
  00084	81 e1 00 00 00
	20		 and	 ecx, 536870912		; 20000000H
  0008a	74 07		 je	 SHORT $LN11@P_DeathMes

; 1530 : 		reflected = true;

  0008c	c7 45 f4 01 00
	00 00		 mov	 DWORD PTR _reflected$[ebp], 1
$LN11@P_DeathMes:

; 1531 : 
; 1532 : 	// death message decision structure redone by Orospakr
; 1533 : 	if (source)

  00093	83 7d 10 00	 cmp	 DWORD PTR _source$[ebp], 0
  00097	0f 84 a8 07 00
	00		 je	 $LN12@P_DeathMes

; 1534 : 	{
; 1535 : 		useverb = true;

  0009d	c7 45 f8 01 00
	00 00		 mov	 DWORD PTR _useverb$[ebp], 1

; 1536 : 
; 1537 : 		// inflictor shouldn't be NULL if source isn't
; 1538 : 		I_Assert(inflictor != NULL);
; 1539 : 		if ((inflictor->flags & MF_PUSHABLE) && source->player)

  000a4	8b 45 0c	 mov	 eax, DWORD PTR _inflictor$[ebp]
  000a7	8b 48 60	 mov	 ecx, DWORD PTR [eax+96]
  000aa	83 e1 40	 and	 ecx, 64			; 00000040H
  000ad	0f 84 4e 01 00
	00		 je	 $LN14@P_DeathMes
  000b3	8b 45 10	 mov	 eax, DWORD PTR _source$[ebp]
  000b6	83 b8 a4 00 00
	00 00		 cmp	 DWORD PTR [eax+164], 0
  000bd	0f 84 3e 01 00
	00		 je	 $LN14@P_DeathMes

; 1540 : 		{
; 1541 : 			CONS_Printf(text[PDEAD_MATCHCRUSHED],

  000c3	8b 45 08	 mov	 eax, DWORD PTR _target$[ebp]
  000c6	8b 88 a4 00 00
	00		 mov	 ecx, DWORD PTR [eax+164]
  000cc	83 b9 60 01 00
	00 00		 cmp	 DWORD PTR [ecx+352], 0
  000d3	74 09		 je	 SHORT $LN71@P_DeathMes
  000d5	c7 45 b0 00 00
	00 00		 mov	 DWORD PTR tv88[ebp], OFFSET ??_C@_01IFKFHFEL@?$IA@
  000dc	eb 07		 jmp	 SHORT $LN72@P_DeathMes
$LN71@P_DeathMes:
  000de	c7 45 b0 00 00
	00 00		 mov	 DWORD PTR tv88[ebp], OFFSET ??_C@_00CNPNBAHC@@
$LN72@P_DeathMes:
  000e5	8b 55 08	 mov	 edx, DWORD PTR _target$[ebp]
  000e8	8b 82 a4 00 00
	00		 mov	 eax, DWORD PTR [edx+164]
  000ee	83 b8 60 01 00
	00 00		 cmp	 DWORD PTR [eax+352], 0
  000f5	74 2a		 je	 SHORT $LN75@P_DeathMes
  000f7	8b 4d 08	 mov	 ecx, DWORD PTR _target$[ebp]
  000fa	8b 91 a4 00 00
	00		 mov	 edx, DWORD PTR [ecx+164]
  00100	83 ba 60 01 00
	00 01		 cmp	 DWORD PTR [edx+352], 1
  00107	75 09		 jne	 SHORT $LN73@P_DeathMes
  00109	c7 45 ac 00 00
	00 00		 mov	 DWORD PTR tv133[ebp], OFFSET ??_C@_01PINCIBAO@?$IF@
  00110	eb 07		 jmp	 SHORT $LN74@P_DeathMes
$LN73@P_DeathMes:
  00112	c7 45 ac 00 00
	00 00		 mov	 DWORD PTR tv133[ebp], OFFSET ??_C@_01OBMJLAEP@?$IE@
$LN74@P_DeathMes:
  00119	8b 45 ac	 mov	 eax, DWORD PTR tv133[ebp]
  0011c	89 45 a8	 mov	 DWORD PTR tv135[ebp], eax
  0011f	eb 07		 jmp	 SHORT $LN76@P_DeathMes
$LN75@P_DeathMes:
  00121	c7 45 a8 00 00
	00 00		 mov	 DWORD PTR tv135[ebp], OFFSET ??_C@_00CNPNBAHC@@
$LN76@P_DeathMes:
  00128	8b 4d 10	 mov	 ecx, DWORD PTR _source$[ebp]
  0012b	8b 91 a4 00 00
	00		 mov	 edx, DWORD PTR [ecx+164]
  00131	83 ba 60 01 00
	00 00		 cmp	 DWORD PTR [edx+352], 0
  00138	74 09		 je	 SHORT $LN77@P_DeathMes
  0013a	c7 45 a4 00 00
	00 00		 mov	 DWORD PTR tv140[ebp], OFFSET ??_C@_01IFKFHFEL@?$IA@
  00141	eb 07		 jmp	 SHORT $LN78@P_DeathMes
$LN77@P_DeathMes:
  00143	c7 45 a4 00 00
	00 00		 mov	 DWORD PTR tv140[ebp], OFFSET ??_C@_00CNPNBAHC@@
$LN78@P_DeathMes:
  0014a	8b 45 10	 mov	 eax, DWORD PTR _source$[ebp]
  0014d	8b 88 a4 00 00
	00		 mov	 ecx, DWORD PTR [eax+164]
  00153	83 b9 60 01 00
	00 00		 cmp	 DWORD PTR [ecx+352], 0
  0015a	74 2a		 je	 SHORT $LN81@P_DeathMes
  0015c	8b 55 10	 mov	 edx, DWORD PTR _source$[ebp]
  0015f	8b 82 a4 00 00
	00		 mov	 eax, DWORD PTR [edx+164]
  00165	83 b8 60 01 00
	00 01		 cmp	 DWORD PTR [eax+352], 1
  0016c	75 09		 jne	 SHORT $LN79@P_DeathMes
  0016e	c7 45 a0 00 00
	00 00		 mov	 DWORD PTR tv153[ebp], OFFSET ??_C@_01PINCIBAO@?$IF@
  00175	eb 07		 jmp	 SHORT $LN80@P_DeathMes
$LN79@P_DeathMes:
  00177	c7 45 a0 00 00
	00 00		 mov	 DWORD PTR tv153[ebp], OFFSET ??_C@_01OBMJLAEP@?$IE@
$LN80@P_DeathMes:
  0017e	8b 4d a0	 mov	 ecx, DWORD PTR tv153[ebp]
  00181	89 4d 9c	 mov	 DWORD PTR tv155[ebp], ecx
  00184	eb 07		 jmp	 SHORT $LN82@P_DeathMes
$LN81@P_DeathMes:
  00186	c7 45 9c 00 00
	00 00		 mov	 DWORD PTR tv155[ebp], OFFSET ??_C@_00CNPNBAHC@@
$LN82@P_DeathMes:
  0018d	8b 55 b0	 mov	 edx, DWORD PTR tv88[ebp]
  00190	52		 push	 edx
  00191	8b 45 08	 mov	 eax, DWORD PTR _target$[ebp]
  00194	8b 80 a4 00 00
	00		 mov	 eax, DWORD PTR [eax+164]
  0019a	2d 00 00 00 00	 sub	 eax, OFFSET _players
  0019f	99		 cdq
  001a0	b9 fc 01 00 00	 mov	 ecx, 508		; 000001fcH
  001a5	f7 f9		 idiv	 ecx
  001a7	6b d0 16	 imul	 edx, eax, 22
  001aa	81 c2 00 00 00
	00		 add	 edx, OFFSET _player_names
  001b0	52		 push	 edx
  001b1	8b 45 a8	 mov	 eax, DWORD PTR tv135[ebp]
  001b4	50		 push	 eax
  001b5	8b 4d a4	 mov	 ecx, DWORD PTR tv140[ebp]
  001b8	51		 push	 ecx
  001b9	8b 55 10	 mov	 edx, DWORD PTR _source$[ebp]
  001bc	8b 82 a4 00 00
	00		 mov	 eax, DWORD PTR [edx+164]
  001c2	2d 00 00 00 00	 sub	 eax, OFFSET _players
  001c7	99		 cdq
  001c8	b9 fc 01 00 00	 mov	 ecx, 508		; 000001fcH
  001cd	f7 f9		 idiv	 ecx
  001cf	6b d0 16	 imul	 edx, eax, 22
  001d2	81 c2 00 00 00
	00		 add	 edx, OFFSET _player_names
  001d8	52		 push	 edx
  001d9	8b 45 9c	 mov	 eax, DWORD PTR tv155[ebp]
  001dc	50		 push	 eax
  001dd	b9 04 00 00 00	 mov	 ecx, 4
  001e2	69 d1 0a 01 00
	00		 imul	 edx, ecx, 266
  001e8	8b 82 00 00 00
	00		 mov	 eax, DWORD PTR _text[edx]
  001ee	50		 push	 eax
  001ef	e8 00 00 00 00	 call	 _CONS_Printf
  001f4	83 c4 1c	 add	 esp, 28			; 0000001cH

; 1542 : 				CTFTEAMCODE(source->player),
; 1543 : 				player_names[source->player - players],
; 1544 : 				CTFTEAMENDCODE(source->player),
; 1545 : 				CTFTEAMCODE(target->player),
; 1546 : 				player_names[target->player - players],
; 1547 : 				CTFTEAMENDCODE(target->player));
; 1548 : 			return;

  001f7	e9 94 09 00 00	 jmp	 $LN69@P_DeathMes

; 1549 : 		}

  001fc	e9 3f 06 00 00	 jmp	 $LN4@P_DeathMes
$LN14@P_DeathMes:

; 1550 : 		else if (source->player)

  00201	8b 45 10	 mov	 eax, DWORD PTR _source$[ebp]
  00204	83 b8 a4 00 00
	00 00		 cmp	 DWORD PTR [eax+164], 0
  0020b	0f 84 7c 04 00
	00		 je	 $LN16@P_DeathMes

; 1551 : 		{
; 1552 : 			if (source->player == target->player)

  00211	8b 45 10	 mov	 eax, DWORD PTR _source$[ebp]
  00214	8b 4d 08	 mov	 ecx, DWORD PTR _target$[ebp]
  00217	8b 90 a4 00 00
	00		 mov	 edx, DWORD PTR [eax+164]
  0021d	3b 91 a4 00 00
	00		 cmp	 edx, DWORD PTR [ecx+164]
  00223	0f 85 b1 00 00
	00		 jne	 $LN18@P_DeathMes

; 1553 : 			{
; 1554 : 				CONS_Printf(text[PDEAD_SUICIDE],

  00229	8b 45 08	 mov	 eax, DWORD PTR _target$[ebp]
  0022c	8b 88 a4 00 00
	00		 mov	 ecx, DWORD PTR [eax+164]
  00232	83 b9 60 01 00
	00 00		 cmp	 DWORD PTR [ecx+352], 0
  00239	74 09		 je	 SHORT $LN83@P_DeathMes
  0023b	c7 45 b0 00 00
	00 00		 mov	 DWORD PTR tv168[ebp], OFFSET ??_C@_01IFKFHFEL@?$IA@
  00242	eb 07		 jmp	 SHORT $LN84@P_DeathMes
$LN83@P_DeathMes:
  00244	c7 45 b0 00 00
	00 00		 mov	 DWORD PTR tv168[ebp], OFFSET ??_C@_00CNPNBAHC@@
$LN84@P_DeathMes:
  0024b	8b 55 08	 mov	 edx, DWORD PTR _target$[ebp]
  0024e	8b 82 a4 00 00
	00		 mov	 eax, DWORD PTR [edx+164]
  00254	83 b8 60 01 00
	00 00		 cmp	 DWORD PTR [eax+352], 0
  0025b	74 2a		 je	 SHORT $LN87@P_DeathMes
  0025d	8b 4d 08	 mov	 ecx, DWORD PTR _target$[ebp]
  00260	8b 91 a4 00 00
	00		 mov	 edx, DWORD PTR [ecx+164]
  00266	83 ba 60 01 00
	00 01		 cmp	 DWORD PTR [edx+352], 1
  0026d	75 09		 jne	 SHORT $LN85@P_DeathMes
  0026f	c7 45 ac 00 00
	00 00		 mov	 DWORD PTR tv181[ebp], OFFSET ??_C@_01PINCIBAO@?$IF@
  00276	eb 07		 jmp	 SHORT $LN86@P_DeathMes
$LN85@P_DeathMes:
  00278	c7 45 ac 00 00
	00 00		 mov	 DWORD PTR tv181[ebp], OFFSET ??_C@_01OBMJLAEP@?$IE@
$LN86@P_DeathMes:
  0027f	8b 45 ac	 mov	 eax, DWORD PTR tv181[ebp]
  00282	89 45 a8	 mov	 DWORD PTR tv183[ebp], eax
  00285	eb 07		 jmp	 SHORT $LN88@P_DeathMes
$LN87@P_DeathMes:
  00287	c7 45 a8 00 00
	00 00		 mov	 DWORD PTR tv183[ebp], OFFSET ??_C@_00CNPNBAHC@@
$LN88@P_DeathMes:
  0028e	8b 4d b0	 mov	 ecx, DWORD PTR tv168[ebp]
  00291	51		 push	 ecx
  00292	8b 55 08	 mov	 edx, DWORD PTR _target$[ebp]
  00295	8b 82 a4 00 00
	00		 mov	 eax, DWORD PTR [edx+164]
  0029b	2d 00 00 00 00	 sub	 eax, OFFSET _players
  002a0	99		 cdq
  002a1	b9 fc 01 00 00	 mov	 ecx, 508		; 000001fcH
  002a6	f7 f9		 idiv	 ecx
  002a8	6b d0 16	 imul	 edx, eax, 22
  002ab	81 c2 00 00 00
	00		 add	 edx, OFFSET _player_names
  002b1	52		 push	 edx
  002b2	8b 45 a8	 mov	 eax, DWORD PTR tv183[ebp]
  002b5	50		 push	 eax
  002b6	b9 04 00 00 00	 mov	 ecx, 4
  002bb	69 d1 0b 01 00
	00		 imul	 edx, ecx, 267
  002c1	8b 82 00 00 00
	00		 mov	 eax, DWORD PTR _text[edx]
  002c7	50		 push	 eax
  002c8	e8 00 00 00 00	 call	 _CONS_Printf
  002cd	83 c4 10	 add	 esp, 16			; 00000010H

; 1555 : 					CTFTEAMCODE(target->player),
; 1556 : 					player_names[target->player - players],
; 1557 : 					CTFTEAMENDCODE(target->player));
; 1558 : 				return;

  002d0	e9 bb 08 00 00	 jmp	 $LN69@P_DeathMes

; 1559 : 			}

  002d5	e9 ae 03 00 00	 jmp	 $LN19@P_DeathMes
$LN18@P_DeathMes:

; 1560 : 			else
; 1561 : 			{
; 1562 : 				switch (inflictor->type)

  002da	8b 45 0c	 mov	 eax, DWORD PTR _inflictor$[ebp]
  002dd	8b 48 7c	 mov	 ecx, DWORD PTR [eax+124]
  002e0	89 4d b0	 mov	 DWORD PTR tv189[ebp], ecx
  002e3	8b 55 b0	 mov	 edx, DWORD PTR tv189[ebp]
  002e6	83 ea 47	 sub	 edx, 71			; 00000047H
  002e9	89 55 b0	 mov	 DWORD PTR tv189[ebp], edx
  002ec	81 7d b0 99 00
	00 00		 cmp	 DWORD PTR tv189[ebp], 153 ; 00000099H
  002f3	0f 87 e2 00 00
	00		 ja	 $LN29@P_DeathMes
  002f9	8b 45 b0	 mov	 eax, DWORD PTR tv189[ebp]
  002fc	0f b6 88 00 00
	00 00		 movzx	 ecx, BYTE PTR $LN128@P_DeathMes[eax]
  00303	ff 24 8d 00 00
	00 00		 jmp	 DWORD PTR $LN129@P_DeathMes[ecx*4]
$LN20@P_DeathMes:

; 1563 : 				{
; 1564 : 					case MT_SPINFIRE:
; 1565 : 						str = text[PHURT_FIRETRAIL];

  0030a	b8 04 00 00 00	 mov	 eax, 4
  0030f	69 c8 12 01 00
	00		 imul	 ecx, eax, 274
  00315	8b 91 00 00 00
	00		 mov	 edx, DWORD PTR _text[ecx]
  0031b	89 55 fc	 mov	 DWORD PTR _str$[ebp], edx

; 1566 : 						useverb = false;

  0031e	c7 45 f8 00 00
	00 00		 mov	 DWORD PTR _useverb$[ebp], 0

; 1567 : 						break;

  00325	e9 c5 00 00 00	 jmp	 $LN2@P_DeathMes
$LN21@P_DeathMes:

; 1568 : 					case MT_THROWNBOUNCE:
; 1569 : 						str = text[PHURT_B];

  0032a	b8 04 00 00 00	 mov	 eax, 4
  0032f	69 c8 13 01 00
	00		 imul	 ecx, eax, 275
  00335	8b 91 00 00 00
	00		 mov	 edx, DWORD PTR _text[ecx]
  0033b	89 55 fc	 mov	 DWORD PTR _str$[ebp], edx

; 1570 : 						break;

  0033e	e9 ac 00 00 00	 jmp	 $LN2@P_DeathMes
$LN22@P_DeathMes:

; 1571 : 					case MT_THROWNAUTOMATIC:
; 1572 : 						str = text[PHURT_A];

  00343	b8 04 00 00 00	 mov	 eax, 4
  00348	69 c8 14 01 00
	00		 imul	 ecx, eax, 276
  0034e	8b 91 00 00 00
	00		 mov	 edx, DWORD PTR _text[ecx]
  00354	89 55 fc	 mov	 DWORD PTR _str$[ebp], edx

; 1573 : 						break;

  00357	e9 93 00 00 00	 jmp	 $LN2@P_DeathMes
$LN23@P_DeathMes:

; 1574 : 					case MT_THROWNSCATTER:
; 1575 : 						str = text[PHURT_S];

  0035c	b8 04 00 00 00	 mov	 eax, 4
  00361	69 c8 17 01 00
	00		 imul	 ecx, eax, 279
  00367	8b 91 00 00 00
	00		 mov	 edx, DWORD PTR _text[ecx]
  0036d	89 55 fc	 mov	 DWORD PTR _str$[ebp], edx

; 1576 : 						break;

  00370	eb 7d		 jmp	 SHORT $LN2@P_DeathMes
$LN24@P_DeathMes:

; 1577 : 					case MT_THROWNEXPLOSION:
; 1578 : 						str = text[PHURT_E];

  00372	b8 04 00 00 00	 mov	 eax, 4
  00377	69 c8 15 01 00
	00		 imul	 ecx, eax, 277
  0037d	8b 91 00 00 00
	00		 mov	 edx, DWORD PTR _text[ecx]
  00383	89 55 fc	 mov	 DWORD PTR _str$[ebp], edx

; 1579 : 						break;

  00386	eb 67		 jmp	 SHORT $LN2@P_DeathMes
$LN25@P_DeathMes:

; 1580 : 					case MT_THROWNGRENADE:
; 1581 : 						str = text[PHURT_G];

  00388	b8 04 00 00 00	 mov	 eax, 4
  0038d	69 c8 18 01 00
	00		 imul	 ecx, eax, 280
  00393	8b 91 00 00 00
	00		 mov	 edx, DWORD PTR _text[ecx]
  00399	89 55 fc	 mov	 DWORD PTR _str$[ebp], edx

; 1582 : 						break;

  0039c	eb 51		 jmp	 SHORT $LN2@P_DeathMes
$LN26@P_DeathMes:

; 1583 : 					case MT_REDRING:
; 1584 : 						if (inflictor->flags2 & MF2_RAILRING)

  0039e	8b 45 0c	 mov	 eax, DWORD PTR _inflictor$[ebp]
  003a1	8b 88 88 00 00
	00		 mov	 ecx, DWORD PTR [eax+136]
  003a7	81 e1 00 00 02
	00		 and	 ecx, 131072		; 00020000H
  003ad	74 16		 je	 SHORT $LN27@P_DeathMes

; 1585 : 							str = text[PHURT_R];

  003af	b8 04 00 00 00	 mov	 eax, 4
  003b4	69 c8 16 01 00
	00		 imul	 ecx, eax, 278
  003ba	8b 91 00 00 00
	00		 mov	 edx, DWORD PTR _text[ecx]
  003c0	89 55 fc	 mov	 DWORD PTR _str$[ebp], edx
  003c3	eb 14		 jmp	 SHORT $LN28@P_DeathMes
$LN27@P_DeathMes:

; 1586 : 						//else if (inflictor->flags2 & MF2_SCATTER)
; 1587 : 						//	str = text[PHURT_S];
; 1588 : 						else
; 1589 : 							str = text[PHURT_RING];

  003c5	b8 04 00 00 00	 mov	 eax, 4
  003ca	69 c8 19 01 00
	00		 imul	 ecx, eax, 281
  003d0	8b 91 00 00 00
	00		 mov	 edx, DWORD PTR _text[ecx]
  003d6	89 55 fc	 mov	 DWORD PTR _str$[ebp], edx
$LN28@P_DeathMes:

; 1590 : 						break;

  003d9	eb 14		 jmp	 SHORT $LN2@P_DeathMes
$LN29@P_DeathMes:

; 1591 : 
; 1592 : 					default:
; 1593 : 						str = text[PHURT_MATCHDEFAULT];

  003db	b8 04 00 00 00	 mov	 eax, 4
  003e0	69 c8 1a 01 00
	00		 imul	 ecx, eax, 282
  003e6	8b 91 00 00 00
	00		 mov	 edx, DWORD PTR _text[ecx]
  003ec	89 55 fc	 mov	 DWORD PTR _str$[ebp], edx
$LN2@P_DeathMes:

; 1594 : 						break;
; 1595 : 				}
; 1596 : 
; 1597 : 				if (useverb)

  003ef	83 7d f8 00	 cmp	 DWORD PTR _useverb$[ebp], 0
  003f3	0f 84 64 01 00
	00		 je	 $LN30@P_DeathMes

; 1598 : 					CONS_Printf(str,

  003f9	83 7d f4 00	 cmp	 DWORD PTR _reflected$[ebp], 0
  003fd	74 16		 je	 SHORT $LN89@P_DeathMes
  003ff	b8 04 00 00 00	 mov	 eax, 4
  00404	69 c8 0f 01 00
	00		 imul	 ecx, eax, 271
  0040a	8b 91 00 00 00
	00		 mov	 edx, DWORD PTR _text[ecx]
  00410	89 55 b0	 mov	 DWORD PTR tv217[ebp], edx
  00413	eb 07		 jmp	 SHORT $LN90@P_DeathMes
$LN89@P_DeathMes:
  00415	c7 45 b0 00 00
	00 00		 mov	 DWORD PTR tv217[ebp], OFFSET ??_C@_00CNPNBAHC@@
$LN90@P_DeathMes:
  0041c	8b 45 10	 mov	 eax, DWORD PTR _source$[ebp]
  0041f	8b 88 a4 00 00
	00		 mov	 ecx, DWORD PTR [eax+164]
  00425	83 b9 60 01 00
	00 00		 cmp	 DWORD PTR [ecx+352], 0
  0042c	74 09		 je	 SHORT $LN91@P_DeathMes
  0042e	c7 45 ac 00 00
	00 00		 mov	 DWORD PTR tv222[ebp], OFFSET ??_C@_01IFKFHFEL@?$IA@
  00435	eb 07		 jmp	 SHORT $LN92@P_DeathMes
$LN91@P_DeathMes:
  00437	c7 45 ac 00 00
	00 00		 mov	 DWORD PTR tv222[ebp], OFFSET ??_C@_00CNPNBAHC@@
$LN92@P_DeathMes:
  0043e	8b 55 10	 mov	 edx, DWORD PTR _source$[ebp]
  00441	8b 82 a4 00 00
	00		 mov	 eax, DWORD PTR [edx+164]
  00447	83 b8 60 01 00
	00 00		 cmp	 DWORD PTR [eax+352], 0
  0044e	74 2a		 je	 SHORT $LN95@P_DeathMes
  00450	8b 4d 10	 mov	 ecx, DWORD PTR _source$[ebp]
  00453	8b 91 a4 00 00
	00		 mov	 edx, DWORD PTR [ecx+164]
  00459	83 ba 60 01 00
	00 01		 cmp	 DWORD PTR [edx+352], 1
  00460	75 09		 jne	 SHORT $LN93@P_DeathMes
  00462	c7 45 a8 00 00
	00 00		 mov	 DWORD PTR tv235[ebp], OFFSET ??_C@_01PINCIBAO@?$IF@
  00469	eb 07		 jmp	 SHORT $LN94@P_DeathMes
$LN93@P_DeathMes:
  0046b	c7 45 a8 00 00
	00 00		 mov	 DWORD PTR tv235[ebp], OFFSET ??_C@_01OBMJLAEP@?$IE@
$LN94@P_DeathMes:
  00472	8b 45 a8	 mov	 eax, DWORD PTR tv235[ebp]
  00475	89 45 a4	 mov	 DWORD PTR tv237[ebp], eax
  00478	eb 07		 jmp	 SHORT $LN96@P_DeathMes
$LN95@P_DeathMes:
  0047a	c7 45 a4 00 00
	00 00		 mov	 DWORD PTR tv237[ebp], OFFSET ??_C@_00CNPNBAHC@@
$LN96@P_DeathMes:
  00481	8b 4d 08	 mov	 ecx, DWORD PTR _target$[ebp]
  00484	8b 91 a4 00 00
	00		 mov	 edx, DWORD PTR [ecx+164]
  0048a	83 ba 60 01 00
	00 00		 cmp	 DWORD PTR [edx+352], 0
  00491	74 09		 je	 SHORT $LN97@P_DeathMes
  00493	c7 45 a0 00 00
	00 00		 mov	 DWORD PTR tv245[ebp], OFFSET ??_C@_01IFKFHFEL@?$IA@
  0049a	eb 07		 jmp	 SHORT $LN98@P_DeathMes
$LN97@P_DeathMes:
  0049c	c7 45 a0 00 00
	00 00		 mov	 DWORD PTR tv245[ebp], OFFSET ??_C@_00CNPNBAHC@@
$LN98@P_DeathMes:
  004a3	8b 45 08	 mov	 eax, DWORD PTR _target$[ebp]
  004a6	8b 88 a4 00 00
	00		 mov	 ecx, DWORD PTR [eax+164]
  004ac	83 b9 60 01 00
	00 00		 cmp	 DWORD PTR [ecx+352], 0
  004b3	74 2a		 je	 SHORT $LN101@P_DeathMes
  004b5	8b 55 08	 mov	 edx, DWORD PTR _target$[ebp]
  004b8	8b 82 a4 00 00
	00		 mov	 eax, DWORD PTR [edx+164]
  004be	83 b8 60 01 00
	00 01		 cmp	 DWORD PTR [eax+352], 1
  004c5	75 09		 jne	 SHORT $LN99@P_DeathMes
  004c7	c7 45 9c 00 00
	00 00		 mov	 DWORD PTR tv258[ebp], OFFSET ??_C@_01PINCIBAO@?$IF@
  004ce	eb 07		 jmp	 SHORT $LN100@P_DeathMes
$LN99@P_DeathMes:
  004d0	c7 45 9c 00 00
	00 00		 mov	 DWORD PTR tv258[ebp], OFFSET ??_C@_01OBMJLAEP@?$IE@
$LN100@P_DeathMes:
  004d7	8b 4d 9c	 mov	 ecx, DWORD PTR tv258[ebp]
  004da	89 4d 98	 mov	 DWORD PTR tv260[ebp], ecx
  004dd	eb 07		 jmp	 SHORT $LN102@P_DeathMes
$LN101@P_DeathMes:
  004df	c7 45 98 00 00
	00 00		 mov	 DWORD PTR tv260[ebp], OFFSET ??_C@_00CNPNBAHC@@
$LN102@P_DeathMes:
  004e6	8b 55 b0	 mov	 edx, DWORD PTR tv217[ebp]
  004e9	52		 push	 edx
  004ea	8b 45 ac	 mov	 eax, DWORD PTR tv222[ebp]
  004ed	50		 push	 eax
  004ee	8b 4d 10	 mov	 ecx, DWORD PTR _source$[ebp]
  004f1	8b 81 a4 00 00
	00		 mov	 eax, DWORD PTR [ecx+164]
  004f7	2d 00 00 00 00	 sub	 eax, OFFSET _players
  004fc	99		 cdq
  004fd	b9 fc 01 00 00	 mov	 ecx, 508		; 000001fcH
  00502	f7 f9		 idiv	 ecx
  00504	6b d0 16	 imul	 edx, eax, 22
  00507	81 c2 00 00 00
	00		 add	 edx, OFFSET _player_names
  0050d	52		 push	 edx
  0050e	8b 45 a4	 mov	 eax, DWORD PTR tv237[ebp]
  00511	50		 push	 eax
  00512	b9 04 00 00 00	 mov	 ecx, 4
  00517	69 d1 0e 01 00
	00		 imul	 edx, ecx, 270
  0051d	8b 82 00 00 00
	00		 mov	 eax, DWORD PTR _text[edx]
  00523	50		 push	 eax
  00524	8b 4d a0	 mov	 ecx, DWORD PTR tv245[ebp]
  00527	51		 push	 ecx
  00528	8b 55 08	 mov	 edx, DWORD PTR _target$[ebp]
  0052b	8b 82 a4 00 00
	00		 mov	 eax, DWORD PTR [edx+164]
  00531	2d 00 00 00 00	 sub	 eax, OFFSET _players
  00536	99		 cdq
  00537	b9 fc 01 00 00	 mov	 ecx, 508		; 000001fcH
  0053c	f7 f9		 idiv	 ecx
  0053e	6b d0 16	 imul	 edx, eax, 22
  00541	81 c2 00 00 00
	00		 add	 edx, OFFSET _player_names
  00547	52		 push	 edx
  00548	8b 45 98	 mov	 eax, DWORD PTR tv260[ebp]
  0054b	50		 push	 eax
  0054c	8b 4d fc	 mov	 ecx, DWORD PTR _str$[ebp]
  0054f	51		 push	 ecx
  00550	e8 00 00 00 00	 call	 _CONS_Printf
  00555	83 c4 24	 add	 esp, 36			; 00000024H
  00558	e9 26 01 00 00	 jmp	 $LN31@P_DeathMes
$LN30@P_DeathMes:

; 1599 : 						CTFTEAMCODE(target->player),
; 1600 : 						player_names[target->player - players],
; 1601 : 						CTFTEAMENDCODE(target->player),
; 1602 : 						text[P_KILLEDVERB],
; 1603 : 						CTFTEAMCODE(source->player),
; 1604 : 						player_names[source->player - players],
; 1605 : 						CTFTEAMENDCODE(source->player),
; 1606 : 						reflected ? text[P_REFLECT] : "");
; 1607 : 				else
; 1608 : 					CONS_Printf(str,

  0055d	8b 45 10	 mov	 eax, DWORD PTR _source$[ebp]
  00560	8b 88 a4 00 00
	00		 mov	 ecx, DWORD PTR [eax+164]
  00566	83 b9 60 01 00
	00 00		 cmp	 DWORD PTR [ecx+352], 0
  0056d	74 09		 je	 SHORT $LN103@P_DeathMes
  0056f	c7 45 b0 00 00
	00 00		 mov	 DWORD PTR tv266[ebp], OFFSET ??_C@_01IFKFHFEL@?$IA@
  00576	eb 07		 jmp	 SHORT $LN104@P_DeathMes
$LN103@P_DeathMes:
  00578	c7 45 b0 00 00
	00 00		 mov	 DWORD PTR tv266[ebp], OFFSET ??_C@_00CNPNBAHC@@
$LN104@P_DeathMes:
  0057f	8b 55 10	 mov	 edx, DWORD PTR _source$[ebp]
  00582	8b 82 a4 00 00
	00		 mov	 eax, DWORD PTR [edx+164]
  00588	83 b8 60 01 00
	00 00		 cmp	 DWORD PTR [eax+352], 0
  0058f	74 2a		 je	 SHORT $LN107@P_DeathMes
  00591	8b 4d 10	 mov	 ecx, DWORD PTR _source$[ebp]
  00594	8b 91 a4 00 00
	00		 mov	 edx, DWORD PTR [ecx+164]
  0059a	83 ba 60 01 00
	00 01		 cmp	 DWORD PTR [edx+352], 1
  005a1	75 09		 jne	 SHORT $LN105@P_DeathMes
  005a3	c7 45 ac 00 00
	00 00		 mov	 DWORD PTR tv279[ebp], OFFSET ??_C@_01PINCIBAO@?$IF@
  005aa	eb 07		 jmp	 SHORT $LN106@P_DeathMes
$LN105@P_DeathMes:
  005ac	c7 45 ac 00 00
	00 00		 mov	 DWORD PTR tv279[ebp], OFFSET ??_C@_01OBMJLAEP@?$IE@
$LN106@P_DeathMes:
  005b3	8b 45 ac	 mov	 eax, DWORD PTR tv279[ebp]
  005b6	89 45 a8	 mov	 DWORD PTR tv281[ebp], eax
  005b9	eb 07		 jmp	 SHORT $LN108@P_DeathMes
$LN107@P_DeathMes:
  005bb	c7 45 a8 00 00
	00 00		 mov	 DWORD PTR tv281[ebp], OFFSET ??_C@_00CNPNBAHC@@
$LN108@P_DeathMes:
  005c2	8b 4d 08	 mov	 ecx, DWORD PTR _target$[ebp]
  005c5	8b 91 a4 00 00
	00		 mov	 edx, DWORD PTR [ecx+164]
  005cb	83 ba 60 01 00
	00 00		 cmp	 DWORD PTR [edx+352], 0
  005d2	74 09		 je	 SHORT $LN109@P_DeathMes
  005d4	c7 45 a4 00 00
	00 00		 mov	 DWORD PTR tv286[ebp], OFFSET ??_C@_01IFKFHFEL@?$IA@
  005db	eb 07		 jmp	 SHORT $LN110@P_DeathMes
$LN109@P_DeathMes:
  005dd	c7 45 a4 00 00
	00 00		 mov	 DWORD PTR tv286[ebp], OFFSET ??_C@_00CNPNBAHC@@
$LN110@P_DeathMes:
  005e4	8b 45 08	 mov	 eax, DWORD PTR _target$[ebp]
  005e7	8b 88 a4 00 00
	00		 mov	 ecx, DWORD PTR [eax+164]
  005ed	83 b9 60 01 00
	00 00		 cmp	 DWORD PTR [ecx+352], 0
  005f4	74 2a		 je	 SHORT $LN113@P_DeathMes
  005f6	8b 55 08	 mov	 edx, DWORD PTR _target$[ebp]
  005f9	8b 82 a4 00 00
	00		 mov	 eax, DWORD PTR [edx+164]
  005ff	83 b8 60 01 00
	00 01		 cmp	 DWORD PTR [eax+352], 1
  00606	75 09		 jne	 SHORT $LN111@P_DeathMes
  00608	c7 45 a0 00 00
	00 00		 mov	 DWORD PTR tv299[ebp], OFFSET ??_C@_01PINCIBAO@?$IF@
  0060f	eb 07		 jmp	 SHORT $LN112@P_DeathMes
$LN111@P_DeathMes:
  00611	c7 45 a0 00 00
	00 00		 mov	 DWORD PTR tv299[ebp], OFFSET ??_C@_01OBMJLAEP@?$IE@
$LN112@P_DeathMes:
  00618	8b 4d a0	 mov	 ecx, DWORD PTR tv299[ebp]
  0061b	89 4d 9c	 mov	 DWORD PTR tv301[ebp], ecx
  0061e	eb 07		 jmp	 SHORT $LN114@P_DeathMes
$LN113@P_DeathMes:
  00620	c7 45 9c 00 00
	00 00		 mov	 DWORD PTR tv301[ebp], OFFSET ??_C@_00CNPNBAHC@@
$LN114@P_DeathMes:
  00627	8b 55 b0	 mov	 edx, DWORD PTR tv266[ebp]
  0062a	52		 push	 edx
  0062b	8b 45 10	 mov	 eax, DWORD PTR _source$[ebp]
  0062e	8b 80 a4 00 00
	00		 mov	 eax, DWORD PTR [eax+164]
  00634	2d 00 00 00 00	 sub	 eax, OFFSET _players
  00639	99		 cdq
  0063a	b9 fc 01 00 00	 mov	 ecx, 508		; 000001fcH
  0063f	f7 f9		 idiv	 ecx
  00641	6b d0 16	 imul	 edx, eax, 22
  00644	81 c2 00 00 00
	00		 add	 edx, OFFSET _player_names
  0064a	52		 push	 edx
  0064b	8b 45 a8	 mov	 eax, DWORD PTR tv281[ebp]
  0064e	50		 push	 eax
  0064f	8b 4d a4	 mov	 ecx, DWORD PTR tv286[ebp]
  00652	51		 push	 ecx
  00653	8b 55 08	 mov	 edx, DWORD PTR _target$[ebp]
  00656	8b 82 a4 00 00
	00		 mov	 eax, DWORD PTR [edx+164]
  0065c	2d 00 00 00 00	 sub	 eax, OFFSET _players
  00661	99		 cdq
  00662	b9 fc 01 00 00	 mov	 ecx, 508		; 000001fcH
  00667	f7 f9		 idiv	 ecx
  00669	6b d0 16	 imul	 edx, eax, 22
  0066c	81 c2 00 00 00
	00		 add	 edx, OFFSET _player_names
  00672	52		 push	 edx
  00673	8b 45 9c	 mov	 eax, DWORD PTR tv301[ebp]
  00676	50		 push	 eax
  00677	8b 4d fc	 mov	 ecx, DWORD PTR _str$[ebp]
  0067a	51		 push	 ecx
  0067b	e8 00 00 00 00	 call	 _CONS_Printf
  00680	83 c4 1c	 add	 esp, 28			; 0000001cH
$LN31@P_DeathMes:

; 1609 : 						CTFTEAMCODE(target->player),
; 1610 : 						player_names[target->player - players],
; 1611 : 						CTFTEAMENDCODE(target->player),
; 1612 : 						CTFTEAMCODE(source->player),
; 1613 : 						player_names[source->player - players],
; 1614 : 						CTFTEAMENDCODE(source->player));
; 1615 : 				return;

  00683	e9 08 05 00 00	 jmp	 $LN69@P_DeathMes
$LN19@P_DeathMes:

; 1616 : 			}
; 1617 : 		}

  00688	e9 b3 01 00 00	 jmp	 $LN4@P_DeathMes
$LN16@P_DeathMes:

; 1618 : 		else
; 1619 : 		{
; 1620 : 			switch (source->type)

  0068d	8b 45 10	 mov	 eax, DWORD PTR _source$[ebp]
  00690	8b 48 7c	 mov	 ecx, DWORD PTR [eax+124]
  00693	89 4d b0	 mov	 DWORD PTR tv305[ebp], ecx
  00696	83 7d b0 1d	 cmp	 DWORD PTR tv305[ebp], 29 ; 0000001dH
  0069a	7f 27		 jg	 SHORT $LN115@P_DeathMes
  0069c	83 7d b0 1d	 cmp	 DWORD PTR tv305[ebp], 29 ; 0000001dH
  006a0	0f 84 55 01 00
	00		 je	 $LN47@P_DeathMes
  006a6	8b 55 b0	 mov	 edx, DWORD PTR tv305[ebp]
  006a9	83 ea 01	 sub	 edx, 1
  006ac	89 55 b0	 mov	 DWORD PTR tv305[ebp], edx
  006af	83 7d b0 07	 cmp	 DWORD PTR tv305[ebp], 7
  006b3	0f 87 80 01 00
	00		 ja	 $LN51@P_DeathMes
  006b9	8b 45 b0	 mov	 eax, DWORD PTR tv305[ebp]
  006bc	ff 24 85 00 00
	00 00		 jmp	 DWORD PTR $LN130@P_DeathMes[eax*4]
$LN115@P_DeathMes:
  006c3	83 7d b0 1f	 cmp	 DWORD PTR tv305[ebp], 31 ; 0000001fH
  006c7	0f 84 4d 01 00
	00		 je	 $LN49@P_DeathMes
  006cd	81 7d b0 05 01
	00 00		 cmp	 DWORD PTR tv305[ebp], 261 ; 00000105H
  006d4	74 05		 je	 SHORT $LN32@P_DeathMes
  006d6	e9 5e 01 00 00	 jmp	 $LN51@P_DeathMes
$LN32@P_DeathMes:

; 1621 : 			{
; 1622 : 				case MT_DISS:
; 1623 : 					if (source->threshold == 42)

  006db	8b 45 10	 mov	 eax, DWORD PTR _source$[ebp]
  006de	83 b8 a0 00 00
	00 2a		 cmp	 DWORD PTR [eax+160], 42	; 0000002aH
  006e5	75 1b		 jne	 SHORT $LN33@P_DeathMes

; 1624 : 					{
; 1625 : 						str = text[PDEAD_DROWNED];

  006e7	b8 04 00 00 00	 mov	 eax, 4
  006ec	69 c8 1b 01 00
	00		 imul	 ecx, eax, 283
  006f2	8b 91 00 00 00
	00		 mov	 edx, DWORD PTR _text[ecx]
  006f8	89 55 fc	 mov	 DWORD PTR _str$[ebp], edx

; 1626 : 						useverb = false;

  006fb	c7 45 f8 00 00
	00 00		 mov	 DWORD PTR _useverb$[ebp], 0
$LN33@P_DeathMes:

; 1627 : 					}
; 1628 : 					if (source->threshold == 43)

  00702	8b 45 10	 mov	 eax, DWORD PTR _source$[ebp]
  00705	83 b8 a0 00 00
	00 2b		 cmp	 DWORD PTR [eax+160], 43	; 0000002bH
  0070c	75 1d		 jne	 SHORT $LN34@P_DeathMes

; 1629 : 					{
; 1630 : 						str = text[PDEAD_SPIK];

  0070e	b8 04 00 00 00	 mov	 eax, 4
  00713	69 c8 28 01 00
	00		 imul	 ecx, eax, 296
  00719	8b 91 00 00 00
	00		 mov	 edx, DWORD PTR _text[ecx]
  0071f	89 55 fc	 mov	 DWORD PTR _str$[ebp], edx

; 1631 : 						useverb = false;

  00722	c7 45 f8 00 00
	00 00		 mov	 DWORD PTR _useverb$[ebp], 0

; 1632 : 					}

  00729	eb 27		 jmp	 SHORT $LN36@P_DeathMes
$LN34@P_DeathMes:

; 1633 : 					else if (source->threshold == 44)

  0072b	8b 45 10	 mov	 eax, DWORD PTR _source$[ebp]
  0072e	83 b8 a0 00 00
	00 2c		 cmp	 DWORD PTR [eax+160], 44	; 0000002cH
  00735	75 1b		 jne	 SHORT $LN36@P_DeathMes

; 1634 : 					{
; 1635 : 						str = text[PDEAD_CRUSHED];

  00737	b8 04 00 00 00	 mov	 eax, 4
  0073c	69 c8 1c 01 00
	00		 imul	 ecx, eax, 284
  00742	8b 91 00 00 00
	00		 mov	 edx, DWORD PTR _text[ecx]
  00748	89 55 fc	 mov	 DWORD PTR _str$[ebp], edx

; 1636 : 						useverb = false;

  0074b	c7 45 f8 00 00
	00 00		 mov	 DWORD PTR _useverb$[ebp], 0
$LN36@P_DeathMes:

; 1637 : 					}
; 1638 : 					break;

  00752	e9 e9 00 00 00	 jmp	 $LN4@P_DeathMes
$LN37@P_DeathMes:

; 1639 : 				case MT_BLUECRAWLA:
; 1640 : 					if (netgame)

  00757	83 3d 00 00 00
	00 00		 cmp	 DWORD PTR _netgame, 0
  0075e	74 14		 je	 SHORT $LN38@P_DeathMes

; 1641 : 						str = text[PHURT_BCRAWLA];

  00760	b8 04 00 00 00	 mov	 eax, 4
  00765	69 c8 1d 01 00
	00		 imul	 ecx, eax, 285
  0076b	8b 91 00 00 00
	00		 mov	 edx, DWORD PTR _text[ecx]
  00771	89 55 fc	 mov	 DWORD PTR _str$[ebp], edx
$LN38@P_DeathMes:

; 1642 : 					break;

  00774	e9 c7 00 00 00	 jmp	 $LN4@P_DeathMes
$LN39@P_DeathMes:

; 1643 : 				case MT_REDCRAWLA:
; 1644 : 					if (netgame)

  00779	83 3d 00 00 00
	00 00		 cmp	 DWORD PTR _netgame, 0
  00780	74 14		 je	 SHORT $LN40@P_DeathMes

; 1645 : 						str = text[PHURT_RCRAWLA];

  00782	b8 04 00 00 00	 mov	 eax, 4
  00787	69 c8 1e 01 00
	00		 imul	 ecx, eax, 286
  0078d	8b 91 00 00 00
	00		 mov	 edx, DWORD PTR _text[ecx]
  00793	89 55 fc	 mov	 DWORD PTR _str$[ebp], edx
$LN40@P_DeathMes:

; 1646 : 					break;

  00796	e9 a5 00 00 00	 jmp	 $LN4@P_DeathMes
$LN41@P_DeathMes:

; 1647 : 				case MT_JETTGUNNER:
; 1648 : 					if (netgame)

  0079b	83 3d 00 00 00
	00 00		 cmp	 DWORD PTR _netgame, 0
  007a2	74 14		 je	 SHORT $LN42@P_DeathMes

; 1649 : 						str = text[PHURT_JETG];

  007a4	b8 04 00 00 00	 mov	 eax, 4
  007a9	69 c8 1f 01 00
	00		 imul	 ecx, eax, 287
  007af	8b 91 00 00 00
	00		 mov	 edx, DWORD PTR _text[ecx]
  007b5	89 55 fc	 mov	 DWORD PTR _str$[ebp], edx
$LN42@P_DeathMes:

; 1650 : 					break;

  007b8	e9 83 00 00 00	 jmp	 $LN4@P_DeathMes
$LN43@P_DeathMes:

; 1651 : 				case MT_JETTBOMBER:
; 1652 : 					if (netgame)

  007bd	83 3d 00 00 00
	00 00		 cmp	 DWORD PTR _netgame, 0
  007c4	74 14		 je	 SHORT $LN44@P_DeathMes

; 1653 : 						str = text[PHURT_JETB];

  007c6	b8 04 00 00 00	 mov	 eax, 4
  007cb	69 c8 20 01 00
	00		 imul	 ecx, eax, 288
  007d1	8b 91 00 00 00
	00		 mov	 edx, DWORD PTR _text[ecx]
  007d7	89 55 fc	 mov	 DWORD PTR _str$[ebp], edx
$LN44@P_DeathMes:

; 1654 : 					break;

  007da	eb 64		 jmp	 SHORT $LN4@P_DeathMes
$LN45@P_DeathMes:

; 1655 : 				case MT_CRAWLACOMMANDER:
; 1656 : 					if (netgame)

  007dc	83 3d 00 00 00
	00 00		 cmp	 DWORD PTR _netgame, 0
  007e3	74 14		 je	 SHORT $LN46@P_DeathMes

; 1657 : 						str = text[PHURT_CCRAWLA];

  007e5	b8 04 00 00 00	 mov	 eax, 4
  007ea	69 c8 21 01 00
	00		 imul	 ecx, eax, 289
  007f0	8b 91 00 00 00
	00		 mov	 edx, DWORD PTR _text[ecx]
  007f6	89 55 fc	 mov	 DWORD PTR _str$[ebp], edx
$LN46@P_DeathMes:

; 1658 : 					break;

  007f9	eb 45		 jmp	 SHORT $LN4@P_DeathMes
$LN47@P_DeathMes:

; 1659 : 				case MT_EGGMOBILE:
; 1660 : 					if (netgame)

  007fb	83 3d 00 00 00
	00 00		 cmp	 DWORD PTR _netgame, 0
  00802	74 14		 je	 SHORT $LN48@P_DeathMes

; 1661 : 						str = text[PHURT_BOSS1];

  00804	b8 04 00 00 00	 mov	 eax, 4
  00809	69 c8 22 01 00
	00		 imul	 ecx, eax, 290
  0080f	8b 91 00 00 00
	00		 mov	 edx, DWORD PTR _text[ecx]
  00815	89 55 fc	 mov	 DWORD PTR _str$[ebp], edx
$LN48@P_DeathMes:

; 1662 : 					break;

  00818	eb 26		 jmp	 SHORT $LN4@P_DeathMes
$LN49@P_DeathMes:

; 1663 : 				case MT_EGGMOBILE2:
; 1664 : 					if (netgame)

  0081a	83 3d 00 00 00
	00 00		 cmp	 DWORD PTR _netgame, 0
  00821	74 14		 je	 SHORT $LN50@P_DeathMes

; 1665 : 						str = text[PHURT_BOSS2];

  00823	b8 04 00 00 00	 mov	 eax, 4
  00828	69 c8 23 01 00
	00		 imul	 ecx, eax, 291
  0082e	8b 91 00 00 00
	00		 mov	 edx, DWORD PTR _text[ecx]
  00834	89 55 fc	 mov	 DWORD PTR _str$[ebp], edx
$LN50@P_DeathMes:

; 1666 : 					break;

  00837	eb 07		 jmp	 SHORT $LN4@P_DeathMes
$LN51@P_DeathMes:

; 1667 : 				default:
; 1668 : 					useverb = false;

  00839	c7 45 f8 00 00
	00 00		 mov	 DWORD PTR _useverb$[ebp], 0
$LN4@P_DeathMes:

; 1669 : 					break;
; 1670 : 			}
; 1671 : 		}
; 1672 : 	}

  00840	e9 41 01 00 00	 jmp	 $LN63@P_DeathMes
$LN12@P_DeathMes:

; 1673 : 	else
; 1674 : 	{ // source is NULL
; 1675 : 		// environment kills
; 1676 : 		if (P_PlayerTouchingSectorSpecial(target->player, 1, 1))

  00845	6a 01		 push	 1
  00847	6a 01		 push	 1
  00849	8b 45 08	 mov	 eax, DWORD PTR _target$[ebp]
  0084c	8b 88 a4 00 00
	00		 mov	 ecx, DWORD PTR [eax+164]
  00852	51		 push	 ecx
  00853	e8 00 00 00 00	 call	 _P_PlayerTouchingSectorSpecial
  00858	83 c4 0c	 add	 esp, 12			; 0000000cH
  0085b	85 c0		 test	 eax, eax
  0085d	74 19		 je	 SHORT $LN52@P_DeathMes

; 1677 : 			str = text[PDEAD_DIED];

  0085f	b8 04 00 00 00	 mov	 eax, 4
  00864	69 c8 0c 01 00
	00		 imul	 ecx, eax, 268
  0086a	8b 91 00 00 00
	00		 mov	 edx, DWORD PTR _text[ecx]
  00870	89 55 fc	 mov	 DWORD PTR _str$[ebp], edx
  00873	e9 0e 01 00 00	 jmp	 $LN63@P_DeathMes
$LN52@P_DeathMes:

; 1678 : 		else if (P_PlayerTouchingSectorSpecial(target->player, 1, 2))

  00878	6a 02		 push	 2
  0087a	6a 01		 push	 1
  0087c	8b 45 08	 mov	 eax, DWORD PTR _target$[ebp]
  0087f	8b 88 a4 00 00
	00		 mov	 ecx, DWORD PTR [eax+164]
  00885	51		 push	 ecx
  00886	e8 00 00 00 00	 call	 _P_PlayerTouchingSectorSpecial
  0088b	83 c4 0c	 add	 esp, 12			; 0000000cH
  0088e	85 c0		 test	 eax, eax
  00890	74 19		 je	 SHORT $LN54@P_DeathMes

; 1679 : 			str = text[PDEAD_GOOP];

  00892	b8 04 00 00 00	 mov	 eax, 4
  00897	69 c8 25 01 00
	00		 imul	 ecx, eax, 293
  0089d	8b 91 00 00 00
	00		 mov	 edx, DWORD PTR _text[ecx]
  008a3	89 55 fc	 mov	 DWORD PTR _str$[ebp], edx
  008a6	e9 db 00 00 00	 jmp	 $LN63@P_DeathMes
$LN54@P_DeathMes:

; 1680 : 		else if (P_PlayerTouchingSectorSpecial(target->player, 1, 3))

  008ab	6a 03		 push	 3
  008ad	6a 01		 push	 1
  008af	8b 45 08	 mov	 eax, DWORD PTR _target$[ebp]
  008b2	8b 88 a4 00 00
	00		 mov	 ecx, DWORD PTR [eax+164]
  008b8	51		 push	 ecx
  008b9	e8 00 00 00 00	 call	 _P_PlayerTouchingSectorSpecial
  008be	83 c4 0c	 add	 esp, 12			; 0000000cH
  008c1	85 c0		 test	 eax, eax
  008c3	74 19		 je	 SHORT $LN56@P_DeathMes

; 1681 : 			str = text[PDEAD_FIRE];

  008c5	b8 04 00 00 00	 mov	 eax, 4
  008ca	69 c8 26 01 00
	00		 imul	 ecx, eax, 294
  008d0	8b 91 00 00 00
	00		 mov	 edx, DWORD PTR _text[ecx]
  008d6	89 55 fc	 mov	 DWORD PTR _str$[ebp], edx
  008d9	e9 a8 00 00 00	 jmp	 $LN63@P_DeathMes
$LN56@P_DeathMes:

; 1682 : 		else if (P_PlayerTouchingSectorSpecial(target->player, 1, 4))

  008de	6a 04		 push	 4
  008e0	6a 01		 push	 1
  008e2	8b 45 08	 mov	 eax, DWORD PTR _target$[ebp]
  008e5	8b 88 a4 00 00
	00		 mov	 ecx, DWORD PTR [eax+164]
  008eb	51		 push	 ecx
  008ec	e8 00 00 00 00	 call	 _P_PlayerTouchingSectorSpecial
  008f1	83 c4 0c	 add	 esp, 12			; 0000000cH
  008f4	85 c0		 test	 eax, eax
  008f6	74 16		 je	 SHORT $LN58@P_DeathMes

; 1683 : 			str = text[PDEAD_ELEC];

  008f8	b8 04 00 00 00	 mov	 eax, 4
  008fd	69 c8 27 01 00
	00		 imul	 ecx, eax, 295
  00903	8b 91 00 00 00
	00		 mov	 edx, DWORD PTR _text[ecx]
  00909	89 55 fc	 mov	 DWORD PTR _str$[ebp], edx
  0090c	eb 78		 jmp	 SHORT $LN63@P_DeathMes
$LN58@P_DeathMes:

; 1684 : 		else if (P_PlayerTouchingSectorSpecial(target->player, 1, 6)
; 1685 : 			|| P_PlayerTouchingSectorSpecial(target->player, 1, 7))

  0090e	6a 06		 push	 6
  00910	6a 01		 push	 1
  00912	8b 45 08	 mov	 eax, DWORD PTR _target$[ebp]
  00915	8b 88 a4 00 00
	00		 mov	 ecx, DWORD PTR [eax+164]
  0091b	51		 push	 ecx
  0091c	e8 00 00 00 00	 call	 _P_PlayerTouchingSectorSpecial
  00921	83 c4 0c	 add	 esp, 12			; 0000000cH
  00924	85 c0		 test	 eax, eax
  00926	75 1a		 jne	 SHORT $LN62@P_DeathMes
  00928	6a 07		 push	 7
  0092a	6a 01		 push	 1
  0092c	8b 45 08	 mov	 eax, DWORD PTR _target$[ebp]
  0092f	8b 88 a4 00 00
	00		 mov	 ecx, DWORD PTR [eax+164]
  00935	51		 push	 ecx
  00936	e8 00 00 00 00	 call	 _P_PlayerTouchingSectorSpecial
  0093b	83 c4 0c	 add	 esp, 12			; 0000000cH
  0093e	85 c0		 test	 eax, eax
  00940	74 16		 je	 SHORT $LN60@P_DeathMes
$LN62@P_DeathMes:

; 1686 : 			str = text[PDEAD_PIT];

  00942	b8 04 00 00 00	 mov	 eax, 4
  00947	69 c8 24 01 00
	00		 imul	 ecx, eax, 292
  0094d	8b 91 00 00 00
	00		 mov	 edx, DWORD PTR _text[ecx]
  00953	89 55 fc	 mov	 DWORD PTR _str$[ebp], edx
  00956	eb 2e		 jmp	 SHORT $LN63@P_DeathMes
$LN60@P_DeathMes:

; 1687 : 		else if (P_PlayerTouchingSectorSpecial(target->player, 1, 12))

  00958	6a 0c		 push	 12			; 0000000cH
  0095a	6a 01		 push	 1
  0095c	8b 45 08	 mov	 eax, DWORD PTR _target$[ebp]
  0095f	8b 88 a4 00 00
	00		 mov	 ecx, DWORD PTR [eax+164]
  00965	51		 push	 ecx
  00966	e8 00 00 00 00	 call	 _P_PlayerTouchingSectorSpecial
  0096b	83 c4 0c	 add	 esp, 12			; 0000000cH
  0096e	85 c0		 test	 eax, eax
  00970	74 14		 je	 SHORT $LN63@P_DeathMes

; 1688 : 			str = text[PDEAD_SPAC];

  00972	b8 04 00 00 00	 mov	 eax, 4
  00977	69 c8 29 01 00
	00		 imul	 ecx, eax, 297
  0097d	8b 91 00 00 00
	00		 mov	 edx, DWORD PTR _text[ecx]
  00983	89 55 fc	 mov	 DWORD PTR _str$[ebp], edx
$LN63@P_DeathMes:

; 1689 : 	}
; 1690 : 
; 1691 : 	if (useverb)

  00986	83 7d f8 00	 cmp	 DWORD PTR _useverb$[ebp], 0
  0098a	0f 84 b0 00 00
	00		 je	 $LN64@P_DeathMes

; 1692 : 		CONS_Printf(str,

  00990	8b 45 08	 mov	 eax, DWORD PTR _target$[ebp]
  00993	8b 88 a4 00 00
	00		 mov	 ecx, DWORD PTR [eax+164]
  00999	83 b9 60 01 00
	00 00		 cmp	 DWORD PTR [ecx+352], 0
  009a0	74 09		 je	 SHORT $LN116@P_DeathMes
  009a2	c7 45 b0 00 00
	00 00		 mov	 DWORD PTR tv406[ebp], OFFSET ??_C@_01IFKFHFEL@?$IA@
  009a9	eb 07		 jmp	 SHORT $LN117@P_DeathMes
$LN116@P_DeathMes:
  009ab	c7 45 b0 00 00
	00 00		 mov	 DWORD PTR tv406[ebp], OFFSET ??_C@_00CNPNBAHC@@
$LN117@P_DeathMes:
  009b2	8b 55 08	 mov	 edx, DWORD PTR _target$[ebp]
  009b5	8b 82 a4 00 00
	00		 mov	 eax, DWORD PTR [edx+164]
  009bb	83 b8 60 01 00
	00 00		 cmp	 DWORD PTR [eax+352], 0
  009c2	74 2a		 je	 SHORT $LN120@P_DeathMes
  009c4	8b 4d 08	 mov	 ecx, DWORD PTR _target$[ebp]
  009c7	8b 91 a4 00 00
	00		 mov	 edx, DWORD PTR [ecx+164]
  009cd	83 ba 60 01 00
	00 01		 cmp	 DWORD PTR [edx+352], 1
  009d4	75 09		 jne	 SHORT $LN118@P_DeathMes
  009d6	c7 45 ac 00 00
	00 00		 mov	 DWORD PTR tv419[ebp], OFFSET ??_C@_01PINCIBAO@?$IF@
  009dd	eb 07		 jmp	 SHORT $LN119@P_DeathMes
$LN118@P_DeathMes:
  009df	c7 45 ac 00 00
	00 00		 mov	 DWORD PTR tv419[ebp], OFFSET ??_C@_01OBMJLAEP@?$IE@
$LN119@P_DeathMes:
  009e6	8b 45 ac	 mov	 eax, DWORD PTR tv419[ebp]
  009e9	89 45 a8	 mov	 DWORD PTR tv421[ebp], eax
  009ec	eb 07		 jmp	 SHORT $LN121@P_DeathMes
$LN120@P_DeathMes:
  009ee	c7 45 a8 00 00
	00 00		 mov	 DWORD PTR tv421[ebp], OFFSET ??_C@_00CNPNBAHC@@
$LN121@P_DeathMes:
  009f5	b9 04 00 00 00	 mov	 ecx, 4
  009fa	69 d1 0e 01 00
	00		 imul	 edx, ecx, 270
  00a00	8b 82 00 00 00
	00		 mov	 eax, DWORD PTR _text[edx]
  00a06	50		 push	 eax
  00a07	8b 4d b0	 mov	 ecx, DWORD PTR tv406[ebp]
  00a0a	51		 push	 ecx
  00a0b	8b 55 08	 mov	 edx, DWORD PTR _target$[ebp]
  00a0e	8b 82 a4 00 00
	00		 mov	 eax, DWORD PTR [edx+164]
  00a14	2d 00 00 00 00	 sub	 eax, OFFSET _players
  00a19	99		 cdq
  00a1a	b9 fc 01 00 00	 mov	 ecx, 508		; 000001fcH
  00a1f	f7 f9		 idiv	 ecx
  00a21	6b d0 16	 imul	 edx, eax, 22
  00a24	81 c2 00 00 00
	00		 add	 edx, OFFSET _player_names
  00a2a	52		 push	 edx
  00a2b	8b 45 a8	 mov	 eax, DWORD PTR tv421[ebp]
  00a2e	50		 push	 eax
  00a2f	8b 4d fc	 mov	 ecx, DWORD PTR _str$[ebp]
  00a32	51		 push	 ecx
  00a33	e8 00 00 00 00	 call	 _CONS_Printf
  00a38	83 c4 14	 add	 esp, 20			; 00000014H
  00a3b	e9 99 00 00 00	 jmp	 $LN65@P_DeathMes
$LN64@P_DeathMes:

; 1693 : 			CTFTEAMCODE(target->player),
; 1694 : 			player_names[target->player - players],
; 1695 : 			CTFTEAMENDCODE(target->player), text[P_KILLEDVERB]);
; 1696 : 	else
; 1697 : 		CONS_Printf(str,

  00a40	8b 45 08	 mov	 eax, DWORD PTR _target$[ebp]
  00a43	8b 88 a4 00 00
	00		 mov	 ecx, DWORD PTR [eax+164]
  00a49	83 b9 60 01 00
	00 00		 cmp	 DWORD PTR [ecx+352], 0
  00a50	74 09		 je	 SHORT $LN122@P_DeathMes
  00a52	c7 45 b0 00 00
	00 00		 mov	 DWORD PTR tv427[ebp], OFFSET ??_C@_01IFKFHFEL@?$IA@
  00a59	eb 07		 jmp	 SHORT $LN123@P_DeathMes
$LN122@P_DeathMes:
  00a5b	c7 45 b0 00 00
	00 00		 mov	 DWORD PTR tv427[ebp], OFFSET ??_C@_00CNPNBAHC@@
$LN123@P_DeathMes:
  00a62	8b 55 08	 mov	 edx, DWORD PTR _target$[ebp]
  00a65	8b 82 a4 00 00
	00		 mov	 eax, DWORD PTR [edx+164]
  00a6b	83 b8 60 01 00
	00 00		 cmp	 DWORD PTR [eax+352], 0
  00a72	74 2a		 je	 SHORT $LN126@P_DeathMes
  00a74	8b 4d 08	 mov	 ecx, DWORD PTR _target$[ebp]
  00a77	8b 91 a4 00 00
	00		 mov	 edx, DWORD PTR [ecx+164]
  00a7d	83 ba 60 01 00
	00 01		 cmp	 DWORD PTR [edx+352], 1
  00a84	75 09		 jne	 SHORT $LN124@P_DeathMes
  00a86	c7 45 ac 00 00
	00 00		 mov	 DWORD PTR tv440[ebp], OFFSET ??_C@_01PINCIBAO@?$IF@
  00a8d	eb 07		 jmp	 SHORT $LN125@P_DeathMes
$LN124@P_DeathMes:
  00a8f	c7 45 ac 00 00
	00 00		 mov	 DWORD PTR tv440[ebp], OFFSET ??_C@_01OBMJLAEP@?$IE@
$LN125@P_DeathMes:
  00a96	8b 45 ac	 mov	 eax, DWORD PTR tv440[ebp]
  00a99	89 45 a8	 mov	 DWORD PTR tv442[ebp], eax
  00a9c	eb 07		 jmp	 SHORT $LN127@P_DeathMes
$LN126@P_DeathMes:
  00a9e	c7 45 a8 00 00
	00 00		 mov	 DWORD PTR tv442[ebp], OFFSET ??_C@_00CNPNBAHC@@
$LN127@P_DeathMes:
  00aa5	8b 4d b0	 mov	 ecx, DWORD PTR tv427[ebp]
  00aa8	51		 push	 ecx
  00aa9	8b 55 08	 mov	 edx, DWORD PTR _target$[ebp]
  00aac	8b 82 a4 00 00
	00		 mov	 eax, DWORD PTR [edx+164]
  00ab2	2d 00 00 00 00	 sub	 eax, OFFSET _players
  00ab7	99		 cdq
  00ab8	b9 fc 01 00 00	 mov	 ecx, 508		; 000001fcH
  00abd	f7 f9		 idiv	 ecx
  00abf	6b d0 16	 imul	 edx, eax, 22
  00ac2	81 c2 00 00 00
	00		 add	 edx, OFFSET _player_names
  00ac8	52		 push	 edx
  00ac9	8b 45 a8	 mov	 eax, DWORD PTR tv442[ebp]
  00acc	50		 push	 eax
  00acd	8b 4d fc	 mov	 ecx, DWORD PTR _str$[ebp]
  00ad0	51		 push	 ecx
  00ad1	e8 00 00 00 00	 call	 _CONS_Printf
  00ad6	83 c4 10	 add	 esp, 16			; 00000010H
$LN65@P_DeathMes:

; 1698 : 			CTFTEAMCODE(target->player),
; 1699 : 			player_names[target->player - players],
; 1700 : 			CTFTEAMENDCODE(target->player));
; 1701 : 
; 1702 : 	if ((gametype == GT_COOP || gametype == GT_RACE))

  00ad9	0f bf 05 00 00
	00 00		 movsx	 eax, WORD PTR _gametype
  00ae0	85 c0		 test	 eax, eax
  00ae2	74 10		 je	 SHORT $LN67@P_DeathMes
  00ae4	0f bf 05 00 00
	00 00		 movsx	 eax, WORD PTR _gametype
  00aeb	83 f8 02	 cmp	 eax, 2
  00aee	0f 85 9c 00 00
	00		 jne	 $LN69@P_DeathMes
$LN67@P_DeathMes:

; 1703 : 	{
; 1704 : 		if (target->player->lives - 1 <= 0)

  00af4	8b 45 08	 mov	 eax, DWORD PTR _target$[ebp]
  00af7	8b 88 a4 00 00
	00		 mov	 ecx, DWORD PTR [eax+164]
  00afd	8b 91 00 01 00
	00		 mov	 edx, DWORD PTR [ecx+256]
  00b03	83 ea 01	 sub	 edx, 1
  00b06	85 d2		 test	 edx, edx
  00b08	7f 3c		 jg	 SHORT $LN68@P_DeathMes

; 1705 : 			CONS_Printf(text[PLAYERGAMEOVER],player_names[target->player-players]);

  00b0a	8b 45 08	 mov	 eax, DWORD PTR _target$[ebp]
  00b0d	8b 80 a4 00 00
	00		 mov	 eax, DWORD PTR [eax+164]
  00b13	2d 00 00 00 00	 sub	 eax, OFFSET _players
  00b18	99		 cdq
  00b19	b9 fc 01 00 00	 mov	 ecx, 508		; 000001fcH
  00b1e	f7 f9		 idiv	 ecx
  00b20	6b d0 16	 imul	 edx, eax, 22
  00b23	81 c2 00 00 00
	00		 add	 edx, OFFSET _player_names
  00b29	52		 push	 edx
  00b2a	b8 04 00 00 00	 mov	 eax, 4
  00b2f	69 c8 2c 01 00
	00		 imul	 ecx, eax, 300
  00b35	8b 91 00 00 00
	00		 mov	 edx, DWORD PTR _text[ecx]
  00b3b	52		 push	 edx
  00b3c	e8 00 00 00 00	 call	 _CONS_Printf
  00b41	83 c4 08	 add	 esp, 8
  00b44	eb 4a		 jmp	 SHORT $LN69@P_DeathMes
$LN68@P_DeathMes:

; 1706 : 		else
; 1707 : 			CONS_Printf(text[PLAYERLIVESREMAINING], player_names[target->player-players], target->player->lives);

  00b46	8b 45 08	 mov	 eax, DWORD PTR _target$[ebp]
  00b49	8b 88 a4 00 00
	00		 mov	 ecx, DWORD PTR [eax+164]
  00b4f	8b 91 00 01 00
	00		 mov	 edx, DWORD PTR [ecx+256]
  00b55	52		 push	 edx
  00b56	8b 45 08	 mov	 eax, DWORD PTR _target$[ebp]
  00b59	8b 80 a4 00 00
	00		 mov	 eax, DWORD PTR [eax+164]
  00b5f	2d 00 00 00 00	 sub	 eax, OFFSET _players
  00b64	99		 cdq
  00b65	b9 fc 01 00 00	 mov	 ecx, 508		; 000001fcH
  00b6a	f7 f9		 idiv	 ecx
  00b6c	6b d0 16	 imul	 edx, eax, 22
  00b6f	81 c2 00 00 00
	00		 add	 edx, OFFSET _player_names
  00b75	52		 push	 edx
  00b76	b8 04 00 00 00	 mov	 eax, 4
  00b7b	69 c8 2d 01 00
	00		 imul	 ecx, eax, 301
  00b81	8b 91 00 00 00
	00		 mov	 edx, DWORD PTR _text[ecx]
  00b87	52		 push	 edx
  00b88	e8 00 00 00 00	 call	 _CONS_Printf
  00b8d	83 c4 0c	 add	 esp, 12			; 0000000cH
$LN69@P_DeathMes:

; 1708 : 	}
; 1709 : }

  00b90	5f		 pop	 edi
  00b91	5e		 pop	 esi
  00b92	5b		 pop	 ebx
  00b93	8b e5		 mov	 esp, ebp
  00b95	5d		 pop	 ebp
  00b96	c3		 ret	 0
  00b97	90		 npad	 1
$LN129@P_DeathMes:
  00b98	00 00 00 00	 DD	 $LN20@P_DeathMes
  00b9c	00 00 00 00	 DD	 $LN26@P_DeathMes
  00ba0	00 00 00 00	 DD	 $LN21@P_DeathMes
  00ba4	00 00 00 00	 DD	 $LN22@P_DeathMes
  00ba8	00 00 00 00	 DD	 $LN23@P_DeathMes
  00bac	00 00 00 00	 DD	 $LN24@P_DeathMes
  00bb0	00 00 00 00	 DD	 $LN25@P_DeathMes
  00bb4	00 00 00 00	 DD	 $LN29@P_DeathMes
$LN128@P_DeathMes:
  00bb8	00		 DB	 0
  00bb9	07		 DB	 7
  00bba	07		 DB	 7
  00bbb	07		 DB	 7
  00bbc	07		 DB	 7
  00bbd	07		 DB	 7
  00bbe	07		 DB	 7
  00bbf	07		 DB	 7
  00bc0	07		 DB	 7
  00bc1	07		 DB	 7
  00bc2	07		 DB	 7
  00bc3	07		 DB	 7
  00bc4	07		 DB	 7
  00bc5	07		 DB	 7
  00bc6	07		 DB	 7
  00bc7	07		 DB	 7
  00bc8	07		 DB	 7
  00bc9	07		 DB	 7
  00bca	07		 DB	 7
  00bcb	07		 DB	 7
  00bcc	07		 DB	 7
  00bcd	07		 DB	 7
  00bce	07		 DB	 7
  00bcf	07		 DB	 7
  00bd0	07		 DB	 7
  00bd1	07		 DB	 7
  00bd2	07		 DB	 7
  00bd3	07		 DB	 7
  00bd4	07		 DB	 7
  00bd5	07		 DB	 7
  00bd6	07		 DB	 7
  00bd7	07		 DB	 7
  00bd8	07		 DB	 7
  00bd9	07		 DB	 7
  00bda	07		 DB	 7
  00bdb	07		 DB	 7
  00bdc	07		 DB	 7
  00bdd	07		 DB	 7
  00bde	07		 DB	 7
  00bdf	07		 DB	 7
  00be0	07		 DB	 7
  00be1	07		 DB	 7
  00be2	07		 DB	 7
  00be3	07		 DB	 7
  00be4	07		 DB	 7
  00be5	07		 DB	 7
  00be6	07		 DB	 7
  00be7	07		 DB	 7
  00be8	07		 DB	 7
  00be9	07		 DB	 7
  00bea	07		 DB	 7
  00beb	07		 DB	 7
  00bec	07		 DB	 7
  00bed	07		 DB	 7
  00bee	07		 DB	 7
  00bef	07		 DB	 7
  00bf0	07		 DB	 7
  00bf1	07		 DB	 7
  00bf2	07		 DB	 7
  00bf3	07		 DB	 7
  00bf4	07		 DB	 7
  00bf5	07		 DB	 7
  00bf6	07		 DB	 7
  00bf7	07		 DB	 7
  00bf8	07		 DB	 7
  00bf9	07		 DB	 7
  00bfa	07		 DB	 7
  00bfb	07		 DB	 7
  00bfc	07		 DB	 7
  00bfd	07		 DB	 7
  00bfe	07		 DB	 7
  00bff	07		 DB	 7
  00c00	07		 DB	 7
  00c01	07		 DB	 7
  00c02	07		 DB	 7
  00c03	07		 DB	 7
  00c04	07		 DB	 7
  00c05	07		 DB	 7
  00c06	07		 DB	 7
  00c07	07		 DB	 7
  00c08	07		 DB	 7
  00c09	07		 DB	 7
  00c0a	07		 DB	 7
  00c0b	07		 DB	 7
  00c0c	07		 DB	 7
  00c0d	07		 DB	 7
  00c0e	07		 DB	 7
  00c0f	07		 DB	 7
  00c10	07		 DB	 7
  00c11	07		 DB	 7
  00c12	07		 DB	 7
  00c13	07		 DB	 7
  00c14	07		 DB	 7
  00c15	07		 DB	 7
  00c16	07		 DB	 7
  00c17	07		 DB	 7
  00c18	07		 DB	 7
  00c19	07		 DB	 7
  00c1a	07		 DB	 7
  00c1b	07		 DB	 7
  00c1c	07		 DB	 7
  00c1d	07		 DB	 7
  00c1e	07		 DB	 7
  00c1f	07		 DB	 7
  00c20	07		 DB	 7
  00c21	07		 DB	 7
  00c22	07		 DB	 7
  00c23	07		 DB	 7
  00c24	07		 DB	 7
  00c25	07		 DB	 7
  00c26	07		 DB	 7
  00c27	07		 DB	 7
  00c28	07		 DB	 7
  00c29	07		 DB	 7
  00c2a	07		 DB	 7
  00c2b	07		 DB	 7
  00c2c	07		 DB	 7
  00c2d	07		 DB	 7
  00c2e	07		 DB	 7
  00c2f	07		 DB	 7
  00c30	07		 DB	 7
  00c31	07		 DB	 7
  00c32	07		 DB	 7
  00c33	07		 DB	 7
  00c34	07		 DB	 7
  00c35	07		 DB	 7
  00c36	07		 DB	 7
  00c37	07		 DB	 7
  00c38	07		 DB	 7
  00c39	07		 DB	 7
  00c3a	07		 DB	 7
  00c3b	07		 DB	 7
  00c3c	07		 DB	 7
  00c3d	07		 DB	 7
  00c3e	07		 DB	 7
  00c3f	07		 DB	 7
  00c40	01		 DB	 1
  00c41	07		 DB	 7
  00c42	07		 DB	 7
  00c43	07		 DB	 7
  00c44	07		 DB	 7
  00c45	07		 DB	 7
  00c46	07		 DB	 7
  00c47	07		 DB	 7
  00c48	07		 DB	 7
  00c49	07		 DB	 7
  00c4a	07		 DB	 7
  00c4b	07		 DB	 7
  00c4c	07		 DB	 7
  00c4d	02		 DB	 2
  00c4e	03		 DB	 3
  00c4f	04		 DB	 4
  00c50	05		 DB	 5
  00c51	06		 DB	 6
  00c52	66 90		 npad	 2
$LN130@P_DeathMes:
  00c54	00 00 00 00	 DD	 $LN37@P_DeathMes
  00c58	00 00 00 00	 DD	 $LN39@P_DeathMes
  00c5c	00 00 00 00	 DD	 $LN51@P_DeathMes
  00c60	00 00 00 00	 DD	 $LN51@P_DeathMes
  00c64	00 00 00 00	 DD	 $LN51@P_DeathMes
  00c68	00 00 00 00	 DD	 $LN43@P_DeathMes
  00c6c	00 00 00 00	 DD	 $LN41@P_DeathMes
  00c70	00 00 00 00	 DD	 $LN45@P_DeathMes
_P_DeathMessages ENDP
_TEXT	ENDS
; Function compile flags: /Odtp /ZI
; File C:\Users\RafaTheFox\Downloads\SRB2-Public-master\src\p_inter.c
;	COMDAT _P_DoNightsScore
_TEXT	SEGMENT
_dummymo$ = -4						; size = 4
_player$ = 8						; size = 4
_P_DoNightsScore PROC					; COMDAT

; 136  : {

  00000	55		 push	 ebp
  00001	8b ec		 mov	 ebp, esp
  00003	83 ec 44	 sub	 esp, 68			; 00000044H
  00006	53		 push	 ebx
  00007	56		 push	 esi
  00008	57		 push	 edi

; 137  : 	mobj_t *dummymo;
; 138  : 
; 139  : 	player->linkcount++;

  00009	8b 45 08	 mov	 eax, DWORD PTR _player$[ebp]
  0000c	8b 88 b8 01 00
	00		 mov	 ecx, DWORD PTR [eax+440]
  00012	83 c1 01	 add	 ecx, 1
  00015	8b 55 08	 mov	 edx, DWORD PTR _player$[ebp]
  00018	89 8a b8 01 00
	00		 mov	 DWORD PTR [edx+440], ecx

; 140  : 	player->linktimer = 2*TICRATE;

  0001e	8b 45 08	 mov	 eax, DWORD PTR _player$[ebp]
  00021	c7 80 bc 01 00
	00 46 00 00 00	 mov	 DWORD PTR [eax+444], 70	; 00000046H

; 141  : 
; 142  : 	dummymo = P_SpawnMobj(player->mo->x, player->mo->y, player->mo->z+player->mo->height/2, MT_NIGHTSCORE);

  0002b	68 fb 00 00 00	 push	 251			; 000000fbH
  00030	8b 45 08	 mov	 eax, DWORD PTR _player$[ebp]
  00033	8b 08		 mov	 ecx, DWORD PTR [eax]
  00035	8b 55 08	 mov	 edx, DWORD PTR _player$[ebp]
  00038	8b 02		 mov	 eax, DWORD PTR [edx]
  0003a	8b 40 44	 mov	 eax, DWORD PTR [eax+68]
  0003d	99		 cdq
  0003e	2b c2		 sub	 eax, edx
  00040	d1 f8		 sar	 eax, 1
  00042	03 41 18	 add	 eax, DWORD PTR [ecx+24]
  00045	50		 push	 eax
  00046	8b 4d 08	 mov	 ecx, DWORD PTR _player$[ebp]
  00049	8b 11		 mov	 edx, DWORD PTR [ecx]
  0004b	8b 42 14	 mov	 eax, DWORD PTR [edx+20]
  0004e	50		 push	 eax
  0004f	8b 4d 08	 mov	 ecx, DWORD PTR _player$[ebp]
  00052	8b 11		 mov	 edx, DWORD PTR [ecx]
  00054	8b 42 10	 mov	 eax, DWORD PTR [edx+16]
  00057	50		 push	 eax
  00058	e8 00 00 00 00	 call	 _P_SpawnMobj
  0005d	83 c4 10	 add	 esp, 16			; 00000010H
  00060	89 45 fc	 mov	 DWORD PTR _dummymo$[ebp], eax

; 143  : 
; 144  : 	if (player->linkcount < 10)

  00063	8b 45 08	 mov	 eax, DWORD PTR _player$[ebp]
  00066	83 b8 b8 01 00
	00 0a		 cmp	 DWORD PTR [eax+440], 10	; 0000000aH
  0006d	0f 8d 8c 00 00
	00		 jge	 $LN2@P_DoNights

; 145  : 	{
; 146  : 		if (player->bonustime)

  00073	8b 45 08	 mov	 eax, DWORD PTR _player$[ebp]
  00076	0f b6 88 cd 01
	00 00		 movzx	 ecx, BYTE PTR [eax+461]
  0007d	85 c9		 test	 ecx, ecx
  0007f	74 3f		 je	 SHORT $LN4@P_DoNights

; 147  : 		{
; 148  : 			P_AddPlayerScore(player, player->linkcount*20);

  00081	8b 45 08	 mov	 eax, DWORD PTR _player$[ebp]
  00084	6b 88 b8 01 00
	00 14		 imul	 ecx, DWORD PTR [eax+440], 20
  0008b	51		 push	 ecx
  0008c	8b 55 08	 mov	 edx, DWORD PTR _player$[ebp]
  0008f	52		 push	 edx
  00090	e8 00 00 00 00	 call	 _P_AddPlayerScore
  00095	83 c4 08	 add	 esp, 8

; 149  : 			P_SetMobjState(dummymo, dummymo->info->xdeathstate+player->linkcount-1);

  00098	8b 45 fc	 mov	 eax, DWORD PTR _dummymo$[ebp]
  0009b	8b 88 80 00 00
	00		 mov	 ecx, DWORD PTR [eax+128]
  000a1	8b 51 34	 mov	 edx, DWORD PTR [ecx+52]
  000a4	8b 45 08	 mov	 eax, DWORD PTR _player$[ebp]
  000a7	8b 88 b8 01 00
	00		 mov	 ecx, DWORD PTR [eax+440]
  000ad	8d 54 0a ff	 lea	 edx, DWORD PTR [edx+ecx-1]
  000b1	52		 push	 edx
  000b2	8b 45 fc	 mov	 eax, DWORD PTR _dummymo$[ebp]
  000b5	50		 push	 eax
  000b6	e8 00 00 00 00	 call	 _P_SetMobjState
  000bb	83 c4 08	 add	 esp, 8

; 150  : 		}

  000be	eb 3d		 jmp	 SHORT $LN5@P_DoNights
$LN4@P_DoNights:

; 151  : 		else
; 152  : 		{
; 153  : 			P_AddPlayerScore(player, player->linkcount*10);

  000c0	8b 45 08	 mov	 eax, DWORD PTR _player$[ebp]
  000c3	6b 88 b8 01 00
	00 0a		 imul	 ecx, DWORD PTR [eax+440], 10
  000ca	51		 push	 ecx
  000cb	8b 55 08	 mov	 edx, DWORD PTR _player$[ebp]
  000ce	52		 push	 edx
  000cf	e8 00 00 00 00	 call	 _P_AddPlayerScore
  000d4	83 c4 08	 add	 esp, 8

; 154  : 			P_SetMobjState(dummymo, dummymo->info->spawnstate+player->linkcount-1);

  000d7	8b 45 fc	 mov	 eax, DWORD PTR _dummymo$[ebp]
  000da	8b 88 80 00 00
	00		 mov	 ecx, DWORD PTR [eax+128]
  000e0	8b 51 04	 mov	 edx, DWORD PTR [ecx+4]
  000e3	8b 45 08	 mov	 eax, DWORD PTR _player$[ebp]
  000e6	8b 88 b8 01 00
	00		 mov	 ecx, DWORD PTR [eax+440]
  000ec	8d 54 0a ff	 lea	 edx, DWORD PTR [edx+ecx-1]
  000f0	52		 push	 edx
  000f1	8b 45 fc	 mov	 eax, DWORD PTR _dummymo$[ebp]
  000f4	50		 push	 eax
  000f5	e8 00 00 00 00	 call	 _P_SetMobjState
  000fa	83 c4 08	 add	 esp, 8
$LN5@P_DoNights:

; 155  : 		}
; 156  : 	}

  000fd	eb 67		 jmp	 SHORT $LN7@P_DoNights
$LN2@P_DoNights:

; 157  : 	else
; 158  : 	{
; 159  : 		if (player->bonustime)

  000ff	8b 45 08	 mov	 eax, DWORD PTR _player$[ebp]
  00102	0f b6 88 cd 01
	00 00		 movzx	 ecx, BYTE PTR [eax+461]
  00109	85 c9		 test	 ecx, ecx
  0010b	74 2f		 je	 SHORT $LN6@P_DoNights

; 160  : 		{
; 161  : 			P_AddPlayerScore(player, 200);

  0010d	68 c8 00 00 00	 push	 200			; 000000c8H
  00112	8b 45 08	 mov	 eax, DWORD PTR _player$[ebp]
  00115	50		 push	 eax
  00116	e8 00 00 00 00	 call	 _P_AddPlayerScore
  0011b	83 c4 08	 add	 esp, 8

; 162  : 			P_SetMobjState(dummymo, dummymo->info->xdeathstate+9);

  0011e	8b 45 fc	 mov	 eax, DWORD PTR _dummymo$[ebp]
  00121	8b 88 80 00 00
	00		 mov	 ecx, DWORD PTR [eax+128]
  00127	8b 51 34	 mov	 edx, DWORD PTR [ecx+52]
  0012a	83 c2 09	 add	 edx, 9
  0012d	52		 push	 edx
  0012e	8b 45 fc	 mov	 eax, DWORD PTR _dummymo$[ebp]
  00131	50		 push	 eax
  00132	e8 00 00 00 00	 call	 _P_SetMobjState
  00137	83 c4 08	 add	 esp, 8

; 163  : 		}

  0013a	eb 2a		 jmp	 SHORT $LN7@P_DoNights
$LN6@P_DoNights:

; 164  : 		else
; 165  : 		{
; 166  : 			P_AddPlayerScore(player, 100);

  0013c	6a 64		 push	 100			; 00000064H
  0013e	8b 45 08	 mov	 eax, DWORD PTR _player$[ebp]
  00141	50		 push	 eax
  00142	e8 00 00 00 00	 call	 _P_AddPlayerScore
  00147	83 c4 08	 add	 esp, 8

; 167  : 			P_SetMobjState(dummymo, dummymo->info->spawnstate+9);

  0014a	8b 45 fc	 mov	 eax, DWORD PTR _dummymo$[ebp]
  0014d	8b 88 80 00 00
	00		 mov	 ecx, DWORD PTR [eax+128]
  00153	8b 51 04	 mov	 edx, DWORD PTR [ecx+4]
  00156	83 c2 09	 add	 edx, 9
  00159	52		 push	 edx
  0015a	8b 45 fc	 mov	 eax, DWORD PTR _dummymo$[ebp]
  0015d	50		 push	 eax
  0015e	e8 00 00 00 00	 call	 _P_SetMobjState
  00163	83 c4 08	 add	 esp, 8
$LN7@P_DoNights:

; 168  : 		}
; 169  : 	}
; 170  : 	player->drillmeter += TICRATE;

  00166	8b 45 08	 mov	 eax, DWORD PTR _player$[ebp]
  00169	8b 88 c8 01 00
	00		 mov	 ecx, DWORD PTR [eax+456]
  0016f	83 c1 23	 add	 ecx, 35			; 00000023H
  00172	8b 55 08	 mov	 edx, DWORD PTR _player$[ebp]
  00175	89 8a c8 01 00
	00		 mov	 DWORD PTR [edx+456], ecx

; 171  : 	dummymo->momz = FRACUNIT;

  0017b	8b 45 fc	 mov	 eax, DWORD PTR _dummymo$[ebp]
  0017e	c7 40 50 00 00
	01 00		 mov	 DWORD PTR [eax+80], 65536 ; 00010000H

; 172  : 	dummymo->fuse = 3*TICRATE;

  00185	8b 45 fc	 mov	 eax, DWORD PTR _dummymo$[ebp]
  00188	c7 80 bc 00 00
	00 69 00 00 00	 mov	 DWORD PTR [eax+188], 105 ; 00000069H

; 173  : 
; 174  : 	P_InstaThrust(dummymo, R_PointToAngle2(dummymo->x, dummymo->y, camera.x, camera.y), 3*FRACUNIT);

  00192	68 00 00 03 00	 push	 196608			; 00030000H
  00197	a1 14 00 00 00	 mov	 eax, DWORD PTR _camera+20
  0019c	50		 push	 eax
  0019d	8b 0d 10 00 00
	00		 mov	 ecx, DWORD PTR _camera+16
  001a3	51		 push	 ecx
  001a4	8b 55 fc	 mov	 edx, DWORD PTR _dummymo$[ebp]
  001a7	8b 42 14	 mov	 eax, DWORD PTR [edx+20]
  001aa	50		 push	 eax
  001ab	8b 4d fc	 mov	 ecx, DWORD PTR _dummymo$[ebp]
  001ae	8b 51 10	 mov	 edx, DWORD PTR [ecx+16]
  001b1	52		 push	 edx
  001b2	e8 00 00 00 00	 call	 _R_PointToAngle2
  001b7	83 c4 10	 add	 esp, 16			; 00000010H
  001ba	50		 push	 eax
  001bb	8b 45 fc	 mov	 eax, DWORD PTR _dummymo$[ebp]
  001be	50		 push	 eax
  001bf	e8 00 00 00 00	 call	 _P_InstaThrust
  001c4	83 c4 0c	 add	 esp, 12			; 0000000cH

; 175  : }

  001c7	5f		 pop	 edi
  001c8	5e		 pop	 esi
  001c9	5b		 pop	 ebx
  001ca	8b e5		 mov	 esp, ebp
  001cc	5d		 pop	 ebp
  001cd	c3		 ret	 0
_P_DoNightsScore ENDP
_TEXT	ENDS
; Function compile flags: /Odtp /ZI
; File C:\Users\RafaTheFox\Downloads\SRB2-Public-master\src\p_inter.c
;	COMDAT _P_CanPickupItem
_TEXT	SEGMENT
_player$ = 8						; size = 4
_weapon$ = 12						; size = 4
_P_CanPickupItem PROC					; COMDAT

; 120  : {

  00000	55		 push	 ebp
  00001	8b ec		 mov	 ebp, esp
  00003	83 ec 40	 sub	 esp, 64			; 00000040H
  00006	53		 push	 ebx
  00007	56		 push	 esi
  00008	57		 push	 edi

; 121  : 	(void)weapon; //unused
; 122  : 
; 123  : 	if (player->powers[pw_flashing] > (flashingtics/4)*3 && player->powers[pw_flashing] <= flashingtics)

  00009	b9 04 00 00 00	 mov	 ecx, 4
  0000e	d1 e1		 shl	 ecx, 1
  00010	a1 00 00 00 00	 mov	 eax, DWORD PTR _flashingtics
  00015	99		 cdq
  00016	83 e2 03	 and	 edx, 3
  00019	03 c2		 add	 eax, edx
  0001b	c1 f8 02	 sar	 eax, 2
  0001e	6b d0 03	 imul	 edx, eax, 3
  00021	8b 45 08	 mov	 eax, DWORD PTR _player$[ebp]
  00024	39 54 08 38	 cmp	 DWORD PTR [eax+ecx+56], edx
  00028	7e 1a		 jle	 SHORT $LN2@P_CanPicku
  0002a	b8 04 00 00 00	 mov	 eax, 4
  0002f	d1 e0		 shl	 eax, 1
  00031	8b 4d 08	 mov	 ecx, DWORD PTR _player$[ebp]
  00034	8b 54 01 38	 mov	 edx, DWORD PTR [ecx+eax+56]
  00038	3b 15 00 00 00
	00		 cmp	 edx, DWORD PTR _flashingtics
  0003e	7f 04		 jg	 SHORT $LN2@P_CanPicku

; 124  : 		return false;

  00040	33 c0		 xor	 eax, eax
  00042	eb 05		 jmp	 SHORT $LN1@P_CanPicku
$LN2@P_CanPicku:

; 125  : 
; 126  : 	return true;

  00044	b8 01 00 00 00	 mov	 eax, 1
$LN1@P_CanPicku:

; 127  : }

  00049	5f		 pop	 edi
  0004a	5e		 pop	 esi
  0004b	5b		 pop	 ebx
  0004c	8b e5		 mov	 esp, ebp
  0004e	5d		 pop	 ebp
  0004f	c3		 ret	 0
_P_CanPickupItem ENDP
_TEXT	ENDS
; Function compile flags: /Odtp /ZI
; File C:\Users\RafaTheFox\Downloads\SRB2-Public-master\src\p_inter.c
;	COMDAT _P_ClearStarPost
_TEXT	SEGMENT
_mo2$ = -8						; size = 4
_th$ = -4						; size = 4
_player$ = 8						; size = 4
_postnum$ = 12						; size = 4
_P_ClearStarPost PROC					; COMDAT

; 93   : {

  00000	55		 push	 ebp
  00001	8b ec		 mov	 ebp, esp
  00003	83 ec 48	 sub	 esp, 72			; 00000048H
  00006	53		 push	 ebx
  00007	56		 push	 esi
  00008	57		 push	 edi

; 94   : 	thinker_t *th;
; 95   : 	mobj_t *mo2;
; 96   : 
; 97   : 	// scan the thinkers
; 98   : 	for (th = thinkercap.next; th != &thinkercap; th = th->next)

  00009	a1 04 00 00 00	 mov	 eax, DWORD PTR _thinkercap+4
  0000e	89 45 fc	 mov	 DWORD PTR _th$[ebp], eax
  00011	eb 09		 jmp	 SHORT $LN4@P_ClearSta
$LN2@P_ClearSta:
  00013	8b 45 fc	 mov	 eax, DWORD PTR _th$[ebp]
  00016	8b 48 04	 mov	 ecx, DWORD PTR [eax+4]
  00019	89 4d fc	 mov	 DWORD PTR _th$[ebp], ecx
$LN4@P_ClearSta:
  0001c	81 7d fc 00 00
	00 00		 cmp	 DWORD PTR _th$[ebp], OFFSET _thinkercap
  00023	74 6b		 je	 SHORT $LN3@P_ClearSta

; 99   : 	{
; 100  : 		if (th->function.acp1 != (actionf_p1)P_MobjThinker)

  00025	8b 45 fc	 mov	 eax, DWORD PTR _th$[ebp]
  00028	81 78 08 00 00
	00 00		 cmp	 DWORD PTR [eax+8], OFFSET _P_MobjThinker
  0002f	74 02		 je	 SHORT $LN5@P_ClearSta

; 101  : 			continue;

  00031	eb e0		 jmp	 SHORT $LN2@P_ClearSta
$LN5@P_ClearSta:

; 102  : 
; 103  : 		mo2 = (mobj_t *)th;

  00033	8b 45 fc	 mov	 eax, DWORD PTR _th$[ebp]
  00036	89 45 f8	 mov	 DWORD PTR _mo2$[ebp], eax

; 104  : 
; 105  : 		if (mo2->type == MT_STARPOST && mo2->health <= postnum)

  00039	8b 45 f8	 mov	 eax, DWORD PTR _mo2$[ebp]
  0003c	83 78 7c 4a	 cmp	 DWORD PTR [eax+124], 74	; 0000004aH
  00040	75 4c		 jne	 SHORT $LN6@P_ClearSta
  00042	8b 45 f8	 mov	 eax, DWORD PTR _mo2$[ebp]
  00045	8b 88 8c 00 00
	00		 mov	 ecx, DWORD PTR [eax+140]
  0004b	3b 4d 0c	 cmp	 ecx, DWORD PTR _postnum$[ebp]
  0004e	7f 3e		 jg	 SHORT $LN6@P_ClearSta

; 106  : 		{
; 107  : 			P_SetMobjState(mo2, mo2->info->seestate);

  00050	8b 45 f8	 mov	 eax, DWORD PTR _mo2$[ebp]
  00053	8b 88 80 00 00
	00		 mov	 ecx, DWORD PTR [eax+128]
  00059	8b 51 0c	 mov	 edx, DWORD PTR [ecx+12]
  0005c	52		 push	 edx
  0005d	8b 45 f8	 mov	 eax, DWORD PTR _mo2$[ebp]
  00060	50		 push	 eax
  00061	e8 00 00 00 00	 call	 _P_SetMobjState
  00066	83 c4 08	 add	 esp, 8

; 108  : 			player->starpostbit |= (1 << (mo2->health - 1));

  00069	8b 45 f8	 mov	 eax, DWORD PTR _mo2$[ebp]
  0006c	8b 88 8c 00 00
	00		 mov	 ecx, DWORD PTR [eax+140]
  00072	83 e9 01	 sub	 ecx, 1
  00075	ba 01 00 00 00	 mov	 edx, 1
  0007a	d3 e2		 shl	 edx, cl
  0007c	8b 45 08	 mov	 eax, DWORD PTR _player$[ebp]
  0007f	0b 90 98 01 00
	00		 or	 edx, DWORD PTR [eax+408]
  00085	8b 4d 08	 mov	 ecx, DWORD PTR _player$[ebp]
  00088	89 91 98 01 00
	00		 mov	 DWORD PTR [ecx+408], edx
$LN6@P_ClearSta:

; 109  : 		}
; 110  : 	}

  0008e	eb 83		 jmp	 SHORT $LN2@P_ClearSta
$LN3@P_ClearSta:

; 111  : 	return;
; 112  : }

  00090	5f		 pop	 edi
  00091	5e		 pop	 esi
  00092	5b		 pop	 ebx
  00093	8b e5		 mov	 esp, ebp
  00095	5d		 pop	 ebp
  00096	c3		 ret	 0
_P_ClearStarPost ENDP
_TEXT	ENDS
; Function compile flags: /Odtp /ZI
; File C:\Users\RafaTheFox\Downloads\SRB2-Public-master\src\p_inter.c
;	COMDAT _P_PlayTauntSound
_TEXT	SEGMENT
_prandom$ = -4						; size = 4
_source$ = 8						; size = 4
_P_PlayTauntSound PROC					; COMDAT

; 2326 : {

  00000	55		 push	 ebp
  00001	8b ec		 mov	 ebp, esp
  00003	83 ec 44	 sub	 esp, 68			; 00000044H
  00006	53		 push	 ebx
  00007	56		 push	 esi
  00008	57		 push	 edi

; 2327 : 	INT32 prandom;
; 2328 : 
; 2329 : 	prandom = P_Random();

  00009	e8 00 00 00 00	 call	 _P_Random
  0000e	0f b6 c0	 movzx	 eax, al
  00011	89 45 fc	 mov	 DWORD PTR _prandom$[ebp], eax

; 2330 : 
; 2331 : 	if (prandom <= 63)

  00014	83 7d fc 3f	 cmp	 DWORD PTR _prandom$[ebp], 63 ; 0000003fH
  00018	7f 13		 jg	 SHORT $LN2@P_PlayTaun

; 2332 : 		S_StartSound(source, sfx_taunt1);

  0001a	68 df 00 00 00	 push	 223			; 000000dfH
  0001f	8b 45 08	 mov	 eax, DWORD PTR _source$[ebp]
  00022	50		 push	 eax
  00023	e8 00 00 00 00	 call	 _S_StartSound
  00028	83 c4 08	 add	 esp, 8
  0002b	eb 46		 jmp	 SHORT $LN7@P_PlayTaun
$LN2@P_PlayTaun:

; 2333 : 	else if (prandom <= 127)

  0002d	83 7d fc 7f	 cmp	 DWORD PTR _prandom$[ebp], 127 ; 0000007fH
  00031	7f 13		 jg	 SHORT $LN4@P_PlayTaun

; 2334 : 		S_StartSound(source, sfx_taunt2);

  00033	68 e0 00 00 00	 push	 224			; 000000e0H
  00038	8b 45 08	 mov	 eax, DWORD PTR _source$[ebp]
  0003b	50		 push	 eax
  0003c	e8 00 00 00 00	 call	 _S_StartSound
  00041	83 c4 08	 add	 esp, 8
  00044	eb 2d		 jmp	 SHORT $LN7@P_PlayTaun
$LN4@P_PlayTaun:

; 2335 : 	else if (prandom <= 191)

  00046	81 7d fc bf 00
	00 00		 cmp	 DWORD PTR _prandom$[ebp], 191 ; 000000bfH
  0004d	7f 13		 jg	 SHORT $LN6@P_PlayTaun

; 2336 : 		S_StartSound(source, sfx_taunt3);

  0004f	68 e1 00 00 00	 push	 225			; 000000e1H
  00054	8b 45 08	 mov	 eax, DWORD PTR _source$[ebp]
  00057	50		 push	 eax
  00058	e8 00 00 00 00	 call	 _S_StartSound
  0005d	83 c4 08	 add	 esp, 8
  00060	eb 11		 jmp	 SHORT $LN7@P_PlayTaun
$LN6@P_PlayTaun:

; 2337 : 	else
; 2338 : 		S_StartSound(source, sfx_taunt4);

  00062	68 e2 00 00 00	 push	 226			; 000000e2H
  00067	8b 45 08	 mov	 eax, DWORD PTR _source$[ebp]
  0006a	50		 push	 eax
  0006b	e8 00 00 00 00	 call	 _S_StartSound
  00070	83 c4 08	 add	 esp, 8
$LN7@P_PlayTaun:

; 2339 : 
; 2340 : 	// In the future... taunt animation?
; 2341 : }

  00073	5f		 pop	 edi
  00074	5e		 pop	 esi
  00075	5b		 pop	 ebx
  00076	8b e5		 mov	 esp, ebp
  00078	5d		 pop	 ebp
  00079	c3		 ret	 0
_P_PlayTauntSound ENDP
_TEXT	ENDS
; Function compile flags: /Odtp /ZI
; File C:\Users\RafaTheFox\Downloads\SRB2-Public-master\src\p_inter.c
;	COMDAT _P_PlayVictorySound
_TEXT	SEGMENT
_prandom$ = -4						; size = 4
_source$ = 8						; size = 4
_P_PlayVictorySound PROC				; COMDAT

; 2301 : {

  00000	55		 push	 ebp
  00001	8b ec		 mov	 ebp, esp
  00003	83 ec 44	 sub	 esp, 68			; 00000044H
  00006	53		 push	 ebx
  00007	56		 push	 esi
  00008	57		 push	 edi

; 2302 : 	INT32 prandom;
; 2303 : 
; 2304 : 	prandom = P_Random();

  00009	e8 00 00 00 00	 call	 _P_Random
  0000e	0f b6 c0	 movzx	 eax, al
  00011	89 45 fc	 mov	 DWORD PTR _prandom$[ebp], eax

; 2305 : 
; 2306 : 	if (prandom <= 63)

  00014	83 7d fc 3f	 cmp	 DWORD PTR _prandom$[ebp], 63 ; 0000003fH
  00018	7f 13		 jg	 SHORT $LN2@P_PlayVict

; 2307 : 		S_StartSound(source, sfx_victr1);

  0001a	68 ea 00 00 00	 push	 234			; 000000eaH
  0001f	8b 45 08	 mov	 eax, DWORD PTR _source$[ebp]
  00022	50		 push	 eax
  00023	e8 00 00 00 00	 call	 _S_StartSound
  00028	83 c4 08	 add	 esp, 8
  0002b	eb 46		 jmp	 SHORT $LN7@P_PlayVict
$LN2@P_PlayVict:

; 2308 : 	else if (prandom <= 127)

  0002d	83 7d fc 7f	 cmp	 DWORD PTR _prandom$[ebp], 127 ; 0000007fH
  00031	7f 13		 jg	 SHORT $LN4@P_PlayVict

; 2309 : 		S_StartSound(source, sfx_victr2);

  00033	68 eb 00 00 00	 push	 235			; 000000ebH
  00038	8b 45 08	 mov	 eax, DWORD PTR _source$[ebp]
  0003b	50		 push	 eax
  0003c	e8 00 00 00 00	 call	 _S_StartSound
  00041	83 c4 08	 add	 esp, 8
  00044	eb 2d		 jmp	 SHORT $LN7@P_PlayVict
$LN4@P_PlayVict:

; 2310 : 	else if (prandom <= 191)

  00046	81 7d fc bf 00
	00 00		 cmp	 DWORD PTR _prandom$[ebp], 191 ; 000000bfH
  0004d	7f 13		 jg	 SHORT $LN6@P_PlayVict

; 2311 : 		S_StartSound(source, sfx_victr3);

  0004f	68 ec 00 00 00	 push	 236			; 000000ecH
  00054	8b 45 08	 mov	 eax, DWORD PTR _source$[ebp]
  00057	50		 push	 eax
  00058	e8 00 00 00 00	 call	 _S_StartSound
  0005d	83 c4 08	 add	 esp, 8
  00060	eb 11		 jmp	 SHORT $LN7@P_PlayVict
$LN6@P_PlayVict:

; 2312 : 	else
; 2313 : 		S_StartSound(source, sfx_victr4);

  00062	68 ed 00 00 00	 push	 237			; 000000edH
  00067	8b 45 08	 mov	 eax, DWORD PTR _source$[ebp]
  0006a	50		 push	 eax
  0006b	e8 00 00 00 00	 call	 _S_StartSound
  00070	83 c4 08	 add	 esp, 8
$LN7@P_PlayVict:

; 2314 : }

  00073	5f		 pop	 edi
  00074	5e		 pop	 esi
  00075	5b		 pop	 ebx
  00076	8b e5		 mov	 esp, ebp
  00078	5d		 pop	 ebp
  00079	c3		 ret	 0
_P_PlayVictorySound ENDP
_TEXT	ENDS
; Function compile flags: /Odtp /ZI
; File C:\Users\RafaTheFox\Downloads\SRB2-Public-master\src\p_inter.c
;	COMDAT _P_PlayDeathSound
_TEXT	SEGMENT
_prandom$ = -4						; size = 4
_source$ = 8						; size = 4
_P_PlayDeathSound PROC					; COMDAT

; 2276 : {

  00000	55		 push	 ebp
  00001	8b ec		 mov	 ebp, esp
  00003	83 ec 44	 sub	 esp, 68			; 00000044H
  00006	53		 push	 ebx
  00007	56		 push	 esi
  00008	57		 push	 edi

; 2277 : 	INT32 prandom;
; 2278 : 
; 2279 : 	prandom = P_Random();

  00009	e8 00 00 00 00	 call	 _P_Random
  0000e	0f b6 c0	 movzx	 eax, al
  00011	89 45 fc	 mov	 DWORD PTR _prandom$[ebp], eax

; 2280 : 
; 2281 : 	if (prandom <= 63)

  00014	83 7d fc 3f	 cmp	 DWORD PTR _prandom$[ebp], 63 ; 0000003fH
  00018	7f 10		 jg	 SHORT $LN2@P_PlayDeat

; 2282 : 		S_StartSound(source, sfx_altdi1);

  0001a	6a 02		 push	 2
  0001c	8b 45 08	 mov	 eax, DWORD PTR _source$[ebp]
  0001f	50		 push	 eax
  00020	e8 00 00 00 00	 call	 _S_StartSound
  00025	83 c4 08	 add	 esp, 8
  00028	eb 3d		 jmp	 SHORT $LN7@P_PlayDeat
$LN2@P_PlayDeat:

; 2283 : 	else if (prandom <= 127)

  0002a	83 7d fc 7f	 cmp	 DWORD PTR _prandom$[ebp], 127 ; 0000007fH
  0002e	7f 10		 jg	 SHORT $LN4@P_PlayDeat

; 2284 : 		S_StartSound(source, sfx_altdi2);

  00030	6a 03		 push	 3
  00032	8b 45 08	 mov	 eax, DWORD PTR _source$[ebp]
  00035	50		 push	 eax
  00036	e8 00 00 00 00	 call	 _S_StartSound
  0003b	83 c4 08	 add	 esp, 8
  0003e	eb 27		 jmp	 SHORT $LN7@P_PlayDeat
$LN4@P_PlayDeat:

; 2285 : 	else if (prandom <= 191)

  00040	81 7d fc bf 00
	00 00		 cmp	 DWORD PTR _prandom$[ebp], 191 ; 000000bfH
  00047	7f 10		 jg	 SHORT $LN6@P_PlayDeat

; 2286 : 		S_StartSound(source, sfx_altdi3);

  00049	6a 04		 push	 4
  0004b	8b 45 08	 mov	 eax, DWORD PTR _source$[ebp]
  0004e	50		 push	 eax
  0004f	e8 00 00 00 00	 call	 _S_StartSound
  00054	83 c4 08	 add	 esp, 8
  00057	eb 0e		 jmp	 SHORT $LN7@P_PlayDeat
$LN6@P_PlayDeat:

; 2287 : 	else
; 2288 : 		S_StartSound(source, sfx_altdi4);

  00059	6a 05		 push	 5
  0005b	8b 45 08	 mov	 eax, DWORD PTR _source$[ebp]
  0005e	50		 push	 eax
  0005f	e8 00 00 00 00	 call	 _S_StartSound
  00064	83 c4 08	 add	 esp, 8
$LN7@P_PlayDeat:

; 2289 : }

  00067	5f		 pop	 edi
  00068	5e		 pop	 esi
  00069	5b		 pop	 ebx
  0006a	8b e5		 mov	 esp, ebp
  0006c	5d		 pop	 ebp
  0006d	c3		 ret	 0
_P_PlayDeathSound ENDP
_TEXT	ENDS
; Function compile flags: /Odtp /ZI
; File C:\Users\RafaTheFox\Downloads\SRB2-Public-master\src\p_inter.c
;	COMDAT _P_PlayRinglossSound
_TEXT	SEGMENT
_prandom$ = -4						; size = 4
_source$ = 8						; size = 4
_P_PlayRinglossSound PROC				; COMDAT

; 2251 : {

  00000	55		 push	 ebp
  00001	8b ec		 mov	 ebp, esp
  00003	83 ec 44	 sub	 esp, 68			; 00000044H
  00006	53		 push	 ebx
  00007	56		 push	 esi
  00008	57		 push	 edi

; 2252 : 	INT32 prandom;
; 2253 : 
; 2254 : 	prandom = P_Random();

  00009	e8 00 00 00 00	 call	 _P_Random
  0000e	0f b6 c0	 movzx	 eax, al
  00011	89 45 fc	 mov	 DWORD PTR _prandom$[ebp], eax

; 2255 : 
; 2256 : 	if (prandom <= 63)

  00014	83 7d fc 3f	 cmp	 DWORD PTR _prandom$[ebp], 63 ; 0000003fH
  00018	7f 10		 jg	 SHORT $LN2@P_PlayRing

; 2257 : 		S_StartSound(source, sfx_altow1);

  0001a	6a 06		 push	 6
  0001c	8b 45 08	 mov	 eax, DWORD PTR _source$[ebp]
  0001f	50		 push	 eax
  00020	e8 00 00 00 00	 call	 _S_StartSound
  00025	83 c4 08	 add	 esp, 8
  00028	eb 3d		 jmp	 SHORT $LN7@P_PlayRing
$LN2@P_PlayRing:

; 2258 : 	else if (prandom <= 127)

  0002a	83 7d fc 7f	 cmp	 DWORD PTR _prandom$[ebp], 127 ; 0000007fH
  0002e	7f 10		 jg	 SHORT $LN4@P_PlayRing

; 2259 : 		S_StartSound(source, sfx_altow2);

  00030	6a 07		 push	 7
  00032	8b 45 08	 mov	 eax, DWORD PTR _source$[ebp]
  00035	50		 push	 eax
  00036	e8 00 00 00 00	 call	 _S_StartSound
  0003b	83 c4 08	 add	 esp, 8
  0003e	eb 27		 jmp	 SHORT $LN7@P_PlayRing
$LN4@P_PlayRing:

; 2260 : 	else if (prandom <= 191)

  00040	81 7d fc bf 00
	00 00		 cmp	 DWORD PTR _prandom$[ebp], 191 ; 000000bfH
  00047	7f 10		 jg	 SHORT $LN6@P_PlayRing

; 2261 : 		S_StartSound(source, sfx_altow3);

  00049	6a 08		 push	 8
  0004b	8b 45 08	 mov	 eax, DWORD PTR _source$[ebp]
  0004e	50		 push	 eax
  0004f	e8 00 00 00 00	 call	 _S_StartSound
  00054	83 c4 08	 add	 esp, 8
  00057	eb 0e		 jmp	 SHORT $LN7@P_PlayRing
$LN6@P_PlayRing:

; 2262 : 	else
; 2263 : 		S_StartSound(source, sfx_altow4);

  00059	6a 09		 push	 9
  0005b	8b 45 08	 mov	 eax, DWORD PTR _source$[ebp]
  0005e	50		 push	 eax
  0005f	e8 00 00 00 00	 call	 _S_StartSound
  00064	83 c4 08	 add	 esp, 8
$LN7@P_PlayRing:

; 2264 : }

  00067	5f		 pop	 edi
  00068	5e		 pop	 esi
  00069	5b		 pop	 ebx
  0006a	8b e5		 mov	 esp, ebp
  0006c	5d		 pop	 ebp
  0006d	c3		 ret	 0
_P_PlayRinglossSound ENDP
_TEXT	ENDS
; Function compile flags: /Odtp /ZI
; File C:\Users\RafaTheFox\Downloads\SRB2-Public-master\src\p_inter.c
;	COMDAT _P_CheckRacers
_TEXT	SEGMENT
_i$ = -4						; size = 4
_P_CheckRacers PROC					; COMDAT

; 1920 : {

  00000	55		 push	 ebp
  00001	8b ec		 mov	 ebp, esp
  00003	83 ec 44	 sub	 esp, 68			; 00000044H
  00006	53		 push	 ebx
  00007	56		 push	 esi
  00008	57		 push	 edi

; 1921 : 	INT32 i;
; 1922 : 
; 1923 : 	// Check if all the players in the race have finished. If so, end the level.
; 1924 : 	for (i = 0; i < MAXPLAYERS; i++)

  00009	c7 45 fc 00 00
	00 00		 mov	 DWORD PTR _i$[ebp], 0
  00010	eb 09		 jmp	 SHORT $LN4@P_CheckRac
$LN2@P_CheckRac:
  00012	8b 45 fc	 mov	 eax, DWORD PTR _i$[ebp]
  00015	83 c0 01	 add	 eax, 1
  00018	89 45 fc	 mov	 DWORD PTR _i$[ebp], eax
$LN4@P_CheckRac:
  0001b	83 7d fc 20	 cmp	 DWORD PTR _i$[ebp], 32	; 00000020H
  0001f	7d 31		 jge	 SHORT $LN3@P_CheckRac

; 1925 : 	{
; 1926 : 		if (playeringame[i] && !players[i].exiting && players[i].lives > 0)

  00021	8b 45 fc	 mov	 eax, DWORD PTR _i$[ebp]
  00024	83 3c 85 00 00
	00 00 00	 cmp	 DWORD PTR _playeringame[eax*4], 0
  0002c	74 22		 je	 SHORT $LN5@P_CheckRac
  0002e	69 45 fc fc 01
	00 00		 imul	 eax, DWORD PTR _i$[ebp], 508
  00035	83 b8 30 01 00
	00 00		 cmp	 DWORD PTR _players[eax+304], 0
  0003c	75 12		 jne	 SHORT $LN5@P_CheckRac
  0003e	69 45 fc fc 01
	00 00		 imul	 eax, DWORD PTR _i$[ebp], 508
  00045	83 b8 00 01 00
	00 00		 cmp	 DWORD PTR _players[eax+256], 0
  0004c	7e 02		 jle	 SHORT $LN5@P_CheckRac

; 1927 : 			break;

  0004e	eb 02		 jmp	 SHORT $LN3@P_CheckRac
$LN5@P_CheckRac:

; 1928 : 	}

  00050	eb c0		 jmp	 SHORT $LN2@P_CheckRac
$LN3@P_CheckRac:

; 1929 : 
; 1930 : 	if (i == MAXPLAYERS) // finished

  00052	83 7d fc 20	 cmp	 DWORD PTR _i$[ebp], 32	; 00000020H
  00056	75 1b		 jne	 SHORT $LN6@P_CheckRac

; 1931 : 	{
; 1932 : 		countdown = 0;

  00058	c7 05 00 00 00
	00 00 00 00 00	 mov	 DWORD PTR _countdown, 0

; 1933 : 		countdown2 = 0;

  00062	c7 05 00 00 00
	00 00 00 00 00	 mov	 DWORD PTR _countdown2, 0

; 1934 : 		return true;

  0006c	b8 01 00 00 00	 mov	 eax, 1
  00071	eb 02		 jmp	 SHORT $LN1@P_CheckRac
$LN6@P_CheckRac:

; 1935 : 	}
; 1936 : 
; 1937 : 	return false;

  00073	33 c0		 xor	 eax, eax
$LN1@P_CheckRac:

; 1938 : }

  00075	5f		 pop	 edi
  00076	5e		 pop	 esi
  00077	5b		 pop	 ebx
  00078	8b e5		 mov	 esp, ebp
  0007a	5d		 pop	 ebp
  0007b	c3		 ret	 0
_P_CheckRacers ENDP
_TEXT	ENDS
; Function compile flags: /Odtp /ZI
; File C:\Users\RafaTheFox\Downloads\SRB2-Public-master\src\p_inter.c
;	COMDAT _P_CheckSurvivors
_TEXT	SEGMENT
_newtagger$1 = -152					; size = 4
_survivorarray$ = -148					; size = 128
_spectators$ = -20					; size = 4
_taggers$ = -16						; size = 4
_survivors$ = -12					; size = 4
_i$ = -8						; size = 4
__$ArrayPad$ = -4					; size = 4
_P_CheckSurvivors PROC					; COMDAT

; 1837 : {

  00000	55		 push	 ebp
  00001	8b ec		 mov	 ebp, esp
  00003	81 ec d8 00 00
	00		 sub	 esp, 216		; 000000d8H
  00009	a1 00 00 00 00	 mov	 eax, DWORD PTR ___security_cookie
  0000e	33 c5		 xor	 eax, ebp
  00010	89 45 fc	 mov	 DWORD PTR __$ArrayPad$[ebp], eax
  00013	53		 push	 ebx
  00014	56		 push	 esi
  00015	57		 push	 edi

; 1838 : 	INT32 i;
; 1839 : 	INT32 survivors = 0;

  00016	c7 45 f4 00 00
	00 00		 mov	 DWORD PTR _survivors$[ebp], 0

; 1840 : 	INT32 taggers = 0;

  0001d	c7 45 f0 00 00
	00 00		 mov	 DWORD PTR _taggers$[ebp], 0

; 1841 : 	INT32 spectators = 0;

  00024	c7 45 ec 00 00
	00 00		 mov	 DWORD PTR _spectators$[ebp], 0

; 1842 : 	INT32 survivorarray[MAXPLAYERS];
; 1843 : 
; 1844 : 	if (!D_NumPlayers()) //no players in the game, no check performed.

  0002b	e8 00 00 00 00	 call	 _D_NumPlayers
  00030	85 c0		 test	 eax, eax
  00032	75 05		 jne	 SHORT $LN5@P_CheckSur

; 1845 : 		return;

  00034	e9 e8 01 00 00	 jmp	 $LN21@P_CheckSur
$LN5@P_CheckSur:

; 1846 : 
; 1847 : 	for (i=0; i < MAXPLAYERS; i++) //figure out counts of taggers, survivors and spectators.

  00039	c7 45 f8 00 00
	00 00		 mov	 DWORD PTR _i$[ebp], 0
  00040	eb 09		 jmp	 SHORT $LN4@P_CheckSur
$LN2@P_CheckSur:
  00042	8b 45 f8	 mov	 eax, DWORD PTR _i$[ebp]
  00045	83 c0 01	 add	 eax, 1
  00048	89 45 f8	 mov	 DWORD PTR _i$[ebp], eax
$LN4@P_CheckSur:
  0004b	83 7d f8 20	 cmp	 DWORD PTR _i$[ebp], 32	; 00000020H
  0004f	7d 7a		 jge	 SHORT $LN3@P_CheckSur

; 1848 : 	{
; 1849 : 		if (playeringame[i])

  00051	8b 45 f8	 mov	 eax, DWORD PTR _i$[ebp]
  00054	83 3c 85 00 00
	00 00 00	 cmp	 DWORD PTR _playeringame[eax*4], 0
  0005c	74 68		 je	 SHORT $LN11@P_CheckSur

; 1850 : 		{
; 1851 : 			if (players[i].spectator)

  0005e	69 45 f8 fc 01
	00 00		 imul	 eax, DWORD PTR _i$[ebp], 508
  00065	0f b6 88 f0 01
	00 00		 movzx	 ecx, BYTE PTR _players[eax+496]
  0006c	85 c9		 test	 ecx, ecx
  0006e	74 0b		 je	 SHORT $LN7@P_CheckSur

; 1852 : 				spectators++;

  00070	8b 45 ec	 mov	 eax, DWORD PTR _spectators$[ebp]
  00073	83 c0 01	 add	 eax, 1
  00076	89 45 ec	 mov	 DWORD PTR _spectators$[ebp], eax
  00079	eb 4b		 jmp	 SHORT $LN11@P_CheckSur
$LN7@P_CheckSur:

; 1853 : 			else if (players[i].pflags & PF_TAGIT)

  0007b	69 45 f8 fc 01
	00 00		 imul	 eax, DWORD PTR _i$[ebp], 508
  00082	8b 88 ac 00 00
	00		 mov	 ecx, DWORD PTR _players[eax+172]
  00088	81 e1 00 00 00
	10		 and	 ecx, 268435456		; 10000000H
  0008e	74 0b		 je	 SHORT $LN9@P_CheckSur

; 1854 : 				taggers++;

  00090	8b 45 f0	 mov	 eax, DWORD PTR _taggers$[ebp]
  00093	83 c0 01	 add	 eax, 1
  00096	89 45 f0	 mov	 DWORD PTR _taggers$[ebp], eax
  00099	eb 2b		 jmp	 SHORT $LN11@P_CheckSur
$LN9@P_CheckSur:

; 1855 : 			else if (!(players[i].pflags & PF_TAGGED))

  0009b	69 45 f8 fc 01
	00 00		 imul	 eax, DWORD PTR _i$[ebp], 508
  000a2	8b 88 ac 00 00
	00		 mov	 ecx, DWORD PTR _players[eax+172]
  000a8	81 e1 00 00 00
	04		 and	 ecx, 67108864		; 04000000H
  000ae	75 16		 jne	 SHORT $LN11@P_CheckSur

; 1856 : 			{
; 1857 : 				survivorarray[survivors] = i;

  000b0	8b 45 f4	 mov	 eax, DWORD PTR _survivors$[ebp]
  000b3	8b 4d f8	 mov	 ecx, DWORD PTR _i$[ebp]
  000b6	89 8c 85 6c ff
	ff ff		 mov	 DWORD PTR _survivorarray$[ebp+eax*4], ecx

; 1858 : 				survivors++;

  000bd	8b 45 f4	 mov	 eax, DWORD PTR _survivors$[ebp]
  000c0	83 c0 01	 add	 eax, 1
  000c3	89 45 f4	 mov	 DWORD PTR _survivors$[ebp], eax
$LN11@P_CheckSur:

; 1859 : 			}
; 1860 : 		}
; 1861 : 	}

  000c6	e9 77 ff ff ff	 jmp	 $LN2@P_CheckSur
$LN3@P_CheckSur:

; 1862 : 
; 1863 : 	if (!taggers) //If there are no taggers, pick a survivor at random to be it.

  000cb	83 7d f0 00	 cmp	 DWORD PTR _taggers$[ebp], 0
  000cf	0f 85 15 01 00
	00		 jne	 $LN12@P_CheckSur

; 1864 : 	{
; 1865 : 		// Exception for hide and seek. If a round has started and the IT player leaves, end the round.
; 1866 : 		if (cv_tagtype.value && (leveltime >= (hidetime * TICRATE)))

  000d5	83 3d 14 00 00
	00 00		 cmp	 DWORD PTR _cv_tagtype+20, 0
  000dc	74 38		 je	 SHORT $LN13@P_CheckSur
  000de	6b 05 00 00 00
	00 23		 imul	 eax, DWORD PTR _hidetime, 35
  000e5	39 05 00 00 00
	00		 cmp	 DWORD PTR _leveltime, eax
  000eb	72 29		 jb	 SHORT $LN13@P_CheckSur

; 1867 : 		{
; 1868 : 			CONS_Printf("The IT player has left the game.\n");

  000ed	68 00 00 00 00	 push	 OFFSET ??_C@_0CC@FOHBJDHA@The?5IT?5player?5has?5left?5the?5game@
  000f2	e8 00 00 00 00	 call	 _CONS_Printf
  000f7	83 c4 04	 add	 esp, 4

; 1869 : 			if (server)

  000fa	83 3d 00 00 00
	00 00		 cmp	 DWORD PTR _server, 0
  00101	74 0e		 je	 SHORT $LN14@P_CheckSur

; 1870 : 				SendNetXCmd(XD_EXITLEVEL, NULL, 0);

  00103	6a 00		 push	 0
  00105	6a 00		 push	 0
  00107	6a 07		 push	 7
  00109	e8 00 00 00 00	 call	 _SendNetXCmd
  0010e	83 c4 0c	 add	 esp, 12			; 0000000cH
$LN14@P_CheckSur:

; 1871 : 
; 1872 : 			return;

  00111	e9 0b 01 00 00	 jmp	 $LN21@P_CheckSur
$LN13@P_CheckSur:

; 1873 : 		}
; 1874 : 
; 1875 : 		if (survivors)

  00116	83 7d f4 00	 cmp	 DWORD PTR _survivors$[ebp], 0
  0011a	0f 84 97 00 00
	00		 je	 $LN15@P_CheckSur

; 1876 : 		{
; 1877 : 			INT32 newtagger = survivorarray[P_Random() % survivors];

  00120	e8 00 00 00 00	 call	 _P_Random
  00125	0f b6 c0	 movzx	 eax, al
  00128	99		 cdq
  00129	f7 7d f4	 idiv	 DWORD PTR _survivors$[ebp]
  0012c	8b 84 95 6c ff
	ff ff		 mov	 eax, DWORD PTR _survivorarray$[ebp+edx*4]
  00133	89 85 68 ff ff
	ff		 mov	 DWORD PTR _newtagger$1[ebp], eax

; 1878 : 
; 1879 : 			CONS_Printf("%s is it!\n", player_names[newtagger]); // Tell everyone who is it!

  00139	6b 85 68 ff ff
	ff 16		 imul	 eax, DWORD PTR _newtagger$1[ebp], 22
  00140	05 00 00 00 00	 add	 eax, OFFSET _player_names
  00145	50		 push	 eax
  00146	68 00 00 00 00	 push	 OFFSET ??_C@_0L@FKKLEDAE@?$CFs?5is?5it?$CB?6@
  0014b	e8 00 00 00 00	 call	 _CONS_Printf
  00150	83 c4 08	 add	 esp, 8

; 1880 : 			players[newtagger].pflags |= PF_TAGIT;

  00153	69 85 68 ff ff
	ff fc 01 00 00	 imul	 eax, DWORD PTR _newtagger$1[ebp], 508
  0015d	8b 88 ac 00 00
	00		 mov	 ecx, DWORD PTR _players[eax+172]
  00163	81 c9 00 00 00
	10		 or	 ecx, 268435456		; 10000000H
  00169	69 95 68 ff ff
	ff fc 01 00 00	 imul	 edx, DWORD PTR _newtagger$1[ebp], 508
  00173	89 8a ac 00 00
	00		 mov	 DWORD PTR _players[edx+172], ecx

; 1881 : 
; 1882 : 			survivors--; //Get rid of the guy we just made IT.

  00179	8b 45 f4	 mov	 eax, DWORD PTR _survivors$[ebp]
  0017c	83 e8 01	 sub	 eax, 1
  0017f	89 45 f4	 mov	 DWORD PTR _survivors$[ebp], eax

; 1883 : 
; 1884 : 			//Yeah, we have an eligible tagger, but we may not have anybody for him to tag!
; 1885 : 			//If there is only one guy waiting on the game to fill or spectators to enter game, don't bother.
; 1886 : 			if (!survivors && (D_NumPlayers() - spectators) > 1)

  00182	75 31		 jne	 SHORT $LN17@P_CheckSur
  00184	e8 00 00 00 00	 call	 _D_NumPlayers
  00189	2b 45 ec	 sub	 eax, DWORD PTR _spectators$[ebp]
  0018c	83 f8 01	 cmp	 eax, 1
  0018f	7e 24		 jle	 SHORT $LN17@P_CheckSur

; 1887 : 			{
; 1888 : 				CONS_Printf("All players have been tagged!\n");

  00191	68 00 00 00 00	 push	 OFFSET ??_C@_0BP@NLDNGKCA@All?5players?5have?5been?5tagged?$CB?6@
  00196	e8 00 00 00 00	 call	 _CONS_Printf
  0019b	83 c4 04	 add	 esp, 4

; 1889 : 				if (server)

  0019e	83 3d 00 00 00
	00 00		 cmp	 DWORD PTR _server, 0
  001a5	74 0e		 je	 SHORT $LN17@P_CheckSur

; 1890 : 					SendNetXCmd(XD_EXITLEVEL, NULL, 0);

  001a7	6a 00		 push	 0
  001a9	6a 00		 push	 0
  001ab	6a 07		 push	 7
  001ad	e8 00 00 00 00	 call	 _SendNetXCmd
  001b2	83 c4 0c	 add	 esp, 12			; 0000000cH
$LN17@P_CheckSur:

; 1891 : 			}
; 1892 : 
; 1893 : 			return;

  001b5	eb 6a		 jmp	 SHORT $LN21@P_CheckSur
$LN15@P_CheckSur:

; 1894 : 		}
; 1895 : 
; 1896 : 		//If we reach this point, no player can replace the one that was IT.
; 1897 : 		//Unless it is one player waiting on a game, end the round.
; 1898 : 		if ((D_NumPlayers() - spectators) > 1)

  001b7	e8 00 00 00 00	 call	 _D_NumPlayers
  001bc	2b 45 ec	 sub	 eax, DWORD PTR _spectators$[ebp]
  001bf	83 f8 01	 cmp	 eax, 1
  001c2	7e 24		 jle	 SHORT $LN19@P_CheckSur

; 1899 : 		{
; 1900 : 			CONS_Printf("There are no players able to become IT.\n");

  001c4	68 00 00 00 00	 push	 OFFSET ??_C@_0CJ@BGBGIPOA@There?5are?5no?5players?5able?5to?5be@
  001c9	e8 00 00 00 00	 call	 _CONS_Printf
  001ce	83 c4 04	 add	 esp, 4

; 1901 : 			if (server)

  001d1	83 3d 00 00 00
	00 00		 cmp	 DWORD PTR _server, 0
  001d8	74 0e		 je	 SHORT $LN19@P_CheckSur

; 1902 : 				SendNetXCmd(XD_EXITLEVEL, NULL, 0);

  001da	6a 00		 push	 0
  001dc	6a 00		 push	 0
  001de	6a 07		 push	 7
  001e0	e8 00 00 00 00	 call	 _SendNetXCmd
  001e5	83 c4 0c	 add	 esp, 12			; 0000000cH
$LN19@P_CheckSur:

; 1903 : 		}
; 1904 : 
; 1905 : 		return;

  001e8	eb 37		 jmp	 SHORT $LN21@P_CheckSur
$LN12@P_CheckSur:

; 1906 : 	}
; 1907 : 
; 1908 : 	//If there are taggers, but no survivors, end the round.
; 1909 : 	//Except when the tagger is by himself and the rest of the game are spectators.
; 1910 : 	if (!survivors && (D_NumPlayers() - spectators) > 1)

  001ea	83 7d f4 00	 cmp	 DWORD PTR _survivors$[ebp], 0
  001ee	75 31		 jne	 SHORT $LN21@P_CheckSur
  001f0	e8 00 00 00 00	 call	 _D_NumPlayers
  001f5	2b 45 ec	 sub	 eax, DWORD PTR _spectators$[ebp]
  001f8	83 f8 01	 cmp	 eax, 1
  001fb	7e 24		 jle	 SHORT $LN21@P_CheckSur

; 1911 : 	{
; 1912 : 		CONS_Printf("All players have been tagged!\n");

  001fd	68 00 00 00 00	 push	 OFFSET ??_C@_0BP@NLDNGKCA@All?5players?5have?5been?5tagged?$CB?6@
  00202	e8 00 00 00 00	 call	 _CONS_Printf
  00207	83 c4 04	 add	 esp, 4

; 1913 : 		if (server)

  0020a	83 3d 00 00 00
	00 00		 cmp	 DWORD PTR _server, 0
  00211	74 0e		 je	 SHORT $LN21@P_CheckSur

; 1914 : 			SendNetXCmd(XD_EXITLEVEL, NULL, 0);

  00213	6a 00		 push	 0
  00215	6a 00		 push	 0
  00217	6a 07		 push	 7
  00219	e8 00 00 00 00	 call	 _SendNetXCmd
  0021e	83 c4 0c	 add	 esp, 12			; 0000000cH
$LN21@P_CheckSur:

; 1915 : 	}
; 1916 : }

  00221	5f		 pop	 edi
  00222	5e		 pop	 esi
  00223	5b		 pop	 ebx
  00224	8b 4d fc	 mov	 ecx, DWORD PTR __$ArrayPad$[ebp]
  00227	33 cd		 xor	 ecx, ebp
  00229	e8 00 00 00 00	 call	 @__security_check_cookie@4
  0022e	8b e5		 mov	 esp, ebp
  00230	5d		 pop	 ebp
  00231	c3		 ret	 0
_P_CheckSurvivors ENDP
_TEXT	ENDS
; Function compile flags: /Odtp /ZI
; File C:\Users\RafaTheFox\Downloads\SRB2-Public-master\src\p_inter.c
;	COMDAT _P_CheckPointLimit
_TEXT	SEGMENT
_i$ = -4						; size = 4
_P_CheckPointLimit PROC					; COMDAT

; 1797 : {

  00000	55		 push	 ebp
  00001	8b ec		 mov	 ebp, esp
  00003	83 ec 44	 sub	 esp, 68			; 00000044H
  00006	53		 push	 ebx
  00007	56		 push	 esi
  00008	57		 push	 edi

; 1798 : 	INT32 i;
; 1799 : 
; 1800 : 	if (!cv_pointlimit.value)

  00009	83 3d 14 00 00
	00 00		 cmp	 DWORD PTR _cv_pointlimit+20, 0
  00010	75 05		 jne	 SHORT $LN5@P_CheckPoi

; 1801 : 		return;

  00012	e9 c2 00 00 00	 jmp	 $LN3@P_CheckPoi
$LN5@P_CheckPoi:

; 1802 : 
; 1803 : 	if (!(multiplayer || netgame))

  00017	83 3d 00 00 00
	00 00		 cmp	 DWORD PTR _multiplayer, 0
  0001e	75 0e		 jne	 SHORT $LN6@P_CheckPoi
  00020	83 3d 00 00 00
	00 00		 cmp	 DWORD PTR _netgame, 0
  00027	75 05		 jne	 SHORT $LN6@P_CheckPoi

; 1804 : 		return;

  00029	e9 ab 00 00 00	 jmp	 $LN3@P_CheckPoi
$LN6@P_CheckPoi:

; 1805 : 
; 1806 : 	// pointlimit is nonzero, check if it's been reached by this player
; 1807 : 	if (gametype == GT_CTF || (gametype == GT_MATCH && cv_matchtype.value))

  0002e	0f bf 05 00 00
	00 00		 movsx	 eax, WORD PTR _gametype
  00035	83 f8 04	 cmp	 eax, 4
  00038	74 15		 je	 SHORT $LN9@P_CheckPoi
  0003a	0f bf 05 00 00
	00 00		 movsx	 eax, WORD PTR _gametype
  00041	83 f8 01	 cmp	 eax, 1
  00044	75 3c		 jne	 SHORT $LN7@P_CheckPoi
  00046	83 3d 14 00 00
	00 00		 cmp	 DWORD PTR _cv_matchtype+20, 0
  0004d	74 33		 je	 SHORT $LN7@P_CheckPoi
$LN9@P_CheckPoi:

; 1808 : 	{
; 1809 : 		// Just check both teams
; 1810 : 		if ((UINT32)cv_pointlimit.value <= redscore || (UINT32)cv_pointlimit.value <= bluescore)

  0004f	a1 14 00 00 00	 mov	 eax, DWORD PTR _cv_pointlimit+20
  00054	3b 05 00 00 00
	00		 cmp	 eax, DWORD PTR _redscore
  0005a	76 0d		 jbe	 SHORT $LN11@P_CheckPoi
  0005c	a1 14 00 00 00	 mov	 eax, DWORD PTR _cv_pointlimit+20
  00061	3b 05 00 00 00
	00		 cmp	 eax, DWORD PTR _bluescore
  00067	77 17		 ja	 SHORT $LN12@P_CheckPoi
$LN11@P_CheckPoi:

; 1811 : 		{
; 1812 : 			if (server)

  00069	83 3d 00 00 00
	00 00		 cmp	 DWORD PTR _server, 0
  00070	74 0e		 je	 SHORT $LN12@P_CheckPoi

; 1813 : 				SendNetXCmd(XD_EXITLEVEL, NULL, 0);

  00072	6a 00		 push	 0
  00074	6a 00		 push	 0
  00076	6a 07		 push	 7
  00078	e8 00 00 00 00	 call	 _SendNetXCmd
  0007d	83 c4 0c	 add	 esp, 12			; 0000000cH
$LN12@P_CheckPoi:

; 1814 : 		}
; 1815 : 	}

  00080	eb 57		 jmp	 SHORT $LN3@P_CheckPoi
$LN7@P_CheckPoi:

; 1816 : 	else
; 1817 : 	{
; 1818 : 		for (i = 0; i < MAXPLAYERS; i++)

  00082	c7 45 fc 00 00
	00 00		 mov	 DWORD PTR _i$[ebp], 0
  00089	eb 09		 jmp	 SHORT $LN4@P_CheckPoi
$LN2@P_CheckPoi:
  0008b	8b 45 fc	 mov	 eax, DWORD PTR _i$[ebp]
  0008e	83 c0 01	 add	 eax, 1
  00091	89 45 fc	 mov	 DWORD PTR _i$[ebp], eax
$LN4@P_CheckPoi:
  00094	83 7d fc 20	 cmp	 DWORD PTR _i$[ebp], 32	; 00000020H
  00098	7d 3f		 jge	 SHORT $LN3@P_CheckPoi

; 1819 : 		{
; 1820 : 			if (!playeringame[i])

  0009a	8b 45 fc	 mov	 eax, DWORD PTR _i$[ebp]
  0009d	83 3c 85 00 00
	00 00 00	 cmp	 DWORD PTR _playeringame[eax*4], 0
  000a5	75 02		 jne	 SHORT $LN13@P_CheckPoi

; 1821 : 				continue;

  000a7	eb e2		 jmp	 SHORT $LN2@P_CheckPoi
$LN13@P_CheckPoi:

; 1822 : 
; 1823 : 			if ((UINT32)cv_pointlimit.value <= players[i].score)

  000a9	69 45 fc fc 01
	00 00		 imul	 eax, DWORD PTR _i$[ebp], 508
  000b0	8b 0d 14 00 00
	00		 mov	 ecx, DWORD PTR _cv_pointlimit+20
  000b6	3b 88 bc 00 00
	00		 cmp	 ecx, DWORD PTR _players[eax+188]
  000bc	77 19		 ja	 SHORT $LN14@P_CheckPoi

; 1824 : 			{
; 1825 : 				if (server)

  000be	83 3d 00 00 00
	00 00		 cmp	 DWORD PTR _server, 0
  000c5	74 0e		 je	 SHORT $LN15@P_CheckPoi

; 1826 : 					SendNetXCmd(XD_EXITLEVEL, NULL, 0);

  000c7	6a 00		 push	 0
  000c9	6a 00		 push	 0
  000cb	6a 07		 push	 7
  000cd	e8 00 00 00 00	 call	 _SendNetXCmd
  000d2	83 c4 0c	 add	 esp, 12			; 0000000cH
$LN15@P_CheckPoi:

; 1827 : 				return;

  000d5	eb 02		 jmp	 SHORT $LN3@P_CheckPoi
$LN14@P_CheckPoi:

; 1828 : 			}
; 1829 : 		}

  000d7	eb b2		 jmp	 SHORT $LN2@P_CheckPoi
$LN3@P_CheckPoi:

; 1830 : 	}
; 1831 : }

  000d9	5f		 pop	 edi
  000da	5e		 pop	 esi
  000db	5b		 pop	 ebx
  000dc	8b e5		 mov	 esp, ebp
  000de	5d		 pop	 ebp
  000df	c3		 ret	 0
_P_CheckPointLimit ENDP
_TEXT	ENDS
; Function compile flags: /Odtp /ZI
; File C:\Users\RafaTheFox\Downloads\SRB2-Public-master\src\p_inter.c
;	COMDAT _P_PlayerFlagBurst
_TEXT	SEGMENT
tv183 = -80						; size = 4
tv194 = -80						; size = 4
_type$ = -12						; size = 4
_fa$ = -8						; size = 4
_flag$ = -4						; size = 4
_player$ = 8						; size = 4
_toss$ = 12						; size = 4
_P_PlayerFlagBurst PROC					; COMDAT

; 3719 : {

  00000	55		 push	 ebp
  00001	8b ec		 mov	 ebp, esp
  00003	83 ec 50	 sub	 esp, 80			; 00000050H
  00006	53		 push	 ebx
  00007	56		 push	 esi
  00008	57		 push	 edi

; 3720 : 	mobj_t *flag;
; 3721 : 	angle_t fa;
; 3722 : 	mobjtype_t type;
; 3723 : 
; 3724 : 	if (!(player->gotflag & MF_REDFLAG || player->gotflag & MF_BLUEFLAG))

  00009	8b 45 08	 mov	 eax, DWORD PTR _player$[ebp]
  0000c	0f b7 88 64 01
	00 00		 movzx	 ecx, WORD PTR [eax+356]
  00013	83 e1 01	 and	 ecx, 1
  00016	75 14		 jne	 SHORT $LN2@P_PlayerFl
  00018	8b 45 08	 mov	 eax, DWORD PTR _player$[ebp]
  0001b	0f b7 88 64 01
	00 00		 movzx	 ecx, WORD PTR [eax+356]
  00022	83 e1 02	 and	 ecx, 2
  00025	75 05		 jne	 SHORT $LN2@P_PlayerFl

; 3725 : 		return;

  00027	e9 84 02 00 00	 jmp	 $LN1@P_PlayerFl
$LN2@P_PlayerFl:

; 3726 : 
; 3727 : 	if (player->gotflag & MF_REDFLAG)

  0002c	8b 45 08	 mov	 eax, DWORD PTR _player$[ebp]
  0002f	0f b7 88 64 01
	00 00		 movzx	 ecx, WORD PTR [eax+356]
  00036	83 e1 01	 and	 ecx, 1
  00039	74 09		 je	 SHORT $LN3@P_PlayerFl

; 3728 : 		type = MT_REDFLAG;

  0003b	c7 45 f4 34 00
	00 00		 mov	 DWORD PTR _type$[ebp], 52 ; 00000034H
  00042	eb 07		 jmp	 SHORT $LN4@P_PlayerFl
$LN3@P_PlayerFl:

; 3729 : 	else
; 3730 : 		type = MT_BLUEFLAG;

  00044	c7 45 f4 35 00
	00 00		 mov	 DWORD PTR _type$[ebp], 53 ; 00000035H
$LN4@P_PlayerFl:

; 3731 : 
; 3732 : 	flag = P_SpawnMobj(player->mo->x, player->mo->y, player->mo->z, type);

  0004b	8b 45 f4	 mov	 eax, DWORD PTR _type$[ebp]
  0004e	50		 push	 eax
  0004f	8b 4d 08	 mov	 ecx, DWORD PTR _player$[ebp]
  00052	8b 11		 mov	 edx, DWORD PTR [ecx]
  00054	8b 42 18	 mov	 eax, DWORD PTR [edx+24]
  00057	50		 push	 eax
  00058	8b 4d 08	 mov	 ecx, DWORD PTR _player$[ebp]
  0005b	8b 11		 mov	 edx, DWORD PTR [ecx]
  0005d	8b 42 14	 mov	 eax, DWORD PTR [edx+20]
  00060	50		 push	 eax
  00061	8b 4d 08	 mov	 ecx, DWORD PTR _player$[ebp]
  00064	8b 11		 mov	 edx, DWORD PTR [ecx]
  00066	8b 42 10	 mov	 eax, DWORD PTR [edx+16]
  00069	50		 push	 eax
  0006a	e8 00 00 00 00	 call	 _P_SpawnMobj
  0006f	83 c4 10	 add	 esp, 16			; 00000010H
  00072	89 45 fc	 mov	 DWORD PTR _flag$[ebp], eax

; 3733 : 
; 3734 : 	if (player->mo->eflags & MFE_VERTICALFLIP)

  00075	8b 45 08	 mov	 eax, DWORD PTR _player$[ebp]
  00078	8b 08		 mov	 ecx, DWORD PTR [eax]
  0007a	8b 91 84 00 00
	00		 mov	 edx, DWORD PTR [ecx+132]
  00080	83 e2 20	 and	 edx, 32			; 00000020H
  00083	74 1b		 je	 SHORT $LN5@P_PlayerFl

; 3735 : 		flag->z -= player->mo->height / 2;

  00085	8b 45 08	 mov	 eax, DWORD PTR _player$[ebp]
  00088	8b 08		 mov	 ecx, DWORD PTR [eax]
  0008a	8b 41 44	 mov	 eax, DWORD PTR [ecx+68]
  0008d	99		 cdq
  0008e	2b c2		 sub	 eax, edx
  00090	d1 f8		 sar	 eax, 1
  00092	8b 55 fc	 mov	 edx, DWORD PTR _flag$[ebp]
  00095	8b 4a 18	 mov	 ecx, DWORD PTR [edx+24]
  00098	2b c8		 sub	 ecx, eax
  0009a	8b 55 fc	 mov	 edx, DWORD PTR _flag$[ebp]
  0009d	89 4a 18	 mov	 DWORD PTR [edx+24], ecx
$LN5@P_PlayerFl:

; 3736 : 
; 3737 : 	if (toss)

  000a0	83 7d 0c 00	 cmp	 DWORD PTR _toss$[ebp], 0
  000a4	74 10		 je	 SHORT $LN6@P_PlayerFl

; 3738 : 		fa = player->mo->angle>>ANGLETOFINESHIFT;

  000a6	8b 45 08	 mov	 eax, DWORD PTR _player$[ebp]
  000a9	8b 08		 mov	 ecx, DWORD PTR [eax]
  000ab	8b 51 24	 mov	 edx, DWORD PTR [ecx+36]
  000ae	c1 ea 13	 shr	 edx, 19			; 00000013H
  000b1	89 55 f8	 mov	 DWORD PTR _fa$[ebp], edx
  000b4	eb 1a		 jmp	 SHORT $LN7@P_PlayerFl
$LN6@P_PlayerFl:

; 3739 : 	else
; 3740 : 		fa = P_Random()*FINEANGLES/256;

  000b6	e8 00 00 00 00	 call	 _P_Random
  000bb	0f b6 c0	 movzx	 eax, al
  000be	c1 e0 0d	 shl	 eax, 13			; 0000000dH
  000c1	99		 cdq
  000c2	81 e2 ff 00 00
	00		 and	 edx, 255		; 000000ffH
  000c8	03 c2		 add	 eax, edx
  000ca	c1 f8 08	 sar	 eax, 8
  000cd	89 45 f8	 mov	 DWORD PTR _fa$[ebp], eax
$LN7@P_PlayerFl:

; 3741 : 
; 3742 : 	flag->momx = FixedMul(FINECOSINE(fa), (6 * FRACUNIT));

  000d0	68 00 00 06 00	 push	 393216			; 00060000H
  000d5	8b 45 f8	 mov	 eax, DWORD PTR _fa$[ebp]
  000d8	8b 0d 00 00 00
	00		 mov	 ecx, DWORD PTR _finecosine
  000de	8b 14 81	 mov	 edx, DWORD PTR [ecx+eax*4]
  000e1	52		 push	 edx
  000e2	e8 00 00 00 00	 call	 _FixedMul
  000e7	83 c4 08	 add	 esp, 8
  000ea	8b 4d fc	 mov	 ecx, DWORD PTR _flag$[ebp]
  000ed	89 41 48	 mov	 DWORD PTR [ecx+72], eax

; 3743 : 
; 3744 : 	if (toss)

  000f0	83 7d 0c 00	 cmp	 DWORD PTR _toss$[ebp], 0
  000f4	74 10		 je	 SHORT $LN8@P_PlayerFl

; 3745 : 		fa = player->mo->angle>>ANGLETOFINESHIFT;

  000f6	8b 45 08	 mov	 eax, DWORD PTR _player$[ebp]
  000f9	8b 08		 mov	 ecx, DWORD PTR [eax]
  000fb	8b 51 24	 mov	 edx, DWORD PTR [ecx+36]
  000fe	c1 ea 13	 shr	 edx, 19			; 00000013H
  00101	89 55 f8	 mov	 DWORD PTR _fa$[ebp], edx
  00104	eb 1a		 jmp	 SHORT $LN9@P_PlayerFl
$LN8@P_PlayerFl:

; 3746 : 	else
; 3747 : 		fa = P_Random()*FINEANGLES/256;

  00106	e8 00 00 00 00	 call	 _P_Random
  0010b	0f b6 c0	 movzx	 eax, al
  0010e	c1 e0 0d	 shl	 eax, 13			; 0000000dH
  00111	99		 cdq
  00112	81 e2 ff 00 00
	00		 and	 edx, 255		; 000000ffH
  00118	03 c2		 add	 eax, edx
  0011a	c1 f8 08	 sar	 eax, 8
  0011d	89 45 f8	 mov	 DWORD PTR _fa$[ebp], eax
$LN9@P_PlayerFl:

; 3748 : 
; 3749 : 	if (!(twodlevel || (player->mo->flags2 & MF2_TWOD)))

  00120	0f bf 05 00 00
	00 00		 movsx	 eax, WORD PTR _maptol
  00127	25 00 02 00 00	 and	 eax, 512		; 00000200H
  0012c	75 31		 jne	 SHORT $LN10@P_PlayerFl
  0012e	8b 45 08	 mov	 eax, DWORD PTR _player$[ebp]
  00131	8b 08		 mov	 ecx, DWORD PTR [eax]
  00133	8b 91 88 00 00
	00		 mov	 edx, DWORD PTR [ecx+136]
  00139	81 e2 80 00 00
	00		 and	 edx, 128		; 00000080H
  0013f	75 1e		 jne	 SHORT $LN10@P_PlayerFl

; 3750 : 		flag->momy = FixedMul(FINESINE(fa), (6 * FRACUNIT));

  00141	68 00 00 06 00	 push	 393216			; 00060000H
  00146	8b 45 f8	 mov	 eax, DWORD PTR _fa$[ebp]
  00149	8b 0c 85 00 00
	00 00		 mov	 ecx, DWORD PTR _finesine[eax*4]
  00150	51		 push	 ecx
  00151	e8 00 00 00 00	 call	 _FixedMul
  00156	83 c4 08	 add	 esp, 8
  00159	8b 55 fc	 mov	 edx, DWORD PTR _flag$[ebp]
  0015c	89 42 4c	 mov	 DWORD PTR [edx+76], eax
$LN10@P_PlayerFl:

; 3751 : 
; 3752 : 	flag->momz = 8*FRACUNIT;

  0015f	8b 45 fc	 mov	 eax, DWORD PTR _flag$[ebp]
  00162	c7 40 50 00 00
	08 00		 mov	 DWORD PTR [eax+80], 524288 ; 00080000H

; 3753 : 
; 3754 : 	if (player->mo->eflags & MFE_VERTICALFLIP)

  00169	8b 45 08	 mov	 eax, DWORD PTR _player$[ebp]
  0016c	8b 08		 mov	 ecx, DWORD PTR [eax]
  0016e	8b 91 84 00 00
	00		 mov	 edx, DWORD PTR [ecx+132]
  00174	83 e2 20	 and	 edx, 32			; 00000020H
  00177	74 0e		 je	 SHORT $LN11@P_PlayerFl

; 3755 : 		flag->momz = -flag->momz;

  00179	8b 45 fc	 mov	 eax, DWORD PTR _flag$[ebp]
  0017c	8b 48 50	 mov	 ecx, DWORD PTR [eax+80]
  0017f	f7 d9		 neg	 ecx
  00181	8b 55 fc	 mov	 edx, DWORD PTR _flag$[ebp]
  00184	89 4a 50	 mov	 DWORD PTR [edx+80], ecx
$LN11@P_PlayerFl:

; 3756 : 
; 3757 : 	if (type == MT_REDFLAG)

  00187	83 7d f4 34	 cmp	 DWORD PTR _type$[ebp], 52 ; 00000034H
  0018b	75 11		 jne	 SHORT $LN12@P_PlayerFl

; 3758 : 		flag->spawnpoint = rflagpoint;

  0018d	8b 45 fc	 mov	 eax, DWORD PTR _flag$[ebp]
  00190	8b 0d 00 00 00
	00		 mov	 ecx, DWORD PTR _rflagpoint
  00196	89 88 ac 00 00
	00		 mov	 DWORD PTR [eax+172], ecx
  0019c	eb 0f		 jmp	 SHORT $LN13@P_PlayerFl
$LN12@P_PlayerFl:

; 3759 : 	else
; 3760 : 		flag->spawnpoint = bflagpoint;

  0019e	8b 45 fc	 mov	 eax, DWORD PTR _flag$[ebp]
  001a1	8b 0d 00 00 00
	00		 mov	 ecx, DWORD PTR _bflagpoint
  001a7	89 88 ac 00 00
	00		 mov	 DWORD PTR [eax+172], ecx
$LN13@P_PlayerFl:

; 3761 : 
; 3762 : 	flag->fuse = cv_flagtime.value * TICRATE;

  001ad	6b 05 14 00 00
	00 23		 imul	 eax, DWORD PTR _cv_flagtime+20, 35
  001b4	8b 4d fc	 mov	 ecx, DWORD PTR _flag$[ebp]
  001b7	89 81 bc 00 00
	00		 mov	 DWORD PTR [ecx+188], eax

; 3763 : 	P_SetTarget(&flag->target, player->mo);

  001bd	8b 45 08	 mov	 eax, DWORD PTR _player$[ebp]
  001c0	8b 08		 mov	 ecx, DWORD PTR [eax]
  001c2	51		 push	 ecx
  001c3	8b 55 fc	 mov	 edx, DWORD PTR _flag$[ebp]
  001c6	81 c2 98 00 00
	00		 add	 edx, 152		; 00000098H
  001cc	52		 push	 edx
  001cd	e8 00 00 00 00	 call	 _P_SetTarget
  001d2	83 c4 08	 add	 esp, 8

; 3764 : 
; 3765 : 	if (toss)

  001d5	83 7d 0c 00	 cmp	 DWORD PTR _toss$[ebp], 0
  001d9	74 50		 je	 SHORT $LN14@P_PlayerFl

; 3766 : 		CONS_Printf(text[PLAYERTOSSFLAG], player_names[player-players], (type == MT_REDFLAG ? "red" : "blue"));

  001db	83 7d f4 34	 cmp	 DWORD PTR _type$[ebp], 52 ; 00000034H
  001df	75 09		 jne	 SHORT $LN20@P_PlayerFl
  001e1	c7 45 b0 00 00
	00 00		 mov	 DWORD PTR tv183[ebp], OFFSET ??_C@_03FAAAOPJM@red@
  001e8	eb 07		 jmp	 SHORT $LN21@P_PlayerFl
$LN20@P_PlayerFl:
  001ea	c7 45 b0 00 00
	00 00		 mov	 DWORD PTR tv183[ebp], OFFSET ??_C@_04OBGPFBCN@blue@
$LN21@P_PlayerFl:
  001f1	8b 45 b0	 mov	 eax, DWORD PTR tv183[ebp]
  001f4	50		 push	 eax
  001f5	8b 45 08	 mov	 eax, DWORD PTR _player$[ebp]
  001f8	2d 00 00 00 00	 sub	 eax, OFFSET _players
  001fd	99		 cdq
  001fe	b9 fc 01 00 00	 mov	 ecx, 508		; 000001fcH
  00203	f7 f9		 idiv	 ecx
  00205	6b d0 16	 imul	 edx, eax, 22
  00208	81 c2 00 00 00
	00		 add	 edx, OFFSET _player_names
  0020e	52		 push	 edx
  0020f	b8 04 00 00 00	 mov	 eax, 4
  00214	69 c8 08 01 00
	00		 imul	 ecx, eax, 264
  0021a	8b 91 00 00 00
	00		 mov	 edx, DWORD PTR _text[ecx]
  00220	52		 push	 edx
  00221	e8 00 00 00 00	 call	 _CONS_Printf
  00226	83 c4 0c	 add	 esp, 12			; 0000000cH
  00229	eb 4e		 jmp	 SHORT $LN15@P_PlayerFl
$LN14@P_PlayerFl:

; 3767 : 	else
; 3768 : 		CONS_Printf(text[PLAYERDROPFLAG], player_names[player-players], (type == MT_REDFLAG ? "red" : "blue"));

  0022b	83 7d f4 34	 cmp	 DWORD PTR _type$[ebp], 52 ; 00000034H
  0022f	75 09		 jne	 SHORT $LN22@P_PlayerFl
  00231	c7 45 b0 00 00
	00 00		 mov	 DWORD PTR tv194[ebp], OFFSET ??_C@_03FAAAOPJM@red@
  00238	eb 07		 jmp	 SHORT $LN23@P_PlayerFl
$LN22@P_PlayerFl:
  0023a	c7 45 b0 00 00
	00 00		 mov	 DWORD PTR tv194[ebp], OFFSET ??_C@_04OBGPFBCN@blue@
$LN23@P_PlayerFl:
  00241	8b 45 b0	 mov	 eax, DWORD PTR tv194[ebp]
  00244	50		 push	 eax
  00245	8b 45 08	 mov	 eax, DWORD PTR _player$[ebp]
  00248	2d 00 00 00 00	 sub	 eax, OFFSET _players
  0024d	99		 cdq
  0024e	b9 fc 01 00 00	 mov	 ecx, 508		; 000001fcH
  00253	f7 f9		 idiv	 ecx
  00255	6b d0 16	 imul	 edx, eax, 22
  00258	81 c2 00 00 00
	00		 add	 edx, OFFSET _player_names
  0025e	52		 push	 edx
  0025f	b8 04 00 00 00	 mov	 eax, 4
  00264	69 c8 09 01 00
	00		 imul	 ecx, eax, 265
  0026a	8b 91 00 00 00
	00		 mov	 edx, DWORD PTR _text[ecx]
  00270	52		 push	 edx
  00271	e8 00 00 00 00	 call	 _CONS_Printf
  00276	83 c4 0c	 add	 esp, 12			; 0000000cH
$LN15@P_PlayerFl:

; 3769 : 
; 3770 : 	player->gotflag = 0;

  00279	33 c0		 xor	 eax, eax
  0027b	8b 4d 08	 mov	 ecx, DWORD PTR _player$[ebp]
  0027e	66 89 81 64 01
	00 00		 mov	 WORD PTR [ecx+356], ax

; 3771 : 
; 3772 : 	// Pointers set for displaying time value and for consistency restoration.
; 3773 : 	if (type == MT_REDFLAG)

  00285	83 7d f4 34	 cmp	 DWORD PTR _type$[ebp], 52 ; 00000034H
  00289	75 0a		 jne	 SHORT $LN16@P_PlayerFl

; 3774 : 		redflag = flag;

  0028b	8b 45 fc	 mov	 eax, DWORD PTR _flag$[ebp]
  0028e	a3 00 00 00 00	 mov	 DWORD PTR _redflag, eax
  00293	eb 08		 jmp	 SHORT $LN17@P_PlayerFl
$LN16@P_PlayerFl:

; 3775 : 	else
; 3776 : 		blueflag = flag;

  00295	8b 45 fc	 mov	 eax, DWORD PTR _flag$[ebp]
  00298	a3 00 00 00 00	 mov	 DWORD PTR _blueflag, eax
$LN17@P_PlayerFl:

; 3777 : 
; 3778 : 	if (toss)

  0029d	83 7d 0c 00	 cmp	 DWORD PTR _toss$[ebp], 0
  002a1	74 0d		 je	 SHORT $LN18@P_PlayerFl

; 3779 : 		player->tossdelay = 2*TICRATE;

  002a3	8b 45 08	 mov	 eax, DWORD PTR _player$[ebp]
  002a6	c7 80 74 01 00
	00 46 00 00 00	 mov	 DWORD PTR [eax+372], 70	; 00000046H
$LN18@P_PlayerFl:
$LN1@P_PlayerFl:

; 3780 : 
; 3781 : 	return;
; 3782 : }

  002b0	5f		 pop	 edi
  002b1	5e		 pop	 esi
  002b2	5b		 pop	 ebx
  002b3	8b e5		 mov	 esp, ebp
  002b5	5d		 pop	 ebp
  002b6	c3		 ret	 0
_P_PlayerFlagBurst ENDP
_TEXT	ENDS
; Function compile flags: /Odtp /ZI
; File C:\Users\RafaTheFox\Downloads\SRB2-Public-master\src\p_inter.c
;	COMDAT _P_TouchSpecialThing
_TEXT	SEGMENT
tv1491 = -260						; size = 4
tv1456 = -260						; size = 4
tv416 = -260						; size = 4
_spawnheight$1 = -192					; size = 2
_spawnheight$2 = -188					; size = 2
_mo2$3 = -184						; size = 4
_th$4 = -180						; size = 4
_junk$5 = -176						; size = 76
_mo2$6 = -100						; size = 4
_th$7 = -96						; size = 4
_d$8 = -92						; size = 4
_gatherradius$9 = -88					; size = 4
_z$10 = -84						; size = 4
_y$11 = -80						; size = 4
_x$12 = -76						; size = 4
_count$13 = -72						; size = 4
_mo2$14 = -68						; size = 4
_th$15 = -64						; size = 4
_speed$16 = -60						; size = 4
_yspeed$17 = -56					; size = 4
_xspeed$18 = -52					; size = 4
_fa$19 = -48						; size = 4
_emblemcount$20 = -44					; size = 4
_angle$21 = -40						; size = 4
_touchspeed$22 = -36					; size = 4
_touchy$23 = -32					; size = 4
_touchx$24 = -28					; size = 4
_temp$ = -24						; size = 4
_sound$ = -20						; size = 4
_pemercount$ = -16					; size = 4
_i$ = -12						; size = 4
_player$ = -8						; size = 4
__$ArrayPad$ = -4					; size = 4
_special$ = 8						; size = 4
_toucher$ = 12						; size = 4
_heightcheck$ = 16					; size = 4
_P_TouchSpecialThing PROC				; COMDAT

; 190  : {

  00000	55		 push	 ebp
  00001	8b ec		 mov	 ebp, esp
  00003	81 ec 04 01 00
	00		 sub	 esp, 260		; 00000104H
  00009	a1 00 00 00 00	 mov	 eax, DWORD PTR ___security_cookie
  0000e	33 c5		 xor	 eax, ebp
  00010	89 45 fc	 mov	 DWORD PTR __$ArrayPad$[ebp], eax
  00013	53		 push	 ebx
  00014	56		 push	 esi
  00015	57		 push	 edi

; 191  : 	player_t *player;
; 192  : 	INT32 i, pemercount = 0;

  00016	c7 45 f0 00 00
	00 00		 mov	 DWORD PTR _pemercount$[ebp], 0

; 193  : 	sfxenum_t sound = sfx_None;

  0001d	c7 45 ec 00 00
	00 00		 mov	 DWORD PTR _sound$[ebp], 0

; 194  : 	mobj_t *temp;
; 195  : 
; 196  : 	if (cv_objectplace.value)

  00024	83 3d 14 00 00
	00 00		 cmp	 DWORD PTR _cv_objectplace+20, 0
  0002b	74 05		 je	 SHORT $LN40@P_TouchSpe

; 197  : 		return;

  0002d	e9 b7 38 00 00	 jmp	 $LN374@P_TouchSpe
$LN40@P_TouchSpe:

; 198  : 
; 199  : 	// Dead thing touching.
; 200  : 	// Can happen with a sliding player corpse.
; 201  : 	if (toucher->health <= 0)

  00032	8b 45 0c	 mov	 eax, DWORD PTR _toucher$[ebp]
  00035	83 b8 8c 00 00
	00 00		 cmp	 DWORD PTR [eax+140], 0
  0003c	7f 05		 jg	 SHORT $LN41@P_TouchSpe

; 202  : 		return;

  0003e	e9 a6 38 00 00	 jmp	 $LN374@P_TouchSpe
$LN41@P_TouchSpe:

; 203  : 
; 204  : 	if (heightcheck)

  00043	83 7d 10 00	 cmp	 DWORD PTR _heightcheck$[ebp], 0
  00047	74 77		 je	 SHORT $LN48@P_TouchSpe

; 205  : 	{
; 206  : 		if (special->type == MT_FLINGEMERALD) // little hack here...

  00049	8b 45 08	 mov	 eax, DWORD PTR _special$[ebp]
  0004c	83 78 7c 40	 cmp	 DWORD PTR [eax+124], 64	; 00000040H
  00050	75 3c		 jne	 SHORT $LN43@P_TouchSpe

; 207  : 		{ // flingemerald sprites are low to the ground, so extend collision radius down some.
; 208  : 			if (toucher->z > (special->z + special->height))

  00052	8b 45 08	 mov	 eax, DWORD PTR _special$[ebp]
  00055	8b 48 18	 mov	 ecx, DWORD PTR [eax+24]
  00058	8b 55 08	 mov	 edx, DWORD PTR _special$[ebp]
  0005b	03 4a 44	 add	 ecx, DWORD PTR [edx+68]
  0005e	8b 45 0c	 mov	 eax, DWORD PTR _toucher$[ebp]
  00061	39 48 18	 cmp	 DWORD PTR [eax+24], ecx
  00064	7e 05		 jle	 SHORT $LN45@P_TouchSpe

; 209  : 				return;

  00066	e9 7e 38 00 00	 jmp	 $LN374@P_TouchSpe
$LN45@P_TouchSpe:

; 210  : 			if (special->z - special->height > (toucher->z + toucher->height))

  0006b	8b 45 08	 mov	 eax, DWORD PTR _special$[ebp]
  0006e	8b 4d 08	 mov	 ecx, DWORD PTR _special$[ebp]
  00071	8b 50 18	 mov	 edx, DWORD PTR [eax+24]
  00074	2b 51 44	 sub	 edx, DWORD PTR [ecx+68]
  00077	8b 45 0c	 mov	 eax, DWORD PTR _toucher$[ebp]
  0007a	8b 48 18	 mov	 ecx, DWORD PTR [eax+24]
  0007d	8b 45 0c	 mov	 eax, DWORD PTR _toucher$[ebp]
  00080	03 48 44	 add	 ecx, DWORD PTR [eax+68]
  00083	3b d1		 cmp	 edx, ecx
  00085	7e 05		 jle	 SHORT $LN46@P_TouchSpe

; 211  : 				return;

  00087	e9 5d 38 00 00	 jmp	 $LN374@P_TouchSpe
$LN46@P_TouchSpe:

; 212  : 		}

  0008c	eb 32		 jmp	 SHORT $LN48@P_TouchSpe
$LN43@P_TouchSpe:

; 213  : 		else
; 214  : 		{
; 215  : 			if (toucher->z > (special->z + special->height))

  0008e	8b 45 08	 mov	 eax, DWORD PTR _special$[ebp]
  00091	8b 48 18	 mov	 ecx, DWORD PTR [eax+24]
  00094	8b 55 08	 mov	 edx, DWORD PTR _special$[ebp]
  00097	03 4a 44	 add	 ecx, DWORD PTR [edx+68]
  0009a	8b 45 0c	 mov	 eax, DWORD PTR _toucher$[ebp]
  0009d	39 48 18	 cmp	 DWORD PTR [eax+24], ecx
  000a0	7e 05		 jle	 SHORT $LN47@P_TouchSpe

; 216  : 				return;

  000a2	e9 42 38 00 00	 jmp	 $LN374@P_TouchSpe
$LN47@P_TouchSpe:

; 217  : 			if (special->z > (toucher->z + toucher->height))

  000a7	8b 45 0c	 mov	 eax, DWORD PTR _toucher$[ebp]
  000aa	8b 48 18	 mov	 ecx, DWORD PTR [eax+24]
  000ad	8b 55 0c	 mov	 edx, DWORD PTR _toucher$[ebp]
  000b0	03 4a 44	 add	 ecx, DWORD PTR [edx+68]
  000b3	8b 45 08	 mov	 eax, DWORD PTR _special$[ebp]
  000b6	39 48 18	 cmp	 DWORD PTR [eax+24], ecx
  000b9	7e 05		 jle	 SHORT $LN48@P_TouchSpe

; 218  : 				return;

  000bb	e9 29 38 00 00	 jmp	 $LN374@P_TouchSpe
$LN48@P_TouchSpe:

; 219  : 		}
; 220  : 	}
; 221  : 
; 222  : 	if (special->health <= 0)

  000c0	8b 45 08	 mov	 eax, DWORD PTR _special$[ebp]
  000c3	83 b8 8c 00 00
	00 00		 cmp	 DWORD PTR [eax+140], 0
  000ca	7f 05		 jg	 SHORT $LN49@P_TouchSpe

; 223  : 		return;

  000cc	e9 18 38 00 00	 jmp	 $LN374@P_TouchSpe
$LN49@P_TouchSpe:

; 224  : 
; 225  : 	sound = sfx_itemup;

  000d1	c7 45 ec 53 00
	00 00		 mov	 DWORD PTR _sound$[ebp], 83 ; 00000053H

; 226  : 	player = toucher->player;

  000d8	8b 45 0c	 mov	 eax, DWORD PTR _toucher$[ebp]
  000db	8b 88 a4 00 00
	00		 mov	 ecx, DWORD PTR [eax+164]
  000e1	89 4d f8	 mov	 DWORD PTR _player$[ebp], ecx

; 227  : 
; 228  : 	if (!player) // Only players can touch stuff!

  000e4	83 7d f8 00	 cmp	 DWORD PTR _player$[ebp], 0
  000e8	75 05		 jne	 SHORT $LN50@P_TouchSpe

; 229  : 		return;

  000ea	e9 fa 37 00 00	 jmp	 $LN374@P_TouchSpe
$LN50@P_TouchSpe:

; 230  : 
; 231  : 	if ((netgame || multiplayer) && player->spectator)

  000ef	83 3d 00 00 00
	00 00		 cmp	 DWORD PTR _netgame, 0
  000f6	75 09		 jne	 SHORT $LN52@P_TouchSpe
  000f8	83 3d 00 00 00
	00 00		 cmp	 DWORD PTR _multiplayer, 0
  000ff	74 13		 je	 SHORT $LN51@P_TouchSpe
$LN52@P_TouchSpe:
  00101	8b 45 f8	 mov	 eax, DWORD PTR _player$[ebp]
  00104	0f b6 88 f0 01
	00 00		 movzx	 ecx, BYTE PTR [eax+496]
  0010b	85 c9		 test	 ecx, ecx
  0010d	74 05		 je	 SHORT $LN51@P_TouchSpe

; 232  : 		return;

  0010f	e9 d5 37 00 00	 jmp	 $LN374@P_TouchSpe
$LN51@P_TouchSpe:

; 233  : 
; 234  : 	if (special->state == &states[S_DISS]) // Don't collect if in "disappearing" mode

  00114	b8 1c 00 00 00	 mov	 eax, 28			; 0000001cH
  00119	69 c8 4f 06 00
	00		 imul	 ecx, eax, 1615
  0011f	81 c1 00 00 00
	00		 add	 ecx, OFFSET _states
  00125	8b 55 08	 mov	 edx, DWORD PTR _special$[ebp]
  00128	39 4a 5c	 cmp	 DWORD PTR [edx+92], ecx
  0012b	75 05		 jne	 SHORT $LN53@P_TouchSpe

; 235  : 		return;

  0012d	e9 b7 37 00 00	 jmp	 $LN374@P_TouchSpe
$LN53@P_TouchSpe:

; 236  : 
; 237  : 	// Ignore eggman in "ouchie" mode
; 238  : 	if ((special->flags & MF_BOSS) && (special->flags2 & MF2_FRET))

  00132	8b 45 08	 mov	 eax, DWORD PTR _special$[ebp]
  00135	8b 48 60	 mov	 ecx, DWORD PTR [eax+96]
  00138	81 e1 80 00 00
	00		 and	 ecx, 128		; 00000080H
  0013e	74 13		 je	 SHORT $LN54@P_TouchSpe
  00140	8b 45 08	 mov	 eax, DWORD PTR _special$[ebp]
  00143	8b 88 88 00 00
	00		 mov	 ecx, DWORD PTR [eax+136]
  00149	83 e1 10	 and	 ecx, 16			; 00000010H
  0014c	74 05		 je	 SHORT $LN54@P_TouchSpe

; 239  : 		return;

  0014e	e9 96 37 00 00	 jmp	 $LN374@P_TouchSpe
$LN54@P_TouchSpe:

; 240  : 
; 241  : 	if (special->type == MT_EGGMOBILE2 && special->movecount)

  00153	8b 45 08	 mov	 eax, DWORD PTR _special$[ebp]
  00156	83 78 7c 1f	 cmp	 DWORD PTR [eax+124], 31	; 0000001fH
  0015a	75 11		 jne	 SHORT $LN55@P_TouchSpe
  0015c	8b 45 08	 mov	 eax, DWORD PTR _special$[ebp]
  0015f	83 b8 94 00 00
	00 00		 cmp	 DWORD PTR [eax+148], 0
  00166	74 05		 je	 SHORT $LN55@P_TouchSpe

; 242  : 		return;

  00168	e9 7c 37 00 00	 jmp	 $LN374@P_TouchSpe
$LN55@P_TouchSpe:

; 243  : 
; 244  : 	if (special->flags & MF_BOSS)

  0016d	8b 45 08	 mov	 eax, DWORD PTR _special$[ebp]
  00170	8b 48 60	 mov	 ecx, DWORD PTR [eax+96]
  00173	81 e1 80 00 00
	00		 and	 ecx, 128		; 00000080H
  00179	0f 84 4e 02 00
	00		 je	 $LN56@P_TouchSpe

; 245  : 	{
; 246  : 		if (special->type == MT_BLACKEGGMAN)

  0017f	8b 45 08	 mov	 eax, DWORD PTR _special$[ebp]
  00182	83 78 7c 27	 cmp	 DWORD PTR [eax+124], 39	; 00000027H
  00186	75 1b		 jne	 SHORT $LN58@P_TouchSpe

; 247  : 		{
; 248  : 			P_DamageMobj(toucher, special, special, 1); // ouch

  00188	6a 01		 push	 1
  0018a	8b 45 08	 mov	 eax, DWORD PTR _special$[ebp]
  0018d	50		 push	 eax
  0018e	8b 4d 08	 mov	 ecx, DWORD PTR _special$[ebp]
  00191	51		 push	 ecx
  00192	8b 55 0c	 mov	 edx, DWORD PTR _toucher$[ebp]
  00195	52		 push	 edx
  00196	e8 00 00 00 00	 call	 _P_DamageMobj
  0019b	83 c4 10	 add	 esp, 16			; 00000010H

; 249  : 			return;

  0019e	e9 46 37 00 00	 jmp	 $LN374@P_TouchSpe
$LN58@P_TouchSpe:

; 250  : 		}
; 251  : 
; 252  : 		if ((toucher->z <= special->z + special->height && toucher->z + toucher->height
; 253  : 		     >= special->z) // Are you touching the side of it?
; 254  : 		    && (((toucher->player->pflags & PF_NIGHTSMODE) && (toucher->player->pflags & PF_DRILLING))

  001a3	8b 45 08	 mov	 eax, DWORD PTR _special$[ebp]
  001a6	8b 48 18	 mov	 ecx, DWORD PTR [eax+24]
  001a9	8b 55 08	 mov	 edx, DWORD PTR _special$[ebp]
  001ac	03 4a 44	 add	 ecx, DWORD PTR [edx+68]
  001af	8b 45 0c	 mov	 eax, DWORD PTR _toucher$[ebp]
  001b2	39 48 18	 cmp	 DWORD PTR [eax+24], ecx
  001b5	0f 8f 17 01 00
	00		 jg	 $LN59@P_TouchSpe
  001bb	8b 45 0c	 mov	 eax, DWORD PTR _toucher$[ebp]
  001be	8b 48 18	 mov	 ecx, DWORD PTR [eax+24]
  001c1	8b 55 0c	 mov	 edx, DWORD PTR _toucher$[ebp]
  001c4	03 4a 44	 add	 ecx, DWORD PTR [edx+68]
  001c7	8b 45 08	 mov	 eax, DWORD PTR _special$[ebp]
  001ca	3b 48 18	 cmp	 ecx, DWORD PTR [eax+24]
  001cd	0f 8c ff 00 00
	00		 jl	 $LN59@P_TouchSpe
  001d3	8b 45 0c	 mov	 eax, DWORD PTR _toucher$[ebp]
  001d6	8b 88 a4 00 00
	00		 mov	 ecx, DWORD PTR [eax+164]
  001dc	8b 91 ac 00 00
	00		 mov	 edx, DWORD PTR [ecx+172]
  001e2	81 e2 00 00 20
	00		 and	 edx, 2097152		; 00200000H
  001e8	74 17		 je	 SHORT $LN62@P_TouchSpe
  001ea	8b 45 0c	 mov	 eax, DWORD PTR _toucher$[ebp]
  001ed	8b 88 a4 00 00
	00		 mov	 ecx, DWORD PTR [eax+164]
  001f3	8b 91 ac 00 00
	00		 mov	 edx, DWORD PTR [ecx+172]
  001f9	81 e2 00 00 00
	01		 and	 edx, 16777216		; 01000000H
  001ff	75 5e		 jne	 SHORT $LN61@P_TouchSpe
$LN62@P_TouchSpe:
  00201	8b 45 0c	 mov	 eax, DWORD PTR _toucher$[ebp]
  00204	8b 88 a4 00 00
	00		 mov	 ecx, DWORD PTR [eax+164]
  0020a	8b 91 ac 00 00
	00		 mov	 edx, DWORD PTR [ecx+172]
  00210	81 e2 00 10 00
	00		 and	 edx, 4096		; 00001000H
  00216	75 47		 jne	 SHORT $LN61@P_TouchSpe
  00218	8b 45 0c	 mov	 eax, DWORD PTR _toucher$[ebp]
  0021b	8b 88 a4 00 00
	00		 mov	 ecx, DWORD PTR [eax+164]
  00221	8b 91 ac 00 00
	00		 mov	 edx, DWORD PTR [ecx+172]
  00227	81 e2 00 20 00
	00		 and	 edx, 8192		; 00002000H
  0022d	75 30		 jne	 SHORT $LN61@P_TouchSpe
  0022f	8b 45 0c	 mov	 eax, DWORD PTR _toucher$[ebp]
  00232	8b 88 a4 00 00
	00		 mov	 ecx, DWORD PTR [eax+164]
  00238	ba 04 00 00 00	 mov	 edx, 4
  0023d	6b c2 00	 imul	 eax, edx, 0
  00240	83 7c 01 38 00	 cmp	 DWORD PTR [ecx+eax+56], 0
  00245	75 18		 jne	 SHORT $LN61@P_TouchSpe
  00247	8b 45 0c	 mov	 eax, DWORD PTR _toucher$[ebp]
  0024a	8b 88 a4 00 00
	00		 mov	 ecx, DWORD PTR [eax+164]
  00250	ba 04 00 00 00	 mov	 edx, 4
  00255	6b c2 0f	 imul	 eax, edx, 15
  00258	83 7c 01 38 00	 cmp	 DWORD PTR [ecx+eax+56], 0
  0025d	74 73		 je	 SHORT $LN59@P_TouchSpe
$LN61@P_TouchSpe:

; 255  : 		        || (toucher->player->pflags & PF_JUMPED) || (toucher->player->pflags & PF_SPINNING)
; 256  : 		        || toucher->player->powers[pw_invulnerability] || toucher->player->powers[pw_super]
; 257  : 		       )
; 258  : 		   ) // Do you possess the ability to subdue the object?
; 259  : 		{
; 260  : 			if ((toucher->momz < 0 && !(toucher->eflags & MFE_VERTICALFLIP)) || (toucher->momz > 0 && (toucher->eflags & MFE_VERTICALFLIP)))

  0025f	8b 45 0c	 mov	 eax, DWORD PTR _toucher$[ebp]
  00262	83 78 50 00	 cmp	 DWORD PTR [eax+80], 0
  00266	7d 0e		 jge	 SHORT $LN65@P_TouchSpe
  00268	8b 45 0c	 mov	 eax, DWORD PTR _toucher$[ebp]
  0026b	8b 88 84 00 00
	00		 mov	 ecx, DWORD PTR [eax+132]
  00271	83 e1 20	 and	 ecx, 32			; 00000020H
  00274	74 17		 je	 SHORT $LN64@P_TouchSpe
$LN65@P_TouchSpe:
  00276	8b 45 0c	 mov	 eax, DWORD PTR _toucher$[ebp]
  00279	83 78 50 00	 cmp	 DWORD PTR [eax+80], 0
  0027d	7e 1c		 jle	 SHORT $LN63@P_TouchSpe
  0027f	8b 45 0c	 mov	 eax, DWORD PTR _toucher$[ebp]
  00282	8b 88 84 00 00
	00		 mov	 ecx, DWORD PTR [eax+132]
  00288	83 e1 20	 and	 ecx, 32			; 00000020H
  0028b	74 0e		 je	 SHORT $LN63@P_TouchSpe
$LN64@P_TouchSpe:

; 261  : 				toucher->momz = -toucher->momz;

  0028d	8b 45 0c	 mov	 eax, DWORD PTR _toucher$[ebp]
  00290	8b 48 50	 mov	 ecx, DWORD PTR [eax+80]
  00293	f7 d9		 neg	 ecx
  00295	8b 55 0c	 mov	 edx, DWORD PTR _toucher$[ebp]
  00298	89 4a 50	 mov	 DWORD PTR [edx+80], ecx
$LN63@P_TouchSpe:

; 262  : 			toucher->momx = -toucher->momx;

  0029b	8b 45 0c	 mov	 eax, DWORD PTR _toucher$[ebp]
  0029e	8b 48 48	 mov	 ecx, DWORD PTR [eax+72]
  002a1	f7 d9		 neg	 ecx
  002a3	8b 55 0c	 mov	 edx, DWORD PTR _toucher$[ebp]
  002a6	89 4a 48	 mov	 DWORD PTR [edx+72], ecx

; 263  : 			toucher->momy = -toucher->momy;

  002a9	8b 45 0c	 mov	 eax, DWORD PTR _toucher$[ebp]
  002ac	8b 48 4c	 mov	 ecx, DWORD PTR [eax+76]
  002af	f7 d9		 neg	 ecx
  002b1	8b 55 0c	 mov	 edx, DWORD PTR _toucher$[ebp]
  002b4	89 4a 4c	 mov	 DWORD PTR [edx+76], ecx

; 264  : 			P_DamageMobj(special, toucher, toucher, 1);

  002b7	6a 01		 push	 1
  002b9	8b 45 0c	 mov	 eax, DWORD PTR _toucher$[ebp]
  002bc	50		 push	 eax
  002bd	8b 4d 0c	 mov	 ecx, DWORD PTR _toucher$[ebp]
  002c0	51		 push	 ecx
  002c1	8b 55 08	 mov	 edx, DWORD PTR _special$[ebp]
  002c4	52		 push	 edx
  002c5	e8 00 00 00 00	 call	 _P_DamageMobj
  002ca	83 c4 10	 add	 esp, 16			; 00000010H

; 265  : 		}

  002cd	e9 f1 00 00 00	 jmp	 $LN67@P_TouchSpe
$LN59@P_TouchSpe:

; 266  : 		else if (toucher->z + toucher->height >= special->z
; 267  : 		         && toucher->z < special->z
; 268  : 		         && toucher->player->charability == CA_FLY
; 269  : 		         && (toucher->player->powers[pw_tailsfly]

  002d2	8b 45 0c	 mov	 eax, DWORD PTR _toucher$[ebp]
  002d5	8b 48 18	 mov	 ecx, DWORD PTR [eax+24]
  002d8	8b 55 0c	 mov	 edx, DWORD PTR _toucher$[ebp]
  002db	03 4a 44	 add	 ecx, DWORD PTR [edx+68]
  002de	8b 45 08	 mov	 eax, DWORD PTR _special$[ebp]
  002e1	3b 48 18	 cmp	 ecx, DWORD PTR [eax+24]
  002e4	0f 8c c3 00 00
	00		 jl	 $LN66@P_TouchSpe
  002ea	8b 45 0c	 mov	 eax, DWORD PTR _toucher$[ebp]
  002ed	8b 4d 08	 mov	 ecx, DWORD PTR _special$[ebp]
  002f0	8b 50 18	 mov	 edx, DWORD PTR [eax+24]
  002f3	3b 51 18	 cmp	 edx, DWORD PTR [ecx+24]
  002f6	0f 8d b1 00 00
	00		 jge	 $LN66@P_TouchSpe
  002fc	8b 45 0c	 mov	 eax, DWORD PTR _toucher$[ebp]
  002ff	8b 88 a4 00 00
	00		 mov	 ecx, DWORD PTR [eax+164]
  00305	83 b9 d8 00 00
	00 01		 cmp	 DWORD PTR [ecx+216], 1
  0030c	0f 85 9b 00 00
	00		 jne	 $LN66@P_TouchSpe
  00312	8b 45 0c	 mov	 eax, DWORD PTR _toucher$[ebp]
  00315	8b 88 a4 00 00
	00		 mov	 ecx, DWORD PTR [eax+164]
  0031b	ba 04 00 00 00	 mov	 edx, 4
  00320	6b c2 05	 imul	 eax, edx, 5
  00323	83 7c 01 38 00	 cmp	 DWORD PTR [ecx+eax+56], 0
  00328	75 58		 jne	 SHORT $LN68@P_TouchSpe
  0032a	b8 1c 00 00 00	 mov	 eax, 28			; 0000001cH
  0032f	6b c8 17	 imul	 ecx, eax, 23
  00332	81 c1 00 00 00
	00		 add	 ecx, OFFSET _states
  00338	8b 55 0c	 mov	 edx, DWORD PTR _toucher$[ebp]
  0033b	39 4a 5c	 cmp	 DWORD PTR [edx+92], ecx
  0033e	74 42		 je	 SHORT $LN68@P_TouchSpe
  00340	b8 1c 00 00 00	 mov	 eax, 28			; 0000001cH
  00345	6b c8 18	 imul	 ecx, eax, 24
  00348	81 c1 00 00 00
	00		 add	 ecx, OFFSET _states
  0034e	8b 55 0c	 mov	 edx, DWORD PTR _toucher$[ebp]
  00351	39 4a 5c	 cmp	 DWORD PTR [edx+92], ecx
  00354	74 2c		 je	 SHORT $LN68@P_TouchSpe
  00356	b8 1c 00 00 00	 mov	 eax, 28			; 0000001cH
  0035b	6b c8 19	 imul	 ecx, eax, 25
  0035e	81 c1 00 00 00
	00		 add	 ecx, OFFSET _states
  00364	8b 55 0c	 mov	 edx, DWORD PTR _toucher$[ebp]
  00367	39 4a 5c	 cmp	 DWORD PTR [edx+92], ecx
  0036a	74 16		 je	 SHORT $LN68@P_TouchSpe
  0036c	b8 1c 00 00 00	 mov	 eax, 28			; 0000001cH
  00371	6b c8 1a	 imul	 ecx, eax, 26
  00374	81 c1 00 00 00
	00		 add	 ecx, OFFSET _states
  0037a	8b 55 0c	 mov	 edx, DWORD PTR _toucher$[ebp]
  0037d	39 4a 5c	 cmp	 DWORD PTR [edx+92], ecx
  00380	75 2b		 jne	 SHORT $LN66@P_TouchSpe
$LN68@P_TouchSpe:

; 270  : 		             || toucher->state == &states[S_PLAY_SPC1]
; 271  : 		             || toucher->state == &states[S_PLAY_SPC2]
; 272  : 		             || toucher->state == &states[S_PLAY_SPC3]
; 273  : 		             || toucher->state == &states[S_PLAY_SPC4])) // Tails can shred stuff with his propeller.
; 274  : 		{
; 275  : 			toucher->momz = -toucher->momz/2;

  00382	8b 45 0c	 mov	 eax, DWORD PTR _toucher$[ebp]
  00385	8b 40 50	 mov	 eax, DWORD PTR [eax+80]
  00388	f7 d8		 neg	 eax
  0038a	99		 cdq
  0038b	2b c2		 sub	 eax, edx
  0038d	d1 f8		 sar	 eax, 1
  0038f	8b 4d 0c	 mov	 ecx, DWORD PTR _toucher$[ebp]
  00392	89 41 50	 mov	 DWORD PTR [ecx+80], eax

; 276  : 
; 277  : 			P_DamageMobj(special, toucher, toucher, 1);

  00395	6a 01		 push	 1
  00397	8b 45 0c	 mov	 eax, DWORD PTR _toucher$[ebp]
  0039a	50		 push	 eax
  0039b	8b 4d 0c	 mov	 ecx, DWORD PTR _toucher$[ebp]
  0039e	51		 push	 ecx
  0039f	8b 55 08	 mov	 edx, DWORD PTR _special$[ebp]
  003a2	52		 push	 edx
  003a3	e8 00 00 00 00	 call	 _P_DamageMobj
  003a8	83 c4 10	 add	 esp, 16			; 00000010H

; 278  : 		}

  003ab	eb 16		 jmp	 SHORT $LN67@P_TouchSpe
$LN66@P_TouchSpe:

; 279  : 		else
; 280  : 			P_DamageMobj(toucher, special, special, 1);

  003ad	6a 01		 push	 1
  003af	8b 45 08	 mov	 eax, DWORD PTR _special$[ebp]
  003b2	50		 push	 eax
  003b3	8b 4d 08	 mov	 ecx, DWORD PTR _special$[ebp]
  003b6	51		 push	 ecx
  003b7	8b 55 0c	 mov	 edx, DWORD PTR _toucher$[ebp]
  003ba	52		 push	 edx
  003bb	e8 00 00 00 00	 call	 _P_DamageMobj
  003c0	83 c4 10	 add	 esp, 16			; 00000010H
$LN67@P_TouchSpe:

; 281  : 
; 282  : 		return;

  003c3	e9 21 35 00 00	 jmp	 $LN374@P_TouchSpe

; 283  : 	}

  003c8	e9 cc 34 00 00	 jmp	 $LN2@P_TouchSpe
$LN56@P_TouchSpe:

; 284  : 	else if ((special->flags & MF_ENEMY) && !(special->flags & MF_MISSILE))

  003cd	8b 45 08	 mov	 eax, DWORD PTR _special$[ebp]
  003d0	8b 48 60	 mov	 ecx, DWORD PTR [eax+96]
  003d3	81 e1 00 00 00
	01		 and	 ecx, 16777216		; 01000000H
  003d9	0f 84 f7 02 00
	00		 je	 $LN69@P_TouchSpe
  003df	8b 45 08	 mov	 eax, DWORD PTR _special$[ebp]
  003e2	8b 48 60	 mov	 ecx, DWORD PTR [eax+96]
  003e5	81 e1 00 00 01
	00		 and	 ecx, 65536		; 00010000H
  003eb	0f 85 e5 02 00
	00		 jne	 $LN69@P_TouchSpe

; 285  : 	{
; 286  : 		////////////////////////////////////////////////////////
; 287  : 		/////ENEMIES!!//////////////////////////////////////////
; 288  : 		////////////////////////////////////////////////////////
; 289  : 		if (special->type == MT_GSNAPPER
; 290  : 			&& !(toucher->z - toucher->momz > special->z + special->height || (toucher->z + toucher->height) - toucher->momz < special->z))

  003f1	8b 45 08	 mov	 eax, DWORD PTR _special$[ebp]
  003f4	83 78 7c 17	 cmp	 DWORD PTR [eax+124], 23	; 00000017H
  003f8	75 4c		 jne	 SHORT $LN71@P_TouchSpe
  003fa	8b 45 0c	 mov	 eax, DWORD PTR _toucher$[ebp]
  003fd	8b 4d 0c	 mov	 ecx, DWORD PTR _toucher$[ebp]
  00400	8b 50 18	 mov	 edx, DWORD PTR [eax+24]
  00403	2b 51 50	 sub	 edx, DWORD PTR [ecx+80]
  00406	8b 45 08	 mov	 eax, DWORD PTR _special$[ebp]
  00409	8b 48 18	 mov	 ecx, DWORD PTR [eax+24]
  0040c	8b 45 08	 mov	 eax, DWORD PTR _special$[ebp]
  0040f	03 48 44	 add	 ecx, DWORD PTR [eax+68]
  00412	3b d1		 cmp	 edx, ecx
  00414	7f 30		 jg	 SHORT $LN71@P_TouchSpe
  00416	8b 45 0c	 mov	 eax, DWORD PTR _toucher$[ebp]
  00419	8b 48 18	 mov	 ecx, DWORD PTR [eax+24]
  0041c	8b 55 0c	 mov	 edx, DWORD PTR _toucher$[ebp]
  0041f	03 4a 44	 add	 ecx, DWORD PTR [edx+68]
  00422	8b 45 0c	 mov	 eax, DWORD PTR _toucher$[ebp]
  00425	2b 48 50	 sub	 ecx, DWORD PTR [eax+80]
  00428	8b 55 08	 mov	 edx, DWORD PTR _special$[ebp]
  0042b	3b 4a 18	 cmp	 ecx, DWORD PTR [edx+24]
  0042e	7c 16		 jl	 SHORT $LN71@P_TouchSpe

; 291  : 		{
; 292  : 			// Can only hit snapper from above
; 293  : 			P_DamageMobj(toucher, special, special, 1);

  00430	6a 01		 push	 1
  00432	8b 45 08	 mov	 eax, DWORD PTR _special$[ebp]
  00435	50		 push	 eax
  00436	8b 4d 08	 mov	 ecx, DWORD PTR _special$[ebp]
  00439	51		 push	 ecx
  0043a	8b 55 0c	 mov	 edx, DWORD PTR _toucher$[ebp]
  0043d	52		 push	 edx
  0043e	e8 00 00 00 00	 call	 _P_DamageMobj
  00443	83 c4 10	 add	 esp, 16			; 00000010H
$LN71@P_TouchSpe:

; 294  : 		}
; 295  : 		if (special->type == MT_SHARP
; 296  : 			&& ((special->state >= &states[special->info->xdeathstate] && special->state <= &states[special->info->raisestate])

  00446	8b 45 08	 mov	 eax, DWORD PTR _special$[ebp]
  00449	83 78 7c 0d	 cmp	 DWORD PTR [eax+124], 13	; 0000000dH
  0044d	75 70		 jne	 SHORT $LN72@P_TouchSpe
  0044f	8b 45 08	 mov	 eax, DWORD PTR _special$[ebp]
  00452	8b 88 80 00 00
	00		 mov	 ecx, DWORD PTR [eax+128]
  00458	6b 51 34 1c	 imul	 edx, DWORD PTR [ecx+52], 28
  0045c	81 c2 00 00 00
	00		 add	 edx, OFFSET _states
  00462	8b 45 08	 mov	 eax, DWORD PTR _special$[ebp]
  00465	39 50 5c	 cmp	 DWORD PTR [eax+92], edx
  00468	72 1b		 jb	 SHORT $LN75@P_TouchSpe
  0046a	8b 45 08	 mov	 eax, DWORD PTR _special$[ebp]
  0046d	8b 88 80 00 00
	00		 mov	 ecx, DWORD PTR [eax+128]
  00473	6b 51 5c 1c	 imul	 edx, DWORD PTR [ecx+92], 28
  00477	81 c2 00 00 00
	00		 add	 edx, OFFSET _states
  0047d	8b 45 08	 mov	 eax, DWORD PTR _special$[ebp]
  00480	39 50 5c	 cmp	 DWORD PTR [eax+92], edx
  00483	76 1f		 jbe	 SHORT $LN74@P_TouchSpe
$LN75@P_TouchSpe:
  00485	8b 45 0c	 mov	 eax, DWORD PTR _toucher$[ebp]
  00488	8b 40 44	 mov	 eax, DWORD PTR [eax+68]
  0048b	99		 cdq
  0048c	83 e2 07	 and	 edx, 7
  0048f	03 c2		 add	 eax, edx
  00491	c1 f8 03	 sar	 eax, 3
  00494	8b 4d 0c	 mov	 ecx, DWORD PTR _toucher$[ebp]
  00497	8b 51 18	 mov	 edx, DWORD PTR [ecx+24]
  0049a	2b d0		 sub	 edx, eax
  0049c	8b 45 08	 mov	 eax, DWORD PTR _special$[ebp]
  0049f	39 50 18	 cmp	 DWORD PTR [eax+24], edx
  004a2	7d 1b		 jge	 SHORT $LN72@P_TouchSpe
$LN74@P_TouchSpe:

; 297  : 			|| (special->z < toucher->z - toucher->height/8)))
; 298  : 		{
; 299  : 			P_DamageMobj(toucher, special, special, 1);

  004a4	6a 01		 push	 1
  004a6	8b 45 08	 mov	 eax, DWORD PTR _special$[ebp]
  004a9	50		 push	 eax
  004aa	8b 4d 08	 mov	 ecx, DWORD PTR _special$[ebp]
  004ad	51		 push	 ecx
  004ae	8b 55 0c	 mov	 edx, DWORD PTR _toucher$[ebp]
  004b1	52		 push	 edx
  004b2	e8 00 00 00 00	 call	 _P_DamageMobj
  004b7	83 c4 10	 add	 esp, 16			; 00000010H

; 300  : 		}

  004ba	e9 0d 02 00 00	 jmp	 $LN84@P_TouchSpe
$LN72@P_TouchSpe:

; 301  : 		else if ((toucher->z <= special->z + special->height && toucher->z + toucher->height >= special->z) // Are you touching the side of it?
; 302  : 		         && (((toucher->player->pflags & PF_NIGHTSMODE) && (toucher->player->pflags & PF_DRILLING)) || (toucher->player->pflags & PF_JUMPED) || (toucher->player->pflags & PF_SPINNING)

  004bf	8b 45 08	 mov	 eax, DWORD PTR _special$[ebp]
  004c2	8b 48 18	 mov	 ecx, DWORD PTR [eax+24]
  004c5	8b 55 08	 mov	 edx, DWORD PTR _special$[ebp]
  004c8	03 4a 44	 add	 ecx, DWORD PTR [edx+68]
  004cb	8b 45 0c	 mov	 eax, DWORD PTR _toucher$[ebp]
  004ce	39 48 18	 cmp	 DWORD PTR [eax+24], ecx
  004d1	0f 8f fb 00 00
	00		 jg	 $LN76@P_TouchSpe
  004d7	8b 45 0c	 mov	 eax, DWORD PTR _toucher$[ebp]
  004da	8b 48 18	 mov	 ecx, DWORD PTR [eax+24]
  004dd	8b 55 0c	 mov	 edx, DWORD PTR _toucher$[ebp]
  004e0	03 4a 44	 add	 ecx, DWORD PTR [edx+68]
  004e3	8b 45 08	 mov	 eax, DWORD PTR _special$[ebp]
  004e6	3b 48 18	 cmp	 ecx, DWORD PTR [eax+24]
  004e9	0f 8c e3 00 00
	00		 jl	 $LN76@P_TouchSpe
  004ef	8b 45 0c	 mov	 eax, DWORD PTR _toucher$[ebp]
  004f2	8b 88 a4 00 00
	00		 mov	 ecx, DWORD PTR [eax+164]
  004f8	8b 91 ac 00 00
	00		 mov	 edx, DWORD PTR [ecx+172]
  004fe	81 e2 00 00 20
	00		 and	 edx, 2097152		; 00200000H
  00504	74 17		 je	 SHORT $LN79@P_TouchSpe
  00506	8b 45 0c	 mov	 eax, DWORD PTR _toucher$[ebp]
  00509	8b 88 a4 00 00
	00		 mov	 ecx, DWORD PTR [eax+164]
  0050f	8b 91 ac 00 00
	00		 mov	 edx, DWORD PTR [ecx+172]
  00515	81 e2 00 00 00
	01		 and	 edx, 16777216		; 01000000H
  0051b	75 5e		 jne	 SHORT $LN78@P_TouchSpe
$LN79@P_TouchSpe:
  0051d	8b 45 0c	 mov	 eax, DWORD PTR _toucher$[ebp]
  00520	8b 88 a4 00 00
	00		 mov	 ecx, DWORD PTR [eax+164]
  00526	8b 91 ac 00 00
	00		 mov	 edx, DWORD PTR [ecx+172]
  0052c	81 e2 00 10 00
	00		 and	 edx, 4096		; 00001000H
  00532	75 47		 jne	 SHORT $LN78@P_TouchSpe
  00534	8b 45 0c	 mov	 eax, DWORD PTR _toucher$[ebp]
  00537	8b 88 a4 00 00
	00		 mov	 ecx, DWORD PTR [eax+164]
  0053d	8b 91 ac 00 00
	00		 mov	 edx, DWORD PTR [ecx+172]
  00543	81 e2 00 20 00
	00		 and	 edx, 8192		; 00002000H
  00549	75 30		 jne	 SHORT $LN78@P_TouchSpe
  0054b	8b 45 0c	 mov	 eax, DWORD PTR _toucher$[ebp]
  0054e	8b 88 a4 00 00
	00		 mov	 ecx, DWORD PTR [eax+164]
  00554	ba 04 00 00 00	 mov	 edx, 4
  00559	6b c2 00	 imul	 eax, edx, 0
  0055c	83 7c 01 38 00	 cmp	 DWORD PTR [ecx+eax+56], 0
  00561	75 18		 jne	 SHORT $LN78@P_TouchSpe
  00563	8b 45 0c	 mov	 eax, DWORD PTR _toucher$[ebp]
  00566	8b 88 a4 00 00
	00		 mov	 ecx, DWORD PTR [eax+164]
  0056c	ba 04 00 00 00	 mov	 edx, 4
  00571	6b c2 0f	 imul	 eax, edx, 15
  00574	83 7c 01 38 00	 cmp	 DWORD PTR [ecx+eax+56], 0
  00579	74 57		 je	 SHORT $LN76@P_TouchSpe
$LN78@P_TouchSpe:

; 303  : 		             || toucher->player->powers[pw_invulnerability] || toucher->player->powers[pw_super])) // Do you possess the ability to subdue the object?
; 304  : 		{
; 305  : 			if ((toucher->momz < 0 && !(toucher->eflags & MFE_VERTICALFLIP)) || (toucher->momz > 0 && (toucher->eflags & MFE_VERTICALFLIP)))

  0057b	8b 45 0c	 mov	 eax, DWORD PTR _toucher$[ebp]
  0057e	83 78 50 00	 cmp	 DWORD PTR [eax+80], 0
  00582	7d 0e		 jge	 SHORT $LN82@P_TouchSpe
  00584	8b 45 0c	 mov	 eax, DWORD PTR _toucher$[ebp]
  00587	8b 88 84 00 00
	00		 mov	 ecx, DWORD PTR [eax+132]
  0058d	83 e1 20	 and	 ecx, 32			; 00000020H
  00590	74 17		 je	 SHORT $LN81@P_TouchSpe
$LN82@P_TouchSpe:
  00592	8b 45 0c	 mov	 eax, DWORD PTR _toucher$[ebp]
  00595	83 78 50 00	 cmp	 DWORD PTR [eax+80], 0
  00599	7e 1c		 jle	 SHORT $LN80@P_TouchSpe
  0059b	8b 45 0c	 mov	 eax, DWORD PTR _toucher$[ebp]
  0059e	8b 88 84 00 00
	00		 mov	 ecx, DWORD PTR [eax+132]
  005a4	83 e1 20	 and	 ecx, 32			; 00000020H
  005a7	74 0e		 je	 SHORT $LN80@P_TouchSpe
$LN81@P_TouchSpe:

; 306  : 				toucher->momz = -toucher->momz;

  005a9	8b 45 0c	 mov	 eax, DWORD PTR _toucher$[ebp]
  005ac	8b 48 50	 mov	 ecx, DWORD PTR [eax+80]
  005af	f7 d9		 neg	 ecx
  005b1	8b 55 0c	 mov	 edx, DWORD PTR _toucher$[ebp]
  005b4	89 4a 50	 mov	 DWORD PTR [edx+80], ecx
$LN80@P_TouchSpe:

; 307  : 
; 308  : 			P_DamageMobj(special, toucher, toucher, 1);

  005b7	6a 01		 push	 1
  005b9	8b 45 0c	 mov	 eax, DWORD PTR _toucher$[ebp]
  005bc	50		 push	 eax
  005bd	8b 4d 0c	 mov	 ecx, DWORD PTR _toucher$[ebp]
  005c0	51		 push	 ecx
  005c1	8b 55 08	 mov	 edx, DWORD PTR _special$[ebp]
  005c4	52		 push	 edx
  005c5	e8 00 00 00 00	 call	 _P_DamageMobj
  005ca	83 c4 10	 add	 esp, 16			; 00000010H

; 309  : 		}

  005cd	e9 fa 00 00 00	 jmp	 $LN84@P_TouchSpe
$LN76@P_TouchSpe:

; 310  : 		else if (toucher->z + toucher->height >= special->z
; 311  : 		         && toucher->z < special->z
; 312  : 		         && toucher->player->charability == CA_FLY
; 313  : 		         && (toucher->player->powers[pw_tailsfly]

  005d2	8b 45 0c	 mov	 eax, DWORD PTR _toucher$[ebp]
  005d5	8b 48 18	 mov	 ecx, DWORD PTR [eax+24]
  005d8	8b 55 0c	 mov	 edx, DWORD PTR _toucher$[ebp]
  005db	03 4a 44	 add	 ecx, DWORD PTR [edx+68]
  005de	8b 45 08	 mov	 eax, DWORD PTR _special$[ebp]
  005e1	3b 48 18	 cmp	 ecx, DWORD PTR [eax+24]
  005e4	0f 8c cc 00 00
	00		 jl	 $LN83@P_TouchSpe
  005ea	8b 45 0c	 mov	 eax, DWORD PTR _toucher$[ebp]
  005ed	8b 4d 08	 mov	 ecx, DWORD PTR _special$[ebp]
  005f0	8b 50 18	 mov	 edx, DWORD PTR [eax+24]
  005f3	3b 51 18	 cmp	 edx, DWORD PTR [ecx+24]
  005f6	0f 8d ba 00 00
	00		 jge	 $LN83@P_TouchSpe
  005fc	8b 45 0c	 mov	 eax, DWORD PTR _toucher$[ebp]
  005ff	8b 88 a4 00 00
	00		 mov	 ecx, DWORD PTR [eax+164]
  00605	83 b9 d8 00 00
	00 01		 cmp	 DWORD PTR [ecx+216], 1
  0060c	0f 85 a4 00 00
	00		 jne	 $LN83@P_TouchSpe
  00612	8b 45 0c	 mov	 eax, DWORD PTR _toucher$[ebp]
  00615	8b 88 a4 00 00
	00		 mov	 ecx, DWORD PTR [eax+164]
  0061b	ba 04 00 00 00	 mov	 edx, 4
  00620	6b c2 05	 imul	 eax, edx, 5
  00623	83 7c 01 38 00	 cmp	 DWORD PTR [ecx+eax+56], 0
  00628	75 58		 jne	 SHORT $LN85@P_TouchSpe
  0062a	b8 1c 00 00 00	 mov	 eax, 28			; 0000001cH
  0062f	6b c8 17	 imul	 ecx, eax, 23
  00632	81 c1 00 00 00
	00		 add	 ecx, OFFSET _states
  00638	8b 55 0c	 mov	 edx, DWORD PTR _toucher$[ebp]
  0063b	39 4a 5c	 cmp	 DWORD PTR [edx+92], ecx
  0063e	74 42		 je	 SHORT $LN85@P_TouchSpe
  00640	b8 1c 00 00 00	 mov	 eax, 28			; 0000001cH
  00645	6b c8 18	 imul	 ecx, eax, 24
  00648	81 c1 00 00 00
	00		 add	 ecx, OFFSET _states
  0064e	8b 55 0c	 mov	 edx, DWORD PTR _toucher$[ebp]
  00651	39 4a 5c	 cmp	 DWORD PTR [edx+92], ecx
  00654	74 2c		 je	 SHORT $LN85@P_TouchSpe
  00656	b8 1c 00 00 00	 mov	 eax, 28			; 0000001cH
  0065b	6b c8 19	 imul	 ecx, eax, 25
  0065e	81 c1 00 00 00
	00		 add	 ecx, OFFSET _states
  00664	8b 55 0c	 mov	 edx, DWORD PTR _toucher$[ebp]
  00667	39 4a 5c	 cmp	 DWORD PTR [edx+92], ecx
  0066a	74 16		 je	 SHORT $LN85@P_TouchSpe
  0066c	b8 1c 00 00 00	 mov	 eax, 28			; 0000001cH
  00671	6b c8 1a	 imul	 ecx, eax, 26
  00674	81 c1 00 00 00
	00		 add	 ecx, OFFSET _states
  0067a	8b 55 0c	 mov	 edx, DWORD PTR _toucher$[ebp]
  0067d	39 4a 5c	 cmp	 DWORD PTR [edx+92], ecx
  00680	75 34		 jne	 SHORT $LN83@P_TouchSpe
$LN85@P_TouchSpe:

; 314  : 		             || toucher->state == &states[S_PLAY_SPC1]
; 315  : 		             || toucher->state == &states[S_PLAY_SPC2]
; 316  : 		             || toucher->state == &states[S_PLAY_SPC3]
; 317  : 		             || toucher->state == &states[S_PLAY_SPC4])) // Tails can shred stuff with his propeller.
; 318  : 		{
; 319  : 			if (toucher->momz < 0)

  00682	8b 45 0c	 mov	 eax, DWORD PTR _toucher$[ebp]
  00685	83 78 50 00	 cmp	 DWORD PTR [eax+80], 0
  00689	7d 13		 jge	 SHORT $LN86@P_TouchSpe

; 320  : 				toucher->momz = -toucher->momz/2;

  0068b	8b 45 0c	 mov	 eax, DWORD PTR _toucher$[ebp]
  0068e	8b 40 50	 mov	 eax, DWORD PTR [eax+80]
  00691	f7 d8		 neg	 eax
  00693	99		 cdq
  00694	2b c2		 sub	 eax, edx
  00696	d1 f8		 sar	 eax, 1
  00698	8b 4d 0c	 mov	 ecx, DWORD PTR _toucher$[ebp]
  0069b	89 41 50	 mov	 DWORD PTR [ecx+80], eax
