; Listing generated by Microsoft (R) Optimizing Compiler Version 19.41.34123.0 

	TITLE	C:\Users\RafaTheFox\Downloads\SRB2-Public-master\objs\VC10\Win32\Debug\p_map.obj
	.686P
	.XMM
	include listing.inc
	.model	flat

INCLUDELIB LIBCMTD
INCLUDELIB OLDNAMES

PUBLIC	_sector_list
PUBLIC	_precipsector_list
_DATA	SEGMENT
COMM	_ATTRPACK:DWORD
COMM	_tmbbox:DWORD:04H
COMM	_floatok:DWORD
COMM	_tmfloorz:DWORD
COMM	_tmceilingz:DWORD
COMM	_tmsectorceilingz:DWORD
COMM	_tmsprung:DWORD
COMM	_tmfloorthing:DWORD
COMM	_tmthing:DWORD
COMM	_ceilingline:DWORD
COMM	_blockingline:DWORD
_DATA	ENDS
_BSS	SEGMENT
_sector_list DD	01H DUP (?)
_precipsector_list DD 01H DUP (?)
_BSS	ENDS
_DATA	SEGMENT
COMM	_linetarget:DWORD
COMM	_attackrange:DWORD
COMM	_topslope:DWORD
COMM	_bottomslope:DWORD
_DATA	ENDS
CONST	SEGMENT
_hoopblockdist DD 0180000H
_hoophalfheight DD 01c0000H
CONST	ENDS
PUBLIC	_P_CreatePrecipSecNodeList
PUBLIC	_P_SceneryTryMove
PUBLIC	_P_TryCameraMove
PUBLIC	_P_SlideCameraMove
PUBLIC	_P_MapStart
PUBLIC	_P_MapEnd
PUBLIC	_P_CheckPosition
PUBLIC	_P_CheckCameraPosition
PUBLIC	_P_TryMove
PUBLIC	_P_TeleportMove
PUBLIC	_P_SlideMove
PUBLIC	_P_BounceMove
PUBLIC	_P_CheckHoopPosition
PUBLIC	_P_CheckSector
PUBLIC	_P_DelSeclist
PUBLIC	_P_DelPrecipSeclist
PUBLIC	_P_CreateSecNodeList
PUBLIC	_P_Initsecnode
PUBLIC	_P_AimLineAttack
PUBLIC	_P_RadiusAttack
PUBLIC	_P_FloorzAtPos
PUBLIC	_PIT_PushableMoved
PUBLIC	_P_CheckOnmobj
PUBLIC	??_C@_0BJ@MDPBEIDE@P_MapStart?3?5tmthing?5set?$CB@ ; `string'
EXTRN	_abs:PROC
EXTRN	_I_Error:PROC
EXTRN	_FixedMul:PROC
EXTRN	_FixedDiv2:PROC
EXTRN	_P_SetTarget:PROC
EXTRN	_P_PointInsidePolyobj:PROC
EXTRN	_P_BBoxInsidePolyobj:PROC
EXTRN	_P_PathTraverse:PROC
EXTRN	_P_AproxDistance:PROC
EXTRN	_P_PointOnLineSide:PROC
EXTRN	_P_CameraLineOpening:PROC
EXTRN	_P_BoxOnLineSide:PROC
EXTRN	_P_LineOpening:PROC
EXTRN	_P_BlockLinesIterator:PROC
EXTRN	_P_BlockThingsIterator:PROC
EXTRN	_P_ResetPlayer:PROC
EXTRN	_P_IsObjectOnGround:PROC
EXTRN	_P_ResetScore:PROC
EXTRN	_P_ReturnThrustX:PROC
EXTRN	_P_ReturnThrustY:PROC
EXTRN	_P_InstaThrustEvenIn2D:PROC
EXTRN	_P_RecalcPrecipInSector:PROC
EXTRN	_P_SetPlayerMobjState:PROC
EXTRN	_P_SetMobjState:PROC
EXTRN	_P_UnsetThingPosition:PROC
EXTRN	_P_SetThingPosition:PROC
EXTRN	_P_CheckSight:PROC
EXTRN	_P_DamageMobj:PROC
EXTRN	_P_TouchSpecialThing:PROC
EXTRN	_P_PlayerTouchingSectorSpecial:PROC
EXTRN	_P_ProcessSpecialSector:PROC
EXTRN	_T_StartCrumble:PROC
EXTRN	_P_Thrust:PROC
EXTRN	_P_CheckGravity:PROC
EXTRN	_R_PointToAngle2:PROC
EXTRN	_R_PointInSubsector:PROC
EXTRN	_S_StartSound:PROC
EXTRN	_Z_CallocAlign:PROC
EXTRN	_finesine:BYTE
EXTRN	_finecosine:DWORD
EXTRN	_finetangent:BYTE
EXTRN	_states:BYTE
EXTRN	_maptol:WORD
EXTRN	_netgame:DWORD
EXTRN	_gametype:WORD
EXTRN	_splitscreen:DWORD
EXTRN	_consoleplayer:DWORD
EXTRN	_displayplayer:DWORD
EXTRN	_secondarydisplayplayer:DWORD
EXTRN	_cv_tagtype:BYTE
EXTRN	_cv_touchtag:BYTE
EXTRN	_cv_matchtype:BYTE
EXTRN	_seenplayer:DWORD
EXTRN	_players:BYTE
EXTRN	_playeringame:BYTE
EXTRN	_localangle:DWORD
EXTRN	_localangle2:DWORD
EXTRN	_polyblocklinks:DWORD
EXTRN	_opentop:DWORD
EXTRN	_openbottom:DWORD
EXTRN	_openrange:DWORD
EXTRN	_lowfloor:DWORD
EXTRN	_thinkercap:BYTE
EXTRN	_camera:BYTE
EXTRN	_camera2:BYTE
EXTRN	_bmapwidth:DWORD
EXTRN	_bmapheight:DWORD
EXTRN	_bmaporgx:DWORD
EXTRN	_bmaporgy:DWORD
EXTRN	_sectors:DWORD
EXTRN	_lines:DWORD
EXTRN	_validcount:DWORD
EXTRN	_cv_chasecam:BYTE
EXTRN	_cv_chasecam2:BYTE
EXTRN	_cv_tailspickup:BYTE
EXTRN	_skyflatnum:DWORD
_BSS	SEGMENT
_tmflags DD	01H DUP (?)
_tmx	DD	01H DUP (?)
_tmy	DD	01H DUP (?)
_tmprecipthing DD 01H DUP (?)
_preciptmx DD	01H DUP (?)
_preciptmy DD	01H DUP (?)
_preciptmbbox DD 04H DUP (?)
_preciptmflags DD 01H DUP (?)
_tmdropoffz DD	01H DUP (?)
_tmsectorfloorz DD 01H DUP (?)
_mapcampointer DD 01H DUP (?)
_stand	DD	01H DUP (?)
_standx	DD	01H DUP (?)
_standy	DD	01H DUP (?)
_bestslidefrac DD 01H DUP (?)
_secondslidefrac DD 01H DUP (?)
_bestslideline DD 01H DUP (?)
_secondslideline DD 01H DUP (?)
_slidemo DD	01H DUP (?)
_tmxmove DD	01H DUP (?)
_tmymove DD	01H DUP (?)
_shootthing DD	01H DUP (?)
_shootz	DD	01H DUP (?)
_lastz	DD	01H DUP (?)
_aim_nofriends DD 01H DUP (?)
_aimslope DD	01H DUP (?)
_bombdamage DD	01H DUP (?)
_bombsource DD	01H DUP (?)
_bombspot DD	01H DUP (?)
_crushchange DD	01H DUP (?)
_nofit	DD	01H DUP (?)
_headsecnode DD	01H DUP (?)
_headprecipsecnode DD 01H DUP (?)
_BSS	ENDS
;	COMDAT ??_C@_0BJ@MDPBEIDE@P_MapStart?3?5tmthing?5set?$CB@
CONST	SEGMENT
??_C@_0BJ@MDPBEIDE@P_MapStart?3?5tmthing?5set?$CB@ DB 'P_MapStart: tmthin'
	DB	'g set!', 00H				; `string'
CONST	ENDS
; Function compile flags: /Odtp /ZI
; File C:\Users\RafaTheFox\Downloads\SRB2-Public-master\src\p_map.c
;	COMDAT _P_FakeZMovement
_TEXT	SEGMENT
_thingtop$1 = -24					; size = 4
_delta2$2 = -20						; size = 4
_delta1$3 = -16						; size = 4
_rover$4 = -12						; size = 4
_delta$ = -8						; size = 4
_dist$ = -4						; size = 4
_mo$ = 8						; size = 4
_P_FakeZMovement PROC					; COMDAT

; 3767 : {

  00000	55		 push	 ebp
  00001	8b ec		 mov	 ebp, esp
  00003	83 ec 58	 sub	 esp, 88			; 00000058H
  00006	53		 push	 ebx
  00007	56		 push	 esi
  00008	57		 push	 edi

; 3768 : 	fixed_t dist, delta;
; 3769 : 
; 3770 : 	if (!mo->health)

  00009	8b 45 08	 mov	 eax, DWORD PTR _mo$[ebp]
  0000c	83 b8 8c 00 00
	00 00		 cmp	 DWORD PTR [eax+140], 0
  00013	75 05		 jne	 SHORT $LN5@P_FakeZMov

; 3771 : 		return;

  00015	e9 c6 04 00 00	 jmp	 $LN29@P_FakeZMov
$LN5@P_FakeZMov:

; 3772 : 
; 3773 : 	// Intercept the stupid 'fall through 3dfloors' bug Tails 03-17-2002
; 3774 : 	if (mo->subsector->sector->ffloors)

  0001a	8b 45 08	 mov	 eax, DWORD PTR _mo$[ebp]
  0001d	8b 48 34	 mov	 ecx, DWORD PTR [eax+52]
  00020	8b 11		 mov	 edx, DWORD PTR [ecx]
  00022	83 ba 90 00 00
	00 00		 cmp	 DWORD PTR [edx+144], 0
  00029	0f 84 a2 02 00
	00		 je	 $LN3@P_FakeZMov

; 3775 : 	{
; 3776 : 		ffloor_t *rover;
; 3777 : 		fixed_t delta1, delta2;
; 3778 : 		fixed_t thingtop = mo->z + mo->height;

  0002f	8b 45 08	 mov	 eax, DWORD PTR _mo$[ebp]
  00032	8b 48 18	 mov	 ecx, DWORD PTR [eax+24]
  00035	8b 55 08	 mov	 edx, DWORD PTR _mo$[ebp]
  00038	03 4a 44	 add	 ecx, DWORD PTR [edx+68]
  0003b	89 4d e8	 mov	 DWORD PTR _thingtop$1[ebp], ecx

; 3779 : 
; 3780 : 		for (rover = mo->subsector->sector->ffloors; rover; rover = rover->next)

  0003e	8b 45 08	 mov	 eax, DWORD PTR _mo$[ebp]
  00041	8b 48 34	 mov	 ecx, DWORD PTR [eax+52]
  00044	8b 11		 mov	 edx, DWORD PTR [ecx]
  00046	8b 82 90 00 00
	00		 mov	 eax, DWORD PTR [edx+144]
  0004c	89 45 f4	 mov	 DWORD PTR _rover$4[ebp], eax
  0004f	eb 09		 jmp	 SHORT $LN4@P_FakeZMov
$LN2@P_FakeZMov:
  00051	8b 45 f4	 mov	 eax, DWORD PTR _rover$4[ebp]
  00054	8b 48 40	 mov	 ecx, DWORD PTR [eax+64]
  00057	89 4d f4	 mov	 DWORD PTR _rover$4[ebp], ecx
$LN4@P_FakeZMov:
  0005a	83 7d f4 00	 cmp	 DWORD PTR _rover$4[ebp], 0
  0005e	0f 84 6d 02 00
	00		 je	 $LN3@P_FakeZMov

; 3781 : 		{
; 3782 : 			if (!(rover->flags & FF_EXISTS))

  00064	8b 45 f4	 mov	 eax, DWORD PTR _rover$4[ebp]
  00067	8b 48 34	 mov	 ecx, DWORD PTR [eax+52]
  0006a	83 e1 01	 and	 ecx, 1
  0006d	75 02		 jne	 SHORT $LN7@P_FakeZMov

; 3783 : 				continue;

  0006f	eb e0		 jmp	 SHORT $LN2@P_FakeZMov
$LN7@P_FakeZMov:

; 3784 : /*
; 3785 : 			if ((rover->flags & FF_SWIMMABLE) && GETSECSPECIAL(rover->master->frontsector->special, 1) == 3
; 3786 : 				&&  ((rover->master->flags & ML_EFFECT3)
; 3787 : 				|| thing->z-thing->momz > *rover->topheight - 16*FRACUNIT))
; 3788 : 				;
; 3789 : 			else */if ((!((((rover->flags & FF_BLOCKPLAYER) && mo->player)
; 3790 : 				|| ((rover->flags & FF_BLOCKOTHERS) && !mo->player)) || rover->flags & FF_QUICKSAND) && !(mo->player && !(mo->player->pflags & PF_NIGHTSMODE) && !mo->player->homing && (((mo->player->charability == CA_SWIM) || mo->player->powers[pw_super]) && mo->ceilingz-*rover->topheight >= mo->height) && (rover->flags & FF_SWIMMABLE) && !(mo->player->pflags & PF_SPINNING) && mo->player->speed > mo->player->runspeed && /*mo->ceilingz - *rover->topheight >= mo->height && */mo->z < *rover->topheight + 30*FRACUNIT && mo->z > *rover->topheight - 30*FRACUNIT)))

  00071	8b 45 f4	 mov	 eax, DWORD PTR _rover$4[ebp]
  00074	8b 48 34	 mov	 ecx, DWORD PTR [eax+52]
  00077	83 e1 02	 and	 ecx, 2
  0007a	74 10		 je	 SHORT $LN9@P_FakeZMov
  0007c	8b 45 08	 mov	 eax, DWORD PTR _mo$[ebp]
  0007f	83 b8 a4 00 00
	00 00		 cmp	 DWORD PTR [eax+164], 0
  00086	0f 85 24 01 00
	00		 jne	 $LN8@P_FakeZMov
$LN9@P_FakeZMov:
  0008c	8b 45 f4	 mov	 eax, DWORD PTR _rover$4[ebp]
  0008f	8b 48 34	 mov	 ecx, DWORD PTR [eax+52]
  00092	83 e1 04	 and	 ecx, 4
  00095	74 10		 je	 SHORT $LN10@P_FakeZMov
  00097	8b 45 08	 mov	 eax, DWORD PTR _mo$[ebp]
  0009a	83 b8 a4 00 00
	00 00		 cmp	 DWORD PTR [eax+164], 0
  000a1	0f 84 09 01 00
	00		 je	 $LN8@P_FakeZMov
$LN10@P_FakeZMov:
  000a7	8b 45 f4	 mov	 eax, DWORD PTR _rover$4[ebp]
  000aa	8b 48 34	 mov	 ecx, DWORD PTR [eax+52]
  000ad	81 e1 00 00 00
	01		 and	 ecx, 16777216		; 01000000H
  000b3	0f 85 f7 00 00
	00		 jne	 $LN8@P_FakeZMov
  000b9	8b 45 08	 mov	 eax, DWORD PTR _mo$[ebp]
  000bc	83 b8 a4 00 00
	00 00		 cmp	 DWORD PTR [eax+164], 0
  000c3	0f 84 e2 00 00
	00		 je	 $LN11@P_FakeZMov
  000c9	8b 45 08	 mov	 eax, DWORD PTR _mo$[ebp]
  000cc	8b 88 a4 00 00
	00		 mov	 ecx, DWORD PTR [eax+164]
  000d2	8b 91 ac 00 00
	00		 mov	 edx, DWORD PTR [ecx+172]
  000d8	81 e2 00 00 20
	00		 and	 edx, 2097152		; 00200000H
  000de	0f 85 c7 00 00
	00		 jne	 $LN11@P_FakeZMov
  000e4	8b 45 08	 mov	 eax, DWORD PTR _mo$[ebp]
  000e7	8b 88 a4 00 00
	00		 mov	 ecx, DWORD PTR [eax+164]
  000ed	0f b6 91 38 01
	00 00		 movzx	 edx, BYTE PTR [ecx+312]
  000f4	85 d2		 test	 edx, edx
  000f6	0f 85 af 00 00
	00		 jne	 $LN11@P_FakeZMov
  000fc	8b 45 08	 mov	 eax, DWORD PTR _mo$[ebp]
  000ff	8b 88 a4 00 00
	00		 mov	 ecx, DWORD PTR [eax+164]
  00105	83 b9 d8 00 00
	00 06		 cmp	 DWORD PTR [ecx+216], 6
  0010c	74 1c		 je	 SHORT $LN12@P_FakeZMov
  0010e	8b 45 08	 mov	 eax, DWORD PTR _mo$[ebp]
  00111	8b 88 a4 00 00
	00		 mov	 ecx, DWORD PTR [eax+164]
  00117	ba 04 00 00 00	 mov	 edx, 4
  0011c	6b c2 0f	 imul	 eax, edx, 15
  0011f	83 7c 01 38 00	 cmp	 DWORD PTR [ecx+eax+56], 0
  00124	0f 84 81 00 00
	00		 je	 $LN11@P_FakeZMov
$LN12@P_FakeZMov:
  0012a	8b 45 f4	 mov	 eax, DWORD PTR _rover$4[ebp]
  0012d	8b 08		 mov	 ecx, DWORD PTR [eax]
  0012f	8b 55 08	 mov	 edx, DWORD PTR _mo$[ebp]
  00132	8b 42 3c	 mov	 eax, DWORD PTR [edx+60]
  00135	2b 01		 sub	 eax, DWORD PTR [ecx]
  00137	8b 4d 08	 mov	 ecx, DWORD PTR _mo$[ebp]
  0013a	3b 41 44	 cmp	 eax, DWORD PTR [ecx+68]
  0013d	7c 6c		 jl	 SHORT $LN11@P_FakeZMov
  0013f	8b 45 f4	 mov	 eax, DWORD PTR _rover$4[ebp]
  00142	8b 48 34	 mov	 ecx, DWORD PTR [eax+52]
  00145	83 e1 20	 and	 ecx, 32			; 00000020H
  00148	74 61		 je	 SHORT $LN11@P_FakeZMov
  0014a	8b 45 08	 mov	 eax, DWORD PTR _mo$[ebp]
  0014d	8b 88 a4 00 00
	00		 mov	 ecx, DWORD PTR [eax+164]
  00153	8b 91 ac 00 00
	00		 mov	 edx, DWORD PTR [ecx+172]
  00159	81 e2 00 20 00
	00		 and	 edx, 8192		; 00002000H
  0015f	75 4a		 jne	 SHORT $LN11@P_FakeZMov
  00161	8b 45 08	 mov	 eax, DWORD PTR _mo$[ebp]
  00164	8b 88 a4 00 00
	00		 mov	 ecx, DWORD PTR [eax+164]
  0016a	8b 55 08	 mov	 edx, DWORD PTR _mo$[ebp]
  0016d	8b 82 a4 00 00
	00		 mov	 eax, DWORD PTR [edx+164]
  00173	8b 89 0c 01 00
	00		 mov	 ecx, DWORD PTR [ecx+268]
  00179	3b 88 c8 00 00
	00		 cmp	 ecx, DWORD PTR [eax+200]
  0017f	7e 2a		 jle	 SHORT $LN11@P_FakeZMov
  00181	8b 45 f4	 mov	 eax, DWORD PTR _rover$4[ebp]
  00184	8b 08		 mov	 ecx, DWORD PTR [eax]
  00186	8b 11		 mov	 edx, DWORD PTR [ecx]
  00188	81 c2 00 00 1e
	00		 add	 edx, 1966080		; 001e0000H
  0018e	8b 45 08	 mov	 eax, DWORD PTR _mo$[ebp]
  00191	39 50 18	 cmp	 DWORD PTR [eax+24], edx
  00194	7d 15		 jge	 SHORT $LN11@P_FakeZMov
  00196	8b 45 f4	 mov	 eax, DWORD PTR _rover$4[ebp]
  00199	8b 08		 mov	 ecx, DWORD PTR [eax]
  0019b	8b 11		 mov	 edx, DWORD PTR [ecx]
  0019d	81 ea 00 00 1e
	00		 sub	 edx, 1966080		; 001e0000H
  001a3	8b 45 08	 mov	 eax, DWORD PTR _mo$[ebp]
  001a6	39 50 18	 cmp	 DWORD PTR [eax+24], edx
  001a9	7f 05		 jg	 SHORT $LN8@P_FakeZMov
$LN11@P_FakeZMov:

; 3791 : 				continue;

  001ab	e9 a1 fe ff ff	 jmp	 $LN2@P_FakeZMov
$LN8@P_FakeZMov:

; 3792 : 
; 3793 : 			if (rover->flags & FF_QUICKSAND)

  001b0	8b 45 f4	 mov	 eax, DWORD PTR _rover$4[ebp]
  001b3	8b 48 34	 mov	 ecx, DWORD PTR [eax+52]
  001b6	81 e1 00 00 00
	01		 and	 ecx, 16777216		; 01000000H
  001bc	74 2d		 je	 SHORT $LN13@P_FakeZMov

; 3794 : 			{
; 3795 : 				if (mo->z < *rover->topheight && *rover->bottomheight < thingtop)

  001be	8b 45 f4	 mov	 eax, DWORD PTR _rover$4[ebp]
  001c1	8b 08		 mov	 ecx, DWORD PTR [eax]
  001c3	8b 55 08	 mov	 edx, DWORD PTR _mo$[ebp]
  001c6	8b 42 18	 mov	 eax, DWORD PTR [edx+24]
  001c9	3b 01		 cmp	 eax, DWORD PTR [ecx]
  001cb	7d 19		 jge	 SHORT $LN14@P_FakeZMov
  001cd	8b 45 f4	 mov	 eax, DWORD PTR _rover$4[ebp]
  001d0	8b 48 18	 mov	 ecx, DWORD PTR [eax+24]
  001d3	8b 11		 mov	 edx, DWORD PTR [ecx]
  001d5	3b 55 e8	 cmp	 edx, DWORD PTR _thingtop$1[ebp]
  001d8	7d 0c		 jge	 SHORT $LN14@P_FakeZMov

; 3796 : 				{
; 3797 : 					mo->floorz = mo->z;

  001da	8b 45 08	 mov	 eax, DWORD PTR _mo$[ebp]
  001dd	8b 4d 08	 mov	 ecx, DWORD PTR _mo$[ebp]
  001e0	8b 51 18	 mov	 edx, DWORD PTR [ecx+24]
  001e3	89 50 38	 mov	 DWORD PTR [eax+56], edx
$LN14@P_FakeZMov:

; 3798 : 				}
; 3799 : 				continue; // This is so you can jump/spring up through quicksand from below.

  001e6	e9 66 fe ff ff	 jmp	 $LN2@P_FakeZMov
$LN13@P_FakeZMov:

; 3800 : 			}
; 3801 : 
; 3802 : 			delta1 = mo->z - (*rover->bottomheight + ((*rover->topheight - *rover->bottomheight)/2));

  001eb	8b 45 f4	 mov	 eax, DWORD PTR _rover$4[ebp]
  001ee	8b 48 18	 mov	 ecx, DWORD PTR [eax+24]
  001f1	8b 55 f4	 mov	 edx, DWORD PTR _rover$4[ebp]
  001f4	8b 02		 mov	 eax, DWORD PTR [edx]
  001f6	8b 55 f4	 mov	 edx, DWORD PTR _rover$4[ebp]
  001f9	8b 52 18	 mov	 edx, DWORD PTR [edx+24]
  001fc	8b 00		 mov	 eax, DWORD PTR [eax]
  001fe	2b 02		 sub	 eax, DWORD PTR [edx]
  00200	99		 cdq
  00201	2b c2		 sub	 eax, edx
  00203	d1 f8		 sar	 eax, 1
  00205	8b 09		 mov	 ecx, DWORD PTR [ecx]
  00207	03 c8		 add	 ecx, eax
  00209	8b 55 08	 mov	 edx, DWORD PTR _mo$[ebp]
  0020c	8b 42 18	 mov	 eax, DWORD PTR [edx+24]
  0020f	2b c1		 sub	 eax, ecx
  00211	89 45 f0	 mov	 DWORD PTR _delta1$3[ebp], eax

; 3803 : 			delta2 = thingtop - (*rover->bottomheight + ((*rover->topheight - *rover->bottomheight)/2));

  00214	8b 45 f4	 mov	 eax, DWORD PTR _rover$4[ebp]
  00217	8b 48 18	 mov	 ecx, DWORD PTR [eax+24]
  0021a	8b 55 f4	 mov	 edx, DWORD PTR _rover$4[ebp]
  0021d	8b 02		 mov	 eax, DWORD PTR [edx]
  0021f	8b 55 f4	 mov	 edx, DWORD PTR _rover$4[ebp]
  00222	8b 52 18	 mov	 edx, DWORD PTR [edx+24]
  00225	8b 00		 mov	 eax, DWORD PTR [eax]
  00227	2b 02		 sub	 eax, DWORD PTR [edx]
  00229	99		 cdq
  0022a	2b c2		 sub	 eax, edx
  0022c	d1 f8		 sar	 eax, 1
  0022e	8b 09		 mov	 ecx, DWORD PTR [ecx]
  00230	03 c8		 add	 ecx, eax
  00232	8b 55 e8	 mov	 edx, DWORD PTR _thingtop$1[ebp]
  00235	2b d1		 sub	 edx, ecx
  00237	89 55 ec	 mov	 DWORD PTR _delta2$2[ebp], edx

; 3804 : 			if (*rover->topheight > mo->floorz && abs(delta1) < abs(delta2)
; 3805 : 				&& (!(rover->flags & FF_REVERSEPLATFORM)))

  0023a	8b 45 f4	 mov	 eax, DWORD PTR _rover$4[ebp]
  0023d	8b 08		 mov	 ecx, DWORD PTR [eax]
  0023f	8b 55 08	 mov	 edx, DWORD PTR _mo$[ebp]
  00242	8b 01		 mov	 eax, DWORD PTR [ecx]
  00244	3b 42 38	 cmp	 eax, DWORD PTR [edx+56]
  00247	7e 39		 jle	 SHORT $LN15@P_FakeZMov
  00249	8b 45 f0	 mov	 eax, DWORD PTR _delta1$3[ebp]
  0024c	50		 push	 eax
  0024d	e8 00 00 00 00	 call	 _abs
  00252	83 c4 04	 add	 esp, 4
  00255	8b f0		 mov	 esi, eax
  00257	8b 4d ec	 mov	 ecx, DWORD PTR _delta2$2[ebp]
  0025a	51		 push	 ecx
  0025b	e8 00 00 00 00	 call	 _abs
  00260	83 c4 04	 add	 esp, 4
  00263	3b f0		 cmp	 esi, eax
  00265	7d 1b		 jge	 SHORT $LN15@P_FakeZMov
  00267	8b 45 f4	 mov	 eax, DWORD PTR _rover$4[ebp]
  0026a	8b 48 34	 mov	 ecx, DWORD PTR [eax+52]
  0026d	81 e1 00 00 00
	04		 and	 ecx, 67108864		; 04000000H
  00273	75 0d		 jne	 SHORT $LN15@P_FakeZMov

; 3806 : 			{
; 3807 : 				mo->floorz = *rover->topheight;

  00275	8b 45 f4	 mov	 eax, DWORD PTR _rover$4[ebp]
  00278	8b 08		 mov	 ecx, DWORD PTR [eax]
  0027a	8b 55 08	 mov	 edx, DWORD PTR _mo$[ebp]
  0027d	8b 01		 mov	 eax, DWORD PTR [ecx]
  0027f	89 42 38	 mov	 DWORD PTR [edx+56], eax
$LN15@P_FakeZMov:

; 3808 : 			}
; 3809 : 			if (*rover->bottomheight < mo->ceilingz && abs(delta1) >= abs(delta2)
; 3810 : 				&& (/*mo->z + mo->height <= *rover->bottomheight ||*/ !(rover->flags & FF_PLATFORM)))

  00282	8b 45 f4	 mov	 eax, DWORD PTR _rover$4[ebp]
  00285	8b 48 18	 mov	 ecx, DWORD PTR [eax+24]
  00288	8b 55 08	 mov	 edx, DWORD PTR _mo$[ebp]
  0028b	8b 01		 mov	 eax, DWORD PTR [ecx]
  0028d	3b 42 3c	 cmp	 eax, DWORD PTR [edx+60]
  00290	7d 3a		 jge	 SHORT $LN16@P_FakeZMov
  00292	8b 45 f0	 mov	 eax, DWORD PTR _delta1$3[ebp]
  00295	50		 push	 eax
  00296	e8 00 00 00 00	 call	 _abs
  0029b	83 c4 04	 add	 esp, 4
  0029e	8b f0		 mov	 esi, eax
  002a0	8b 4d ec	 mov	 ecx, DWORD PTR _delta2$2[ebp]
  002a3	51		 push	 ecx
  002a4	e8 00 00 00 00	 call	 _abs
  002a9	83 c4 04	 add	 esp, 4
  002ac	3b f0		 cmp	 esi, eax
  002ae	7c 1c		 jl	 SHORT $LN16@P_FakeZMov
  002b0	8b 45 f4	 mov	 eax, DWORD PTR _rover$4[ebp]
  002b3	8b 48 34	 mov	 ecx, DWORD PTR [eax+52]
  002b6	81 e1 00 00 00
	02		 and	 ecx, 33554432		; 02000000H
  002bc	75 0e		 jne	 SHORT $LN16@P_FakeZMov

; 3811 : 			{
; 3812 : 				mo->ceilingz = *rover->bottomheight;

  002be	8b 45 f4	 mov	 eax, DWORD PTR _rover$4[ebp]
  002c1	8b 48 18	 mov	 ecx, DWORD PTR [eax+24]
  002c4	8b 55 08	 mov	 edx, DWORD PTR _mo$[ebp]
  002c7	8b 01		 mov	 eax, DWORD PTR [ecx]
  002c9	89 42 3c	 mov	 DWORD PTR [edx+60], eax
$LN16@P_FakeZMov:

; 3813 : 			}
; 3814 : 		}

  002cc	e9 80 fd ff ff	 jmp	 $LN2@P_FakeZMov
$LN3@P_FakeZMov:

; 3815 : 	}
; 3816 : 
; 3817 : 	// adjust height
; 3818 : 	mo->z += mo->momz;

  002d1	8b 45 08	 mov	 eax, DWORD PTR _mo$[ebp]
  002d4	8b 48 18	 mov	 ecx, DWORD PTR [eax+24]
  002d7	8b 55 08	 mov	 edx, DWORD PTR _mo$[ebp]
  002da	03 4a 50	 add	 ecx, DWORD PTR [edx+80]
  002dd	8b 45 08	 mov	 eax, DWORD PTR _mo$[ebp]
  002e0	89 48 18	 mov	 DWORD PTR [eax+24], ecx

; 3819 : 	if (mo->flags & MF_FLOAT && mo->target && mo->type != MT_JETJAW && mo->type != MT_EGGMOBILE
; 3820 : 		&& mo->type != MT_EGGMOBILE2 && mo->type != MT_RING && mo->type != MT_COIN) // Tails

  002e3	8b 45 08	 mov	 eax, DWORD PTR _mo$[ebp]
  002e6	8b 48 60	 mov	 ecx, DWORD PTR [eax+96]
  002e9	81 e1 00 40 00
	00		 and	 ecx, 16384		; 00004000H
  002ef	0f 84 0d 01 00
	00		 je	 $LN21@P_FakeZMov
  002f5	8b 45 08	 mov	 eax, DWORD PTR _mo$[ebp]
  002f8	83 b8 98 00 00
	00 00		 cmp	 DWORD PTR [eax+152], 0
  002ff	0f 84 fd 00 00
	00		 je	 $LN21@P_FakeZMov
  00305	8b 45 08	 mov	 eax, DWORD PTR _mo$[ebp]
  00308	83 78 7c 0e	 cmp	 DWORD PTR [eax+124], 14	; 0000000eH
  0030c	0f 84 f0 00 00
	00		 je	 $LN21@P_FakeZMov
  00312	8b 45 08	 mov	 eax, DWORD PTR _mo$[ebp]
  00315	83 78 7c 1d	 cmp	 DWORD PTR [eax+124], 29	; 0000001dH
  00319	0f 84 e3 00 00
	00		 je	 $LN21@P_FakeZMov
  0031f	8b 45 08	 mov	 eax, DWORD PTR _mo$[ebp]
  00322	83 78 7c 1f	 cmp	 DWORD PTR [eax+124], 31	; 0000001fH
  00326	0f 84 d6 00 00
	00		 je	 $LN21@P_FakeZMov
  0032c	8b 45 08	 mov	 eax, DWORD PTR _mo$[ebp]
  0032f	83 78 7c 2b	 cmp	 DWORD PTR [eax+124], 43	; 0000002bH
  00333	0f 84 c9 00 00
	00		 je	 $LN21@P_FakeZMov
  00339	8b 45 08	 mov	 eax, DWORD PTR _mo$[ebp]
  0033c	81 78 7c e1 00
	00 00		 cmp	 DWORD PTR [eax+124], 225 ; 000000e1H
  00343	0f 84 b9 00 00
	00		 je	 $LN21@P_FakeZMov

; 3821 : 	{ // float down towards target if too close
; 3822 : 		if (!(mo->flags2&MF2_SKULLFLY) && !(mo->flags2&MF2_INFLOAT))

  00349	8b 45 08	 mov	 eax, DWORD PTR _mo$[ebp]
  0034c	8b 88 88 00 00
	00		 mov	 ecx, DWORD PTR [eax+136]
  00352	81 e1 00 10 00
	00		 and	 ecx, 4096		; 00001000H
  00358	0f 85 a4 00 00
	00		 jne	 $LN21@P_FakeZMov
  0035e	8b 45 08	 mov	 eax, DWORD PTR _mo$[ebp]
  00361	8b 88 88 00 00
	00		 mov	 ecx, DWORD PTR [eax+136]
  00367	83 e1 20	 and	 ecx, 32			; 00000020H
  0036a	0f 85 92 00 00
	00		 jne	 $LN21@P_FakeZMov

; 3823 : 		{
; 3824 : 			dist = P_AproxDistance(mo->x-mo->target->x, mo->y-mo->target->y);

  00370	8b 45 08	 mov	 eax, DWORD PTR _mo$[ebp]
  00373	8b 88 98 00 00
	00		 mov	 ecx, DWORD PTR [eax+152]
  00379	8b 55 08	 mov	 edx, DWORD PTR _mo$[ebp]
  0037c	8b 42 14	 mov	 eax, DWORD PTR [edx+20]
  0037f	2b 41 14	 sub	 eax, DWORD PTR [ecx+20]
  00382	50		 push	 eax
  00383	8b 4d 08	 mov	 ecx, DWORD PTR _mo$[ebp]
  00386	8b 91 98 00 00
	00		 mov	 edx, DWORD PTR [ecx+152]
  0038c	8b 45 08	 mov	 eax, DWORD PTR _mo$[ebp]
  0038f	8b 48 10	 mov	 ecx, DWORD PTR [eax+16]
  00392	2b 4a 10	 sub	 ecx, DWORD PTR [edx+16]
  00395	51		 push	 ecx
  00396	e8 00 00 00 00	 call	 _P_AproxDistance
  0039b	83 c4 08	 add	 esp, 8
  0039e	89 45 fc	 mov	 DWORD PTR _dist$[ebp], eax

; 3825 : 			delta = (mo->target->z + (mo->height>>1)) - mo->z;

  003a1	8b 45 08	 mov	 eax, DWORD PTR _mo$[ebp]
  003a4	8b 88 98 00 00
	00		 mov	 ecx, DWORD PTR [eax+152]
  003aa	8b 55 08	 mov	 edx, DWORD PTR _mo$[ebp]
  003ad	8b 42 44	 mov	 eax, DWORD PTR [edx+68]
  003b0	d1 f8		 sar	 eax, 1
  003b2	8b 49 18	 mov	 ecx, DWORD PTR [ecx+24]
  003b5	03 c8		 add	 ecx, eax
  003b7	8b 55 08	 mov	 edx, DWORD PTR _mo$[ebp]
  003ba	2b 4a 18	 sub	 ecx, DWORD PTR [edx+24]
  003bd	89 4d f8	 mov	 DWORD PTR _delta$[ebp], ecx

; 3826 : 			if (delta < 0 && dist < -(delta*3))

  003c0	79 1f		 jns	 SHORT $LN19@P_FakeZMov
  003c2	6b 45 f8 03	 imul	 eax, DWORD PTR _delta$[ebp], 3
  003c6	f7 d8		 neg	 eax
  003c8	39 45 fc	 cmp	 DWORD PTR _dist$[ebp], eax
  003cb	7d 14		 jge	 SHORT $LN19@P_FakeZMov

; 3827 : 				mo->z -= FLOATSPEED;

  003cd	8b 45 08	 mov	 eax, DWORD PTR _mo$[ebp]
  003d0	8b 48 18	 mov	 ecx, DWORD PTR [eax+24]
  003d3	81 e9 00 00 04
	00		 sub	 ecx, 262144		; 00040000H
  003d9	8b 55 08	 mov	 edx, DWORD PTR _mo$[ebp]
  003dc	89 4a 18	 mov	 DWORD PTR [edx+24], ecx
  003df	eb 21		 jmp	 SHORT $LN21@P_FakeZMov
$LN19@P_FakeZMov:

; 3828 : 			else if (delta > 0 && dist < (delta*3))

  003e1	83 7d f8 00	 cmp	 DWORD PTR _delta$[ebp], 0
  003e5	7e 1b		 jle	 SHORT $LN21@P_FakeZMov
  003e7	6b 45 f8 03	 imul	 eax, DWORD PTR _delta$[ebp], 3
  003eb	39 45 fc	 cmp	 DWORD PTR _dist$[ebp], eax
  003ee	7d 12		 jge	 SHORT $LN21@P_FakeZMov

; 3829 : 				mo->z += FLOATSPEED;

  003f0	8b 45 08	 mov	 eax, DWORD PTR _mo$[ebp]
  003f3	8b 48 18	 mov	 ecx, DWORD PTR [eax+24]
  003f6	81 c1 00 00 04
	00		 add	 ecx, 262144		; 00040000H
  003fc	8b 55 08	 mov	 edx, DWORD PTR _mo$[ebp]
  003ff	89 4a 18	 mov	 DWORD PTR [edx+24], ecx
$LN21@P_FakeZMov:

; 3830 : 		}
; 3831 : 	}
; 3832 : 
; 3833 : 	// clip movement
; 3834 : 	if (mo->z <= mo->floorz && !(mo->flags & MF_NOCLIPHEIGHT))

  00402	8b 45 08	 mov	 eax, DWORD PTR _mo$[ebp]
  00405	8b 4d 08	 mov	 ecx, DWORD PTR _mo$[ebp]
  00408	8b 50 18	 mov	 edx, DWORD PTR [eax+24]
  0040b	3b 51 38	 cmp	 edx, DWORD PTR [ecx+56]
  0040e	7f 4e		 jg	 SHORT $LN22@P_FakeZMov
  00410	8b 45 08	 mov	 eax, DWORD PTR _mo$[ebp]
  00413	8b 48 60	 mov	 ecx, DWORD PTR [eax+96]
  00416	81 e1 00 00 80
	00		 and	 ecx, 8388608		; 00800000H
  0041c	75 40		 jne	 SHORT $LN22@P_FakeZMov

; 3835 : 	{ // Hit the floor
; 3836 : 		mo->z = mo->floorz;

  0041e	8b 45 08	 mov	 eax, DWORD PTR _mo$[ebp]
  00421	8b 4d 08	 mov	 ecx, DWORD PTR _mo$[ebp]
  00424	8b 51 38	 mov	 edx, DWORD PTR [ecx+56]
  00427	89 50 18	 mov	 DWORD PTR [eax+24], edx

; 3837 : 		if (mo->momz < 0)

  0042a	8b 45 08	 mov	 eax, DWORD PTR _mo$[ebp]
  0042d	83 78 50 00	 cmp	 DWORD PTR [eax+80], 0
  00431	7d 0a		 jge	 SHORT $LN24@P_FakeZMov

; 3838 : 			mo->momz = 0;

  00433	8b 45 08	 mov	 eax, DWORD PTR _mo$[ebp]
  00436	c7 40 50 00 00
	00 00		 mov	 DWORD PTR [eax+80], 0
$LN24@P_FakeZMov:

; 3839 : 
; 3840 : 		if (mo->flags2 & MF2_SKULLFLY) // The skull slammed into something

  0043d	8b 45 08	 mov	 eax, DWORD PTR _mo$[ebp]
  00440	8b 88 88 00 00
	00		 mov	 ecx, DWORD PTR [eax+136]
  00446	81 e1 00 10 00
	00		 and	 ecx, 4096		; 00001000H
  0044c	74 0e		 je	 SHORT $LN25@P_FakeZMov

; 3841 : 			mo->momz = -mo->momz;

  0044e	8b 45 08	 mov	 eax, DWORD PTR _mo$[ebp]
  00451	8b 48 50	 mov	 ecx, DWORD PTR [eax+80]
  00454	f7 d9		 neg	 ecx
  00456	8b 55 08	 mov	 edx, DWORD PTR _mo$[ebp]
  00459	89 4a 50	 mov	 DWORD PTR [edx+80], ecx
$LN25@P_FakeZMov:

; 3842 : 	}

  0045c	eb 1c		 jmp	 SHORT $LN26@P_FakeZMov
$LN22@P_FakeZMov:

; 3843 : 	else if (!(mo->flags & MF_NOGRAVITY))

  0045e	8b 45 08	 mov	 eax, DWORD PTR _mo$[ebp]
  00461	8b 48 60	 mov	 ecx, DWORD PTR [eax+96]
  00464	81 e1 00 02 00
	00		 and	 ecx, 512		; 00000200H
  0046a	75 0e		 jne	 SHORT $LN26@P_FakeZMov

; 3844 : 	{
; 3845 : 		P_CheckGravity (mo, true);

  0046c	6a 01		 push	 1
  0046e	8b 45 08	 mov	 eax, DWORD PTR _mo$[ebp]
  00471	50		 push	 eax
  00472	e8 00 00 00 00	 call	 _P_CheckGravity
  00477	83 c4 08	 add	 esp, 8
$LN26@P_FakeZMov:

; 3846 : 	}
; 3847 : 
; 3848 : 	if (mo->z + mo->height > mo->ceilingz && !(mo->flags & MF_NOCLIPHEIGHT)) // hit the ceiling

  0047a	8b 45 08	 mov	 eax, DWORD PTR _mo$[ebp]
  0047d	8b 48 18	 mov	 ecx, DWORD PTR [eax+24]
  00480	8b 55 08	 mov	 edx, DWORD PTR _mo$[ebp]
  00483	03 4a 44	 add	 ecx, DWORD PTR [edx+68]
  00486	8b 45 08	 mov	 eax, DWORD PTR _mo$[ebp]
  00489	3b 48 3c	 cmp	 ecx, DWORD PTR [eax+60]
  0048c	7e 52		 jle	 SHORT $LN29@P_FakeZMov
  0048e	8b 45 08	 mov	 eax, DWORD PTR _mo$[ebp]
  00491	8b 48 60	 mov	 ecx, DWORD PTR [eax+96]
  00494	81 e1 00 00 80
	00		 and	 ecx, 8388608		; 00800000H
  0049a	75 44		 jne	 SHORT $LN29@P_FakeZMov

; 3849 : 	{
; 3850 : 		if (mo->momz > 0)

  0049c	8b 45 08	 mov	 eax, DWORD PTR _mo$[ebp]
  0049f	83 78 50 00	 cmp	 DWORD PTR [eax+80], 0
  004a3	7e 0a		 jle	 SHORT $LN28@P_FakeZMov

; 3851 : 			mo->momz = 0;

  004a5	8b 45 08	 mov	 eax, DWORD PTR _mo$[ebp]
  004a8	c7 40 50 00 00
	00 00		 mov	 DWORD PTR [eax+80], 0
$LN28@P_FakeZMov:

; 3852 : 		mo->z = mo->ceilingz - mo->height;

  004af	8b 45 08	 mov	 eax, DWORD PTR _mo$[ebp]
  004b2	8b 4d 08	 mov	 ecx, DWORD PTR _mo$[ebp]
  004b5	8b 50 3c	 mov	 edx, DWORD PTR [eax+60]
  004b8	2b 51 44	 sub	 edx, DWORD PTR [ecx+68]
  004bb	8b 45 08	 mov	 eax, DWORD PTR _mo$[ebp]
  004be	89 50 18	 mov	 DWORD PTR [eax+24], edx

; 3853 : 		if (mo->flags2 & MF2_SKULLFLY) // the skull slammed into something

  004c1	8b 45 08	 mov	 eax, DWORD PTR _mo$[ebp]
  004c4	8b 88 88 00 00
	00		 mov	 ecx, DWORD PTR [eax+136]
  004ca	81 e1 00 10 00
	00		 and	 ecx, 4096		; 00001000H
  004d0	74 0e		 je	 SHORT $LN29@P_FakeZMov

; 3854 : 			mo->momz = -mo->momz;

  004d2	8b 45 08	 mov	 eax, DWORD PTR _mo$[ebp]
  004d5	8b 48 50	 mov	 ecx, DWORD PTR [eax+80]
  004d8	f7 d9		 neg	 ecx
  004da	8b 55 08	 mov	 edx, DWORD PTR _mo$[ebp]
  004dd	89 4a 50	 mov	 DWORD PTR [edx+80], ecx
$LN29@P_FakeZMov:

; 3855 : 	}
; 3856 : }

  004e0	5f		 pop	 edi
  004e1	5e		 pop	 esi
  004e2	5b		 pop	 ebx
  004e3	8b e5		 mov	 esp, ebp
  004e5	5d		 pop	 ebp
  004e6	c3		 ret	 0
_P_FakeZMovement ENDP
_TEXT	ENDS
; Function compile flags: /Odtp /ZI
; File C:\Users\RafaTheFox\Downloads\SRB2-Public-master\src\p_map.c
;	COMDAT _PIT_GetPrecipSectors
_TEXT	SEGMENT
_ld$ = 8						; size = 4
_PIT_GetPrecipSectors PROC				; COMDAT

; 3524 : {

  00000	55		 push	 ebp
  00001	8b ec		 mov	 ebp, esp
  00003	83 ec 40	 sub	 esp, 64			; 00000040H
  00006	53		 push	 ebx
  00007	56		 push	 esi
  00008	57		 push	 edi

; 3525 : 	if (preciptmbbox[BOXRIGHT] <= ld->bbox[BOXLEFT] ||
; 3526 : 		preciptmbbox[BOXLEFT] >= ld->bbox[BOXRIGHT] ||
; 3527 : 		preciptmbbox[BOXTOP] <= ld->bbox[BOXBOTTOM] ||

  00009	b8 04 00 00 00	 mov	 eax, 4
  0000e	6b c8 03	 imul	 ecx, eax, 3
  00011	ba 04 00 00 00	 mov	 edx, 4
  00016	d1 e2		 shl	 edx, 1
  00018	8b 45 08	 mov	 eax, DWORD PTR _ld$[ebp]
  0001b	8b 89 00 00 00
	00		 mov	 ecx, DWORD PTR _preciptmbbox[ecx]
  00021	3b 4c 10 1c	 cmp	 ecx, DWORD PTR [eax+edx+28]
  00025	7e 5c		 jle	 SHORT $LN3@PIT_GetPre
  00027	b8 04 00 00 00	 mov	 eax, 4
  0002c	d1 e0		 shl	 eax, 1
  0002e	b9 04 00 00 00	 mov	 ecx, 4
  00033	6b d1 03	 imul	 edx, ecx, 3
  00036	8b 4d 08	 mov	 ecx, DWORD PTR _ld$[ebp]
  00039	8b 80 00 00 00
	00		 mov	 eax, DWORD PTR _preciptmbbox[eax]
  0003f	3b 44 11 1c	 cmp	 eax, DWORD PTR [ecx+edx+28]
  00043	7d 3e		 jge	 SHORT $LN3@PIT_GetPre
  00045	b8 04 00 00 00	 mov	 eax, 4
  0004a	6b c8 00	 imul	 ecx, eax, 0
  0004d	ba 04 00 00 00	 mov	 edx, 4
  00052	c1 e2 00	 shl	 edx, 0
  00055	8b 45 08	 mov	 eax, DWORD PTR _ld$[ebp]
  00058	8b 89 00 00 00
	00		 mov	 ecx, DWORD PTR _preciptmbbox[ecx]
  0005e	3b 4c 10 1c	 cmp	 ecx, DWORD PTR [eax+edx+28]
  00062	7e 1f		 jle	 SHORT $LN3@PIT_GetPre
  00064	b8 04 00 00 00	 mov	 eax, 4
  00069	c1 e0 00	 shl	 eax, 0
  0006c	b9 04 00 00 00	 mov	 ecx, 4
  00071	6b d1 00	 imul	 edx, ecx, 0
  00074	8b 4d 08	 mov	 ecx, DWORD PTR _ld$[ebp]
  00077	8b 80 00 00 00
	00		 mov	 eax, DWORD PTR _preciptmbbox[eax]
  0007d	3b 44 11 1c	 cmp	 eax, DWORD PTR [ecx+edx+28]
  00081	7c 07		 jl	 SHORT $LN2@PIT_GetPre
$LN3@PIT_GetPre:

; 3528 : 		preciptmbbox[BOXBOTTOM] >= ld->bbox[BOXTOP])
; 3529 : 	return true;

  00083	b8 01 00 00 00	 mov	 eax, 1
  00088	eb 6d		 jmp	 SHORT $LN1@PIT_GetPre
$LN2@PIT_GetPre:

; 3530 : 
; 3531 : 	if (P_BoxOnLineSide(preciptmbbox, ld) != -1)

  0008a	8b 45 08	 mov	 eax, DWORD PTR _ld$[ebp]
  0008d	50		 push	 eax
  0008e	68 00 00 00 00	 push	 OFFSET _preciptmbbox
  00093	e8 00 00 00 00	 call	 _P_BoxOnLineSide
  00098	83 c4 08	 add	 esp, 8
  0009b	83 f8 ff	 cmp	 eax, -1
  0009e	74 07		 je	 SHORT $LN4@PIT_GetPre

; 3532 : 		return true;

  000a0	b8 01 00 00 00	 mov	 eax, 1
  000a5	eb 50		 jmp	 SHORT $LN1@PIT_GetPre
$LN4@PIT_GetPre:

; 3533 : 
; 3534 : 	// This line crosses through the object.
; 3535 : 
; 3536 : 	// Collect the sector(s) from the line and add to the
; 3537 : 	// sector_list you're examining. If the Thing ends up being
; 3538 : 	// allowed to move to this position, then the sector_list
; 3539 : 	// will be attached to the Thing's mobj_t at touching_sectorlist.
; 3540 : 
; 3541 : 	precipsector_list = P_AddPrecipSecnode(ld->frontsector, tmprecipthing, precipsector_list);

  000a7	a1 00 00 00 00	 mov	 eax, DWORD PTR _precipsector_list
  000ac	50		 push	 eax
  000ad	8b 0d 00 00 00
	00		 mov	 ecx, DWORD PTR _tmprecipthing
  000b3	51		 push	 ecx
  000b4	8b 55 08	 mov	 edx, DWORD PTR _ld$[ebp]
  000b7	8b 42 30	 mov	 eax, DWORD PTR [edx+48]
  000ba	50		 push	 eax
  000bb	e8 00 00 00 00	 call	 _P_AddPrecipSecnode
  000c0	83 c4 0c	 add	 esp, 12			; 0000000cH
  000c3	a3 00 00 00 00	 mov	 DWORD PTR _precipsector_list, eax

; 3542 : 
; 3543 : 	// Don't assume all lines are 2-sided, since some Things
; 3544 : 	// like MT_TFOG are allowed regardless of whether their radius takes
; 3545 : 	// them beyond an impassable linedef.
; 3546 : 
; 3547 : 	// Use sidedefs instead of 2s flag to determine two-sidedness.
; 3548 : 	if (ld->backsector)

  000c8	8b 45 08	 mov	 eax, DWORD PTR _ld$[ebp]
  000cb	83 78 34 00	 cmp	 DWORD PTR [eax+52], 0
  000cf	74 21		 je	 SHORT $LN5@PIT_GetPre

; 3549 : 		precipsector_list = P_AddPrecipSecnode(ld->backsector, tmprecipthing, precipsector_list);

  000d1	a1 00 00 00 00	 mov	 eax, DWORD PTR _precipsector_list
  000d6	50		 push	 eax
  000d7	8b 0d 00 00 00
	00		 mov	 ecx, DWORD PTR _tmprecipthing
  000dd	51		 push	 ecx
  000de	8b 55 08	 mov	 edx, DWORD PTR _ld$[ebp]
  000e1	8b 42 34	 mov	 eax, DWORD PTR [edx+52]
  000e4	50		 push	 eax
  000e5	e8 00 00 00 00	 call	 _P_AddPrecipSecnode
  000ea	83 c4 0c	 add	 esp, 12			; 0000000cH
  000ed	a3 00 00 00 00	 mov	 DWORD PTR _precipsector_list, eax
$LN5@PIT_GetPre:

; 3550 : 
; 3551 : 	return true;

  000f2	b8 01 00 00 00	 mov	 eax, 1
$LN1@PIT_GetPre:

; 3552 : }

  000f7	5f		 pop	 edi
  000f8	5e		 pop	 esi
  000f9	5b		 pop	 ebx
  000fa	8b e5		 mov	 esp, ebp
  000fc	5d		 pop	 ebp
  000fd	c3		 ret	 0
_PIT_GetPrecipSectors ENDP
_TEXT	ENDS
; Function compile flags: /Odtp /ZI
; File C:\Users\RafaTheFox\Downloads\SRB2-Public-master\src\p_map.c
;	COMDAT _PIT_GetSectors
_TEXT	SEGMENT
_ld$ = 8						; size = 4
_PIT_GetSectors PROC					; COMDAT

; 3492 : {

  00000	55		 push	 ebp
  00001	8b ec		 mov	 ebp, esp
  00003	83 ec 40	 sub	 esp, 64			; 00000040H
  00006	53		 push	 ebx
  00007	56		 push	 esi
  00008	57		 push	 edi

; 3493 : 	if (tmbbox[BOXRIGHT] <= ld->bbox[BOXLEFT] ||
; 3494 : 		tmbbox[BOXLEFT] >= ld->bbox[BOXRIGHT] ||
; 3495 : 		tmbbox[BOXTOP] <= ld->bbox[BOXBOTTOM] ||

  00009	b8 04 00 00 00	 mov	 eax, 4
  0000e	6b c8 03	 imul	 ecx, eax, 3
  00011	ba 04 00 00 00	 mov	 edx, 4
  00016	d1 e2		 shl	 edx, 1
  00018	8b 45 08	 mov	 eax, DWORD PTR _ld$[ebp]
  0001b	8b 89 00 00 00
	00		 mov	 ecx, DWORD PTR _tmbbox[ecx]
  00021	3b 4c 10 1c	 cmp	 ecx, DWORD PTR [eax+edx+28]
  00025	7e 5c		 jle	 SHORT $LN3@PIT_GetSec
  00027	b8 04 00 00 00	 mov	 eax, 4
  0002c	d1 e0		 shl	 eax, 1
  0002e	b9 04 00 00 00	 mov	 ecx, 4
  00033	6b d1 03	 imul	 edx, ecx, 3
  00036	8b 4d 08	 mov	 ecx, DWORD PTR _ld$[ebp]
  00039	8b 80 00 00 00
	00		 mov	 eax, DWORD PTR _tmbbox[eax]
  0003f	3b 44 11 1c	 cmp	 eax, DWORD PTR [ecx+edx+28]
  00043	7d 3e		 jge	 SHORT $LN3@PIT_GetSec
  00045	b8 04 00 00 00	 mov	 eax, 4
  0004a	6b c8 00	 imul	 ecx, eax, 0
  0004d	ba 04 00 00 00	 mov	 edx, 4
  00052	c1 e2 00	 shl	 edx, 0
  00055	8b 45 08	 mov	 eax, DWORD PTR _ld$[ebp]
  00058	8b 89 00 00 00
	00		 mov	 ecx, DWORD PTR _tmbbox[ecx]
  0005e	3b 4c 10 1c	 cmp	 ecx, DWORD PTR [eax+edx+28]
  00062	7e 1f		 jle	 SHORT $LN3@PIT_GetSec
  00064	b8 04 00 00 00	 mov	 eax, 4
  00069	c1 e0 00	 shl	 eax, 0
  0006c	b9 04 00 00 00	 mov	 ecx, 4
  00071	6b d1 00	 imul	 edx, ecx, 0
  00074	8b 4d 08	 mov	 ecx, DWORD PTR _ld$[ebp]
  00077	8b 80 00 00 00
	00		 mov	 eax, DWORD PTR _tmbbox[eax]
  0007d	3b 44 11 1c	 cmp	 eax, DWORD PTR [ecx+edx+28]
  00081	7c 07		 jl	 SHORT $LN2@PIT_GetSec
$LN3@PIT_GetSec:

; 3496 : 		tmbbox[BOXBOTTOM] >= ld->bbox[BOXTOP])
; 3497 : 	return true;

  00083	b8 01 00 00 00	 mov	 eax, 1
  00088	eb 6d		 jmp	 SHORT $LN1@PIT_GetSec
$LN2@PIT_GetSec:

; 3498 : 
; 3499 : 	if (P_BoxOnLineSide(tmbbox, ld) != -1)

  0008a	8b 45 08	 mov	 eax, DWORD PTR _ld$[ebp]
  0008d	50		 push	 eax
  0008e	68 00 00 00 00	 push	 OFFSET _tmbbox
  00093	e8 00 00 00 00	 call	 _P_BoxOnLineSide
  00098	83 c4 08	 add	 esp, 8
  0009b	83 f8 ff	 cmp	 eax, -1
  0009e	74 07		 je	 SHORT $LN4@PIT_GetSec

; 3500 : 		return true;

  000a0	b8 01 00 00 00	 mov	 eax, 1
  000a5	eb 50		 jmp	 SHORT $LN1@PIT_GetSec
$LN4@PIT_GetSec:

; 3501 : 
; 3502 : 	// This line crosses through the object.
; 3503 : 
; 3504 : 	// Collect the sector(s) from the line and add to the
; 3505 : 	// sector_list you're examining. If the Thing ends up being
; 3506 : 	// allowed to move to this position, then the sector_list
; 3507 : 	// will be attached to the Thing's mobj_t at touching_sectorlist.
; 3508 : 
; 3509 : 	sector_list = P_AddSecnode(ld->frontsector,tmthing,sector_list);

  000a7	a1 00 00 00 00	 mov	 eax, DWORD PTR _sector_list
  000ac	50		 push	 eax
  000ad	8b 0d 00 00 00
	00		 mov	 ecx, DWORD PTR _tmthing
  000b3	51		 push	 ecx
  000b4	8b 55 08	 mov	 edx, DWORD PTR _ld$[ebp]
  000b7	8b 42 30	 mov	 eax, DWORD PTR [edx+48]
  000ba	50		 push	 eax
  000bb	e8 00 00 00 00	 call	 _P_AddSecnode
  000c0	83 c4 0c	 add	 esp, 12			; 0000000cH
  000c3	a3 00 00 00 00	 mov	 DWORD PTR _sector_list, eax

; 3510 : 
; 3511 : 	// Don't assume all lines are 2-sided, since some Things
; 3512 : 	// like MT_TFOG are allowed regardless of whether their radius takes
; 3513 : 	// them beyond an impassable linedef.
; 3514 : 
; 3515 : 	// Use sidedefs instead of 2s flag to determine two-sidedness.
; 3516 : 	if (ld->backsector)

  000c8	8b 45 08	 mov	 eax, DWORD PTR _ld$[ebp]
  000cb	83 78 34 00	 cmp	 DWORD PTR [eax+52], 0
  000cf	74 21		 je	 SHORT $LN5@PIT_GetSec

; 3517 : 		sector_list = P_AddSecnode(ld->backsector, tmthing, sector_list);

  000d1	a1 00 00 00 00	 mov	 eax, DWORD PTR _sector_list
  000d6	50		 push	 eax
  000d7	8b 0d 00 00 00
	00		 mov	 ecx, DWORD PTR _tmthing
  000dd	51		 push	 ecx
  000de	8b 55 08	 mov	 edx, DWORD PTR _ld$[ebp]
  000e1	8b 42 34	 mov	 eax, DWORD PTR [edx+52]
  000e4	50		 push	 eax
  000e5	e8 00 00 00 00	 call	 _P_AddSecnode
  000ea	83 c4 0c	 add	 esp, 12			; 0000000cH
  000ed	a3 00 00 00 00	 mov	 DWORD PTR _sector_list, eax
$LN5@PIT_GetSec:

; 3518 : 
; 3519 : 	return true;

  000f2	b8 01 00 00 00	 mov	 eax, 1
$LN1@PIT_GetSec:

; 3520 : }

  000f7	5f		 pop	 edi
  000f8	5e		 pop	 esi
  000f9	5b		 pop	 ebx
  000fa	8b e5		 mov	 esp, ebp
  000fc	5d		 pop	 ebp
  000fd	c3		 ret	 0
_PIT_GetSectors ENDP
_TEXT	ENDS
; Function compile flags: /Odtp /ZI
; File C:\Users\RafaTheFox\Downloads\SRB2-Public-master\src\p_map.c
;	COMDAT _P_DelPrecipSecnode
_TEXT	SEGMENT
_sn$ = -16						; size = 4
_sp$ = -12						; size = 4
_tn$ = -8						; size = 4
_tp$ = -4						; size = 4
_node$ = 8						; size = 4
_P_DelPrecipSecnode PROC				; COMDAT

; 3434 : {

  00000	55		 push	 ebp
  00001	8b ec		 mov	 ebp, esp
  00003	83 ec 50	 sub	 esp, 80			; 00000050H
  00006	53		 push	 ebx
  00007	56		 push	 esi
  00008	57		 push	 edi

; 3435 : 	mprecipsecnode_t *tp; // prev node on thing thread
; 3436 : 	mprecipsecnode_t *tn; // next node on thing thread
; 3437 : 	mprecipsecnode_t *sp; // prev node on sector thread
; 3438 : 	mprecipsecnode_t *sn; // next node on sector thread
; 3439 : 
; 3440 : 	if (!node)

  00009	83 7d 08 00	 cmp	 DWORD PTR _node$[ebp], 0
  0000d	75 04		 jne	 SHORT $LN2@P_DelPreci

; 3441 : 		return NULL;

  0000f	33 c0		 xor	 eax, eax
  00011	eb 7f		 jmp	 SHORT $LN1@P_DelPreci
$LN2@P_DelPreci:

; 3442 : 
; 3443 : 	// Unlink from the Thing thread. The Thing thread begins at
; 3444 : 	// sector_list and not from mobj_t->touching_sectorlist.
; 3445 : 
; 3446 : 	tp = node->m_tprev;

  00013	8b 45 08	 mov	 eax, DWORD PTR _node$[ebp]
  00016	8b 48 08	 mov	 ecx, DWORD PTR [eax+8]
  00019	89 4d fc	 mov	 DWORD PTR _tp$[ebp], ecx

; 3447 : 	tn = node->m_tnext;

  0001c	8b 45 08	 mov	 eax, DWORD PTR _node$[ebp]
  0001f	8b 48 0c	 mov	 ecx, DWORD PTR [eax+12]
  00022	89 4d f8	 mov	 DWORD PTR _tn$[ebp], ecx

; 3448 : 	if (tp)

  00025	83 7d fc 00	 cmp	 DWORD PTR _tp$[ebp], 0
  00029	74 09		 je	 SHORT $LN3@P_DelPreci

; 3449 : 		tp->m_tnext = tn;

  0002b	8b 45 fc	 mov	 eax, DWORD PTR _tp$[ebp]
  0002e	8b 4d f8	 mov	 ecx, DWORD PTR _tn$[ebp]
  00031	89 48 0c	 mov	 DWORD PTR [eax+12], ecx
$LN3@P_DelPreci:

; 3450 : 	if (tn)

  00034	83 7d f8 00	 cmp	 DWORD PTR _tn$[ebp], 0
  00038	74 09		 je	 SHORT $LN4@P_DelPreci

; 3451 : 		tn->m_tprev = tp;

  0003a	8b 45 f8	 mov	 eax, DWORD PTR _tn$[ebp]
  0003d	8b 4d fc	 mov	 ecx, DWORD PTR _tp$[ebp]
  00040	89 48 08	 mov	 DWORD PTR [eax+8], ecx
$LN4@P_DelPreci:

; 3452 : 
; 3453 : 	// Unlink from the sector thread. This thread begins at
; 3454 : 	// sector_t->touching_thinglist.
; 3455 : 
; 3456 : 	sp = node->m_sprev;

  00043	8b 45 08	 mov	 eax, DWORD PTR _node$[ebp]
  00046	8b 48 10	 mov	 ecx, DWORD PTR [eax+16]
  00049	89 4d f4	 mov	 DWORD PTR _sp$[ebp], ecx

; 3457 : 	sn = node->m_snext;

  0004c	8b 45 08	 mov	 eax, DWORD PTR _node$[ebp]
  0004f	8b 48 14	 mov	 ecx, DWORD PTR [eax+20]
  00052	89 4d f0	 mov	 DWORD PTR _sn$[ebp], ecx

; 3458 : 	if (sp)

  00055	83 7d f4 00	 cmp	 DWORD PTR _sp$[ebp], 0
  00059	74 0b		 je	 SHORT $LN5@P_DelPreci

; 3459 : 		sp->m_snext = sn;

  0005b	8b 45 f4	 mov	 eax, DWORD PTR _sp$[ebp]
  0005e	8b 4d f0	 mov	 ecx, DWORD PTR _sn$[ebp]
  00061	89 48 14	 mov	 DWORD PTR [eax+20], ecx
  00064	eb 0e		 jmp	 SHORT $LN6@P_DelPreci
$LN5@P_DelPreci:

; 3460 : 	else
; 3461 : 		node->m_sector->touching_preciplist = sn;

  00066	8b 45 08	 mov	 eax, DWORD PTR _node$[ebp]
  00069	8b 08		 mov	 ecx, DWORD PTR [eax]
  0006b	8b 55 f0	 mov	 edx, DWORD PTR _sn$[ebp]
  0006e	89 91 f4 00 00
	00		 mov	 DWORD PTR [ecx+244], edx
$LN6@P_DelPreci:

; 3462 : 	if (sn)

  00074	83 7d f0 00	 cmp	 DWORD PTR _sn$[ebp], 0
  00078	74 09		 je	 SHORT $LN7@P_DelPreci

; 3463 : 		sn->m_sprev = sp;

  0007a	8b 45 f0	 mov	 eax, DWORD PTR _sn$[ebp]
  0007d	8b 4d f4	 mov	 ecx, DWORD PTR _sp$[ebp]
  00080	89 48 10	 mov	 DWORD PTR [eax+16], ecx
$LN7@P_DelPreci:

; 3464 : 
; 3465 : 	// Return this node to the freelist
; 3466 : 
; 3467 : 	P_PutPrecipSecnode(node);

  00083	8b 45 08	 mov	 eax, DWORD PTR _node$[ebp]
  00086	50		 push	 eax
  00087	e8 00 00 00 00	 call	 _P_PutPrecipSecnode
  0008c	83 c4 04	 add	 esp, 4

; 3468 : 	return tn;

  0008f	8b 45 f8	 mov	 eax, DWORD PTR _tn$[ebp]
$LN1@P_DelPreci:

; 3469 : }

  00092	5f		 pop	 edi
  00093	5e		 pop	 esi
  00094	5b		 pop	 ebx
  00095	8b e5		 mov	 esp, ebp
  00097	5d		 pop	 ebp
  00098	c3		 ret	 0
_P_DelPrecipSecnode ENDP
_TEXT	ENDS
; Function compile flags: /Odtp /ZI
; File C:\Users\RafaTheFox\Downloads\SRB2-Public-master\src\p_map.c
;	COMDAT _P_DelSecnode
_TEXT	SEGMENT
_sn$ = -16						; size = 4
_sp$ = -12						; size = 4
_tn$ = -8						; size = 4
_tp$ = -4						; size = 4
_node$ = 8						; size = 4
_P_DelSecnode PROC					; COMDAT

; 3395 : {

  00000	55		 push	 ebp
  00001	8b ec		 mov	 ebp, esp
  00003	83 ec 50	 sub	 esp, 80			; 00000050H
  00006	53		 push	 ebx
  00007	56		 push	 esi
  00008	57		 push	 edi

; 3396 : 	msecnode_t *tp; // prev node on thing thread
; 3397 : 	msecnode_t *tn; // next node on thing thread
; 3398 : 	msecnode_t *sp; // prev node on sector thread
; 3399 : 	msecnode_t *sn; // next node on sector thread
; 3400 : 
; 3401 : 	if (!node)

  00009	83 7d 08 00	 cmp	 DWORD PTR _node$[ebp], 0
  0000d	75 04		 jne	 SHORT $LN2@P_DelSecno

; 3402 : 		return NULL;

  0000f	33 c0		 xor	 eax, eax
  00011	eb 7f		 jmp	 SHORT $LN1@P_DelSecno
$LN2@P_DelSecno:

; 3403 : 
; 3404 : 	// Unlink from the Thing thread. The Thing thread begins at
; 3405 : 	// sector_list and not from mobj_t->touching_sectorlist.
; 3406 : 
; 3407 : 	tp = node->m_tprev;

  00013	8b 45 08	 mov	 eax, DWORD PTR _node$[ebp]
  00016	8b 48 08	 mov	 ecx, DWORD PTR [eax+8]
  00019	89 4d fc	 mov	 DWORD PTR _tp$[ebp], ecx

; 3408 : 	tn = node->m_tnext;

  0001c	8b 45 08	 mov	 eax, DWORD PTR _node$[ebp]
  0001f	8b 48 0c	 mov	 ecx, DWORD PTR [eax+12]
  00022	89 4d f8	 mov	 DWORD PTR _tn$[ebp], ecx

; 3409 : 	if (tp)

  00025	83 7d fc 00	 cmp	 DWORD PTR _tp$[ebp], 0
  00029	74 09		 je	 SHORT $LN3@P_DelSecno

; 3410 : 		tp->m_tnext = tn;

  0002b	8b 45 fc	 mov	 eax, DWORD PTR _tp$[ebp]
  0002e	8b 4d f8	 mov	 ecx, DWORD PTR _tn$[ebp]
  00031	89 48 0c	 mov	 DWORD PTR [eax+12], ecx
$LN3@P_DelSecno:

; 3411 : 	if (tn)

  00034	83 7d f8 00	 cmp	 DWORD PTR _tn$[ebp], 0
  00038	74 09		 je	 SHORT $LN4@P_DelSecno

; 3412 : 		tn->m_tprev = tp;

  0003a	8b 45 f8	 mov	 eax, DWORD PTR _tn$[ebp]
  0003d	8b 4d fc	 mov	 ecx, DWORD PTR _tp$[ebp]
  00040	89 48 08	 mov	 DWORD PTR [eax+8], ecx
$LN4@P_DelSecno:

; 3413 : 
; 3414 : 	// Unlink from the sector thread. This thread begins at
; 3415 : 	// sector_t->touching_thinglist.
; 3416 : 
; 3417 : 	sp = node->m_sprev;

  00043	8b 45 08	 mov	 eax, DWORD PTR _node$[ebp]
  00046	8b 48 10	 mov	 ecx, DWORD PTR [eax+16]
  00049	89 4d f4	 mov	 DWORD PTR _sp$[ebp], ecx

; 3418 : 	sn = node->m_snext;

  0004c	8b 45 08	 mov	 eax, DWORD PTR _node$[ebp]
  0004f	8b 48 14	 mov	 ecx, DWORD PTR [eax+20]
  00052	89 4d f0	 mov	 DWORD PTR _sn$[ebp], ecx

; 3419 : 	if (sp)

  00055	83 7d f4 00	 cmp	 DWORD PTR _sp$[ebp], 0
  00059	74 0b		 je	 SHORT $LN5@P_DelSecno

; 3420 : 		sp->m_snext = sn;

  0005b	8b 45 f4	 mov	 eax, DWORD PTR _sp$[ebp]
  0005e	8b 4d f0	 mov	 ecx, DWORD PTR _sn$[ebp]
  00061	89 48 14	 mov	 DWORD PTR [eax+20], ecx
  00064	eb 0e		 jmp	 SHORT $LN6@P_DelSecno
$LN5@P_DelSecno:

; 3421 : 	else
; 3422 : 		node->m_sector->touching_thinglist = sn;

  00066	8b 45 08	 mov	 eax, DWORD PTR _node$[ebp]
  00069	8b 08		 mov	 ecx, DWORD PTR [eax]
  0006b	8b 55 f0	 mov	 edx, DWORD PTR _sn$[ebp]
  0006e	89 91 84 00 00
	00		 mov	 DWORD PTR [ecx+132], edx
$LN6@P_DelSecno:

; 3423 : 	if (sn)

  00074	83 7d f0 00	 cmp	 DWORD PTR _sn$[ebp], 0
  00078	74 09		 je	 SHORT $LN7@P_DelSecno

; 3424 : 		sn->m_sprev = sp;

  0007a	8b 45 f0	 mov	 eax, DWORD PTR _sn$[ebp]
  0007d	8b 4d f4	 mov	 ecx, DWORD PTR _sp$[ebp]
  00080	89 48 10	 mov	 DWORD PTR [eax+16], ecx
$LN7@P_DelSecno:

; 3425 : 
; 3426 : 	// Return this node to the freelist
; 3427 : 
; 3428 : 	P_PutSecnode(node);

  00083	8b 45 08	 mov	 eax, DWORD PTR _node$[ebp]
  00086	50		 push	 eax
  00087	e8 00 00 00 00	 call	 _P_PutSecnode
  0008c	83 c4 04	 add	 esp, 4

; 3429 : 	return tn;

  0008f	8b 45 f8	 mov	 eax, DWORD PTR _tn$[ebp]
$LN1@P_DelSecno:

; 3430 : }

  00092	5f		 pop	 edi
  00093	5e		 pop	 esi
  00094	5b		 pop	 ebx
  00095	8b e5		 mov	 esp, ebp
  00097	5d		 pop	 ebp
  00098	c3		 ret	 0
_P_DelSecnode ENDP
_TEXT	ENDS
; Function compile flags: /Odtp /ZI
; File C:\Users\RafaTheFox\Downloads\SRB2-Public-master\src\p_map.c
;	COMDAT _P_AddPrecipSecnode
_TEXT	SEGMENT
_node$ = -4						; size = 4
_s$ = 8							; size = 4
_thing$ = 12						; size = 4
_nextnode$ = 16						; size = 4
_P_AddPrecipSecnode PROC				; COMDAT

; 3351 : {

  00000	55		 push	 ebp
  00001	8b ec		 mov	 ebp, esp
  00003	83 ec 44	 sub	 esp, 68			; 00000044H
  00006	53		 push	 ebx
  00007	56		 push	 esi
  00008	57		 push	 edi

; 3352 : 	mprecipsecnode_t *node;
; 3353 : 
; 3354 : 	node = nextnode;

  00009	8b 45 10	 mov	 eax, DWORD PTR _nextnode$[ebp]
  0000c	89 45 fc	 mov	 DWORD PTR _node$[ebp], eax
$LN2@P_AddPreci:

; 3355 : 	while (node)

  0000f	83 7d fc 00	 cmp	 DWORD PTR _node$[ebp], 0
  00013	74 26		 je	 SHORT $LN3@P_AddPreci

; 3356 : 	{
; 3357 : 		if (node->m_sector == s) // Already have a node for this sector?

  00015	8b 45 fc	 mov	 eax, DWORD PTR _node$[ebp]
  00018	8b 08		 mov	 ecx, DWORD PTR [eax]
  0001a	3b 4d 08	 cmp	 ecx, DWORD PTR _s$[ebp]
  0001d	75 11		 jne	 SHORT $LN4@P_AddPreci

; 3358 : 		{
; 3359 : 			node->m_thing = thing; // Yes. Setting m_thing says 'keep it'.

  0001f	8b 45 fc	 mov	 eax, DWORD PTR _node$[ebp]
  00022	8b 4d 0c	 mov	 ecx, DWORD PTR _thing$[ebp]
  00025	89 48 04	 mov	 DWORD PTR [eax+4], ecx

; 3360 : 			return nextnode;

  00028	8b 45 10	 mov	 eax, DWORD PTR _nextnode$[ebp]
  0002b	e9 90 00 00 00	 jmp	 $LN1@P_AddPreci
$LN4@P_AddPreci:

; 3361 : 		}
; 3362 : 		node = node->m_tnext;

  00030	8b 45 fc	 mov	 eax, DWORD PTR _node$[ebp]
  00033	8b 48 0c	 mov	 ecx, DWORD PTR [eax+12]
  00036	89 4d fc	 mov	 DWORD PTR _node$[ebp], ecx

; 3363 : 	}

  00039	eb d4		 jmp	 SHORT $LN2@P_AddPreci
$LN3@P_AddPreci:

; 3364 : 
; 3365 : 	// Couldn't find an existing node for this sector. Add one at the head
; 3366 : 	// of the list.
; 3367 : 
; 3368 : 	node = P_GetPrecipSecnode();

  0003b	e8 00 00 00 00	 call	 _P_GetPrecipSecnode
  00040	89 45 fc	 mov	 DWORD PTR _node$[ebp], eax

; 3369 : 
; 3370 : 	// mark new nodes unvisited.
; 3371 : 	node->visited = 0;

  00043	8b 45 fc	 mov	 eax, DWORD PTR _node$[ebp]
  00046	c7 40 18 00 00
	00 00		 mov	 DWORD PTR [eax+24], 0

; 3372 : 
; 3373 : 	node->m_sector = s; // sector

  0004d	8b 45 fc	 mov	 eax, DWORD PTR _node$[ebp]
  00050	8b 4d 08	 mov	 ecx, DWORD PTR _s$[ebp]
  00053	89 08		 mov	 DWORD PTR [eax], ecx

; 3374 : 	node->m_thing = thing; // mobj

  00055	8b 45 fc	 mov	 eax, DWORD PTR _node$[ebp]
  00058	8b 4d 0c	 mov	 ecx, DWORD PTR _thing$[ebp]
  0005b	89 48 04	 mov	 DWORD PTR [eax+4], ecx

; 3375 : 	node->m_tprev = NULL; // prev node on Thing thread

  0005e	8b 45 fc	 mov	 eax, DWORD PTR _node$[ebp]
  00061	c7 40 08 00 00
	00 00		 mov	 DWORD PTR [eax+8], 0

; 3376 : 	node->m_tnext = nextnode; // next node on Thing thread

  00068	8b 45 fc	 mov	 eax, DWORD PTR _node$[ebp]
  0006b	8b 4d 10	 mov	 ecx, DWORD PTR _nextnode$[ebp]
  0006e	89 48 0c	 mov	 DWORD PTR [eax+12], ecx

; 3377 : 	if (nextnode)

  00071	83 7d 10 00	 cmp	 DWORD PTR _nextnode$[ebp], 0
  00075	74 09		 je	 SHORT $LN5@P_AddPreci

; 3378 : 		nextnode->m_tprev = node; // set back link on Thing

  00077	8b 45 10	 mov	 eax, DWORD PTR _nextnode$[ebp]
  0007a	8b 4d fc	 mov	 ecx, DWORD PTR _node$[ebp]
  0007d	89 48 08	 mov	 DWORD PTR [eax+8], ecx
$LN5@P_AddPreci:

; 3379 : 
; 3380 : 	// Add new node at head of sector thread starting at s->touching_thinglist
; 3381 : 
; 3382 : 	node->m_sprev = NULL; // prev node on sector thread

  00080	8b 45 fc	 mov	 eax, DWORD PTR _node$[ebp]
  00083	c7 40 10 00 00
	00 00		 mov	 DWORD PTR [eax+16], 0

; 3383 : 	node->m_snext = s->touching_preciplist; // next node on sector thread

  0008a	8b 45 fc	 mov	 eax, DWORD PTR _node$[ebp]
  0008d	8b 4d 08	 mov	 ecx, DWORD PTR _s$[ebp]
  00090	8b 91 f4 00 00
	00		 mov	 edx, DWORD PTR [ecx+244]
  00096	89 50 14	 mov	 DWORD PTR [eax+20], edx

; 3384 : 	if (s->touching_preciplist)

  00099	8b 45 08	 mov	 eax, DWORD PTR _s$[ebp]
  0009c	83 b8 f4 00 00
	00 00		 cmp	 DWORD PTR [eax+244], 0
  000a3	74 0c		 je	 SHORT $LN6@P_AddPreci

; 3385 : 		node->m_snext->m_sprev = node;

  000a5	8b 45 fc	 mov	 eax, DWORD PTR _node$[ebp]
  000a8	8b 48 14	 mov	 ecx, DWORD PTR [eax+20]
  000ab	8b 55 fc	 mov	 edx, DWORD PTR _node$[ebp]
  000ae	89 51 10	 mov	 DWORD PTR [ecx+16], edx
$LN6@P_AddPreci:

; 3386 : 	s->touching_preciplist = node;

  000b1	8b 45 08	 mov	 eax, DWORD PTR _s$[ebp]
  000b4	8b 4d fc	 mov	 ecx, DWORD PTR _node$[ebp]
  000b7	89 88 f4 00 00
	00		 mov	 DWORD PTR [eax+244], ecx

; 3387 : 	return node;

  000bd	8b 45 fc	 mov	 eax, DWORD PTR _node$[ebp]
$LN1@P_AddPreci:

; 3388 : }

  000c0	5f		 pop	 edi
  000c1	5e		 pop	 esi
  000c2	5b		 pop	 ebx
  000c3	8b e5		 mov	 esp, ebp
  000c5	5d		 pop	 ebp
  000c6	c3		 ret	 0
_P_AddPrecipSecnode ENDP
_TEXT	ENDS
; Function compile flags: /Odtp /ZI
; File C:\Users\RafaTheFox\Downloads\SRB2-Public-master\src\p_map.c
;	COMDAT _P_AddSecnode
_TEXT	SEGMENT
_node$ = -4						; size = 4
_s$ = 8							; size = 4
_thing$ = 12						; size = 4
_nextnode$ = 16						; size = 4
_P_AddSecnode PROC					; COMDAT

; 3310 : {

  00000	55		 push	 ebp
  00001	8b ec		 mov	 ebp, esp
  00003	83 ec 44	 sub	 esp, 68			; 00000044H
  00006	53		 push	 ebx
  00007	56		 push	 esi
  00008	57		 push	 edi

; 3311 : 	msecnode_t *node;
; 3312 : 
; 3313 : 	node = nextnode;

  00009	8b 45 10	 mov	 eax, DWORD PTR _nextnode$[ebp]
  0000c	89 45 fc	 mov	 DWORD PTR _node$[ebp], eax
$LN2@P_AddSecno:

; 3314 : 	while (node)

  0000f	83 7d fc 00	 cmp	 DWORD PTR _node$[ebp], 0
  00013	74 26		 je	 SHORT $LN3@P_AddSecno

; 3315 : 	{
; 3316 : 		if (node->m_sector == s) // Already have a node for this sector?

  00015	8b 45 fc	 mov	 eax, DWORD PTR _node$[ebp]
  00018	8b 08		 mov	 ecx, DWORD PTR [eax]
  0001a	3b 4d 08	 cmp	 ecx, DWORD PTR _s$[ebp]
  0001d	75 11		 jne	 SHORT $LN4@P_AddSecno

; 3317 : 		{
; 3318 : 			node->m_thing = thing; // Yes. Setting m_thing says 'keep it'.

  0001f	8b 45 fc	 mov	 eax, DWORD PTR _node$[ebp]
  00022	8b 4d 0c	 mov	 ecx, DWORD PTR _thing$[ebp]
  00025	89 48 04	 mov	 DWORD PTR [eax+4], ecx

; 3319 : 			return nextnode;

  00028	8b 45 10	 mov	 eax, DWORD PTR _nextnode$[ebp]
  0002b	e9 90 00 00 00	 jmp	 $LN1@P_AddSecno
$LN4@P_AddSecno:

; 3320 : 		}
; 3321 : 		node = node->m_tnext;

  00030	8b 45 fc	 mov	 eax, DWORD PTR _node$[ebp]
  00033	8b 48 0c	 mov	 ecx, DWORD PTR [eax+12]
  00036	89 4d fc	 mov	 DWORD PTR _node$[ebp], ecx

; 3322 : 	}

  00039	eb d4		 jmp	 SHORT $LN2@P_AddSecno
$LN3@P_AddSecno:

; 3323 : 
; 3324 : 	// Couldn't find an existing node for this sector. Add one at the head
; 3325 : 	// of the list.
; 3326 : 
; 3327 : 	node = P_GetSecnode();

  0003b	e8 00 00 00 00	 call	 _P_GetSecnode
  00040	89 45 fc	 mov	 DWORD PTR _node$[ebp], eax

; 3328 : 
; 3329 : 	// mark new nodes unvisited.
; 3330 : 	node->visited = 0;

  00043	8b 45 fc	 mov	 eax, DWORD PTR _node$[ebp]
  00046	c7 40 18 00 00
	00 00		 mov	 DWORD PTR [eax+24], 0

; 3331 : 
; 3332 : 	node->m_sector = s; // sector

  0004d	8b 45 fc	 mov	 eax, DWORD PTR _node$[ebp]
  00050	8b 4d 08	 mov	 ecx, DWORD PTR _s$[ebp]
  00053	89 08		 mov	 DWORD PTR [eax], ecx

; 3333 : 	node->m_thing = thing; // mobj

  00055	8b 45 fc	 mov	 eax, DWORD PTR _node$[ebp]
  00058	8b 4d 0c	 mov	 ecx, DWORD PTR _thing$[ebp]
  0005b	89 48 04	 mov	 DWORD PTR [eax+4], ecx

; 3334 : 	node->m_tprev = NULL; // prev node on Thing thread

  0005e	8b 45 fc	 mov	 eax, DWORD PTR _node$[ebp]
  00061	c7 40 08 00 00
	00 00		 mov	 DWORD PTR [eax+8], 0

; 3335 : 	node->m_tnext = nextnode; // next node on Thing thread

  00068	8b 45 fc	 mov	 eax, DWORD PTR _node$[ebp]
  0006b	8b 4d 10	 mov	 ecx, DWORD PTR _nextnode$[ebp]
  0006e	89 48 0c	 mov	 DWORD PTR [eax+12], ecx

; 3336 : 	if (nextnode)

  00071	83 7d 10 00	 cmp	 DWORD PTR _nextnode$[ebp], 0
  00075	74 09		 je	 SHORT $LN5@P_AddSecno

; 3337 : 		nextnode->m_tprev = node; // set back link on Thing

  00077	8b 45 10	 mov	 eax, DWORD PTR _nextnode$[ebp]
  0007a	8b 4d fc	 mov	 ecx, DWORD PTR _node$[ebp]
  0007d	89 48 08	 mov	 DWORD PTR [eax+8], ecx
$LN5@P_AddSecno:

; 3338 : 
; 3339 : 	// Add new node at head of sector thread starting at s->touching_thinglist
; 3340 : 
; 3341 : 	node->m_sprev = NULL; // prev node on sector thread

  00080	8b 45 fc	 mov	 eax, DWORD PTR _node$[ebp]
  00083	c7 40 10 00 00
	00 00		 mov	 DWORD PTR [eax+16], 0

; 3342 : 	node->m_snext = s->touching_thinglist; // next node on sector thread

  0008a	8b 45 fc	 mov	 eax, DWORD PTR _node$[ebp]
  0008d	8b 4d 08	 mov	 ecx, DWORD PTR _s$[ebp]
  00090	8b 91 84 00 00
	00		 mov	 edx, DWORD PTR [ecx+132]
  00096	89 50 14	 mov	 DWORD PTR [eax+20], edx

; 3343 : 	if (s->touching_thinglist)

  00099	8b 45 08	 mov	 eax, DWORD PTR _s$[ebp]
  0009c	83 b8 84 00 00
	00 00		 cmp	 DWORD PTR [eax+132], 0
  000a3	74 0c		 je	 SHORT $LN6@P_AddSecno

; 3344 : 		node->m_snext->m_sprev = node;

  000a5	8b 45 fc	 mov	 eax, DWORD PTR _node$[ebp]
  000a8	8b 48 14	 mov	 ecx, DWORD PTR [eax+20]
  000ab	8b 55 fc	 mov	 edx, DWORD PTR _node$[ebp]
  000ae	89 51 10	 mov	 DWORD PTR [ecx+16], edx
$LN6@P_AddSecno:

; 3345 : 	s->touching_thinglist = node;

  000b1	8b 45 08	 mov	 eax, DWORD PTR _s$[ebp]
  000b4	8b 4d fc	 mov	 ecx, DWORD PTR _node$[ebp]
  000b7	89 88 84 00 00
	00		 mov	 DWORD PTR [eax+132], ecx

; 3346 : 	return node;

  000bd	8b 45 fc	 mov	 eax, DWORD PTR _node$[ebp]
$LN1@P_AddSecno:

; 3347 : }

  000c0	5f		 pop	 edi
  000c1	5e		 pop	 esi
  000c2	5b		 pop	 ebx
  000c3	8b e5		 mov	 esp, ebp
  000c5	5d		 pop	 ebp
  000c6	c3		 ret	 0
_P_AddSecnode ENDP
_TEXT	ENDS
; Function compile flags: /Odtp /ZI
; File C:\Users\RafaTheFox\Downloads\SRB2-Public-master\src\p_map.c
;	COMDAT _P_PutPrecipSecnode
_TEXT	SEGMENT
_node$ = 8						; size = 4
_P_PutPrecipSecnode PROC				; COMDAT

; 3299 : {

  00000	55		 push	 ebp
  00001	8b ec		 mov	 ebp, esp
  00003	83 ec 40	 sub	 esp, 64			; 00000040H
  00006	53		 push	 ebx
  00007	56		 push	 esi
  00008	57		 push	 edi

; 3300 : 	node->m_snext = headprecipsecnode;

  00009	8b 45 08	 mov	 eax, DWORD PTR _node$[ebp]
  0000c	8b 0d 00 00 00
	00		 mov	 ecx, DWORD PTR _headprecipsecnode
  00012	89 48 14	 mov	 DWORD PTR [eax+20], ecx

; 3301 : 	headprecipsecnode = node;

  00015	8b 45 08	 mov	 eax, DWORD PTR _node$[ebp]
  00018	a3 00 00 00 00	 mov	 DWORD PTR _headprecipsecnode, eax

; 3302 : }

  0001d	5f		 pop	 edi
  0001e	5e		 pop	 esi
  0001f	5b		 pop	 ebx
  00020	8b e5		 mov	 esp, ebp
  00022	5d		 pop	 ebp
  00023	c3		 ret	 0
_P_PutPrecipSecnode ENDP
_TEXT	ENDS
; Function compile flags: /Odtp /ZI
; File C:\Users\RafaTheFox\Downloads\SRB2-Public-master\src\p_map.c
;	COMDAT _P_PutSecnode
_TEXT	SEGMENT
_node$ = 8						; size = 4
_P_PutSecnode PROC					; COMDAT

; 3292 : {

  00000	55		 push	 ebp
  00001	8b ec		 mov	 ebp, esp
  00003	83 ec 40	 sub	 esp, 64			; 00000040H
  00006	53		 push	 ebx
  00007	56		 push	 esi
  00008	57		 push	 edi

; 3293 : 	node->m_snext = headsecnode;

  00009	8b 45 08	 mov	 eax, DWORD PTR _node$[ebp]
  0000c	8b 0d 00 00 00
	00		 mov	 ecx, DWORD PTR _headsecnode
  00012	89 48 14	 mov	 DWORD PTR [eax+20], ecx

; 3294 : 	headsecnode = node;

  00015	8b 45 08	 mov	 eax, DWORD PTR _node$[ebp]
  00018	a3 00 00 00 00	 mov	 DWORD PTR _headsecnode, eax

; 3295 : }

  0001d	5f		 pop	 edi
  0001e	5e		 pop	 esi
  0001f	5b		 pop	 ebx
  00020	8b e5		 mov	 esp, ebp
  00022	5d		 pop	 ebp
  00023	c3		 ret	 0
_P_PutSecnode ENDP
_TEXT	ENDS
; Function compile flags: /Odtp /ZI
; File C:\Users\RafaTheFox\Downloads\SRB2-Public-master\src\p_map.c
;	COMDAT _P_GetPrecipSecnode
_TEXT	SEGMENT
_node$ = -4						; size = 4
_P_GetPrecipSecnode PROC				; COMDAT

; 3276 : {

  00000	55		 push	 ebp
  00001	8b ec		 mov	 ebp, esp
  00003	83 ec 44	 sub	 esp, 68			; 00000044H
  00006	53		 push	 ebx
  00007	56		 push	 esi
  00008	57		 push	 edi

; 3277 : 	mprecipsecnode_t *node;
; 3278 : 
; 3279 : 	if (headprecipsecnode)

  00009	83 3d 00 00 00
	00 00		 cmp	 DWORD PTR _headprecipsecnode, 0
  00010	74 18		 je	 SHORT $LN2@P_GetPreci

; 3280 : 	{
; 3281 : 		node = headprecipsecnode;

  00012	a1 00 00 00 00	 mov	 eax, DWORD PTR _headprecipsecnode
  00017	89 45 fc	 mov	 DWORD PTR _node$[ebp], eax

; 3282 : 		headprecipsecnode = headprecipsecnode->m_snext;

  0001a	a1 00 00 00 00	 mov	 eax, DWORD PTR _headprecipsecnode
  0001f	8b 48 14	 mov	 ecx, DWORD PTR [eax+20]
  00022	89 0d 00 00 00
	00		 mov	 DWORD PTR _headprecipsecnode, ecx

; 3283 : 	}

  00028	eb 13		 jmp	 SHORT $LN3@P_GetPreci
$LN2@P_GetPreci:

; 3284 : 	else
; 3285 : 		node = Z_Calloc(sizeof (*node), PU_LEVEL, NULL);

  0002a	6a 00		 push	 0
  0002c	6a 00		 push	 0
  0002e	6a 32		 push	 50			; 00000032H
  00030	6a 1c		 push	 28			; 0000001cH
  00032	e8 00 00 00 00	 call	 _Z_CallocAlign
  00037	83 c4 10	 add	 esp, 16			; 00000010H
  0003a	89 45 fc	 mov	 DWORD PTR _node$[ebp], eax
$LN3@P_GetPreci:

; 3286 : 	return node;

  0003d	8b 45 fc	 mov	 eax, DWORD PTR _node$[ebp]

; 3287 : }

  00040	5f		 pop	 edi
  00041	5e		 pop	 esi
  00042	5b		 pop	 ebx
  00043	8b e5		 mov	 esp, ebp
  00045	5d		 pop	 ebp
  00046	c3		 ret	 0
_P_GetPrecipSecnode ENDP
_TEXT	ENDS
; Function compile flags: /Odtp /ZI
; File C:\Users\RafaTheFox\Downloads\SRB2-Public-master\src\p_map.c
;	COMDAT _P_GetSecnode
_TEXT	SEGMENT
_node$ = -4						; size = 4
_P_GetSecnode PROC					; COMDAT

; 3262 : {

  00000	55		 push	 ebp
  00001	8b ec		 mov	 ebp, esp
  00003	83 ec 44	 sub	 esp, 68			; 00000044H
  00006	53		 push	 ebx
  00007	56		 push	 esi
  00008	57		 push	 edi

; 3263 : 	msecnode_t *node;
; 3264 : 
; 3265 : 	if (headsecnode)

  00009	83 3d 00 00 00
	00 00		 cmp	 DWORD PTR _headsecnode, 0
  00010	74 18		 je	 SHORT $LN2@P_GetSecno

; 3266 : 	{
; 3267 : 		node = headsecnode;

  00012	a1 00 00 00 00	 mov	 eax, DWORD PTR _headsecnode
  00017	89 45 fc	 mov	 DWORD PTR _node$[ebp], eax

; 3268 : 		headsecnode = headsecnode->m_snext;

  0001a	a1 00 00 00 00	 mov	 eax, DWORD PTR _headsecnode
  0001f	8b 48 14	 mov	 ecx, DWORD PTR [eax+20]
  00022	89 0d 00 00 00
	00		 mov	 DWORD PTR _headsecnode, ecx

; 3269 : 	}

  00028	eb 13		 jmp	 SHORT $LN3@P_GetSecno
$LN2@P_GetSecno:

; 3270 : 	else
; 3271 : 		node = Z_Calloc(sizeof (*node), PU_LEVEL, NULL);

  0002a	6a 00		 push	 0
  0002c	6a 00		 push	 0
  0002e	6a 32		 push	 50			; 00000032H
  00030	6a 1c		 push	 28			; 0000001cH
  00032	e8 00 00 00 00	 call	 _Z_CallocAlign
  00037	83 c4 10	 add	 esp, 16			; 00000010H
  0003a	89 45 fc	 mov	 DWORD PTR _node$[ebp], eax
$LN3@P_GetSecno:

; 3272 : 	return node;

  0003d	8b 45 fc	 mov	 eax, DWORD PTR _node$[ebp]

; 3273 : }

  00040	5f		 pop	 edi
  00041	5e		 pop	 esi
  00042	5b		 pop	 ebx
  00043	8b e5		 mov	 esp, ebp
  00045	5d		 pop	 ebp
  00046	c3		 ret	 0
_P_GetSecnode ENDP
_TEXT	ENDS
; Function compile flags: /Odtp /ZI
; File C:\Users\RafaTheFox\Downloads\SRB2-Public-master\src\p_map.c
;	COMDAT _PIT_ChangeSector
_TEXT	SEGMENT
_crumbler$1 = -24					; size = 4
_think$2 = -20						; size = 4
_thingtop$3 = -16					; size = 4
_delta2$4 = -12						; size = 4
_delta1$5 = -8						; size = 4
_rover$6 = -4						; size = 4
_thing$ = 8						; size = 4
_realcrush$ = 12					; size = 4
_PIT_ChangeSector PROC					; COMDAT

; 3020 : {

  00000	55		 push	 ebp
  00001	8b ec		 mov	 ebp, esp
  00003	83 ec 58	 sub	 esp, 88			; 00000058H
  00006	53		 push	 ebx
  00007	56		 push	 esi
  00008	57		 push	 edi

; 3021 : 	if (P_ThingHeightClip(thing))

  00009	8b 45 08	 mov	 eax, DWORD PTR _thing$[ebp]
  0000c	50		 push	 eax
  0000d	e8 00 00 00 00	 call	 _P_ThingHeightClip
  00012	83 c4 04	 add	 esp, 4
  00015	85 c0		 test	 eax, eax
  00017	74 0a		 je	 SHORT $LN8@PIT_Change

; 3022 : 	{
; 3023 : 		// keep checking
; 3024 : 		return true;

  00019	b8 01 00 00 00	 mov	 eax, 1
  0001e	e9 fa 02 00 00	 jmp	 $LN1@PIT_Change
$LN8@PIT_Change:

; 3025 : 	}
; 3026 : 
; 3027 : 	if (!(thing->flags & MF_SHOOTABLE) && !(thing->flags & MF_PUSHABLE))

  00023	8b 45 08	 mov	 eax, DWORD PTR _thing$[ebp]
  00026	8b 48 60	 mov	 ecx, DWORD PTR [eax+96]
  00029	83 e1 04	 and	 ecx, 4
  0002c	75 15		 jne	 SHORT $LN9@PIT_Change
  0002e	8b 45 08	 mov	 eax, DWORD PTR _thing$[ebp]
  00031	8b 48 60	 mov	 ecx, DWORD PTR [eax+96]
  00034	83 e1 40	 and	 ecx, 64			; 00000040H
  00037	75 0a		 jne	 SHORT $LN9@PIT_Change

; 3028 : 	{
; 3029 : 		// assume it is bloody gibs or something
; 3030 : 		return true;

  00039	b8 01 00 00 00	 mov	 eax, 1
  0003e	e9 da 02 00 00	 jmp	 $LN1@PIT_Change
$LN9@PIT_Change:

; 3031 : 	}
; 3032 : 
; 3033 : 	// Crush the thing if necessary, and if it's a crumbling FOF that did it,
; 3034 : 	// reward the player who made it crumble!
; 3035 : 	if (thing->z + thing->height > thing->ceilingz && thing->z <= thing->ceilingz)

  00043	8b 45 08	 mov	 eax, DWORD PTR _thing$[ebp]
  00046	8b 48 18	 mov	 ecx, DWORD PTR [eax+24]
  00049	8b 55 08	 mov	 edx, DWORD PTR _thing$[ebp]
  0004c	03 4a 44	 add	 ecx, DWORD PTR [edx+68]
  0004f	8b 45 08	 mov	 eax, DWORD PTR _thing$[ebp]
  00052	3b 48 3c	 cmp	 ecx, DWORD PTR [eax+60]
  00055	0f 8e 9c 02 00
	00		 jle	 $LN25@PIT_Change
  0005b	8b 45 08	 mov	 eax, DWORD PTR _thing$[ebp]
  0005e	8b 4d 08	 mov	 ecx, DWORD PTR _thing$[ebp]
  00061	8b 50 18	 mov	 edx, DWORD PTR [eax+24]
  00064	3b 51 3c	 cmp	 edx, DWORD PTR [ecx+60]
  00067	0f 8f 8a 02 00
	00		 jg	 $LN25@PIT_Change

; 3036 : 	{
; 3037 : 		if (realcrush && thing->subsector->sector->ffloors)

  0006d	83 7d 0c 00	 cmp	 DWORD PTR _realcrush$[ebp], 0
  00071	0f 84 09 02 00
	00		 je	 $LN3@PIT_Change
  00077	8b 45 08	 mov	 eax, DWORD PTR _thing$[ebp]
  0007a	8b 48 34	 mov	 ecx, DWORD PTR [eax+52]
  0007d	8b 11		 mov	 edx, DWORD PTR [ecx]
  0007f	83 ba 90 00 00
	00 00		 cmp	 DWORD PTR [edx+144], 0
  00086	0f 84 f4 01 00
	00		 je	 $LN3@PIT_Change

; 3038 : 		{
; 3039 : 			ffloor_t *rover;
; 3040 : 			fixed_t delta1, delta2;
; 3041 : 			INT32 thingtop = thing->z + thing->height;

  0008c	8b 45 08	 mov	 eax, DWORD PTR _thing$[ebp]
  0008f	8b 48 18	 mov	 ecx, DWORD PTR [eax+24]
  00092	8b 55 08	 mov	 edx, DWORD PTR _thing$[ebp]
  00095	03 4a 44	 add	 ecx, DWORD PTR [edx+68]
  00098	89 4d f0	 mov	 DWORD PTR _thingtop$3[ebp], ecx

; 3042 : 
; 3043 : 			for (rover = thing->subsector->sector->ffloors; rover; rover = rover->next)

  0009b	8b 45 08	 mov	 eax, DWORD PTR _thing$[ebp]
  0009e	8b 48 34	 mov	 ecx, DWORD PTR [eax+52]
  000a1	8b 11		 mov	 edx, DWORD PTR [ecx]
  000a3	8b 82 90 00 00
	00		 mov	 eax, DWORD PTR [edx+144]
  000a9	89 45 fc	 mov	 DWORD PTR _rover$6[ebp], eax
  000ac	eb 09		 jmp	 SHORT $LN4@PIT_Change
$LN2@PIT_Change:
  000ae	8b 45 fc	 mov	 eax, DWORD PTR _rover$6[ebp]
  000b1	8b 48 40	 mov	 ecx, DWORD PTR [eax+64]
  000b4	89 4d fc	 mov	 DWORD PTR _rover$6[ebp], ecx
$LN4@PIT_Change:
  000b7	83 7d fc 00	 cmp	 DWORD PTR _rover$6[ebp], 0
  000bb	0f 84 bf 01 00
	00		 je	 $LN3@PIT_Change

; 3044 : 			{
; 3045 : 				if (!(((rover->flags & FF_BLOCKPLAYER) && thing->player)
; 3046 : 				|| ((rover->flags & FF_BLOCKOTHERS) && !thing->player)) || !(rover->flags & FF_EXISTS))

  000c1	8b 45 fc	 mov	 eax, DWORD PTR _rover$6[ebp]
  000c4	8b 48 34	 mov	 ecx, DWORD PTR [eax+52]
  000c7	83 e1 02	 and	 ecx, 2
  000ca	74 0c		 je	 SHORT $LN15@PIT_Change
  000cc	8b 45 08	 mov	 eax, DWORD PTR _thing$[ebp]
  000cf	83 b8 a4 00 00
	00 00		 cmp	 DWORD PTR [eax+164], 0
  000d6	75 17		 jne	 SHORT $LN14@PIT_Change
$LN15@PIT_Change:
  000d8	8b 45 fc	 mov	 eax, DWORD PTR _rover$6[ebp]
  000db	8b 48 34	 mov	 ecx, DWORD PTR [eax+52]
  000de	83 e1 04	 and	 ecx, 4
  000e1	74 17		 je	 SHORT $LN13@PIT_Change
  000e3	8b 45 08	 mov	 eax, DWORD PTR _thing$[ebp]
  000e6	83 b8 a4 00 00
	00 00		 cmp	 DWORD PTR [eax+164], 0
  000ed	75 0b		 jne	 SHORT $LN13@PIT_Change
$LN14@PIT_Change:
  000ef	8b 45 fc	 mov	 eax, DWORD PTR _rover$6[ebp]
  000f2	8b 48 34	 mov	 ecx, DWORD PTR [eax+52]
  000f5	83 e1 01	 and	 ecx, 1
  000f8	75 02		 jne	 SHORT $LN12@PIT_Change
$LN13@PIT_Change:

; 3047 : 					continue;

  000fa	eb b2		 jmp	 SHORT $LN2@PIT_Change
$LN12@PIT_Change:

; 3048 : 
; 3049 : 				delta1 = thing->z - (*rover->bottomheight + *rover->topheight)/2;

  000fc	8b 45 fc	 mov	 eax, DWORD PTR _rover$6[ebp]
  000ff	8b 48 18	 mov	 ecx, DWORD PTR [eax+24]
  00102	8b 55 fc	 mov	 edx, DWORD PTR _rover$6[ebp]
  00105	8b 02		 mov	 eax, DWORD PTR [edx]
  00107	8b 09		 mov	 ecx, DWORD PTR [ecx]
  00109	03 08		 add	 ecx, DWORD PTR [eax]
  0010b	8b c1		 mov	 eax, ecx
  0010d	99		 cdq
  0010e	2b c2		 sub	 eax, edx
  00110	d1 f8		 sar	 eax, 1
  00112	8b 55 08	 mov	 edx, DWORD PTR _thing$[ebp]
  00115	8b 4a 18	 mov	 ecx, DWORD PTR [edx+24]
  00118	2b c8		 sub	 ecx, eax
  0011a	89 4d f8	 mov	 DWORD PTR _delta1$5[ebp], ecx

; 3050 : 				delta2 = thingtop - (*rover->bottomheight + *rover->topheight)/2;

  0011d	8b 45 fc	 mov	 eax, DWORD PTR _rover$6[ebp]
  00120	8b 48 18	 mov	 ecx, DWORD PTR [eax+24]
  00123	8b 55 fc	 mov	 edx, DWORD PTR _rover$6[ebp]
  00126	8b 02		 mov	 eax, DWORD PTR [edx]
  00128	8b 09		 mov	 ecx, DWORD PTR [ecx]
  0012a	03 08		 add	 ecx, DWORD PTR [eax]
  0012c	8b c1		 mov	 eax, ecx
  0012e	99		 cdq
  0012f	2b c2		 sub	 eax, edx
  00131	d1 f8		 sar	 eax, 1
  00133	8b 55 f0	 mov	 edx, DWORD PTR _thingtop$3[ebp]
  00136	2b d0		 sub	 edx, eax
  00138	89 55 f4	 mov	 DWORD PTR _delta2$4[ebp], edx

; 3051 : 				if (*rover->bottomheight <= thing->ceilingz && abs(delta1) >= abs(delta2))

  0013b	8b 45 fc	 mov	 eax, DWORD PTR _rover$6[ebp]
  0013e	8b 48 18	 mov	 ecx, DWORD PTR [eax+24]
  00141	8b 55 08	 mov	 edx, DWORD PTR _thing$[ebp]
  00144	8b 01		 mov	 eax, DWORD PTR [ecx]
  00146	3b 42 3c	 cmp	 eax, DWORD PTR [edx+60]
  00149	0f 8f 2c 01 00
	00		 jg	 $LN6@PIT_Change
  0014f	8b 45 f8	 mov	 eax, DWORD PTR _delta1$5[ebp]
  00152	50		 push	 eax
  00153	e8 00 00 00 00	 call	 _abs
  00158	83 c4 04	 add	 esp, 4
  0015b	8b f0		 mov	 esi, eax
  0015d	8b 4d f4	 mov	 ecx, DWORD PTR _delta2$4[ebp]
  00160	51		 push	 ecx
  00161	e8 00 00 00 00	 call	 _abs
  00166	83 c4 04	 add	 esp, 4
  00169	3b f0		 cmp	 esi, eax
  0016b	0f 8c 0a 01 00
	00		 jl	 $LN6@PIT_Change

; 3052 : 				{
; 3053 : 					thinker_t *think;
; 3054 : 					elevator_t *crumbler;
; 3055 : 
; 3056 : 					for (think = thinkercap.next; think != &thinkercap; think = think->next)

  00171	a1 04 00 00 00	 mov	 eax, DWORD PTR _thinkercap+4
  00176	89 45 ec	 mov	 DWORD PTR _think$2[ebp], eax
  00179	eb 09		 jmp	 SHORT $LN7@PIT_Change
$LN5@PIT_Change:
  0017b	8b 45 ec	 mov	 eax, DWORD PTR _think$2[ebp]
  0017e	8b 48 04	 mov	 ecx, DWORD PTR [eax+4]
  00181	89 4d ec	 mov	 DWORD PTR _think$2[ebp], ecx
$LN7@PIT_Change:
  00184	81 7d ec 00 00
	00 00		 cmp	 DWORD PTR _think$2[ebp], OFFSET _thinkercap
  0018b	0f 84 ea 00 00
	00		 je	 $LN6@PIT_Change

; 3057 : 					{
; 3058 : 						if (think->function.acp1 != (actionf_p1)T_StartCrumble)

  00191	8b 45 ec	 mov	 eax, DWORD PTR _think$2[ebp]
  00194	81 78 08 00 00
	00 00		 cmp	 DWORD PTR [eax+8], OFFSET _T_StartCrumble
  0019b	74 02		 je	 SHORT $LN17@PIT_Change

; 3059 : 							continue;

  0019d	eb dc		 jmp	 SHORT $LN5@PIT_Change
$LN17@PIT_Change:

; 3060 : 
; 3061 : 						crumbler = (elevator_t *)think;

  0019f	8b 45 ec	 mov	 eax, DWORD PTR _think$2[ebp]
  001a2	89 45 e8	 mov	 DWORD PTR _crumbler$1[ebp], eax

; 3062 : 
; 3063 : 						if (crumbler->player && crumbler->player->mo
; 3064 : 							&& crumbler->player->mo != thing
; 3065 : 							&& crumbler->actionsector == thing->subsector->sector
; 3066 : 							&& crumbler->sector == rover->master->frontsector
; 3067 : 							&& (crumbler->type == elevateBounce

  001a5	8b 45 e8	 mov	 eax, DWORD PTR _crumbler$1[ebp]
  001a8	83 78 4c 00	 cmp	 DWORD PTR [eax+76], 0
  001ac	0f 84 c4 00 00
	00		 je	 $LN18@PIT_Change
  001b2	8b 45 e8	 mov	 eax, DWORD PTR _crumbler$1[ebp]
  001b5	8b 48 4c	 mov	 ecx, DWORD PTR [eax+76]
  001b8	83 39 00	 cmp	 DWORD PTR [ecx], 0
  001bb	0f 84 b5 00 00
	00		 je	 $LN18@PIT_Change
  001c1	8b 45 e8	 mov	 eax, DWORD PTR _crumbler$1[ebp]
  001c4	8b 48 4c	 mov	 ecx, DWORD PTR [eax+76]
  001c7	8b 11		 mov	 edx, DWORD PTR [ecx]
  001c9	3b 55 08	 cmp	 edx, DWORD PTR _thing$[ebp]
  001cc	0f 84 a4 00 00
	00		 je	 $LN18@PIT_Change
  001d2	8b 45 08	 mov	 eax, DWORD PTR _thing$[ebp]
  001d5	8b 48 34	 mov	 ecx, DWORD PTR [eax+52]
  001d8	8b 55 e8	 mov	 edx, DWORD PTR _crumbler$1[ebp]
  001db	8b 42 18	 mov	 eax, DWORD PTR [edx+24]
  001de	3b 01		 cmp	 eax, DWORD PTR [ecx]
  001e0	0f 85 90 00 00
	00		 jne	 $LN18@PIT_Change
  001e6	8b 45 fc	 mov	 eax, DWORD PTR _rover$6[ebp]
  001e9	8b 48 38	 mov	 ecx, DWORD PTR [eax+56]
  001ec	8b 55 e8	 mov	 edx, DWORD PTR _crumbler$1[ebp]
  001ef	8b 42 14	 mov	 eax, DWORD PTR [edx+20]
  001f2	3b 41 30	 cmp	 eax, DWORD PTR [ecx+48]
  001f5	75 7f		 jne	 SHORT $LN18@PIT_Change
  001f7	8b 45 e8	 mov	 eax, DWORD PTR _crumbler$1[ebp]
  001fa	83 78 10 04	 cmp	 DWORD PTR [eax+16], 4
  001fe	74 09		 je	 SHORT $LN19@PIT_Change
  00200	8b 45 e8	 mov	 eax, DWORD PTR _crumbler$1[ebp]
  00203	83 78 10 03	 cmp	 DWORD PTR [eax+16], 3
  00207	75 6d		 jne	 SHORT $LN18@PIT_Change
$LN19@PIT_Change:

; 3068 : 							|| crumbler->type == elevateContinuous))
; 3069 : 						{
; 3070 : 							if (netgame && thing->player && thing->player->spectator)

  00209	83 3d 00 00 00
	00 00		 cmp	 DWORD PTR _netgame, 0
  00210	74 37		 je	 SHORT $LN20@PIT_Change
  00212	8b 45 08	 mov	 eax, DWORD PTR _thing$[ebp]
  00215	83 b8 a4 00 00
	00 00		 cmp	 DWORD PTR [eax+164], 0
  0021c	74 2b		 je	 SHORT $LN20@PIT_Change
  0021e	8b 45 08	 mov	 eax, DWORD PTR _thing$[ebp]
  00221	8b 88 a4 00 00
	00		 mov	 ecx, DWORD PTR [eax+164]
  00227	0f b6 91 f0 01
	00 00		 movzx	 edx, BYTE PTR [ecx+496]
  0022e	85 d2		 test	 edx, edx
  00230	74 17		 je	 SHORT $LN20@PIT_Change

; 3071 : 								P_DamageMobj(thing, NULL, NULL, 42000); // Respawn crushed spectators

  00232	68 10 a4 00 00	 push	 42000			; 0000a410H
  00237	6a 00		 push	 0
  00239	6a 00		 push	 0
  0023b	8b 45 08	 mov	 eax, DWORD PTR _thing$[ebp]
  0023e	50		 push	 eax
  0023f	e8 00 00 00 00	 call	 _P_DamageMobj
  00244	83 c4 10	 add	 esp, 16			; 00000010H
  00247	eb 23		 jmp	 SHORT $LN21@PIT_Change
$LN20@PIT_Change:

; 3072 : 							else
; 3073 : 								P_DamageMobj(thing, crumbler->player->mo, crumbler->player->mo, 10000);

  00249	68 10 27 00 00	 push	 10000			; 00002710H
  0024e	8b 45 e8	 mov	 eax, DWORD PTR _crumbler$1[ebp]
  00251	8b 48 4c	 mov	 ecx, DWORD PTR [eax+76]
  00254	8b 11		 mov	 edx, DWORD PTR [ecx]
  00256	52		 push	 edx
  00257	8b 45 e8	 mov	 eax, DWORD PTR _crumbler$1[ebp]
  0025a	8b 48 4c	 mov	 ecx, DWORD PTR [eax+76]
  0025d	8b 11		 mov	 edx, DWORD PTR [ecx]
  0025f	52		 push	 edx
  00260	8b 45 08	 mov	 eax, DWORD PTR _thing$[ebp]
  00263	50		 push	 eax
  00264	e8 00 00 00 00	 call	 _P_DamageMobj
  00269	83 c4 10	 add	 esp, 16			; 00000010H
$LN21@PIT_Change:

; 3074 : 							return true;

  0026c	b8 01 00 00 00	 mov	 eax, 1
  00271	e9 a7 00 00 00	 jmp	 $LN1@PIT_Change
$LN18@PIT_Change:

; 3075 : 						}
; 3076 : 					}

  00276	e9 00 ff ff ff	 jmp	 $LN5@PIT_Change
$LN6@PIT_Change:

; 3077 : 				}
; 3078 : 			}

  0027b	e9 2e fe ff ff	 jmp	 $LN2@PIT_Change
$LN3@PIT_Change:

; 3079 : 		}
; 3080 : 
; 3081 : 		if (thing->flags & MF_PUSHABLE)

  00280	8b 45 08	 mov	 eax, DWORD PTR _thing$[ebp]
  00283	8b 48 60	 mov	 ecx, DWORD PTR [eax+96]
  00286	83 e1 40	 and	 ecx, 64			; 00000040H
  00289	74 11		 je	 SHORT $LN22@PIT_Change

; 3082 : 		{
; 3083 : 			nofit = true;

  0028b	c7 05 00 00 00
	00 01 00 00 00	 mov	 DWORD PTR _nofit, 1

; 3084 : 			return false;

  00295	33 c0		 xor	 eax, eax
  00297	e9 81 00 00 00	 jmp	 $LN1@PIT_Change
$LN22@PIT_Change:

; 3085 : 		}
; 3086 : 
; 3087 : 		if (realcrush)

  0029c	83 7d 0c 00	 cmp	 DWORD PTR _realcrush$[ebp], 0
  002a0	74 55		 je	 SHORT $LN25@PIT_Change

; 3088 : 		{
; 3089 : 			// Instant-death, but no one to blame
; 3090 : 			if (netgame && thing->player && thing->player->spectator)

  002a2	83 3d 00 00 00
	00 00		 cmp	 DWORD PTR _netgame, 0
  002a9	74 37		 je	 SHORT $LN24@PIT_Change
  002ab	8b 45 08	 mov	 eax, DWORD PTR _thing$[ebp]
  002ae	83 b8 a4 00 00
	00 00		 cmp	 DWORD PTR [eax+164], 0
  002b5	74 2b		 je	 SHORT $LN24@PIT_Change
  002b7	8b 45 08	 mov	 eax, DWORD PTR _thing$[ebp]
  002ba	8b 88 a4 00 00
	00		 mov	 ecx, DWORD PTR [eax+164]
  002c0	0f b6 91 f0 01
	00 00		 movzx	 edx, BYTE PTR [ecx+496]
  002c7	85 d2		 test	 edx, edx
  002c9	74 17		 je	 SHORT $LN24@PIT_Change

; 3091 : 				P_DamageMobj(thing, NULL, NULL, 42000); // Respawn crushed spectators

  002cb	68 10 a4 00 00	 push	 42000			; 0000a410H
  002d0	6a 00		 push	 0
  002d2	6a 00		 push	 0
  002d4	8b 45 08	 mov	 eax, DWORD PTR _thing$[ebp]
  002d7	50		 push	 eax
  002d8	e8 00 00 00 00	 call	 _P_DamageMobj
  002dd	83 c4 10	 add	 esp, 16			; 00000010H
  002e0	eb 15		 jmp	 SHORT $LN25@PIT_Change
$LN24@PIT_Change:

; 3092 : 			else
; 3093 : 				P_DamageMobj(thing, NULL, NULL, 10000);

  002e2	68 10 27 00 00	 push	 10000			; 00002710H
  002e7	6a 00		 push	 0
  002e9	6a 00		 push	 0
  002eb	8b 45 08	 mov	 eax, DWORD PTR _thing$[ebp]
  002ee	50		 push	 eax
  002ef	e8 00 00 00 00	 call	 _P_DamageMobj
  002f4	83 c4 10	 add	 esp, 16			; 00000010H
$LN25@PIT_Change:

; 3094 : 		}
; 3095 : 	}
; 3096 : 
; 3097 : 	if (realcrush && crushchange)

  002f7	83 7d 0c 00	 cmp	 DWORD PTR _realcrush$[ebp], 0
  002fb	74 1b		 je	 SHORT $LN26@PIT_Change
  002fd	83 3d 00 00 00
	00 00		 cmp	 DWORD PTR _crushchange, 0
  00304	74 12		 je	 SHORT $LN26@PIT_Change

; 3098 : 		P_DamageMobj(thing, NULL, NULL, 1);

  00306	6a 01		 push	 1
  00308	6a 00		 push	 0
  0030a	6a 00		 push	 0
  0030c	8b 45 08	 mov	 eax, DWORD PTR _thing$[ebp]
  0030f	50		 push	 eax
  00310	e8 00 00 00 00	 call	 _P_DamageMobj
  00315	83 c4 10	 add	 esp, 16			; 00000010H
$LN26@PIT_Change:

; 3099 : 
; 3100 : 	// keep checking (crush other things)
; 3101 : 	return true;

  00318	b8 01 00 00 00	 mov	 eax, 1
$LN1@PIT_Change:

; 3102 : }

  0031d	5f		 pop	 edi
  0031e	5e		 pop	 esi
  0031f	5b		 pop	 ebx
  00320	8b e5		 mov	 esp, ebp
  00322	5d		 pop	 ebp
  00323	c3		 ret	 0
_PIT_ChangeSector ENDP
_TEXT	ENDS
; Function compile flags: /Odtp /ZI
; File C:\Users\RafaTheFox\Downloads\SRB2-Public-master\src\p_map.c
;	COMDAT _PIT_RadiusAttack
_TEXT	SEGMENT
tv71 = -96						; size = 4
_momy$1 = -28						; size = 4
_momx$2 = -24						; size = 4
_damage$3 = -20						; size = 4
_dist$ = -16						; size = 4
_dz$ = -12						; size = 4
_dy$ = -8						; size = 4
_dx$ = -4						; size = 4
_thing$ = 8						; size = 4
_PIT_RadiusAttack PROC					; COMDAT

; 2918 : {

  00000	55		 push	 ebp
  00001	8b ec		 mov	 ebp, esp
  00003	83 ec 60	 sub	 esp, 96			; 00000060H
  00006	53		 push	 ebx
  00007	56		 push	 esi
  00008	57		 push	 edi

; 2919 : 	fixed_t dx, dy, dz, dist;
; 2920 : 
; 2921 : 	if (!(thing->flags & MF_SHOOTABLE))

  00009	8b 45 08	 mov	 eax, DWORD PTR _thing$[ebp]
  0000c	8b 48 60	 mov	 ecx, DWORD PTR [eax+96]
  0000f	83 e1 04	 and	 ecx, 4
  00012	75 0a		 jne	 SHORT $LN4@PIT_Radius

; 2922 : 		return true;

  00014	b8 01 00 00 00	 mov	 eax, 1
  00019	e9 dd 01 00 00	 jmp	 $LN1@PIT_Radius
$LN4@PIT_Radius:

; 2923 : 
; 2924 : 	if (thing->flags & MF_BOSS)

  0001e	8b 45 08	 mov	 eax, DWORD PTR _thing$[ebp]
  00021	8b 48 60	 mov	 ecx, DWORD PTR [eax+96]
  00024	81 e1 80 00 00
	00		 and	 ecx, 128		; 00000080H
  0002a	74 0a		 je	 SHORT $LN5@PIT_Radius

; 2925 : 		return true;

  0002c	b8 01 00 00 00	 mov	 eax, 1
  00031	e9 c5 01 00 00	 jmp	 $LN1@PIT_Radius
$LN5@PIT_Radius:

; 2926 : 
; 2927 : 	switch (thing->type)

  00036	8b 45 08	 mov	 eax, DWORD PTR _thing$[ebp]
  00039	8b 48 7c	 mov	 ecx, DWORD PTR [eax+124]
  0003c	89 4d a0	 mov	 DWORD PTR tv71[ebp], ecx
  0003f	83 7d a0 06	 cmp	 DWORD PTR tv71[ebp], 6
  00043	74 08		 je	 SHORT $LN6@PIT_Radius
  00045	83 7d a0 0a	 cmp	 DWORD PTR tv71[ebp], 10	; 0000000aH
  00049	74 02		 je	 SHORT $LN6@PIT_Radius
  0004b	eb 0a		 jmp	 SHORT $LN8@PIT_Radius
$LN6@PIT_Radius:

; 2928 : 	{
; 2929 : 		case MT_SKIM:
; 2930 : 		case MT_JETTBOMBER: // Jetty-Syn Bomber
; 2931 : 			return true;

  0004d	b8 01 00 00 00	 mov	 eax, 1
  00052	e9 a4 01 00 00	 jmp	 $LN1@PIT_Radius
$LN8@PIT_Radius:

; 2932 : 		default:
; 2933 : 			if (thing->flags & MF_MONITOR)

  00057	8b 45 08	 mov	 eax, DWORD PTR _thing$[ebp]
  0005a	8b 48 60	 mov	 ecx, DWORD PTR [eax+96]
  0005d	81 e1 00 00 10
	00		 and	 ecx, 1048576		; 00100000H
  00063	74 0a		 je	 SHORT $LN9@PIT_Radius

; 2934 : 				return true;

  00065	b8 01 00 00 00	 mov	 eax, 1
  0006a	e9 8c 01 00 00	 jmp	 $LN1@PIT_Radius
$LN9@PIT_Radius:

; 2935 : 			break;
; 2936 : 	}
; 2937 : 
; 2938 : 	dx = abs(thing->x - bombspot->x);

  0006f	8b 45 08	 mov	 eax, DWORD PTR _thing$[ebp]
  00072	8b 0d 00 00 00
	00		 mov	 ecx, DWORD PTR _bombspot
  00078	8b 50 10	 mov	 edx, DWORD PTR [eax+16]
  0007b	2b 51 10	 sub	 edx, DWORD PTR [ecx+16]
  0007e	52		 push	 edx
  0007f	e8 00 00 00 00	 call	 _abs
  00084	83 c4 04	 add	 esp, 4
  00087	89 45 fc	 mov	 DWORD PTR _dx$[ebp], eax

; 2939 : 	dy = abs(thing->y - bombspot->y);

  0008a	8b 45 08	 mov	 eax, DWORD PTR _thing$[ebp]
  0008d	8b 0d 00 00 00
	00		 mov	 ecx, DWORD PTR _bombspot
  00093	8b 50 14	 mov	 edx, DWORD PTR [eax+20]
  00096	2b 51 14	 sub	 edx, DWORD PTR [ecx+20]
  00099	52		 push	 edx
  0009a	e8 00 00 00 00	 call	 _abs
  0009f	83 c4 04	 add	 esp, 4
  000a2	89 45 f8	 mov	 DWORD PTR _dy$[ebp], eax

; 2940 : 	dz = abs(thing->z + (thing->height>>1) - bombspot->z);

  000a5	8b 45 08	 mov	 eax, DWORD PTR _thing$[ebp]
  000a8	8b 48 44	 mov	 ecx, DWORD PTR [eax+68]
  000ab	d1 f9		 sar	 ecx, 1
  000ad	8b 55 08	 mov	 edx, DWORD PTR _thing$[ebp]
  000b0	8b 42 18	 mov	 eax, DWORD PTR [edx+24]
  000b3	03 c1		 add	 eax, ecx
  000b5	8b 0d 00 00 00
	00		 mov	 ecx, DWORD PTR _bombspot
  000bb	2b 41 18	 sub	 eax, DWORD PTR [ecx+24]
  000be	50		 push	 eax
  000bf	e8 00 00 00 00	 call	 _abs
  000c4	83 c4 04	 add	 esp, 4
  000c7	89 45 f4	 mov	 DWORD PTR _dz$[ebp], eax

; 2941 : 
; 2942 : 	dist = P_AproxDistance(P_AproxDistance(dx, dy), dz);

  000ca	8b 45 f4	 mov	 eax, DWORD PTR _dz$[ebp]
  000cd	50		 push	 eax
  000ce	8b 4d f8	 mov	 ecx, DWORD PTR _dy$[ebp]
  000d1	51		 push	 ecx
  000d2	8b 55 fc	 mov	 edx, DWORD PTR _dx$[ebp]
  000d5	52		 push	 edx
  000d6	e8 00 00 00 00	 call	 _P_AproxDistance
  000db	83 c4 08	 add	 esp, 8
  000de	50		 push	 eax
  000df	e8 00 00 00 00	 call	 _P_AproxDistance
  000e4	83 c4 08	 add	 esp, 8
  000e7	89 45 f0	 mov	 DWORD PTR _dist$[ebp], eax

; 2943 : 	dist -= thing->radius;

  000ea	8b 45 08	 mov	 eax, DWORD PTR _thing$[ebp]
  000ed	8b 4d f0	 mov	 ecx, DWORD PTR _dist$[ebp]
  000f0	2b 48 40	 sub	 ecx, DWORD PTR [eax+64]
  000f3	89 4d f0	 mov	 DWORD PTR _dist$[ebp], ecx

; 2944 : 
; 2945 : 	dist >>= FRACBITS;

  000f6	8b 45 f0	 mov	 eax, DWORD PTR _dist$[ebp]
  000f9	c1 f8 10	 sar	 eax, 16			; 00000010H
  000fc	89 45 f0	 mov	 DWORD PTR _dist$[ebp], eax

; 2946 : 
; 2947 : 	if (dist < 0)

  000ff	83 7d f0 00	 cmp	 DWORD PTR _dist$[ebp], 0
  00103	7d 07		 jge	 SHORT $LN10@PIT_Radius

; 2948 : 		dist = 0;

  00105	c7 45 f0 00 00
	00 00		 mov	 DWORD PTR _dist$[ebp], 0
$LN10@PIT_Radius:

; 2949 : 
; 2950 : 	if (dist >= bombdamage)

  0010c	8b 45 f0	 mov	 eax, DWORD PTR _dist$[ebp]
  0010f	3b 05 00 00 00
	00		 cmp	 eax, DWORD PTR _bombdamage
  00115	7c 0a		 jl	 SHORT $LN11@PIT_Radius

; 2951 : 		return true; // out of range

  00117	b8 01 00 00 00	 mov	 eax, 1
  0011c	e9 da 00 00 00	 jmp	 $LN1@PIT_Radius
$LN11@PIT_Radius:

; 2952 : 
; 2953 : 	if (thing->floorz > bombspot->z && bombspot->ceilingz < thing->z)

  00121	8b 45 08	 mov	 eax, DWORD PTR _thing$[ebp]
  00124	8b 0d 00 00 00
	00		 mov	 ecx, DWORD PTR _bombspot
  0012a	8b 50 38	 mov	 edx, DWORD PTR [eax+56]
  0012d	3b 51 18	 cmp	 edx, DWORD PTR [ecx+24]
  00130	7e 1a		 jle	 SHORT $LN12@PIT_Radius
  00132	a1 00 00 00 00	 mov	 eax, DWORD PTR _bombspot
  00137	8b 4d 08	 mov	 ecx, DWORD PTR _thing$[ebp]
  0013a	8b 50 3c	 mov	 edx, DWORD PTR [eax+60]
  0013d	3b 51 18	 cmp	 edx, DWORD PTR [ecx+24]
  00140	7d 0a		 jge	 SHORT $LN12@PIT_Radius

; 2954 : 		return true;

  00142	b8 01 00 00 00	 mov	 eax, 1
  00147	e9 af 00 00 00	 jmp	 $LN1@PIT_Radius
$LN12@PIT_Radius:

; 2955 : 
; 2956 : 	if (thing->ceilingz < bombspot->z && bombspot->floorz > thing->z)

  0014c	8b 45 08	 mov	 eax, DWORD PTR _thing$[ebp]
  0014f	8b 0d 00 00 00
	00		 mov	 ecx, DWORD PTR _bombspot
  00155	8b 50 3c	 mov	 edx, DWORD PTR [eax+60]
  00158	3b 51 18	 cmp	 edx, DWORD PTR [ecx+24]
  0015b	7d 1a		 jge	 SHORT $LN13@PIT_Radius
  0015d	a1 00 00 00 00	 mov	 eax, DWORD PTR _bombspot
  00162	8b 4d 08	 mov	 ecx, DWORD PTR _thing$[ebp]
  00165	8b 50 38	 mov	 edx, DWORD PTR [eax+56]
  00168	3b 51 18	 cmp	 edx, DWORD PTR [ecx+24]
  0016b	7e 0a		 jle	 SHORT $LN13@PIT_Radius

; 2957 : 		return true;

  0016d	b8 01 00 00 00	 mov	 eax, 1
  00172	e9 84 00 00 00	 jmp	 $LN1@PIT_Radius
$LN13@PIT_Radius:

; 2958 : 
; 2959 : 	if (P_CheckSight(thing, bombspot))

  00177	a1 00 00 00 00	 mov	 eax, DWORD PTR _bombspot
  0017c	50		 push	 eax
  0017d	8b 4d 08	 mov	 ecx, DWORD PTR _thing$[ebp]
  00180	51		 push	 ecx
  00181	e8 00 00 00 00	 call	 _P_CheckSight
  00186	83 c4 08	 add	 esp, 8
  00189	85 c0		 test	 eax, eax
  0018b	74 69		 je	 SHORT $LN14@PIT_Radius

; 2960 : 	{
; 2961 : 		INT32 damage = bombdamage - dist;

  0018d	a1 00 00 00 00	 mov	 eax, DWORD PTR _bombdamage
  00192	2b 45 f0	 sub	 eax, DWORD PTR _dist$[ebp]
  00195	89 45 ec	 mov	 DWORD PTR _damage$3[ebp], eax

; 2962 : 		INT32 momx = 0, momy = 0;

  00198	c7 45 e8 00 00
	00 00		 mov	 DWORD PTR _momx$2[ebp], 0
  0019f	c7 45 e4 00 00
	00 00		 mov	 DWORD PTR _momy$1[ebp], 0

; 2963 : 		if (dist)

  001a6	83 7d f0 00	 cmp	 DWORD PTR _dist$[ebp], 0
  001aa	74 2c		 je	 SHORT $LN15@PIT_Radius

; 2964 : 		{
; 2965 : 			momx = (thing->x - bombspot->x)/dist;

  001ac	8b 45 08	 mov	 eax, DWORD PTR _thing$[ebp]
  001af	8b 0d 00 00 00
	00		 mov	 ecx, DWORD PTR _bombspot
  001b5	8b 40 10	 mov	 eax, DWORD PTR [eax+16]
  001b8	2b 41 10	 sub	 eax, DWORD PTR [ecx+16]
  001bb	99		 cdq
  001bc	f7 7d f0	 idiv	 DWORD PTR _dist$[ebp]
  001bf	89 45 e8	 mov	 DWORD PTR _momx$2[ebp], eax

; 2966 : 			momy = (thing->y - bombspot->y)/dist;

  001c2	8b 45 08	 mov	 eax, DWORD PTR _thing$[ebp]
  001c5	8b 0d 00 00 00
	00		 mov	 ecx, DWORD PTR _bombspot
  001cb	8b 40 14	 mov	 eax, DWORD PTR [eax+20]
  001ce	2b 41 14	 sub	 eax, DWORD PTR [ecx+20]
  001d1	99		 cdq
  001d2	f7 7d f0	 idiv	 DWORD PTR _dist$[ebp]
  001d5	89 45 e4	 mov	 DWORD PTR _momy$1[ebp], eax
$LN15@PIT_Radius:

; 2967 : 		}
; 2968 : 		// must be in direct path
; 2969 : 		P_DamageMobj(thing, bombspot, bombsource, damage); // Tails 01-11-2001

  001d8	8b 45 ec	 mov	 eax, DWORD PTR _damage$3[ebp]
  001db	50		 push	 eax
  001dc	8b 0d 00 00 00
	00		 mov	 ecx, DWORD PTR _bombsource
  001e2	51		 push	 ecx
  001e3	8b 15 00 00 00
	00		 mov	 edx, DWORD PTR _bombspot
  001e9	52		 push	 edx
  001ea	8b 45 08	 mov	 eax, DWORD PTR _thing$[ebp]
  001ed	50		 push	 eax
  001ee	e8 00 00 00 00	 call	 _P_DamageMobj
  001f3	83 c4 10	 add	 esp, 16			; 00000010H
$LN14@PIT_Radius:

; 2970 : 	}
; 2971 : 
; 2972 : 	return true;

  001f6	b8 01 00 00 00	 mov	 eax, 1
$LN1@PIT_Radius:

; 2973 : }

  001fb	5f		 pop	 edi
  001fc	5e		 pop	 esi
  001fd	5b		 pop	 ebx
  001fe	8b e5		 mov	 esp, ebp
  00200	5d		 pop	 ebp
  00201	c3		 ret	 0
_PIT_RadiusAttack ENDP
_TEXT	ENDS
; Function compile flags: /Odtp /ZI
; File C:\Users\RafaTheFox\Downloads\SRB2-Public-master\src\p_map.c
;	COMDAT _PTR_AimTraverse
_TEXT	SEGMENT
tv144 = -128						; size = 4
tv145 = -124						; size = 4
_lowslope$1 = -56					; size = 4
_highslope$2 = -52					; size = 4
_rover$3 = -48						; size = 4
_lowslope$4 = -44					; size = 4
_highslope$5 = -40					; size = 4
_rover$6 = -36						; size = 4
_frontflag$7 = -32					; size = 4
_dir$ = -28						; size = 4
_dist$ = -24						; size = 4
_thingbottomslope$ = -20				; size = 4
_thingtopslope$ = -16					; size = 4
_slope$ = -12						; size = 4
_th$ = -8						; size = 4
_li$ = -4						; size = 4
_in$ = 8						; size = 4
_PTR_AimTraverse PROC					; COMDAT

; 2689 : {

  00000	55		 push	 ebp
  00001	8b ec		 mov	 ebp, esp
  00003	81 ec 80 00 00
	00		 sub	 esp, 128		; 00000080H
  00009	53		 push	 ebx
  0000a	56		 push	 esi
  0000b	57		 push	 edi

; 2690 : 	line_t *li;
; 2691 : 	mobj_t *th;
; 2692 : 	fixed_t slope, thingtopslope, thingbottomslope, dist;
; 2693 : 	INT32 dir;
; 2694 : 
; 2695 : 	if (in->isaline)

  0000c	8b 45 08	 mov	 eax, DWORD PTR _in$[ebp]
  0000f	83 78 04 00	 cmp	 DWORD PTR [eax+4], 0
  00013	0f 84 b6 03 00
	00		 je	 $LN8@PTR_AimTra

; 2696 : 	{
; 2697 : 		li = in->d.line;

  00019	8b 45 08	 mov	 eax, DWORD PTR _in$[ebp]
  0001c	8b 48 08	 mov	 ecx, DWORD PTR [eax+8]
  0001f	89 4d fc	 mov	 DWORD PTR _li$[ebp], ecx

; 2698 : 
; 2699 : 		if (!(li->flags & ML_TWOSIDED))

  00022	8b 45 fc	 mov	 eax, DWORD PTR _li$[ebp]
  00025	0f bf 48 10	 movsx	 ecx, WORD PTR [eax+16]
  00029	83 e1 04	 and	 ecx, 4
  0002c	75 07		 jne	 SHORT $LN9@PTR_AimTra

; 2700 : 			return false; // stop

  0002e	33 c0		 xor	 eax, eax
  00030	e9 48 05 00 00	 jmp	 $LN1@PTR_AimTra
$LN9@PTR_AimTra:

; 2701 : 
; 2702 : 		// Crosses a two sided line.
; 2703 : 		// A two sided line will restrict
; 2704 : 		// the possible target ranges.
; 2705 : 		tmthing = NULL;

  00035	c7 05 00 00 00
	00 00 00 00 00	 mov	 DWORD PTR _tmthing, 0

; 2706 : 		P_LineOpening(li);

  0003f	8b 45 fc	 mov	 eax, DWORD PTR _li$[ebp]
  00042	50		 push	 eax
  00043	e8 00 00 00 00	 call	 _P_LineOpening
  00048	83 c4 04	 add	 esp, 4

; 2707 : 
; 2708 : 		if (openbottom >= opentop)

  0004b	a1 00 00 00 00	 mov	 eax, DWORD PTR _openbottom
  00050	3b 05 00 00 00
	00		 cmp	 eax, DWORD PTR _opentop
  00056	7c 07		 jl	 SHORT $LN10@PTR_AimTra

; 2709 : 			return false; // stop

  00058	33 c0		 xor	 eax, eax
  0005a	e9 1e 05 00 00	 jmp	 $LN1@PTR_AimTra
$LN10@PTR_AimTra:

; 2710 : 
; 2711 : 		dist = FixedMul(attackrange, in->frac);

  0005f	8b 45 08	 mov	 eax, DWORD PTR _in$[ebp]
  00062	8b 08		 mov	 ecx, DWORD PTR [eax]
  00064	51		 push	 ecx
  00065	8b 15 00 00 00
	00		 mov	 edx, DWORD PTR _attackrange
  0006b	52		 push	 edx
  0006c	e8 00 00 00 00	 call	 _FixedMul
  00071	83 c4 08	 add	 esp, 8
  00074	89 45 e8	 mov	 DWORD PTR _dist$[ebp], eax

; 2712 : 
; 2713 : 		if (li->frontsector->floorheight != li->backsector->floorheight)

  00077	8b 45 fc	 mov	 eax, DWORD PTR _li$[ebp]
  0007a	8b 48 30	 mov	 ecx, DWORD PTR [eax+48]
  0007d	8b 55 fc	 mov	 edx, DWORD PTR _li$[ebp]
  00080	8b 42 34	 mov	 eax, DWORD PTR [edx+52]
  00083	8b 09		 mov	 ecx, DWORD PTR [ecx]
  00085	3b 08		 cmp	 ecx, DWORD PTR [eax]
  00087	74 2f		 je	 SHORT $LN12@PTR_AimTra

; 2714 : 		{
; 2715 : 			slope = FixedDiv(openbottom - shootz, dist);

  00089	8b 45 e8	 mov	 eax, DWORD PTR _dist$[ebp]
  0008c	50		 push	 eax
  0008d	8b 0d 00 00 00
	00		 mov	 ecx, DWORD PTR _openbottom
  00093	2b 0d 00 00 00
	00		 sub	 ecx, DWORD PTR _shootz
  00099	51		 push	 ecx
  0009a	e8 00 00 00 00	 call	 _FixedDiv
  0009f	83 c4 08	 add	 esp, 8
  000a2	89 45 f4	 mov	 DWORD PTR _slope$[ebp], eax

; 2716 : 			if (slope > bottomslope)

  000a5	8b 45 f4	 mov	 eax, DWORD PTR _slope$[ebp]
  000a8	3b 05 00 00 00
	00		 cmp	 eax, DWORD PTR _bottomslope
  000ae	7e 08		 jle	 SHORT $LN12@PTR_AimTra

; 2717 : 				bottomslope = slope;

  000b0	8b 45 f4	 mov	 eax, DWORD PTR _slope$[ebp]
  000b3	a3 00 00 00 00	 mov	 DWORD PTR _bottomslope, eax
$LN12@PTR_AimTra:

; 2718 : 		}
; 2719 : 
; 2720 : 		if (li->frontsector->ceilingheight != li->backsector->ceilingheight)

  000b8	8b 45 fc	 mov	 eax, DWORD PTR _li$[ebp]
  000bb	8b 48 30	 mov	 ecx, DWORD PTR [eax+48]
  000be	8b 55 fc	 mov	 edx, DWORD PTR _li$[ebp]
  000c1	8b 42 34	 mov	 eax, DWORD PTR [edx+52]
  000c4	8b 49 04	 mov	 ecx, DWORD PTR [ecx+4]
  000c7	3b 48 04	 cmp	 ecx, DWORD PTR [eax+4]
  000ca	74 2f		 je	 SHORT $LN14@PTR_AimTra

; 2721 : 		{
; 2722 : 			slope = FixedDiv(opentop - shootz, dist);

  000cc	8b 45 e8	 mov	 eax, DWORD PTR _dist$[ebp]
  000cf	50		 push	 eax
  000d0	8b 0d 00 00 00
	00		 mov	 ecx, DWORD PTR _opentop
  000d6	2b 0d 00 00 00
	00		 sub	 ecx, DWORD PTR _shootz
  000dc	51		 push	 ecx
  000dd	e8 00 00 00 00	 call	 _FixedDiv
  000e2	83 c4 08	 add	 esp, 8
  000e5	89 45 f4	 mov	 DWORD PTR _slope$[ebp], eax

; 2723 : 			if (slope < topslope)

  000e8	8b 45 f4	 mov	 eax, DWORD PTR _slope$[ebp]
  000eb	3b 05 00 00 00
	00		 cmp	 eax, DWORD PTR _topslope
  000f1	7d 08		 jge	 SHORT $LN14@PTR_AimTra

; 2724 : 				topslope = slope;

  000f3	8b 45 f4	 mov	 eax, DWORD PTR _slope$[ebp]
  000f6	a3 00 00 00 00	 mov	 DWORD PTR _topslope, eax
$LN14@PTR_AimTra:

; 2725 : 		}
; 2726 : 
; 2727 : 		if (topslope <= bottomslope)

  000fb	a1 00 00 00 00	 mov	 eax, DWORD PTR _topslope
  00100	3b 05 00 00 00
	00		 cmp	 eax, DWORD PTR _bottomslope
  00106	7f 07		 jg	 SHORT $LN15@PTR_AimTra

; 2728 : 			return false; // stop

  00108	33 c0		 xor	 eax, eax
  0010a	e9 6e 04 00 00	 jmp	 $LN1@PTR_AimTra
$LN15@PTR_AimTra:

; 2729 : 
; 2730 : 		if (li->frontsector->ffloors || li->backsector->ffloors)

  0010f	8b 45 fc	 mov	 eax, DWORD PTR _li$[ebp]
  00112	8b 48 30	 mov	 ecx, DWORD PTR [eax+48]
  00115	83 b9 90 00 00
	00 00		 cmp	 DWORD PTR [ecx+144], 0
  0011c	75 13		 jne	 SHORT $LN17@PTR_AimTra
  0011e	8b 45 fc	 mov	 eax, DWORD PTR _li$[ebp]
  00121	8b 48 34	 mov	 ecx, DWORD PTR [eax+52]
  00124	83 b9 90 00 00
	00 00		 cmp	 DWORD PTR [ecx+144], 0
  0012b	0f 84 76 02 00
	00		 je	 $LN30@PTR_AimTra
$LN17@PTR_AimTra:

; 2731 : 		{
; 2732 : 			INT32 frontflag = P_PointOnLineSide(shootthing->x, shootthing->y, li);

  00131	8b 45 fc	 mov	 eax, DWORD PTR _li$[ebp]
  00134	50		 push	 eax
  00135	8b 0d 00 00 00
	00		 mov	 ecx, DWORD PTR _shootthing
  0013b	8b 51 14	 mov	 edx, DWORD PTR [ecx+20]
  0013e	52		 push	 edx
  0013f	a1 00 00 00 00	 mov	 eax, DWORD PTR _shootthing
  00144	8b 48 10	 mov	 ecx, DWORD PTR [eax+16]
  00147	51		 push	 ecx
  00148	e8 00 00 00 00	 call	 _P_PointOnLineSide
  0014d	83 c4 0c	 add	 esp, 12			; 0000000cH
  00150	89 45 e0	 mov	 DWORD PTR _frontflag$7[ebp], eax

; 2733 : 
; 2734 : 			dir = aimslope > 0 ? 1 : aimslope < 0 ? -1 : 0;

  00153	83 3d 00 00 00
	00 00		 cmp	 DWORD PTR _aimslope, 0
  0015a	7e 09		 jle	 SHORT $LN49@PTR_AimTra
  0015c	c7 45 84 01 00
	00 00		 mov	 DWORD PTR tv145[ebp], 1
  00163	eb 1f		 jmp	 SHORT $LN50@PTR_AimTra
$LN49@PTR_AimTra:
  00165	83 3d 00 00 00
	00 00		 cmp	 DWORD PTR _aimslope, 0
  0016c	7d 09		 jge	 SHORT $LN47@PTR_AimTra
  0016e	c7 45 80 ff ff
	ff ff		 mov	 DWORD PTR tv144[ebp], -1
  00175	eb 07		 jmp	 SHORT $LN48@PTR_AimTra
$LN47@PTR_AimTra:
  00177	c7 45 80 00 00
	00 00		 mov	 DWORD PTR tv144[ebp], 0
$LN48@PTR_AimTra:
  0017e	8b 45 80	 mov	 eax, DWORD PTR tv144[ebp]
  00181	89 45 84	 mov	 DWORD PTR tv145[ebp], eax
$LN50@PTR_AimTra:
  00184	8b 4d 84	 mov	 ecx, DWORD PTR tv145[ebp]
  00187	89 4d e4	 mov	 DWORD PTR _dir$[ebp], ecx

; 2735 : 
; 2736 : 			//SoM: Check 3D FLOORS!
; 2737 : 			if (li->frontsector->ffloors)

  0018a	8b 45 fc	 mov	 eax, DWORD PTR _li$[ebp]
  0018d	8b 48 30	 mov	 ecx, DWORD PTR [eax+48]
  00190	83 b9 90 00 00
	00 00		 cmp	 DWORD PTR [ecx+144], 0
  00197	0f 84 e8 00 00
	00		 je	 $LN3@PTR_AimTra

; 2738 : 			{
; 2739 : 				ffloor_t *rover = li->frontsector->ffloors;

  0019d	8b 45 fc	 mov	 eax, DWORD PTR _li$[ebp]
  001a0	8b 48 30	 mov	 ecx, DWORD PTR [eax+48]
  001a3	8b 91 90 00 00
	00		 mov	 edx, DWORD PTR [ecx+144]
  001a9	89 55 dc	 mov	 DWORD PTR _rover$6[ebp], edx

; 2740 : 				fixed_t highslope, lowslope;
; 2741 : 
; 2742 : 				for (; rover; rover = rover->next)

  001ac	eb 09		 jmp	 SHORT $LN4@PTR_AimTra
$LN2@PTR_AimTra:
  001ae	8b 45 dc	 mov	 eax, DWORD PTR _rover$6[ebp]
  001b1	8b 48 40	 mov	 ecx, DWORD PTR [eax+64]
  001b4	89 4d dc	 mov	 DWORD PTR _rover$6[ebp], ecx
$LN4@PTR_AimTra:
  001b7	83 7d dc 00	 cmp	 DWORD PTR _rover$6[ebp], 0
  001bb	0f 84 c4 00 00
	00		 je	 $LN3@PTR_AimTra

; 2743 : 				{
; 2744 : 					if (!(rover->flags & FF_SOLID) || !(rover->flags & FF_EXISTS))

  001c1	8b 45 dc	 mov	 eax, DWORD PTR _rover$6[ebp]
  001c4	8b 48 34	 mov	 ecx, DWORD PTR [eax+52]
  001c7	83 e1 06	 and	 ecx, 6
  001ca	74 0b		 je	 SHORT $LN20@PTR_AimTra
  001cc	8b 45 dc	 mov	 eax, DWORD PTR _rover$6[ebp]
  001cf	8b 48 34	 mov	 ecx, DWORD PTR [eax+52]
  001d2	83 e1 01	 and	 ecx, 1
  001d5	75 02		 jne	 SHORT $LN19@PTR_AimTra
$LN20@PTR_AimTra:

; 2745 : 						continue;

  001d7	eb d5		 jmp	 SHORT $LN2@PTR_AimTra
$LN19@PTR_AimTra:

; 2746 : 
; 2747 : 					highslope = FixedDiv(*rover->topheight - shootz, dist);

  001d9	8b 45 e8	 mov	 eax, DWORD PTR _dist$[ebp]
  001dc	50		 push	 eax
  001dd	8b 4d dc	 mov	 ecx, DWORD PTR _rover$6[ebp]
  001e0	8b 11		 mov	 edx, DWORD PTR [ecx]
  001e2	8b 02		 mov	 eax, DWORD PTR [edx]
  001e4	2b 05 00 00 00
	00		 sub	 eax, DWORD PTR _shootz
  001ea	50		 push	 eax
  001eb	e8 00 00 00 00	 call	 _FixedDiv
  001f0	83 c4 08	 add	 esp, 8
  001f3	89 45 d8	 mov	 DWORD PTR _highslope$5[ebp], eax

; 2748 : 					lowslope = FixedDiv(*rover->bottomheight - shootz, dist);

  001f6	8b 45 e8	 mov	 eax, DWORD PTR _dist$[ebp]
  001f9	50		 push	 eax
  001fa	8b 4d dc	 mov	 ecx, DWORD PTR _rover$6[ebp]
  001fd	8b 51 18	 mov	 edx, DWORD PTR [ecx+24]
  00200	8b 02		 mov	 eax, DWORD PTR [edx]
  00202	2b 05 00 00 00
	00		 sub	 eax, DWORD PTR _shootz
  00208	50		 push	 eax
  00209	e8 00 00 00 00	 call	 _FixedDiv
  0020e	83 c4 08	 add	 esp, 8
  00211	89 45 d4	 mov	 DWORD PTR _lowslope$4[ebp], eax

; 2749 : 					if ((aimslope >= lowslope && aimslope <= highslope))

  00214	a1 00 00 00 00	 mov	 eax, DWORD PTR _aimslope
  00219	3b 45 d4	 cmp	 eax, DWORD PTR _lowslope$4[ebp]
  0021c	7c 11		 jl	 SHORT $LN21@PTR_AimTra
  0021e	a1 00 00 00 00	 mov	 eax, DWORD PTR _aimslope
  00223	3b 45 d8	 cmp	 eax, DWORD PTR _highslope$5[ebp]
  00226	7f 07		 jg	 SHORT $LN21@PTR_AimTra

; 2750 : 						return false;

  00228	33 c0		 xor	 eax, eax
  0022a	e9 4e 03 00 00	 jmp	 $LN1@PTR_AimTra
$LN21@PTR_AimTra:

; 2751 : 
; 2752 : 					if (lastz > *rover->topheight && dir == -1 && aimslope < highslope)

  0022f	8b 45 dc	 mov	 eax, DWORD PTR _rover$6[ebp]
  00232	8b 08		 mov	 ecx, DWORD PTR [eax]
  00234	8b 15 00 00 00
	00		 mov	 edx, DWORD PTR _lastz
  0023a	3b 11		 cmp	 edx, DWORD PTR [ecx]
  0023c	7e 19		 jle	 SHORT $LN22@PTR_AimTra
  0023e	83 7d e4 ff	 cmp	 DWORD PTR _dir$[ebp], -1
  00242	75 13		 jne	 SHORT $LN22@PTR_AimTra
  00244	a1 00 00 00 00	 mov	 eax, DWORD PTR _aimslope
  00249	3b 45 d8	 cmp	 eax, DWORD PTR _highslope$5[ebp]
  0024c	7d 09		 jge	 SHORT $LN22@PTR_AimTra

; 2753 : 						frontflag |= 0x2;

  0024e	8b 45 e0	 mov	 eax, DWORD PTR _frontflag$7[ebp]
  00251	83 c8 02	 or	 eax, 2
  00254	89 45 e0	 mov	 DWORD PTR _frontflag$7[ebp], eax
$LN22@PTR_AimTra:

; 2754 : 
; 2755 : 					if (lastz < *rover->bottomheight && dir == 1 && aimslope > lowslope)

  00257	8b 45 dc	 mov	 eax, DWORD PTR _rover$6[ebp]
  0025a	8b 48 18	 mov	 ecx, DWORD PTR [eax+24]
  0025d	8b 15 00 00 00
	00		 mov	 edx, DWORD PTR _lastz
  00263	3b 11		 cmp	 edx, DWORD PTR [ecx]
  00265	7d 19		 jge	 SHORT $LN23@PTR_AimTra
  00267	83 7d e4 01	 cmp	 DWORD PTR _dir$[ebp], 1
  0026b	75 13		 jne	 SHORT $LN23@PTR_AimTra
  0026d	a1 00 00 00 00	 mov	 eax, DWORD PTR _aimslope
  00272	3b 45 d4	 cmp	 eax, DWORD PTR _lowslope$4[ebp]
  00275	7e 09		 jle	 SHORT $LN23@PTR_AimTra

; 2756 : 						frontflag |= 0x2;

  00277	8b 45 e0	 mov	 eax, DWORD PTR _frontflag$7[ebp]
  0027a	83 c8 02	 or	 eax, 2
  0027d	89 45 e0	 mov	 DWORD PTR _frontflag$7[ebp], eax
$LN23@PTR_AimTra:

; 2757 : 				}

  00280	e9 29 ff ff ff	 jmp	 $LN2@PTR_AimTra
$LN3@PTR_AimTra:

; 2758 : 			}
; 2759 : 
; 2760 : 			if (li->backsector->ffloors)

  00285	8b 45 fc	 mov	 eax, DWORD PTR _li$[ebp]
  00288	8b 48 34	 mov	 ecx, DWORD PTR [eax+52]
  0028b	83 b9 90 00 00
	00 00		 cmp	 DWORD PTR [ecx+144], 0
  00292	0f 84 e8 00 00
	00		 je	 $LN6@PTR_AimTra

; 2761 : 			{
; 2762 : 				ffloor_t *rover = li->backsector->ffloors;

  00298	8b 45 fc	 mov	 eax, DWORD PTR _li$[ebp]
  0029b	8b 48 34	 mov	 ecx, DWORD PTR [eax+52]
  0029e	8b 91 90 00 00
	00		 mov	 edx, DWORD PTR [ecx+144]
  002a4	89 55 d0	 mov	 DWORD PTR _rover$3[ebp], edx

; 2763 : 				fixed_t highslope, lowslope;
; 2764 : 
; 2765 : 				for (; rover; rover = rover->next)

  002a7	eb 09		 jmp	 SHORT $LN7@PTR_AimTra
$LN5@PTR_AimTra:
  002a9	8b 45 d0	 mov	 eax, DWORD PTR _rover$3[ebp]
  002ac	8b 48 40	 mov	 ecx, DWORD PTR [eax+64]
  002af	89 4d d0	 mov	 DWORD PTR _rover$3[ebp], ecx
$LN7@PTR_AimTra:
  002b2	83 7d d0 00	 cmp	 DWORD PTR _rover$3[ebp], 0
  002b6	0f 84 c4 00 00
	00		 je	 $LN6@PTR_AimTra

; 2766 : 				{
; 2767 : 					if (!(rover->flags & FF_SOLID) || !(rover->flags & FF_EXISTS))

  002bc	8b 45 d0	 mov	 eax, DWORD PTR _rover$3[ebp]
  002bf	8b 48 34	 mov	 ecx, DWORD PTR [eax+52]
  002c2	83 e1 06	 and	 ecx, 6
  002c5	74 0b		 je	 SHORT $LN26@PTR_AimTra
  002c7	8b 45 d0	 mov	 eax, DWORD PTR _rover$3[ebp]
  002ca	8b 48 34	 mov	 ecx, DWORD PTR [eax+52]
  002cd	83 e1 01	 and	 ecx, 1
  002d0	75 02		 jne	 SHORT $LN25@PTR_AimTra
$LN26@PTR_AimTra:

; 2768 : 						continue;

  002d2	eb d5		 jmp	 SHORT $LN5@PTR_AimTra
$LN25@PTR_AimTra:

; 2769 : 
; 2770 : 					highslope = FixedDiv(*rover->topheight - shootz, dist);

  002d4	8b 45 e8	 mov	 eax, DWORD PTR _dist$[ebp]
  002d7	50		 push	 eax
  002d8	8b 4d d0	 mov	 ecx, DWORD PTR _rover$3[ebp]
  002db	8b 11		 mov	 edx, DWORD PTR [ecx]
  002dd	8b 02		 mov	 eax, DWORD PTR [edx]
  002df	2b 05 00 00 00
	00		 sub	 eax, DWORD PTR _shootz
  002e5	50		 push	 eax
  002e6	e8 00 00 00 00	 call	 _FixedDiv
  002eb	83 c4 08	 add	 esp, 8
  002ee	89 45 cc	 mov	 DWORD PTR _highslope$2[ebp], eax

; 2771 : 					lowslope = FixedDiv(*rover->bottomheight - shootz, dist);

  002f1	8b 45 e8	 mov	 eax, DWORD PTR _dist$[ebp]
  002f4	50		 push	 eax
  002f5	8b 4d d0	 mov	 ecx, DWORD PTR _rover$3[ebp]
  002f8	8b 51 18	 mov	 edx, DWORD PTR [ecx+24]
  002fb	8b 02		 mov	 eax, DWORD PTR [edx]
  002fd	2b 05 00 00 00
	00		 sub	 eax, DWORD PTR _shootz
  00303	50		 push	 eax
  00304	e8 00 00 00 00	 call	 _FixedDiv
  00309	83 c4 08	 add	 esp, 8
  0030c	89 45 c8	 mov	 DWORD PTR _lowslope$1[ebp], eax

; 2772 : 					if ((aimslope >= lowslope && aimslope <= highslope))

  0030f	a1 00 00 00 00	 mov	 eax, DWORD PTR _aimslope
  00314	3b 45 c8	 cmp	 eax, DWORD PTR _lowslope$1[ebp]
  00317	7c 11		 jl	 SHORT $LN27@PTR_AimTra
  00319	a1 00 00 00 00	 mov	 eax, DWORD PTR _aimslope
  0031e	3b 45 cc	 cmp	 eax, DWORD PTR _highslope$2[ebp]
  00321	7f 07		 jg	 SHORT $LN27@PTR_AimTra

; 2773 : 						return false;

  00323	33 c0		 xor	 eax, eax
  00325	e9 53 02 00 00	 jmp	 $LN1@PTR_AimTra
$LN27@PTR_AimTra:

; 2774 : 
; 2775 : 					if (lastz > *rover->topheight && dir == -1 && aimslope < highslope)

  0032a	8b 45 d0	 mov	 eax, DWORD PTR _rover$3[ebp]
  0032d	8b 08		 mov	 ecx, DWORD PTR [eax]
  0032f	8b 15 00 00 00
	00		 mov	 edx, DWORD PTR _lastz
  00335	3b 11		 cmp	 edx, DWORD PTR [ecx]
  00337	7e 19		 jle	 SHORT $LN28@PTR_AimTra
  00339	83 7d e4 ff	 cmp	 DWORD PTR _dir$[ebp], -1
  0033d	75 13		 jne	 SHORT $LN28@PTR_AimTra
  0033f	a1 00 00 00 00	 mov	 eax, DWORD PTR _aimslope
  00344	3b 45 cc	 cmp	 eax, DWORD PTR _highslope$2[ebp]
  00347	7d 09		 jge	 SHORT $LN28@PTR_AimTra

; 2776 : 						frontflag |= 0x4;

  00349	8b 45 e0	 mov	 eax, DWORD PTR _frontflag$7[ebp]
  0034c	83 c8 04	 or	 eax, 4
  0034f	89 45 e0	 mov	 DWORD PTR _frontflag$7[ebp], eax
$LN28@PTR_AimTra:

; 2777 : 
; 2778 : 					if (lastz < *rover->bottomheight && dir == 1 && aimslope > lowslope)

  00352	8b 45 d0	 mov	 eax, DWORD PTR _rover$3[ebp]
  00355	8b 48 18	 mov	 ecx, DWORD PTR [eax+24]
  00358	8b 15 00 00 00
	00		 mov	 edx, DWORD PTR _lastz
  0035e	3b 11		 cmp	 edx, DWORD PTR [ecx]
  00360	7d 19		 jge	 SHORT $LN29@PTR_AimTra
  00362	83 7d e4 01	 cmp	 DWORD PTR _dir$[ebp], 1
  00366	75 13		 jne	 SHORT $LN29@PTR_AimTra
  00368	a1 00 00 00 00	 mov	 eax, DWORD PTR _aimslope
  0036d	3b 45 c8	 cmp	 eax, DWORD PTR _lowslope$1[ebp]
  00370	7e 09		 jle	 SHORT $LN29@PTR_AimTra

; 2779 : 						frontflag |= 0x4;

  00372	8b 45 e0	 mov	 eax, DWORD PTR _frontflag$7[ebp]
  00375	83 c8 04	 or	 eax, 4
  00378	89 45 e0	 mov	 DWORD PTR _frontflag$7[ebp], eax
$LN29@PTR_AimTra:

; 2780 : 				}

  0037b	e9 29 ff ff ff	 jmp	 $LN5@PTR_AimTra
$LN6@PTR_AimTra:

; 2781 : 			}
; 2782 : 			if ((!(frontflag & 0x1) && frontflag & 0x2) || (frontflag & 0x1 && frontflag & 0x4))

  00380	8b 45 e0	 mov	 eax, DWORD PTR _frontflag$7[ebp]
  00383	83 e0 01	 and	 eax, 1
  00386	75 08		 jne	 SHORT $LN32@PTR_AimTra
  00388	8b 45 e0	 mov	 eax, DWORD PTR _frontflag$7[ebp]
  0038b	83 e0 02	 and	 eax, 2
  0038e	75 10		 jne	 SHORT $LN31@PTR_AimTra
$LN32@PTR_AimTra:
  00390	8b 45 e0	 mov	 eax, DWORD PTR _frontflag$7[ebp]
  00393	83 e0 01	 and	 eax, 1
  00396	74 0f		 je	 SHORT $LN30@PTR_AimTra
  00398	8b 45 e0	 mov	 eax, DWORD PTR _frontflag$7[ebp]
  0039b	83 e0 04	 and	 eax, 4
  0039e	74 07		 je	 SHORT $LN30@PTR_AimTra
$LN31@PTR_AimTra:

; 2783 : 				return false;

  003a0	33 c0		 xor	 eax, eax
  003a2	e9 d6 01 00 00	 jmp	 $LN1@PTR_AimTra
$LN30@PTR_AimTra:

; 2784 : 		}
; 2785 : 
; 2786 : 		lastz = FixedMul(aimslope, dist) + shootz;

  003a7	8b 45 e8	 mov	 eax, DWORD PTR _dist$[ebp]
  003aa	50		 push	 eax
  003ab	8b 0d 00 00 00
	00		 mov	 ecx, DWORD PTR _aimslope
  003b1	51		 push	 ecx
  003b2	e8 00 00 00 00	 call	 _FixedMul
  003b7	83 c4 08	 add	 esp, 8
  003ba	03 05 00 00 00
	00		 add	 eax, DWORD PTR _shootz
  003c0	a3 00 00 00 00	 mov	 DWORD PTR _lastz, eax

; 2787 : 
; 2788 : 		return true; // shot continues

  003c5	b8 01 00 00 00	 mov	 eax, 1
  003ca	e9 ae 01 00 00	 jmp	 $LN1@PTR_AimTra
$LN8@PTR_AimTra:

; 2789 : 	}
; 2790 : 
; 2791 : 	// shoot a thing
; 2792 : 	th = in->d.thing;

  003cf	8b 45 08	 mov	 eax, DWORD PTR _in$[ebp]
  003d2	8b 48 08	 mov	 ecx, DWORD PTR [eax+8]
  003d5	89 4d f8	 mov	 DWORD PTR _th$[ebp], ecx

; 2793 : 	if (th == shootthing)

  003d8	8b 45 f8	 mov	 eax, DWORD PTR _th$[ebp]
  003db	3b 05 00 00 00
	00		 cmp	 eax, DWORD PTR _shootthing
  003e1	75 0a		 jne	 SHORT $LN33@PTR_AimTra

; 2794 : 		return true; // can't shoot self

  003e3	b8 01 00 00 00	 mov	 eax, 1
  003e8	e9 90 01 00 00	 jmp	 $LN1@PTR_AimTra
$LN33@PTR_AimTra:

; 2795 : 
; 2796 : 	if (!(th->flags & MF_SHOOTABLE))

  003ed	8b 45 f8	 mov	 eax, DWORD PTR _th$[ebp]
  003f0	8b 48 60	 mov	 ecx, DWORD PTR [eax+96]
  003f3	83 e1 04	 and	 ecx, 4
  003f6	75 0a		 jne	 SHORT $LN34@PTR_AimTra

; 2797 : 		return true; // corpse or something

  003f8	b8 01 00 00 00	 mov	 eax, 1
  003fd	e9 7b 01 00 00	 jmp	 $LN1@PTR_AimTra
$LN34@PTR_AimTra:

; 2798 : 
; 2799 : 	// friends don't autoaim at friends
; 2800 : 	if (aim_nofriends
; 2801 : 		&& th->player
; 2802 : 		&& (((gametype == GT_CTF || (gametype == GT_MATCH && cv_matchtype.value)) && th->player->ctfteam == aim_nofriends)

  00402	83 3d 00 00 00
	00 00		 cmp	 DWORD PTR _aim_nofriends, 0
  00409	74 57		 je	 SHORT $LN35@PTR_AimTra
  0040b	8b 45 f8	 mov	 eax, DWORD PTR _th$[ebp]
  0040e	83 b8 a4 00 00
	00 00		 cmp	 DWORD PTR [eax+164], 0
  00415	74 4b		 je	 SHORT $LN35@PTR_AimTra
  00417	0f bf 05 00 00
	00 00		 movsx	 eax, WORD PTR _gametype
  0041e	83 f8 04	 cmp	 eax, 4
  00421	74 15		 je	 SHORT $LN38@PTR_AimTra
  00423	0f bf 05 00 00
	00 00		 movsx	 eax, WORD PTR _gametype
  0042a	83 f8 01	 cmp	 eax, 1
  0042d	75 20		 jne	 SHORT $LN37@PTR_AimTra
  0042f	83 3d 14 00 00
	00 00		 cmp	 DWORD PTR _cv_matchtype+20, 0
  00436	74 17		 je	 SHORT $LN37@PTR_AimTra
$LN38@PTR_AimTra:
  00438	8b 45 f8	 mov	 eax, DWORD PTR _th$[ebp]
  0043b	8b 88 a4 00 00
	00		 mov	 ecx, DWORD PTR [eax+164]
  00441	8b 91 60 01 00
	00		 mov	 edx, DWORD PTR [ecx+352]
  00447	3b 15 00 00 00
	00		 cmp	 edx, DWORD PTR _aim_nofriends
  0044d	74 09		 je	 SHORT $LN36@PTR_AimTra
$LN37@PTR_AimTra:
  0044f	83 3d 00 00 00
	00 ff		 cmp	 DWORD PTR _aim_nofriends, -1
  00456	75 0a		 jne	 SHORT $LN35@PTR_AimTra
$LN36@PTR_AimTra:

; 2803 : 		|| aim_nofriends == -1))
; 2804 : 		return true;

  00458	b8 01 00 00 00	 mov	 eax, 1
  0045d	e9 1b 01 00 00	 jmp	 $LN1@PTR_AimTra
$LN35@PTR_AimTra:

; 2805 : 
; 2806 : 	if (th->flags & MF_MONITOR)

  00462	8b 45 f8	 mov	 eax, DWORD PTR _th$[ebp]
  00465	8b 48 60	 mov	 ecx, DWORD PTR [eax+96]
  00468	81 e1 00 00 10
	00		 and	 ecx, 1048576		; 00100000H
  0046e	74 0a		 je	 SHORT $LN39@PTR_AimTra

; 2807 : 		return true; // don't autoaim at monitors

  00470	b8 01 00 00 00	 mov	 eax, 1
  00475	e9 03 01 00 00	 jmp	 $LN1@PTR_AimTra
$LN39@PTR_AimTra:

; 2808 : 
; 2809 : 	if (th->type == MT_THROWNGRENADE)

  0047a	8b 45 f8	 mov	 eax, DWORD PTR _th$[ebp]
  0047d	81 78 7c e0 00
	00 00		 cmp	 DWORD PTR [eax+124], 224 ; 000000e0H
  00484	75 0a		 jne	 SHORT $LN40@PTR_AimTra

; 2810 : 		return true; // don't autoaim at grenades

  00486	b8 01 00 00 00	 mov	 eax, 1
  0048b	e9 ed 00 00 00	 jmp	 $LN1@PTR_AimTra
$LN40@PTR_AimTra:

; 2811 : 
; 2812 : 	if (netgame && th->player && th->player->spectator)

  00490	83 3d 00 00 00
	00 00		 cmp	 DWORD PTR _netgame, 0
  00497	74 2a		 je	 SHORT $LN41@PTR_AimTra
  00499	8b 45 f8	 mov	 eax, DWORD PTR _th$[ebp]
  0049c	83 b8 a4 00 00
	00 00		 cmp	 DWORD PTR [eax+164], 0
  004a3	74 1e		 je	 SHORT $LN41@PTR_AimTra
  004a5	8b 45 f8	 mov	 eax, DWORD PTR _th$[ebp]
  004a8	8b 88 a4 00 00
	00		 mov	 ecx, DWORD PTR [eax+164]
  004ae	0f b6 91 f0 01
	00 00		 movzx	 edx, BYTE PTR [ecx+496]
  004b5	85 d2		 test	 edx, edx
  004b7	74 0a		 je	 SHORT $LN41@PTR_AimTra

; 2813 : 		return true; // don't autoaim at spectators

  004b9	b8 01 00 00 00	 mov	 eax, 1
  004be	e9 ba 00 00 00	 jmp	 $LN1@PTR_AimTra
$LN41@PTR_AimTra:

; 2814 : 
; 2815 : 	// check angles to see if the thing can be aimed at
; 2816 : 	dist = FixedMul(attackrange, in->frac);

  004c3	8b 45 08	 mov	 eax, DWORD PTR _in$[ebp]
  004c6	8b 08		 mov	 ecx, DWORD PTR [eax]
  004c8	51		 push	 ecx
  004c9	8b 15 00 00 00
	00		 mov	 edx, DWORD PTR _attackrange
  004cf	52		 push	 edx
  004d0	e8 00 00 00 00	 call	 _FixedMul
  004d5	83 c4 08	 add	 esp, 8
  004d8	89 45 e8	 mov	 DWORD PTR _dist$[ebp], eax

; 2817 : 	thingtopslope = FixedDiv(th->z+th->height - shootz, dist);

  004db	8b 45 e8	 mov	 eax, DWORD PTR _dist$[ebp]
  004de	50		 push	 eax
  004df	8b 4d f8	 mov	 ecx, DWORD PTR _th$[ebp]
  004e2	8b 51 18	 mov	 edx, DWORD PTR [ecx+24]
  004e5	8b 45 f8	 mov	 eax, DWORD PTR _th$[ebp]
  004e8	03 50 44	 add	 edx, DWORD PTR [eax+68]
  004eb	2b 15 00 00 00
	00		 sub	 edx, DWORD PTR _shootz
  004f1	52		 push	 edx
  004f2	e8 00 00 00 00	 call	 _FixedDiv
  004f7	83 c4 08	 add	 esp, 8
  004fa	89 45 f0	 mov	 DWORD PTR _thingtopslope$[ebp], eax

; 2818 : 
; 2819 : 	//added : 15-02-98: bottomslope is negative!
; 2820 : 	if (thingtopslope < bottomslope)

  004fd	8b 45 f0	 mov	 eax, DWORD PTR _thingtopslope$[ebp]
  00500	3b 05 00 00 00
	00		 cmp	 eax, DWORD PTR _bottomslope
  00506	7d 07		 jge	 SHORT $LN42@PTR_AimTra

; 2821 : 		return true; // shot over the thing

  00508	b8 01 00 00 00	 mov	 eax, 1
  0050d	eb 6e		 jmp	 SHORT $LN1@PTR_AimTra
$LN42@PTR_AimTra:

; 2822 : 
; 2823 : 	thingbottomslope = FixedDiv(th->z - shootz, dist);

  0050f	8b 45 e8	 mov	 eax, DWORD PTR _dist$[ebp]
  00512	50		 push	 eax
  00513	8b 4d f8	 mov	 ecx, DWORD PTR _th$[ebp]
  00516	8b 51 18	 mov	 edx, DWORD PTR [ecx+24]
  00519	2b 15 00 00 00
	00		 sub	 edx, DWORD PTR _shootz
  0051f	52		 push	 edx
  00520	e8 00 00 00 00	 call	 _FixedDiv
  00525	83 c4 08	 add	 esp, 8
  00528	89 45 ec	 mov	 DWORD PTR _thingbottomslope$[ebp], eax

; 2824 : 
; 2825 : 	if (thingbottomslope > topslope)

  0052b	8b 45 ec	 mov	 eax, DWORD PTR _thingbottomslope$[ebp]
  0052e	3b 05 00 00 00
	00		 cmp	 eax, DWORD PTR _topslope
  00534	7e 07		 jle	 SHORT $LN43@PTR_AimTra

; 2826 : 		return true; // shot under the thing

  00536	b8 01 00 00 00	 mov	 eax, 1
  0053b	eb 40		 jmp	 SHORT $LN1@PTR_AimTra
$LN43@PTR_AimTra:

; 2827 : 
; 2828 : 	// this thing can be hit!
; 2829 : 	if (thingtopslope > topslope)

  0053d	8b 45 f0	 mov	 eax, DWORD PTR _thingtopslope$[ebp]
  00540	3b 05 00 00 00
	00		 cmp	 eax, DWORD PTR _topslope
  00546	7e 08		 jle	 SHORT $LN44@PTR_AimTra

; 2830 : 		thingtopslope = topslope;

  00548	a1 00 00 00 00	 mov	 eax, DWORD PTR _topslope
  0054d	89 45 f0	 mov	 DWORD PTR _thingtopslope$[ebp], eax
$LN44@PTR_AimTra:

; 2831 : 
; 2832 : 	if (thingbottomslope < bottomslope)

  00550	8b 45 ec	 mov	 eax, DWORD PTR _thingbottomslope$[ebp]
  00553	3b 05 00 00 00
	00		 cmp	 eax, DWORD PTR _bottomslope
  00559	7d 08		 jge	 SHORT $LN45@PTR_AimTra

; 2833 : 		thingbottomslope = bottomslope;

  0055b	a1 00 00 00 00	 mov	 eax, DWORD PTR _bottomslope
  00560	89 45 ec	 mov	 DWORD PTR _thingbottomslope$[ebp], eax
$LN45@PTR_AimTra:

; 2834 : 
; 2835 : 	//added : 15-02-98: find the slope just in the middle(y) of the thing!
; 2836 : 	aimslope = (thingtopslope + thingbottomslope)/2;

  00563	8b 45 f0	 mov	 eax, DWORD PTR _thingtopslope$[ebp]
  00566	03 45 ec	 add	 eax, DWORD PTR _thingbottomslope$[ebp]
  00569	99		 cdq
  0056a	2b c2		 sub	 eax, edx
  0056c	d1 f8		 sar	 eax, 1
  0056e	a3 00 00 00 00	 mov	 DWORD PTR _aimslope, eax

; 2837 : 	linetarget = th;

  00573	8b 45 f8	 mov	 eax, DWORD PTR _th$[ebp]
  00576	a3 00 00 00 00	 mov	 DWORD PTR _linetarget, eax

; 2838 : 
; 2839 : 	return false; // don't go any farther

  0057b	33 c0		 xor	 eax, eax
$LN1@PTR_AimTra:

; 2840 : }

  0057d	5f		 pop	 edi
  0057e	5e		 pop	 esi
  0057f	5b		 pop	 ebx
  00580	8b e5		 mov	 esp, ebp
  00582	5d		 pop	 ebp
  00583	c3		 ret	 0
_PTR_AimTraverse ENDP
_TEXT	ENDS
; Function compile flags: /Odtp /ZI
; File C:\Users\RafaTheFox\Downloads\SRB2-Public-master\src\p_map.c
;	COMDAT _PTR_SlideTraverse
_TEXT	SEGMENT
tv275 = -108						; size = 4
_whichside$1 = -40					; size = 4
_climbline$2 = -36					; size = 4
_climbangle$3 = -32					; size = 4
_linenum$4 = -28					; size = 4
_side$5 = -24						; size = 4
_fofline$6 = -20					; size = 4
_rover$7 = -16						; size = 4
_checksector$8 = -12					; size = 4
_checkline$9 = -8					; size = 4
_li$ = -4						; size = 4
_in$ = 8						; size = 4
_PTR_SlideTraverse PROC					; COMDAT

; 2170 : {

  00000	55		 push	 ebp
  00001	8b ec		 mov	 ebp, esp
  00003	83 ec 6c	 sub	 esp, 108		; 0000006cH
  00006	53		 push	 ebx
  00007	56		 push	 esi
  00008	57		 push	 edi

; 2171 : 	line_t *li;
; 2172 : 
; 2173 : 	I_Assert(in->isaline);
; 2174 : 
; 2175 : 	li = in->d.line;

  00009	8b 45 08	 mov	 eax, DWORD PTR _in$[ebp]
  0000c	8b 48 08	 mov	 ecx, DWORD PTR [eax+8]
  0000f	89 4d fc	 mov	 DWORD PTR _li$[ebp], ecx

; 2176 : 
; 2177 : 	if (!(li->flags & ML_TWOSIDED))

  00012	8b 45 fc	 mov	 eax, DWORD PTR _li$[ebp]
  00015	0f bf 48 10	 movsx	 ecx, WORD PTR [eax+16]
  00019	83 e1 04	 and	 ecx, 4
  0001c	75 32		 jne	 SHORT $LN5@PTR_SlideT

; 2178 : 	{
; 2179 : 		if (P_PointOnLineSide(slidemo->x, slidemo->y, li))

  0001e	8b 45 fc	 mov	 eax, DWORD PTR _li$[ebp]
  00021	50		 push	 eax
  00022	8b 0d 00 00 00
	00		 mov	 ecx, DWORD PTR _slidemo
  00028	8b 51 14	 mov	 edx, DWORD PTR [ecx+20]
  0002b	52		 push	 edx
  0002c	a1 00 00 00 00	 mov	 eax, DWORD PTR _slidemo
  00031	8b 48 10	 mov	 ecx, DWORD PTR [eax+16]
  00034	51		 push	 ecx
  00035	e8 00 00 00 00	 call	 _P_PointOnLineSide
  0003a	83 c4 0c	 add	 esp, 12			; 0000000cH
  0003d	85 c0		 test	 eax, eax
  0003f	74 0a		 je	 SHORT $LN6@PTR_SlideT

; 2180 : 			return true; // don't hit the back side

  00041	b8 01 00 00 00	 mov	 eax, 1
  00046	e9 53 06 00 00	 jmp	 $LN1@PTR_SlideT
$LN6@PTR_SlideT:

; 2181 : 		goto isblocking;

  0004b	e9 83 00 00 00	 jmp	 $isblocking$39
$LN5@PTR_SlideT:

; 2182 : 	}
; 2183 : 
; 2184 : 	// set openrange, opentop, openbottom
; 2185 : 	P_LineOpening(li);

  00050	8b 45 fc	 mov	 eax, DWORD PTR _li$[ebp]
  00053	50		 push	 eax
  00054	e8 00 00 00 00	 call	 _P_LineOpening
  00059	83 c4 04	 add	 esp, 4

; 2186 : 
; 2187 : 	if (openrange < slidemo->height)

  0005c	a1 00 00 00 00	 mov	 eax, DWORD PTR _slidemo
  00061	8b 0d 00 00 00
	00		 mov	 ecx, DWORD PTR _openrange
  00067	3b 48 44	 cmp	 ecx, DWORD PTR [eax+68]
  0006a	7d 02		 jge	 SHORT $LN7@PTR_SlideT

; 2188 : 		goto isblocking; // doesn't fit

  0006c	eb 65		 jmp	 SHORT $isblocking$39
$LN7@PTR_SlideT:

; 2189 : 
; 2190 : 	if (opentop - slidemo->z < slidemo->height)

  0006e	a1 00 00 00 00	 mov	 eax, DWORD PTR _slidemo
  00073	8b 0d 00 00 00
	00		 mov	 ecx, DWORD PTR _opentop
  00079	2b 48 18	 sub	 ecx, DWORD PTR [eax+24]
  0007c	8b 15 00 00 00
	00		 mov	 edx, DWORD PTR _slidemo
  00082	3b 4a 44	 cmp	 ecx, DWORD PTR [edx+68]
  00085	7d 02		 jge	 SHORT $LN8@PTR_SlideT

; 2191 : 		goto isblocking; // mobj is too high

  00087	eb 4a		 jmp	 SHORT $isblocking$39
$LN8@PTR_SlideT:

; 2192 : 
; 2193 : 	if (openbottom - slidemo->z > FIXEDSCALE(MAXSTEPMOVE, slidemo->scale))

  00089	a1 00 00 00 00	 mov	 eax, DWORD PTR _slidemo
  0008e	8b 35 00 00 00
	00		 mov	 esi, DWORD PTR _openbottom
  00094	2b 70 18	 sub	 esi, DWORD PTR [eax+24]
  00097	68 00 00 18 00	 push	 1572864			; 00180000H
  0009c	68 00 00 64 00	 push	 6553600			; 00640000H
  000a1	8b 0d 00 00 00
	00		 mov	 ecx, DWORD PTR _slidemo
  000a7	0f b7 91 cc 00
	00 00		 movzx	 edx, WORD PTR [ecx+204]
  000ae	c1 e2 10	 shl	 edx, 16			; 00000010H
  000b1	52		 push	 edx
  000b2	e8 00 00 00 00	 call	 _FixedDiv
  000b7	83 c4 08	 add	 esp, 8
  000ba	50		 push	 eax
  000bb	e8 00 00 00 00	 call	 _FixedMul
  000c0	83 c4 08	 add	 esp, 8
  000c3	3b f0		 cmp	 esi, eax
  000c5	7e 02		 jle	 SHORT $LN9@PTR_SlideT

; 2194 : 		goto isblocking; // too big a step up

  000c7	eb 0a		 jmp	 SHORT $isblocking$39
$LN9@PTR_SlideT:

; 2195 : 
; 2196 : 	// this line doesn't block movement
; 2197 : 	return true;

  000c9	b8 01 00 00 00	 mov	 eax, 1
  000ce	e9 cb 05 00 00	 jmp	 $LN1@PTR_SlideT
$isblocking$39:

; 2198 : 
; 2199 : 	// the line does block movement,
; 2200 : 	// see if it is closer than best so far
; 2201 : isblocking:
; 2202 : 	if (li->polyobj && slidemo->player)

  000d3	8b 45 fc	 mov	 eax, DWORD PTR _li$[ebp]
  000d6	83 78 48 00	 cmp	 DWORD PTR [eax+72], 0
  000da	74 7d		 je	 SHORT $LN11@PTR_SlideT
  000dc	a1 00 00 00 00	 mov	 eax, DWORD PTR _slidemo
  000e1	83 b8 a4 00 00
	00 00		 cmp	 DWORD PTR [eax+164], 0
  000e8	74 6f		 je	 SHORT $LN11@PTR_SlideT

; 2203 : 	{
; 2204 : 		if ((li->polyobj->lines[0]->backsector->flags & SF_TRIGGERSPECIAL_TOUCH) && !(li->polyobj->flags & POF_NOSPECIALS))

  000ea	8b 45 fc	 mov	 eax, DWORD PTR _li$[ebp]
  000ed	8b 48 48	 mov	 ecx, DWORD PTR [eax+72]
  000f0	ba 04 00 00 00	 mov	 edx, 4
  000f5	6b c2 00	 imul	 eax, edx, 0
  000f8	8b 49 40	 mov	 ecx, DWORD PTR [ecx+64]
  000fb	8b 14 01	 mov	 edx, DWORD PTR [ecx+eax]
  000fe	8b 42 34	 mov	 eax, DWORD PTR [edx+52]
  00101	8b 88 e0 00 00
	00		 mov	 ecx, DWORD PTR [eax+224]
  00107	83 e1 04	 and	 ecx, 4
  0010a	74 4d		 je	 SHORT $LN11@PTR_SlideT
  0010c	8b 45 fc	 mov	 eax, DWORD PTR _li$[ebp]
  0010f	8b 48 48	 mov	 ecx, DWORD PTR [eax+72]
  00112	8b 91 98 00 00
	00		 mov	 edx, DWORD PTR [ecx+152]
  00118	81 e2 00 10 00
	00		 and	 edx, 4096		; 00001000H
  0011e	75 39		 jne	 SHORT $LN11@PTR_SlideT

; 2205 : 			P_ProcessSpecialSector(slidemo->player, slidemo->subsector->sector, li->polyobj->lines[0]->backsector);

  00120	8b 45 fc	 mov	 eax, DWORD PTR _li$[ebp]
  00123	8b 48 48	 mov	 ecx, DWORD PTR [eax+72]
  00126	ba 04 00 00 00	 mov	 edx, 4
  0012b	6b c2 00	 imul	 eax, edx, 0
  0012e	8b 49 40	 mov	 ecx, DWORD PTR [ecx+64]
  00131	8b 14 01	 mov	 edx, DWORD PTR [ecx+eax]
  00134	8b 42 34	 mov	 eax, DWORD PTR [edx+52]
  00137	50		 push	 eax
  00138	8b 0d 00 00 00
	00		 mov	 ecx, DWORD PTR _slidemo
  0013e	8b 51 34	 mov	 edx, DWORD PTR [ecx+52]
  00141	8b 02		 mov	 eax, DWORD PTR [edx]
  00143	50		 push	 eax
  00144	8b 0d 00 00 00
	00		 mov	 ecx, DWORD PTR _slidemo
  0014a	8b 91 a4 00 00
	00		 mov	 edx, DWORD PTR [ecx+164]
  00150	52		 push	 edx
  00151	e8 00 00 00 00	 call	 _P_ProcessSpecialSector
  00156	83 c4 0c	 add	 esp, 12			; 0000000cH
$LN11@PTR_SlideT:

; 2206 : 	}
; 2207 : 
; 2208 : 	if (slidemo->player && ((slidemo->player->pflags & PF_GLIDING) || slidemo->player->climbing)
; 2209 : 		&& (slidemo->player->charability == CA_GLIDEANDCLIMB))

  00159	a1 00 00 00 00	 mov	 eax, DWORD PTR _slidemo
  0015e	83 b8 a4 00 00
	00 00		 cmp	 DWORD PTR [eax+164], 0
  00165	0f 84 db 04 00
	00		 je	 $LN24@PTR_SlideT
  0016b	a1 00 00 00 00	 mov	 eax, DWORD PTR _slidemo
  00170	8b 88 a4 00 00
	00		 mov	 ecx, DWORD PTR [eax+164]
  00176	8b 91 ac 00 00
	00		 mov	 edx, DWORD PTR [ecx+172]
  0017c	81 e2 00 00 01
	00		 and	 edx, 65536		; 00010000H
  00182	75 18		 jne	 SHORT $LN13@PTR_SlideT
  00184	a1 00 00 00 00	 mov	 eax, DWORD PTR _slidemo
  00189	8b 88 a4 00 00
	00		 mov	 ecx, DWORD PTR [eax+164]
  0018f	83 b9 24 01 00
	00 00		 cmp	 DWORD PTR [ecx+292], 0
  00196	0f 84 aa 04 00
	00		 je	 $LN24@PTR_SlideT
$LN13@PTR_SlideT:
  0019c	a1 00 00 00 00	 mov	 eax, DWORD PTR _slidemo
  001a1	8b 88 a4 00 00
	00		 mov	 ecx, DWORD PTR [eax+164]
  001a7	83 b9 d8 00 00
	00 02		 cmp	 DWORD PTR [ecx+216], 2
  001ae	0f 85 92 04 00
	00		 jne	 $LN24@PTR_SlideT

; 2210 : 	{
; 2211 : 		line_t *checkline = li;

  001b4	8b 45 fc	 mov	 eax, DWORD PTR _li$[ebp]
  001b7	89 45 f8	 mov	 DWORD PTR _checkline$9[ebp], eax

; 2212 : 		sector_t *checksector;
; 2213 : 		ffloor_t *rover;
; 2214 : 		boolean fofline = false;

  001ba	c7 45 ec 00 00
	00 00		 mov	 DWORD PTR _fofline$6[ebp], 0

; 2215 : 		INT32 side = P_PointOnLineSide(slidemo->x, slidemo->y, li);

  001c1	8b 45 fc	 mov	 eax, DWORD PTR _li$[ebp]
  001c4	50		 push	 eax
  001c5	8b 0d 00 00 00
	00		 mov	 ecx, DWORD PTR _slidemo
  001cb	8b 51 14	 mov	 edx, DWORD PTR [ecx+20]
  001ce	52		 push	 edx
  001cf	a1 00 00 00 00	 mov	 eax, DWORD PTR _slidemo
  001d4	8b 48 10	 mov	 ecx, DWORD PTR [eax+16]
  001d7	51		 push	 ecx
  001d8	e8 00 00 00 00	 call	 _P_PointOnLineSide
  001dd	83 c4 0c	 add	 esp, 12			; 0000000cH
  001e0	89 45 e8	 mov	 DWORD PTR _side$5[ebp], eax

; 2216 : 
; 2217 : 		if (!side && li->backsector)

  001e3	83 7d e8 00	 cmp	 DWORD PTR _side$5[ebp], 0
  001e7	75 14		 jne	 SHORT $LN14@PTR_SlideT
  001e9	8b 45 fc	 mov	 eax, DWORD PTR _li$[ebp]
  001ec	83 78 34 00	 cmp	 DWORD PTR [eax+52], 0
  001f0	74 0b		 je	 SHORT $LN14@PTR_SlideT

; 2218 : 			checksector = li->backsector;

  001f2	8b 45 fc	 mov	 eax, DWORD PTR _li$[ebp]
  001f5	8b 48 34	 mov	 ecx, DWORD PTR [eax+52]
  001f8	89 4d f4	 mov	 DWORD PTR _checksector$8[ebp], ecx
  001fb	eb 09		 jmp	 SHORT $LN15@PTR_SlideT
$LN14@PTR_SlideT:

; 2219 : 		else
; 2220 : 			checksector = li->frontsector;

  001fd	8b 45 fc	 mov	 eax, DWORD PTR _li$[ebp]
  00200	8b 48 30	 mov	 ecx, DWORD PTR [eax+48]
  00203	89 4d f4	 mov	 DWORD PTR _checksector$8[ebp], ecx
$LN15@PTR_SlideT:

; 2221 : 
; 2222 : 		if (checksector->ffloors)

  00206	8b 45 f4	 mov	 eax, DWORD PTR _checksector$8[ebp]
  00209	83 b8 90 00 00
	00 00		 cmp	 DWORD PTR [eax+144], 0
  00210	0f 84 de 00 00
	00		 je	 $LN3@PTR_SlideT

; 2223 : 		{
; 2224 : 			for (rover = checksector->ffloors; rover; rover = rover->next)

  00216	8b 45 f4	 mov	 eax, DWORD PTR _checksector$8[ebp]
  00219	8b 88 90 00 00
	00		 mov	 ecx, DWORD PTR [eax+144]
  0021f	89 4d f0	 mov	 DWORD PTR _rover$7[ebp], ecx
  00222	eb 09		 jmp	 SHORT $LN4@PTR_SlideT
$LN2@PTR_SlideT:
  00224	8b 45 f0	 mov	 eax, DWORD PTR _rover$7[ebp]
  00227	8b 48 40	 mov	 ecx, DWORD PTR [eax+64]
  0022a	89 4d f0	 mov	 DWORD PTR _rover$7[ebp], ecx
$LN4@PTR_SlideT:
  0022d	83 7d f0 00	 cmp	 DWORD PTR _rover$7[ebp], 0
  00231	0f 84 bd 00 00
	00		 je	 $LN3@PTR_SlideT

; 2225 : 			{
; 2226 : 				if (!(rover->flags & FF_EXISTS) || !(rover->flags & FF_BLOCKPLAYER) || (rover->flags & FF_BUSTUP))

  00237	8b 45 f0	 mov	 eax, DWORD PTR _rover$7[ebp]
  0023a	8b 48 34	 mov	 ecx, DWORD PTR [eax+52]
  0023d	83 e1 01	 and	 ecx, 1
  00240	74 19		 je	 SHORT $LN18@PTR_SlideT
  00242	8b 45 f0	 mov	 eax, DWORD PTR _rover$7[ebp]
  00245	8b 48 34	 mov	 ecx, DWORD PTR [eax+52]
  00248	83 e1 02	 and	 ecx, 2
  0024b	74 0e		 je	 SHORT $LN18@PTR_SlideT
  0024d	8b 45 f0	 mov	 eax, DWORD PTR _rover$7[ebp]
  00250	8b 48 34	 mov	 ecx, DWORD PTR [eax+52]
  00253	81 e1 00 00 80
	00		 and	 ecx, 8388608		; 00800000H
  00259	74 02		 je	 SHORT $LN17@PTR_SlideT
$LN18@PTR_SlideT:

; 2227 : 					continue;

  0025b	eb c7		 jmp	 SHORT $LN2@PTR_SlideT
$LN17@PTR_SlideT:

; 2228 : 
; 2229 : 				if (*rover->topheight < slidemo->z)

  0025d	8b 45 f0	 mov	 eax, DWORD PTR _rover$7[ebp]
  00260	8b 08		 mov	 ecx, DWORD PTR [eax]
  00262	8b 15 00 00 00
	00		 mov	 edx, DWORD PTR _slidemo
  00268	8b 01		 mov	 eax, DWORD PTR [ecx]
  0026a	3b 42 18	 cmp	 eax, DWORD PTR [edx+24]
  0026d	7d 02		 jge	 SHORT $LN19@PTR_SlideT

; 2230 : 					continue;

  0026f	eb b3		 jmp	 SHORT $LN2@PTR_SlideT
$LN19@PTR_SlideT:

; 2231 : 
; 2232 : 				if (*rover->bottomheight > slidemo->z + slidemo->height)

  00271	8b 45 f0	 mov	 eax, DWORD PTR _rover$7[ebp]
  00274	8b 48 18	 mov	 ecx, DWORD PTR [eax+24]
  00277	8b 15 00 00 00
	00		 mov	 edx, DWORD PTR _slidemo
  0027d	8b 42 18	 mov	 eax, DWORD PTR [edx+24]
  00280	8b 15 00 00 00
	00		 mov	 edx, DWORD PTR _slidemo
  00286	03 42 44	 add	 eax, DWORD PTR [edx+68]
  00289	39 01		 cmp	 DWORD PTR [ecx], eax
  0028b	7e 02		 jle	 SHORT $LN20@PTR_SlideT

; 2233 : 					continue;

  0028d	eb 95		 jmp	 SHORT $LN2@PTR_SlideT
$LN20@PTR_SlideT:

; 2234 : 
; 2235 : 				// Got this far, so I guess it's climbable.
; 2236 : 				if (rover->master->flags & ML_TFERLINE)

  0028f	8b 45 f0	 mov	 eax, DWORD PTR _rover$7[ebp]
  00292	8b 48 38	 mov	 ecx, DWORD PTR [eax+56]
  00295	0f bf 51 10	 movsx	 edx, WORD PTR [ecx+16]
  00299	81 e2 00 80 00
	00		 and	 edx, 32768		; 00008000H
  0029f	74 4c		 je	 SHORT $LN21@PTR_SlideT

; 2237 : 				{
; 2238 : 					size_t linenum = li-checksector->lines[0];

  002a1	b8 04 00 00 00	 mov	 eax, 4
  002a6	6b c8 00	 imul	 ecx, eax, 0
  002a9	8b 55 f4	 mov	 edx, DWORD PTR _checksector$8[ebp]
  002ac	8b 82 8c 00 00
	00		 mov	 eax, DWORD PTR [edx+140]
  002b2	8b 55 fc	 mov	 edx, DWORD PTR _li$[ebp]
  002b5	2b 14 08	 sub	 edx, DWORD PTR [eax+ecx]
  002b8	8b c2		 mov	 eax, edx
  002ba	99		 cdq
  002bb	b9 4c 00 00 00	 mov	 ecx, 76			; 0000004cH
  002c0	f7 f9		 idiv	 ecx
  002c2	89 45 e4	 mov	 DWORD PTR _linenum$4[ebp], eax

; 2239 : 					checkline = rover->master->frontsector->lines[0] + linenum;

  002c5	8b 45 f0	 mov	 eax, DWORD PTR _rover$7[ebp]
  002c8	8b 48 38	 mov	 ecx, DWORD PTR [eax+56]
  002cb	8b 51 30	 mov	 edx, DWORD PTR [ecx+48]
  002ce	b8 04 00 00 00	 mov	 eax, 4
  002d3	6b c8 00	 imul	 ecx, eax, 0
  002d6	8b 92 8c 00 00
	00		 mov	 edx, DWORD PTR [edx+140]
  002dc	6b 45 e4 4c	 imul	 eax, DWORD PTR _linenum$4[ebp], 76
  002e0	03 04 0a	 add	 eax, DWORD PTR [edx+ecx]
  002e3	89 45 f8	 mov	 DWORD PTR _checkline$9[ebp], eax

; 2240 : 					fofline = true;

  002e6	c7 45 ec 01 00
	00 00		 mov	 DWORD PTR _fofline$6[ebp], 1
$LN21@PTR_SlideT:

; 2241 : 				}
; 2242 : 
; 2243 : 				break;

  002ed	eb 05		 jmp	 SHORT $LN3@PTR_SlideT

; 2244 : 			}

  002ef	e9 30 ff ff ff	 jmp	 $LN2@PTR_SlideT
$LN3@PTR_SlideT:

; 2245 : 		}
; 2246 : 
; 2247 : 		// see about climbing on the wall
; 2248 : 		if (!(checkline->flags & ML_NOCLIMB))

  002f4	8b 45 f8	 mov	 eax, DWORD PTR _checkline$9[ebp]
  002f7	0f bf 48 10	 movsx	 ecx, WORD PTR [eax+16]
  002fb	83 e1 40	 and	 ecx, 64			; 00000040H
  002fe	0f 85 42 03 00
	00		 jne	 $LN24@PTR_SlideT

; 2249 : 		{
; 2250 : 			angle_t climbangle, climbline = R_PointToAngle2(li->v1->x, li->v1->y, li->v2->x, li->v2->y);

  00304	8b 45 fc	 mov	 eax, DWORD PTR _li$[ebp]
  00307	8b 48 04	 mov	 ecx, DWORD PTR [eax+4]
  0030a	8b 51 04	 mov	 edx, DWORD PTR [ecx+4]
  0030d	52		 push	 edx
  0030e	8b 45 fc	 mov	 eax, DWORD PTR _li$[ebp]
  00311	8b 48 04	 mov	 ecx, DWORD PTR [eax+4]
  00314	8b 11		 mov	 edx, DWORD PTR [ecx]
  00316	52		 push	 edx
  00317	8b 45 fc	 mov	 eax, DWORD PTR _li$[ebp]
  0031a	8b 08		 mov	 ecx, DWORD PTR [eax]
  0031c	8b 51 04	 mov	 edx, DWORD PTR [ecx+4]
  0031f	52		 push	 edx
  00320	8b 45 fc	 mov	 eax, DWORD PTR _li$[ebp]
  00323	8b 08		 mov	 ecx, DWORD PTR [eax]
  00325	8b 11		 mov	 edx, DWORD PTR [ecx]
  00327	52		 push	 edx
  00328	e8 00 00 00 00	 call	 _R_PointToAngle2
  0032d	83 c4 10	 add	 esp, 16			; 00000010H
  00330	89 45 dc	 mov	 DWORD PTR _climbline$2[ebp], eax

; 2251 : 			INT32 whichside = P_PointOnLineSide(slidemo->x, slidemo->y, li);

  00333	8b 45 fc	 mov	 eax, DWORD PTR _li$[ebp]
  00336	50		 push	 eax
  00337	8b 0d 00 00 00
	00		 mov	 ecx, DWORD PTR _slidemo
  0033d	8b 51 14	 mov	 edx, DWORD PTR [ecx+20]
  00340	52		 push	 edx
  00341	a1 00 00 00 00	 mov	 eax, DWORD PTR _slidemo
  00346	8b 48 10	 mov	 ecx, DWORD PTR [eax+16]
  00349	51		 push	 ecx
  0034a	e8 00 00 00 00	 call	 _P_PointOnLineSide
  0034f	83 c4 0c	 add	 esp, 12			; 0000000cH
  00352	89 45 d8	 mov	 DWORD PTR _whichside$1[ebp], eax

; 2252 : 
; 2253 : 			if (whichside) // on second side?

  00355	83 7d d8 00	 cmp	 DWORD PTR _whichside$1[ebp], 0
  00359	74 0b		 je	 SHORT $LN23@PTR_SlideT

; 2254 : 				climbline += ANGLE_180;

  0035b	8b 45 dc	 mov	 eax, DWORD PTR _climbline$2[ebp]
  0035e	2d 00 00 00 80	 sub	 eax, -2147483648	; 80000000H
  00363	89 45 dc	 mov	 DWORD PTR _climbline$2[ebp], eax
$LN23@PTR_SlideT:

; 2255 : 
; 2256 : 			if (((!slidemo->player->climbing
; 2257 : 				&& abs(slidemo->angle - ANGLE_90 - climbline) < ANGLE_45) ||
; 2258 : 
; 2259 : 				(slidemo->player->climbing == 1
; 2260 : 				&& abs(slidemo->angle - climbline) < ANGLE_135))
; 2261 : 
; 2262 : 				&& P_IsClimbingValid(slidemo->player, climbangle =

  00366	a1 00 00 00 00	 mov	 eax, DWORD PTR _slidemo
  0036b	8b 88 a4 00 00
	00		 mov	 ecx, DWORD PTR [eax+164]
  00371	83 b9 24 01 00
	00 00		 cmp	 DWORD PTR [ecx+292], 0
  00378	75 21		 jne	 SHORT $LN26@PTR_SlideT
  0037a	a1 00 00 00 00	 mov	 eax, DWORD PTR _slidemo
  0037f	8b 48 24	 mov	 ecx, DWORD PTR [eax+36]
  00382	81 e9 00 00 00
	40		 sub	 ecx, 1073741824		; 40000000H
  00388	2b 4d dc	 sub	 ecx, DWORD PTR _climbline$2[ebp]
  0038b	51		 push	 ecx
  0038c	e8 00 00 00 00	 call	 _abs
  00391	83 c4 04	 add	 esp, 4
  00394	3d 00 00 00 20	 cmp	 eax, 536870912		; 20000000H
  00399	7c 37		 jl	 SHORT $LN25@PTR_SlideT
$LN26@PTR_SlideT:
  0039b	a1 00 00 00 00	 mov	 eax, DWORD PTR _slidemo
  003a0	8b 88 a4 00 00
	00		 mov	 ecx, DWORD PTR [eax+164]
  003a6	83 b9 24 01 00
	00 01		 cmp	 DWORD PTR [ecx+292], 1
  003ad	0f 85 93 02 00
	00		 jne	 $LN24@PTR_SlideT
  003b3	a1 00 00 00 00	 mov	 eax, DWORD PTR _slidemo
  003b8	8b 48 24	 mov	 ecx, DWORD PTR [eax+36]
  003bb	2b 4d dc	 sub	 ecx, DWORD PTR _climbline$2[ebp]
  003be	51		 push	 ecx
  003bf	e8 00 00 00 00	 call	 _abs
  003c4	83 c4 04	 add	 esp, 4
  003c7	3d 00 00 00 60	 cmp	 eax, 1610612736		; 60000000H
  003cc	0f 8d 74 02 00
	00		 jge	 $LN24@PTR_SlideT
$LN25@PTR_SlideT:
  003d2	83 7d d8 00	 cmp	 DWORD PTR _whichside$1[ebp], 0
  003d6	74 09		 je	 SHORT $LN37@PTR_SlideT
  003d8	c7 45 94 ff ff
	ff ff		 mov	 DWORD PTR tv275[ebp], -1
  003df	eb 07		 jmp	 SHORT $LN38@PTR_SlideT
$LN37@PTR_SlideT:
  003e1	c7 45 94 01 00
	00 00		 mov	 DWORD PTR tv275[ebp], 1
$LN38@PTR_SlideT:
  003e8	8b 45 fc	 mov	 eax, DWORD PTR _li$[ebp]
  003eb	8b 48 04	 mov	 ecx, DWORD PTR [eax+4]
  003ee	8b 51 04	 mov	 edx, DWORD PTR [ecx+4]
  003f1	52		 push	 edx
  003f2	8b 45 fc	 mov	 eax, DWORD PTR _li$[ebp]
  003f5	8b 48 04	 mov	 ecx, DWORD PTR [eax+4]
  003f8	8b 11		 mov	 edx, DWORD PTR [ecx]
  003fa	52		 push	 edx
  003fb	8b 45 fc	 mov	 eax, DWORD PTR _li$[ebp]
  003fe	8b 08		 mov	 ecx, DWORD PTR [eax]
  00400	8b 51 04	 mov	 edx, DWORD PTR [ecx+4]
  00403	52		 push	 edx
  00404	8b 45 fc	 mov	 eax, DWORD PTR _li$[ebp]
  00407	8b 08		 mov	 ecx, DWORD PTR [eax]
  00409	8b 11		 mov	 edx, DWORD PTR [ecx]
  0040b	52		 push	 edx
  0040c	e8 00 00 00 00	 call	 _R_PointToAngle2
  00411	83 c4 10	 add	 esp, 16			; 00000010H
  00414	8b 4d 94	 mov	 ecx, DWORD PTR tv275[ebp]
  00417	c1 e1 1e	 shl	 ecx, 30			; 0000001eH
  0041a	03 c1		 add	 eax, ecx
  0041c	89 45 e0	 mov	 DWORD PTR _climbangle$3[ebp], eax
  0041f	8b 55 e0	 mov	 edx, DWORD PTR _climbangle$3[ebp]
  00422	52		 push	 edx
  00423	a1 00 00 00 00	 mov	 eax, DWORD PTR _slidemo
  00428	8b 88 a4 00 00
	00		 mov	 ecx, DWORD PTR [eax+164]
  0042e	51		 push	 ecx
  0042f	e8 00 00 00 00	 call	 _P_IsClimbingValid
  00434	83 c4 08	 add	 esp, 8
  00437	85 c0		 test	 eax, eax
  00439	0f 84 07 02 00
	00		 je	 $LN24@PTR_SlideT

; 2263 : 				R_PointToAngle2(li->v1->x, li->v1->y, li->v2->x, li->v2->y)
; 2264 : 				+ (ANGLE_90 * (whichside ? -1 : 1))))
; 2265 : 			{
; 2266 : 				slidemo->angle = climbangle;

  0043f	a1 00 00 00 00	 mov	 eax, DWORD PTR _slidemo
  00444	8b 4d e0	 mov	 ecx, DWORD PTR _climbangle$3[ebp]
  00447	89 48 24	 mov	 DWORD PTR [eax+36], ecx

; 2267 : 				if (slidemo->player == &players[consoleplayer])

  0044a	69 05 00 00 00
	00 fc 01 00 00	 imul	 eax, DWORD PTR _consoleplayer, 508
  00454	05 00 00 00 00	 add	 eax, OFFSET _players
  00459	8b 0d 00 00 00
	00		 mov	 ecx, DWORD PTR _slidemo
  0045f	39 81 a4 00 00
	00		 cmp	 DWORD PTR [ecx+164], eax
  00465	75 10		 jne	 SHORT $LN27@PTR_SlideT

; 2268 : 					localangle = slidemo->angle;

  00467	a1 00 00 00 00	 mov	 eax, DWORD PTR _slidemo
  0046c	8b 48 24	 mov	 ecx, DWORD PTR [eax+36]
  0046f	89 0d 00 00 00
	00		 mov	 DWORD PTR _localangle, ecx
  00475	eb 34		 jmp	 SHORT $LN29@PTR_SlideT
$LN27@PTR_SlideT:

; 2269 : 				else if (splitscreen && slidemo->player ==

  00477	83 3d 00 00 00
	00 00		 cmp	 DWORD PTR _splitscreen, 0
  0047e	74 2b		 je	 SHORT $LN29@PTR_SlideT
  00480	69 05 00 00 00
	00 fc 01 00 00	 imul	 eax, DWORD PTR _secondarydisplayplayer, 508
  0048a	05 00 00 00 00	 add	 eax, OFFSET _players
  0048f	8b 0d 00 00 00
	00		 mov	 ecx, DWORD PTR _slidemo
  00495	39 81 a4 00 00
	00		 cmp	 DWORD PTR [ecx+164], eax
  0049b	75 0e		 jne	 SHORT $LN29@PTR_SlideT

; 2270 : 					&players[secondarydisplayplayer])
; 2271 : 				{
; 2272 : 					localangle2 = slidemo->angle;

  0049d	a1 00 00 00 00	 mov	 eax, DWORD PTR _slidemo
  004a2	8b 48 24	 mov	 ecx, DWORD PTR [eax+36]
  004a5	89 0d 00 00 00
	00		 mov	 DWORD PTR _localangle2, ecx
$LN29@PTR_SlideT:

; 2273 : 				}
; 2274 : 
; 2275 : 				if (!slidemo->player->climbing)

  004ab	a1 00 00 00 00	 mov	 eax, DWORD PTR _slidemo
  004b0	8b 88 a4 00 00
	00		 mov	 ecx, DWORD PTR [eax+164]
  004b6	83 b9 24 01 00
	00 00		 cmp	 DWORD PTR [ecx+292], 0
  004bd	75 15		 jne	 SHORT $LN30@PTR_SlideT

; 2276 : 					slidemo->player->climbing = 5;

  004bf	a1 00 00 00 00	 mov	 eax, DWORD PTR _slidemo
  004c4	8b 88 a4 00 00
	00		 mov	 ecx, DWORD PTR [eax+164]
  004ca	c7 81 24 01 00
	00 05 00 00 00	 mov	 DWORD PTR [ecx+292], 5
$LN30@PTR_SlideT:

; 2277 : 
; 2278 : 				slidemo->player->pflags &= ~PF_GLIDING;

  004d4	a1 00 00 00 00	 mov	 eax, DWORD PTR _slidemo
  004d9	8b 88 a4 00 00
	00		 mov	 ecx, DWORD PTR [eax+164]
  004df	8b 91 ac 00 00
	00		 mov	 edx, DWORD PTR [ecx+172]
  004e5	81 e2 ff ff fe
	ff		 and	 edx, -65537		; fffeffffH
  004eb	a1 00 00 00 00	 mov	 eax, DWORD PTR _slidemo
  004f0	8b 88 a4 00 00
	00		 mov	 ecx, DWORD PTR [eax+164]
  004f6	89 91 ac 00 00
	00		 mov	 DWORD PTR [ecx+172], edx

; 2279 : 				slidemo->player->pflags &= ~PF_SPINNING;

  004fc	a1 00 00 00 00	 mov	 eax, DWORD PTR _slidemo
  00501	8b 88 a4 00 00
	00		 mov	 ecx, DWORD PTR [eax+164]
  00507	8b 91 ac 00 00
	00		 mov	 edx, DWORD PTR [ecx+172]
  0050d	81 e2 ff df ff
	ff		 and	 edx, -8193		; ffffdfffH
  00513	a1 00 00 00 00	 mov	 eax, DWORD PTR _slidemo
  00518	8b 88 a4 00 00
	00		 mov	 ecx, DWORD PTR [eax+164]
  0051e	89 91 ac 00 00
	00		 mov	 DWORD PTR [ecx+172], edx

; 2280 : 				slidemo->player->pflags &= ~PF_JUMPED;

  00524	a1 00 00 00 00	 mov	 eax, DWORD PTR _slidemo
  00529	8b 88 a4 00 00
	00		 mov	 ecx, DWORD PTR [eax+164]
  0052f	8b 91 ac 00 00
	00		 mov	 edx, DWORD PTR [ecx+172]
  00535	81 e2 ff ef ff
	ff		 and	 edx, -4097		; ffffefffH
  0053b	a1 00 00 00 00	 mov	 eax, DWORD PTR _slidemo
  00540	8b 88 a4 00 00
	00		 mov	 ecx, DWORD PTR [eax+164]
  00546	89 91 ac 00 00
	00		 mov	 DWORD PTR [ecx+172], edx

; 2281 : 				slidemo->player->pflags &= ~PF_THOKKED;

  0054c	a1 00 00 00 00	 mov	 eax, DWORD PTR _slidemo
  00551	8b 88 a4 00 00
	00		 mov	 ecx, DWORD PTR [eax+164]
  00557	8b 91 ac 00 00
	00		 mov	 edx, DWORD PTR [ecx+172]
  0055d	81 e2 ff 7f ff
	ff		 and	 edx, -32769		; ffff7fffH
  00563	a1 00 00 00 00	 mov	 eax, DWORD PTR _slidemo
  00568	8b 88 a4 00 00
	00		 mov	 ecx, DWORD PTR [eax+164]
  0056e	89 91 ac 00 00
	00		 mov	 DWORD PTR [ecx+172], edx

; 2282 : 				slidemo->player->glidetime = 0;

  00574	a1 00 00 00 00	 mov	 eax, DWORD PTR _slidemo
  00579	8b 88 a4 00 00
	00		 mov	 ecx, DWORD PTR [eax+164]
  0057f	c7 81 20 01 00
	00 00 00 00 00	 mov	 DWORD PTR [ecx+288], 0

; 2283 : 				slidemo->player->secondjump = 0;

  00589	a1 00 00 00 00	 mov	 eax, DWORD PTR _slidemo
  0058e	8b 88 a4 00 00
	00		 mov	 ecx, DWORD PTR [eax+164]
  00594	c6 81 14 01 00
	00 00		 mov	 BYTE PTR [ecx+276], 0

; 2284 : 
; 2285 : 				if (slidemo->player->climbing > 1)

  0059b	a1 00 00 00 00	 mov	 eax, DWORD PTR _slidemo
  005a0	8b 88 a4 00 00
	00		 mov	 ecx, DWORD PTR [eax+164]
  005a6	83 b9 24 01 00
	00 01		 cmp	 DWORD PTR [ecx+292], 1
  005ad	7e 26		 jle	 SHORT $LN31@PTR_SlideT

; 2286 : 					slidemo->momz = slidemo->momx = slidemo->momy = 0;

  005af	a1 00 00 00 00	 mov	 eax, DWORD PTR _slidemo
  005b4	c7 40 4c 00 00
	00 00		 mov	 DWORD PTR [eax+76], 0
  005bb	8b 0d 00 00 00
	00		 mov	 ecx, DWORD PTR _slidemo
  005c1	c7 41 48 00 00
	00 00		 mov	 DWORD PTR [ecx+72], 0
  005c8	8b 15 00 00 00
	00		 mov	 edx, DWORD PTR _slidemo
  005ce	c7 42 50 00 00
	00 00		 mov	 DWORD PTR [edx+80], 0
$LN31@PTR_SlideT:

; 2287 : 
; 2288 : 				if (fofline)

  005d5	83 7d ec 00	 cmp	 DWORD PTR _fofline$6[ebp], 0
  005d9	74 07		 je	 SHORT $LN32@PTR_SlideT

; 2289 : 					whichside = 0;

  005db	c7 45 d8 00 00
	00 00		 mov	 DWORD PTR _whichside$1[ebp], 0
$LN32@PTR_SlideT:

; 2290 : 
; 2291 : 				if (!whichside)

  005e2	83 7d d8 00	 cmp	 DWORD PTR _whichside$1[ebp], 0
  005e6	75 41		 jne	 SHORT $LN33@PTR_SlideT

; 2292 : 				{
; 2293 : 					slidemo->player->lastsidehit = checkline->sidenum[whichside];

  005e8	a1 00 00 00 00	 mov	 eax, DWORD PTR _slidemo
  005ed	8b 88 a4 00 00
	00		 mov	 ecx, DWORD PTR [eax+164]
  005f3	8b 55 d8	 mov	 edx, DWORD PTR _whichside$1[ebp]
  005f6	8b 45 f8	 mov	 eax, DWORD PTR _checkline$9[ebp]
  005f9	66 8b 54 50 16	 mov	 dx, WORD PTR [eax+edx*2+22]
  005fe	66 89 91 d6 01
	00 00		 mov	 WORD PTR [ecx+470], dx

; 2294 : 					slidemo->player->lastlinehit = (INT16)(checkline - lines);

  00605	8b 45 f8	 mov	 eax, DWORD PTR _checkline$9[ebp]
  00608	2b 05 00 00 00
	00		 sub	 eax, DWORD PTR _lines
  0060e	99		 cdq
  0060f	b9 4c 00 00 00	 mov	 ecx, 76			; 0000004cH
  00614	f7 f9		 idiv	 ecx
  00616	8b 15 00 00 00
	00		 mov	 edx, DWORD PTR _slidemo
  0061c	8b 8a a4 00 00
	00		 mov	 ecx, DWORD PTR [edx+164]
  00622	66 89 81 d8 01
	00 00		 mov	 WORD PTR [ecx+472], ax
$LN33@PTR_SlideT:

; 2295 : 				}
; 2296 : 
; 2297 : 				P_Thrust(slidemo, slidemo->angle, 5*FRACUNIT);

  00629	68 00 00 05 00	 push	 327680			; 00050000H
  0062e	a1 00 00 00 00	 mov	 eax, DWORD PTR _slidemo
  00633	8b 48 24	 mov	 ecx, DWORD PTR [eax+36]
  00636	51		 push	 ecx
  00637	8b 15 00 00 00
	00		 mov	 edx, DWORD PTR _slidemo
  0063d	52		 push	 edx
  0063e	e8 00 00 00 00	 call	 _P_Thrust
  00643	83 c4 0c	 add	 esp, 12			; 0000000cH
$LN24@PTR_SlideT:

; 2298 : 			}
; 2299 : 		}
; 2300 : 	}
; 2301 : 
; 2302 : 	if (in->frac < bestslidefrac && (!slidemo->player || !slidemo->player->climbing))

  00646	8b 45 08	 mov	 eax, DWORD PTR _in$[ebp]
  00649	8b 08		 mov	 ecx, DWORD PTR [eax]
  0064b	3b 0d 00 00 00
	00		 cmp	 ecx, DWORD PTR _bestslidefrac
  00651	7d 49		 jge	 SHORT $LN34@PTR_SlideT
  00653	a1 00 00 00 00	 mov	 eax, DWORD PTR _slidemo
  00658	83 b8 a4 00 00
	00 00		 cmp	 DWORD PTR [eax+164], 0
  0065f	74 14		 je	 SHORT $LN35@PTR_SlideT
  00661	a1 00 00 00 00	 mov	 eax, DWORD PTR _slidemo
  00666	8b 88 a4 00 00
	00		 mov	 ecx, DWORD PTR [eax+164]
  0066c	83 b9 24 01 00
	00 00		 cmp	 DWORD PTR [ecx+292], 0
  00673	75 27		 jne	 SHORT $LN34@PTR_SlideT
$LN35@PTR_SlideT:

; 2303 : 	{
; 2304 : 		secondslidefrac = bestslidefrac;

  00675	a1 00 00 00 00	 mov	 eax, DWORD PTR _bestslidefrac
  0067a	a3 00 00 00 00	 mov	 DWORD PTR _secondslidefrac, eax

; 2305 : 		secondslideline = bestslideline;

  0067f	a1 00 00 00 00	 mov	 eax, DWORD PTR _bestslideline
  00684	a3 00 00 00 00	 mov	 DWORD PTR _secondslideline, eax

; 2306 : 		bestslidefrac = in->frac;

  00689	8b 45 08	 mov	 eax, DWORD PTR _in$[ebp]
  0068c	8b 08		 mov	 ecx, DWORD PTR [eax]
  0068e	89 0d 00 00 00
	00		 mov	 DWORD PTR _bestslidefrac, ecx

; 2307 : 		bestslideline = li;

  00694	8b 45 fc	 mov	 eax, DWORD PTR _li$[ebp]
  00697	a3 00 00 00 00	 mov	 DWORD PTR _bestslideline, eax
$LN34@PTR_SlideT:

; 2308 : 	}
; 2309 : 
; 2310 : 	return false; // stop

  0069c	33 c0		 xor	 eax, eax
$LN1@PTR_SlideT:

; 2311 : }

  0069e	5f		 pop	 edi
  0069f	5e		 pop	 esi
  006a0	5b		 pop	 ebx
  006a1	8b e5		 mov	 esp, ebp
  006a3	5d		 pop	 ebp
  006a4	c3		 ret	 0
_PTR_SlideTraverse ENDP
_TEXT	ENDS
; Function compile flags: /Odtp /ZI
; File C:\Users\RafaTheFox\Downloads\SRB2-Public-master\src\p_map.c
;	COMDAT _P_IsClimbingValid
_TEXT	SEGMENT
_rover$1 = -32						; size = 4
_boostup$2 = -28					; size = 4
_thrust$3 = -24						; size = 4
_floorclimb$4 = -20					; size = 4
_climb$ = -16						; size = 4
_glidesector$ = -12					; size = 4
_platy$ = -8						; size = 4
_platx$ = -4						; size = 4
_player$ = 8						; size = 4
_angle$ = 12						; size = 4
_P_IsClimbingValid PROC					; COMDAT

; 2036 : {

  00000	55		 push	 ebp
  00001	8b ec		 mov	 ebp, esp
  00003	83 ec 60	 sub	 esp, 96			; 00000060H
  00006	53		 push	 ebx
  00007	56		 push	 esi
  00008	57		 push	 edi

; 2037 : 	fixed_t platx, platy;
; 2038 : 	subsector_t *glidesector;
; 2039 : 	boolean climb = true;

  00009	c7 45 f0 01 00
	00 00		 mov	 DWORD PTR _climb$[ebp], 1

; 2040 : 
; 2041 : 	platx = P_ReturnThrustX(player->mo, angle, player->mo->radius + FIXEDSCALE(8*FRACUNIT, player->mo->scale));

  00010	8b 45 08	 mov	 eax, DWORD PTR _player$[ebp]
  00013	8b 30		 mov	 esi, DWORD PTR [eax]
  00015	68 00 00 08 00	 push	 524288			; 00080000H
  0001a	68 00 00 64 00	 push	 6553600			; 00640000H
  0001f	8b 4d 08	 mov	 ecx, DWORD PTR _player$[ebp]
  00022	8b 11		 mov	 edx, DWORD PTR [ecx]
  00024	0f b7 82 cc 00
	00 00		 movzx	 eax, WORD PTR [edx+204]
  0002b	c1 e0 10	 shl	 eax, 16			; 00000010H
  0002e	50		 push	 eax
  0002f	e8 00 00 00 00	 call	 _FixedDiv
  00034	83 c4 08	 add	 esp, 8
  00037	50		 push	 eax
  00038	e8 00 00 00 00	 call	 _FixedMul
  0003d	83 c4 08	 add	 esp, 8
  00040	03 46 40	 add	 eax, DWORD PTR [esi+64]
  00043	50		 push	 eax
  00044	8b 4d 0c	 mov	 ecx, DWORD PTR _angle$[ebp]
  00047	51		 push	 ecx
  00048	8b 55 08	 mov	 edx, DWORD PTR _player$[ebp]
  0004b	8b 02		 mov	 eax, DWORD PTR [edx]
  0004d	50		 push	 eax
  0004e	e8 00 00 00 00	 call	 _P_ReturnThrustX
  00053	83 c4 0c	 add	 esp, 12			; 0000000cH
  00056	89 45 fc	 mov	 DWORD PTR _platx$[ebp], eax

; 2042 : 	platy = P_ReturnThrustY(player->mo, angle, player->mo->radius + FIXEDSCALE(8*FRACUNIT, player->mo->scale));

  00059	8b 45 08	 mov	 eax, DWORD PTR _player$[ebp]
  0005c	8b 30		 mov	 esi, DWORD PTR [eax]
  0005e	68 00 00 08 00	 push	 524288			; 00080000H
  00063	68 00 00 64 00	 push	 6553600			; 00640000H
  00068	8b 4d 08	 mov	 ecx, DWORD PTR _player$[ebp]
  0006b	8b 11		 mov	 edx, DWORD PTR [ecx]
  0006d	0f b7 82 cc 00
	00 00		 movzx	 eax, WORD PTR [edx+204]
  00074	c1 e0 10	 shl	 eax, 16			; 00000010H
  00077	50		 push	 eax
  00078	e8 00 00 00 00	 call	 _FixedDiv
  0007d	83 c4 08	 add	 esp, 8
  00080	50		 push	 eax
  00081	e8 00 00 00 00	 call	 _FixedMul
  00086	83 c4 08	 add	 esp, 8
  00089	03 46 40	 add	 eax, DWORD PTR [esi+64]
  0008c	50		 push	 eax
  0008d	8b 4d 0c	 mov	 ecx, DWORD PTR _angle$[ebp]
  00090	51		 push	 ecx
  00091	8b 55 08	 mov	 edx, DWORD PTR _player$[ebp]
  00094	8b 02		 mov	 eax, DWORD PTR [edx]
  00096	50		 push	 eax
  00097	e8 00 00 00 00	 call	 _P_ReturnThrustY
  0009c	83 c4 0c	 add	 esp, 12			; 0000000cH
  0009f	89 45 f8	 mov	 DWORD PTR _platy$[ebp], eax

; 2043 : 
; 2044 : 	glidesector = R_PointInSubsector(player->mo->x + platx, player->mo->y + platy);

  000a2	8b 45 08	 mov	 eax, DWORD PTR _player$[ebp]
  000a5	8b 08		 mov	 ecx, DWORD PTR [eax]
  000a7	8b 51 14	 mov	 edx, DWORD PTR [ecx+20]
  000aa	03 55 f8	 add	 edx, DWORD PTR _platy$[ebp]
  000ad	52		 push	 edx
  000ae	8b 45 08	 mov	 eax, DWORD PTR _player$[ebp]
  000b1	8b 08		 mov	 ecx, DWORD PTR [eax]
  000b3	8b 51 10	 mov	 edx, DWORD PTR [ecx+16]
  000b6	03 55 fc	 add	 edx, DWORD PTR _platx$[ebp]
  000b9	52		 push	 edx
  000ba	e8 00 00 00 00	 call	 _R_PointInSubsector
  000bf	83 c4 08	 add	 esp, 8
  000c2	89 45 f4	 mov	 DWORD PTR _glidesector$[ebp], eax

; 2045 : 
; 2046 : 	if (glidesector->sector != player->mo->subsector->sector)

  000c5	8b 45 08	 mov	 eax, DWORD PTR _player$[ebp]
  000c8	8b 08		 mov	 ecx, DWORD PTR [eax]
  000ca	8b 51 34	 mov	 edx, DWORD PTR [ecx+52]
  000cd	8b 45 f4	 mov	 eax, DWORD PTR _glidesector$[ebp]
  000d0	8b 08		 mov	 ecx, DWORD PTR [eax]
  000d2	3b 0a		 cmp	 ecx, DWORD PTR [edx]
  000d4	0f 84 12 05 00
	00		 je	 $LN5@P_IsClimbi

; 2047 : 	{
; 2048 : 		boolean floorclimb = false, thrust = false, boostup = false;

  000da	c7 45 ec 00 00
	00 00		 mov	 DWORD PTR _floorclimb$4[ebp], 0
  000e1	c7 45 e8 00 00
	00 00		 mov	 DWORD PTR _thrust$3[ebp], 0
  000e8	c7 45 e4 00 00
	00 00		 mov	 DWORD PTR _boostup$2[ebp], 0

; 2049 : 
; 2050 : 		if (glidesector->sector->ffloors)

  000ef	8b 45 f4	 mov	 eax, DWORD PTR _glidesector$[ebp]
  000f2	8b 08		 mov	 ecx, DWORD PTR [eax]
  000f4	83 b9 90 00 00
	00 00		 cmp	 DWORD PTR [ecx+144], 0
  000fb	0f 84 ec 01 00
	00		 je	 $LN3@P_IsClimbi

; 2051 : 		{
; 2052 : 			ffloor_t *rover;
; 2053 : 			for (rover = glidesector->sector->ffloors; rover; rover = rover->next)

  00101	8b 45 f4	 mov	 eax, DWORD PTR _glidesector$[ebp]
  00104	8b 08		 mov	 ecx, DWORD PTR [eax]
  00106	8b 91 90 00 00
	00		 mov	 edx, DWORD PTR [ecx+144]
  0010c	89 55 e0	 mov	 DWORD PTR _rover$1[ebp], edx
  0010f	eb 09		 jmp	 SHORT $LN4@P_IsClimbi
$LN2@P_IsClimbi:
  00111	8b 45 e0	 mov	 eax, DWORD PTR _rover$1[ebp]
  00114	8b 48 40	 mov	 ecx, DWORD PTR [eax+64]
  00117	89 4d e0	 mov	 DWORD PTR _rover$1[ebp], ecx
$LN4@P_IsClimbi:
  0011a	83 7d e0 00	 cmp	 DWORD PTR _rover$1[ebp], 0
  0011e	0f 84 c9 01 00
	00		 je	 $LN3@P_IsClimbi

; 2054 : 			{
; 2055 : 				if (!(rover->flags & FF_EXISTS) || !(rover->flags & FF_BLOCKPLAYER))

  00124	8b 45 e0	 mov	 eax, DWORD PTR _rover$1[ebp]
  00127	8b 48 34	 mov	 ecx, DWORD PTR [eax+52]
  0012a	83 e1 01	 and	 ecx, 1
  0012d	74 0b		 je	 SHORT $LN8@P_IsClimbi
  0012f	8b 45 e0	 mov	 eax, DWORD PTR _rover$1[ebp]
  00132	8b 48 34	 mov	 ecx, DWORD PTR [eax+52]
  00135	83 e1 02	 and	 ecx, 2
  00138	75 02		 jne	 SHORT $LN7@P_IsClimbi
$LN8@P_IsClimbi:

; 2056 : 					continue;

  0013a	eb d5		 jmp	 SHORT $LN2@P_IsClimbi
$LN7@P_IsClimbi:

; 2057 : 
; 2058 : 				floorclimb = true;

  0013c	c7 45 ec 01 00
	00 00		 mov	 DWORD PTR _floorclimb$4[ebp], 1

; 2059 : 
; 2060 : 				if (player->mo->eflags & MFE_VERTICALFLIP)

  00143	8b 45 08	 mov	 eax, DWORD PTR _player$[ebp]
  00146	8b 08		 mov	 ecx, DWORD PTR [eax]
  00148	8b 91 84 00 00
	00		 mov	 edx, DWORD PTR [ecx+132]
  0014e	83 e2 20	 and	 edx, 32			; 00000020H
  00151	0f 84 cf 00 00
	00		 je	 $LN9@P_IsClimbi

; 2061 : 				{
; 2062 : 					if ((*rover->topheight < player->mo->z + player->mo->height) && ((player->mo->z + player->mo->height + player->mo->momz) < *rover->topheight))

  00157	8b 45 e0	 mov	 eax, DWORD PTR _rover$1[ebp]
  0015a	8b 08		 mov	 ecx, DWORD PTR [eax]
  0015c	8b 55 08	 mov	 edx, DWORD PTR _player$[ebp]
  0015f	8b 02		 mov	 eax, DWORD PTR [edx]
  00161	8b 55 08	 mov	 edx, DWORD PTR _player$[ebp]
  00164	8b 12		 mov	 edx, DWORD PTR [edx]
  00166	8b 40 18	 mov	 eax, DWORD PTR [eax+24]
  00169	03 42 44	 add	 eax, DWORD PTR [edx+68]
  0016c	39 01		 cmp	 DWORD PTR [ecx], eax
  0016e	7d 2f		 jge	 SHORT $LN11@P_IsClimbi
  00170	8b 45 08	 mov	 eax, DWORD PTR _player$[ebp]
  00173	8b 08		 mov	 ecx, DWORD PTR [eax]
  00175	8b 55 08	 mov	 edx, DWORD PTR _player$[ebp]
  00178	8b 02		 mov	 eax, DWORD PTR [edx]
  0017a	8b 49 18	 mov	 ecx, DWORD PTR [ecx+24]
  0017d	03 48 44	 add	 ecx, DWORD PTR [eax+68]
  00180	8b 55 08	 mov	 edx, DWORD PTR _player$[ebp]
  00183	8b 02		 mov	 eax, DWORD PTR [edx]
  00185	03 48 50	 add	 ecx, DWORD PTR [eax+80]
  00188	8b 55 e0	 mov	 edx, DWORD PTR _rover$1[ebp]
  0018b	8b 02		 mov	 eax, DWORD PTR [edx]
  0018d	3b 08		 cmp	 ecx, DWORD PTR [eax]
  0018f	7d 0e		 jge	 SHORT $LN11@P_IsClimbi

; 2063 : 					{
; 2064 : 						floorclimb = true;

  00191	c7 45 ec 01 00
	00 00		 mov	 DWORD PTR _floorclimb$4[ebp], 1

; 2065 : 						boostup = false;

  00198	c7 45 e4 00 00
	00 00		 mov	 DWORD PTR _boostup$2[ebp], 0
$LN11@P_IsClimbi:

; 2066 : 					}
; 2067 : 					if (*rover->topheight < player->mo->z) // Waaaay below the ledge.

  0019f	8b 45 e0	 mov	 eax, DWORD PTR _rover$1[ebp]
  001a2	8b 08		 mov	 ecx, DWORD PTR [eax]
  001a4	8b 55 08	 mov	 edx, DWORD PTR _player$[ebp]
  001a7	8b 02		 mov	 eax, DWORD PTR [edx]
  001a9	8b 09		 mov	 ecx, DWORD PTR [ecx]
  001ab	3b 48 18	 cmp	 ecx, DWORD PTR [eax+24]
  001ae	7d 15		 jge	 SHORT $LN12@P_IsClimbi

; 2068 : 					{
; 2069 : 						floorclimb = false;

  001b0	c7 45 ec 00 00
	00 00		 mov	 DWORD PTR _floorclimb$4[ebp], 0

; 2070 : 						boostup = false;

  001b7	c7 45 e4 00 00
	00 00		 mov	 DWORD PTR _boostup$2[ebp], 0

; 2071 : 						thrust = false;

  001be	c7 45 e8 00 00
	00 00		 mov	 DWORD PTR _thrust$3[ebp], 0
$LN12@P_IsClimbi:

; 2072 : 					}
; 2073 : 					if (*rover->bottomheight > player->mo->z + player->mo->height - FIXEDSCALE(16*FRACUNIT,player->mo->scale))

  001c5	8b 45 e0	 mov	 eax, DWORD PTR _rover$1[ebp]
  001c8	8b 70 18	 mov	 esi, DWORD PTR [eax+24]
  001cb	8b 4d 08	 mov	 ecx, DWORD PTR _player$[ebp]
  001ce	8b 11		 mov	 edx, DWORD PTR [ecx]
  001d0	8b 45 08	 mov	 eax, DWORD PTR _player$[ebp]
  001d3	8b 08		 mov	 ecx, DWORD PTR [eax]
  001d5	8b 7a 18	 mov	 edi, DWORD PTR [edx+24]
  001d8	03 79 44	 add	 edi, DWORD PTR [ecx+68]
  001db	68 00 00 10 00	 push	 1048576			; 00100000H
  001e0	68 00 00 64 00	 push	 6553600			; 00640000H
  001e5	8b 55 08	 mov	 edx, DWORD PTR _player$[ebp]
  001e8	8b 02		 mov	 eax, DWORD PTR [edx]
  001ea	0f b7 88 cc 00
	00 00		 movzx	 ecx, WORD PTR [eax+204]
  001f1	c1 e1 10	 shl	 ecx, 16			; 00000010H
  001f4	51		 push	 ecx
  001f5	e8 00 00 00 00	 call	 _FixedDiv
  001fa	83 c4 08	 add	 esp, 8
  001fd	50		 push	 eax
  001fe	e8 00 00 00 00	 call	 _FixedMul
  00203	83 c4 08	 add	 esp, 8
  00206	2b f8		 sub	 edi, eax
  00208	39 3e		 cmp	 DWORD PTR [esi], edi
  0020a	7e 15		 jle	 SHORT $LN13@P_IsClimbi

; 2074 : 					{
; 2075 : 						floorclimb = false;

  0020c	c7 45 ec 00 00
	00 00		 mov	 DWORD PTR _floorclimb$4[ebp], 0

; 2076 : 						thrust = true;

  00213	c7 45 e8 01 00
	00 00		 mov	 DWORD PTR _thrust$3[ebp], 1

; 2077 : 						boostup = true;

  0021a	c7 45 e4 01 00
	00 00		 mov	 DWORD PTR _boostup$2[ebp], 1
$LN13@P_IsClimbi:

; 2078 : 					}
; 2079 : 				}

  00221	e9 ba 00 00 00	 jmp	 $LN16@P_IsClimbi
$LN9@P_IsClimbi:

; 2080 : 				else
; 2081 : 				{
; 2082 : 					if ((*rover->bottomheight > player->mo->z) && ((player->mo->z - player->mo->momz) > *rover->bottomheight))

  00226	8b 45 e0	 mov	 eax, DWORD PTR _rover$1[ebp]
  00229	8b 48 18	 mov	 ecx, DWORD PTR [eax+24]
  0022c	8b 55 08	 mov	 edx, DWORD PTR _player$[ebp]
  0022f	8b 02		 mov	 eax, DWORD PTR [edx]
  00231	8b 09		 mov	 ecx, DWORD PTR [ecx]
  00233	3b 48 18	 cmp	 ecx, DWORD PTR [eax+24]
  00236	7e 28		 jle	 SHORT $LN14@P_IsClimbi
  00238	8b 45 08	 mov	 eax, DWORD PTR _player$[ebp]
  0023b	8b 08		 mov	 ecx, DWORD PTR [eax]
  0023d	8b 55 08	 mov	 edx, DWORD PTR _player$[ebp]
  00240	8b 02		 mov	 eax, DWORD PTR [edx]
  00242	8b 49 18	 mov	 ecx, DWORD PTR [ecx+24]
  00245	2b 48 50	 sub	 ecx, DWORD PTR [eax+80]
  00248	8b 55 e0	 mov	 edx, DWORD PTR _rover$1[ebp]
  0024b	8b 42 18	 mov	 eax, DWORD PTR [edx+24]
  0024e	3b 08		 cmp	 ecx, DWORD PTR [eax]
  00250	7e 0e		 jle	 SHORT $LN14@P_IsClimbi

; 2083 : 					{
; 2084 : 						floorclimb = true;

  00252	c7 45 ec 01 00
	00 00		 mov	 DWORD PTR _floorclimb$4[ebp], 1

; 2085 : 						boostup = false;

  00259	c7 45 e4 00 00
	00 00		 mov	 DWORD PTR _boostup$2[ebp], 0
$LN14@P_IsClimbi:

; 2086 : 					}
; 2087 : 					if (*rover->bottomheight > player->mo->z + player->mo->height) // Waaaay below the ledge.

  00260	8b 45 e0	 mov	 eax, DWORD PTR _rover$1[ebp]
  00263	8b 48 18	 mov	 ecx, DWORD PTR [eax+24]
  00266	8b 55 08	 mov	 edx, DWORD PTR _player$[ebp]
  00269	8b 02		 mov	 eax, DWORD PTR [edx]
  0026b	8b 55 08	 mov	 edx, DWORD PTR _player$[ebp]
  0026e	8b 12		 mov	 edx, DWORD PTR [edx]
  00270	8b 40 18	 mov	 eax, DWORD PTR [eax+24]
  00273	03 42 44	 add	 eax, DWORD PTR [edx+68]
  00276	39 01		 cmp	 DWORD PTR [ecx], eax
  00278	7e 15		 jle	 SHORT $LN15@P_IsClimbi

; 2088 : 					{
; 2089 : 						floorclimb = false;

  0027a	c7 45 ec 00 00
	00 00		 mov	 DWORD PTR _floorclimb$4[ebp], 0

; 2090 : 						boostup = false;

  00281	c7 45 e4 00 00
	00 00		 mov	 DWORD PTR _boostup$2[ebp], 0

; 2091 : 						thrust = false;

  00288	c7 45 e8 00 00
	00 00		 mov	 DWORD PTR _thrust$3[ebp], 0
$LN15@P_IsClimbi:

; 2092 : 					}
; 2093 : 					if (*rover->topheight < player->mo->z + FIXEDSCALE(16*FRACUNIT,player->mo->scale))

  0028f	8b 45 e0	 mov	 eax, DWORD PTR _rover$1[ebp]
  00292	8b 30		 mov	 esi, DWORD PTR [eax]
  00294	8b 4d 08	 mov	 ecx, DWORD PTR _player$[ebp]
  00297	8b 39		 mov	 edi, DWORD PTR [ecx]
  00299	68 00 00 10 00	 push	 1048576			; 00100000H
  0029e	68 00 00 64 00	 push	 6553600			; 00640000H
  002a3	8b 55 08	 mov	 edx, DWORD PTR _player$[ebp]
  002a6	8b 02		 mov	 eax, DWORD PTR [edx]
  002a8	0f b7 88 cc 00
	00 00		 movzx	 ecx, WORD PTR [eax+204]
  002af	c1 e1 10	 shl	 ecx, 16			; 00000010H
  002b2	51		 push	 ecx
  002b3	e8 00 00 00 00	 call	 _FixedDiv
  002b8	83 c4 08	 add	 esp, 8
  002bb	50		 push	 eax
  002bc	e8 00 00 00 00	 call	 _FixedMul
  002c1	83 c4 08	 add	 esp, 8
  002c4	03 47 18	 add	 eax, DWORD PTR [edi+24]
  002c7	39 06		 cmp	 DWORD PTR [esi], eax
  002c9	7d 15		 jge	 SHORT $LN16@P_IsClimbi

; 2094 : 					{
; 2095 : 						floorclimb = false;

  002cb	c7 45 ec 00 00
	00 00		 mov	 DWORD PTR _floorclimb$4[ebp], 0

; 2096 : 						thrust = true;

  002d2	c7 45 e8 01 00
	00 00		 mov	 DWORD PTR _thrust$3[ebp], 1

; 2097 : 						boostup = true;

  002d9	c7 45 e4 01 00
	00 00		 mov	 DWORD PTR _boostup$2[ebp], 1
$LN16@P_IsClimbi:

; 2098 : 					}
; 2099 : 				}
; 2100 : 
; 2101 : 				if (floorclimb)

  002e0	83 7d ec 00	 cmp	 DWORD PTR _floorclimb$4[ebp], 0
  002e4	74 02		 je	 SHORT $LN17@P_IsClimbi

; 2102 : 					break;

  002e6	eb 05		 jmp	 SHORT $LN3@P_IsClimbi
$LN17@P_IsClimbi:

; 2103 : 			}

  002e8	e9 24 fe ff ff	 jmp	 $LN2@P_IsClimbi
$LN3@P_IsClimbi:

; 2104 : 		}
; 2105 : 
; 2106 : 		if (player->mo->eflags & MFE_VERTICALFLIP)

  002ed	8b 45 08	 mov	 eax, DWORD PTR _player$[ebp]
  002f0	8b 08		 mov	 ecx, DWORD PTR [eax]
  002f2	8b 91 84 00 00
	00		 mov	 edx, DWORD PTR [ecx+132]
  002f8	83 e2 20	 and	 edx, 32			; 00000020H
  002fb	0f 84 72 01 00
	00		 je	 $LN18@P_IsClimbi

; 2107 : 		{
; 2108 : 			if ((glidesector->sector->floorheight <= player->mo->z + player->mo->height)
; 2109 : 				&& ((player->mo->z + player->mo->momz) <= glidesector->sector->floorheight))

  00301	8b 45 f4	 mov	 eax, DWORD PTR _glidesector$[ebp]
  00304	8b 08		 mov	 ecx, DWORD PTR [eax]
  00306	8b 55 08	 mov	 edx, DWORD PTR _player$[ebp]
  00309	8b 02		 mov	 eax, DWORD PTR [edx]
  0030b	8b 55 08	 mov	 edx, DWORD PTR _player$[ebp]
  0030e	8b 12		 mov	 edx, DWORD PTR [edx]
  00310	8b 40 18	 mov	 eax, DWORD PTR [eax+24]
  00313	03 42 44	 add	 eax, DWORD PTR [edx+68]
  00316	39 01		 cmp	 DWORD PTR [ecx], eax
  00318	7f 20		 jg	 SHORT $LN20@P_IsClimbi
  0031a	8b 45 08	 mov	 eax, DWORD PTR _player$[ebp]
  0031d	8b 08		 mov	 ecx, DWORD PTR [eax]
  0031f	8b 55 08	 mov	 edx, DWORD PTR _player$[ebp]
  00322	8b 02		 mov	 eax, DWORD PTR [edx]
  00324	8b 49 18	 mov	 ecx, DWORD PTR [ecx+24]
  00327	03 48 50	 add	 ecx, DWORD PTR [eax+80]
  0032a	8b 55 f4	 mov	 edx, DWORD PTR _glidesector$[ebp]
  0032d	8b 02		 mov	 eax, DWORD PTR [edx]
  0032f	3b 08		 cmp	 ecx, DWORD PTR [eax]
  00331	7f 07		 jg	 SHORT $LN20@P_IsClimbi

; 2110 : 				floorclimb = true;

  00333	c7 45 ec 01 00
	00 00		 mov	 DWORD PTR _floorclimb$4[ebp], 1
$LN20@P_IsClimbi:

; 2111 : 
; 2112 : 			if (!floorclimb && glidesector->sector->ceilingheight > player->mo->z - FIXEDSCALE(16*FRACUNIT,player->mo->scale)
; 2113 : 				&& (glidesector->sector->floorpic == skyflatnum

  0033a	83 7d ec 00	 cmp	 DWORD PTR _floorclimb$4[ebp], 0
  0033e	0f 85 9b 00 00
	00		 jne	 $LN21@P_IsClimbi
  00344	8b 45 f4	 mov	 eax, DWORD PTR _glidesector$[ebp]
  00347	8b 30		 mov	 esi, DWORD PTR [eax]
  00349	8b 4d 08	 mov	 ecx, DWORD PTR _player$[ebp]
  0034c	8b 39		 mov	 edi, DWORD PTR [ecx]
  0034e	68 00 00 10 00	 push	 1048576			; 00100000H
  00353	68 00 00 64 00	 push	 6553600			; 00640000H
  00358	8b 55 08	 mov	 edx, DWORD PTR _player$[ebp]
  0035b	8b 02		 mov	 eax, DWORD PTR [edx]
  0035d	0f b7 88 cc 00
	00 00		 movzx	 ecx, WORD PTR [eax+204]
  00364	c1 e1 10	 shl	 ecx, 16			; 00000010H
  00367	51		 push	 ecx
  00368	e8 00 00 00 00	 call	 _FixedDiv
  0036d	83 c4 08	 add	 esp, 8
  00370	50		 push	 eax
  00371	e8 00 00 00 00	 call	 _FixedMul
  00376	83 c4 08	 add	 esp, 8
  00379	8b 57 18	 mov	 edx, DWORD PTR [edi+24]
  0037c	2b d0		 sub	 edx, eax
  0037e	39 56 04	 cmp	 DWORD PTR [esi+4], edx
  00381	7e 5c		 jle	 SHORT $LN21@P_IsClimbi
  00383	8b 45 f4	 mov	 eax, DWORD PTR _glidesector$[ebp]
  00386	8b 08		 mov	 ecx, DWORD PTR [eax]
  00388	8b 51 08	 mov	 edx, DWORD PTR [ecx+8]
  0038b	3b 15 00 00 00
	00		 cmp	 edx, DWORD PTR _skyflatnum
  00391	74 3e		 je	 SHORT $LN22@P_IsClimbi
  00393	8b 45 f4	 mov	 eax, DWORD PTR _glidesector$[ebp]
  00396	8b 30		 mov	 esi, DWORD PTR [eax]
  00398	8b 4d 08	 mov	 ecx, DWORD PTR _player$[ebp]
  0039b	8b 39		 mov	 edi, DWORD PTR [ecx]
  0039d	68 00 00 08 00	 push	 524288			; 00080000H
  003a2	68 00 00 64 00	 push	 6553600			; 00640000H
  003a7	8b 55 08	 mov	 edx, DWORD PTR _player$[ebp]
  003aa	8b 02		 mov	 eax, DWORD PTR [edx]
  003ac	0f b7 88 cc 00
	00 00		 movzx	 ecx, WORD PTR [eax+204]
  003b3	c1 e1 10	 shl	 ecx, 16			; 00000010H
  003b6	51		 push	 ecx
  003b7	e8 00 00 00 00	 call	 _FixedDiv
  003bc	83 c4 08	 add	 esp, 8
  003bf	50		 push	 eax
  003c0	e8 00 00 00 00	 call	 _FixedMul
  003c5	83 c4 08	 add	 esp, 8
  003c8	8b 57 18	 mov	 edx, DWORD PTR [edi+24]
  003cb	2b d0		 sub	 edx, eax
  003cd	39 16		 cmp	 DWORD PTR [esi], edx
  003cf	7d 0e		 jge	 SHORT $LN21@P_IsClimbi
$LN22@P_IsClimbi:

; 2114 : 				|| glidesector->sector->floorheight
; 2115 : 				< (player->mo->z - FIXEDSCALE(8*FRACUNIT,player->mo->scale))))
; 2116 : 			{
; 2117 : 				thrust = true;

  003d1	c7 45 e8 01 00
	00 00		 mov	 DWORD PTR _thrust$3[ebp], 1

; 2118 : 				boostup = true;

  003d8	c7 45 e4 01 00
	00 00		 mov	 DWORD PTR _boostup$2[ebp], 1
$LN21@P_IsClimbi:

; 2119 : 				// Play climb-up animation here
; 2120 : 			}
; 2121 : 
; 2122 : 			if ((glidesector->sector->floorheight > player->mo->z)
; 2123 : 				&& glidesector->sector->floorpic == skyflatnum)

  003df	8b 45 f4	 mov	 eax, DWORD PTR _glidesector$[ebp]
  003e2	8b 08		 mov	 ecx, DWORD PTR [eax]
  003e4	8b 55 08	 mov	 edx, DWORD PTR _player$[ebp]
  003e7	8b 02		 mov	 eax, DWORD PTR [edx]
  003e9	8b 09		 mov	 ecx, DWORD PTR [ecx]
  003eb	3b 48 18	 cmp	 ecx, DWORD PTR [eax+24]
  003ee	7e 17		 jle	 SHORT $LN23@P_IsClimbi
  003f0	8b 45 f4	 mov	 eax, DWORD PTR _glidesector$[ebp]
  003f3	8b 08		 mov	 ecx, DWORD PTR [eax]
  003f5	8b 51 08	 mov	 edx, DWORD PTR [ecx+8]
  003f8	3b 15 00 00 00
	00		 cmp	 edx, DWORD PTR _skyflatnum
  003fe	75 07		 jne	 SHORT $LN23@P_IsClimbi

; 2124 : 				return false;

  00400	33 c0		 xor	 eax, eax
  00402	e9 e7 01 00 00	 jmp	 $LN1@P_IsClimbi
$LN23@P_IsClimbi:

; 2125 : 
; 2126 : 			if ((player->mo->z + player->mo->height - FIXEDSCALE(16*FRACUNIT,player->mo->scale) > glidesector->sector->ceilingheight)
; 2127 : 				|| (player->mo->z + player->mo->height <= glidesector->sector->floorheight))

  00407	8b 45 08	 mov	 eax, DWORD PTR _player$[ebp]
  0040a	8b 08		 mov	 ecx, DWORD PTR [eax]
  0040c	8b 55 08	 mov	 edx, DWORD PTR _player$[ebp]
  0040f	8b 02		 mov	 eax, DWORD PTR [edx]
  00411	8b 71 18	 mov	 esi, DWORD PTR [ecx+24]
  00414	03 70 44	 add	 esi, DWORD PTR [eax+68]
  00417	68 00 00 10 00	 push	 1048576			; 00100000H
  0041c	68 00 00 64 00	 push	 6553600			; 00640000H
  00421	8b 4d 08	 mov	 ecx, DWORD PTR _player$[ebp]
  00424	8b 11		 mov	 edx, DWORD PTR [ecx]
  00426	0f b7 82 cc 00
	00 00		 movzx	 eax, WORD PTR [edx+204]
  0042d	c1 e0 10	 shl	 eax, 16			; 00000010H
  00430	50		 push	 eax
  00431	e8 00 00 00 00	 call	 _FixedDiv
  00436	83 c4 08	 add	 esp, 8
  00439	50		 push	 eax
  0043a	e8 00 00 00 00	 call	 _FixedMul
  0043f	83 c4 08	 add	 esp, 8
  00442	2b f0		 sub	 esi, eax
  00444	8b 4d f4	 mov	 ecx, DWORD PTR _glidesector$[ebp]
  00447	8b 11		 mov	 edx, DWORD PTR [ecx]
  00449	3b 72 04	 cmp	 esi, DWORD PTR [edx+4]
  0044c	7f 19		 jg	 SHORT $LN25@P_IsClimbi
  0044e	8b 45 08	 mov	 eax, DWORD PTR _player$[ebp]
  00451	8b 08		 mov	 ecx, DWORD PTR [eax]
  00453	8b 55 08	 mov	 edx, DWORD PTR _player$[ebp]
  00456	8b 02		 mov	 eax, DWORD PTR [edx]
  00458	8b 49 18	 mov	 ecx, DWORD PTR [ecx+24]
  0045b	03 48 44	 add	 ecx, DWORD PTR [eax+68]
  0045e	8b 55 f4	 mov	 edx, DWORD PTR _glidesector$[ebp]
  00461	8b 02		 mov	 eax, DWORD PTR [edx]
  00463	3b 08		 cmp	 ecx, DWORD PTR [eax]
  00465	7f 07		 jg	 SHORT $LN24@P_IsClimbi
$LN25@P_IsClimbi:

; 2128 : 				floorclimb = true;

  00467	c7 45 ec 01 00
	00 00		 mov	 DWORD PTR _floorclimb$4[ebp], 1
$LN24@P_IsClimbi:

; 2129 : 		}

  0046e	e9 61 01 00 00	 jmp	 $LN30@P_IsClimbi
$LN18@P_IsClimbi:

; 2130 : 		else
; 2131 : 		{
; 2132 : 			if ((glidesector->sector->ceilingheight >= player->mo->z)
; 2133 : 				&& ((player->mo->z - player->mo->momz) >= glidesector->sector->ceilingheight))

  00473	8b 45 f4	 mov	 eax, DWORD PTR _glidesector$[ebp]
  00476	8b 08		 mov	 ecx, DWORD PTR [eax]
  00478	8b 55 08	 mov	 edx, DWORD PTR _player$[ebp]
  0047b	8b 02		 mov	 eax, DWORD PTR [edx]
  0047d	8b 49 04	 mov	 ecx, DWORD PTR [ecx+4]
  00480	3b 48 18	 cmp	 ecx, DWORD PTR [eax+24]
  00483	7c 21		 jl	 SHORT $LN26@P_IsClimbi
  00485	8b 45 08	 mov	 eax, DWORD PTR _player$[ebp]
  00488	8b 08		 mov	 ecx, DWORD PTR [eax]
  0048a	8b 55 08	 mov	 edx, DWORD PTR _player$[ebp]
  0048d	8b 02		 mov	 eax, DWORD PTR [edx]
  0048f	8b 49 18	 mov	 ecx, DWORD PTR [ecx+24]
  00492	2b 48 50	 sub	 ecx, DWORD PTR [eax+80]
  00495	8b 55 f4	 mov	 edx, DWORD PTR _glidesector$[ebp]
  00498	8b 02		 mov	 eax, DWORD PTR [edx]
  0049a	3b 48 04	 cmp	 ecx, DWORD PTR [eax+4]
  0049d	7c 07		 jl	 SHORT $LN26@P_IsClimbi

; 2134 : 				floorclimb = true;

  0049f	c7 45 ec 01 00
	00 00		 mov	 DWORD PTR _floorclimb$4[ebp], 1
$LN26@P_IsClimbi:

; 2135 : 
; 2136 : 			if (!floorclimb && glidesector->sector->floorheight < player->mo->z + FIXEDSCALE(16*FRACUNIT,player->mo->scale)
; 2137 : 				&& (glidesector->sector->ceilingpic == skyflatnum

  004a6	83 7d ec 00	 cmp	 DWORD PTR _floorclimb$4[ebp], 0
  004aa	0f 85 a1 00 00
	00		 jne	 $LN27@P_IsClimbi
  004b0	8b 45 f4	 mov	 eax, DWORD PTR _glidesector$[ebp]
  004b3	8b 30		 mov	 esi, DWORD PTR [eax]
  004b5	8b 4d 08	 mov	 ecx, DWORD PTR _player$[ebp]
  004b8	8b 39		 mov	 edi, DWORD PTR [ecx]
  004ba	68 00 00 10 00	 push	 1048576			; 00100000H
  004bf	68 00 00 64 00	 push	 6553600			; 00640000H
  004c4	8b 55 08	 mov	 edx, DWORD PTR _player$[ebp]
  004c7	8b 02		 mov	 eax, DWORD PTR [edx]
  004c9	0f b7 88 cc 00
	00 00		 movzx	 ecx, WORD PTR [eax+204]
  004d0	c1 e1 10	 shl	 ecx, 16			; 00000010H
  004d3	51		 push	 ecx
  004d4	e8 00 00 00 00	 call	 _FixedDiv
  004d9	83 c4 08	 add	 esp, 8
  004dc	50		 push	 eax
  004dd	e8 00 00 00 00	 call	 _FixedMul
  004e2	83 c4 08	 add	 esp, 8
  004e5	03 47 18	 add	 eax, DWORD PTR [edi+24]
  004e8	39 06		 cmp	 DWORD PTR [esi], eax
  004ea	7d 65		 jge	 SHORT $LN27@P_IsClimbi
  004ec	8b 45 f4	 mov	 eax, DWORD PTR _glidesector$[ebp]
  004ef	8b 08		 mov	 ecx, DWORD PTR [eax]
  004f1	8b 51 0c	 mov	 edx, DWORD PTR [ecx+12]
  004f4	3b 15 00 00 00
	00		 cmp	 edx, DWORD PTR _skyflatnum
  004fa	74 47		 je	 SHORT $LN28@P_IsClimbi
  004fc	8b 45 f4	 mov	 eax, DWORD PTR _glidesector$[ebp]
  004ff	8b 30		 mov	 esi, DWORD PTR [eax]
  00501	8b 4d 08	 mov	 ecx, DWORD PTR _player$[ebp]
  00504	8b 11		 mov	 edx, DWORD PTR [ecx]
  00506	8b 45 08	 mov	 eax, DWORD PTR _player$[ebp]
  00509	8b 08		 mov	 ecx, DWORD PTR [eax]
  0050b	8b 7a 18	 mov	 edi, DWORD PTR [edx+24]
  0050e	03 79 44	 add	 edi, DWORD PTR [ecx+68]
  00511	68 00 00 08 00	 push	 524288			; 00080000H
  00516	68 00 00 64 00	 push	 6553600			; 00640000H
  0051b	8b 55 08	 mov	 edx, DWORD PTR _player$[ebp]
  0051e	8b 02		 mov	 eax, DWORD PTR [edx]
  00520	0f b7 88 cc 00
	00 00		 movzx	 ecx, WORD PTR [eax+204]
  00527	c1 e1 10	 shl	 ecx, 16			; 00000010H
  0052a	51		 push	 ecx
  0052b	e8 00 00 00 00	 call	 _FixedDiv
  00530	83 c4 08	 add	 esp, 8
  00533	50		 push	 eax
  00534	e8 00 00 00 00	 call	 _FixedMul
  00539	83 c4 08	 add	 esp, 8
  0053c	03 f8		 add	 edi, eax
  0053e	39 7e 04	 cmp	 DWORD PTR [esi+4], edi
  00541	7e 0e		 jle	 SHORT $LN27@P_IsClimbi
$LN28@P_IsClimbi:

; 2138 : 				|| glidesector->sector->ceilingheight
; 2139 : 				> (player->mo->z + player->mo->height + FIXEDSCALE(8*FRACUNIT,player->mo->scale))))
; 2140 : 			{
; 2141 : 				thrust = true;

  00543	c7 45 e8 01 00
	00 00		 mov	 DWORD PTR _thrust$3[ebp], 1

; 2142 : 				boostup = true;

  0054a	c7 45 e4 01 00
	00 00		 mov	 DWORD PTR _boostup$2[ebp], 1
$LN27@P_IsClimbi:

; 2143 : 				// Play climb-up animation here
; 2144 : 			}
; 2145 : 
; 2146 : 			if ((glidesector->sector->ceilingheight < player->mo->z+player->mo->height)
; 2147 : 				&& glidesector->sector->ceilingpic == skyflatnum)

  00551	8b 45 f4	 mov	 eax, DWORD PTR _glidesector$[ebp]
  00554	8b 08		 mov	 ecx, DWORD PTR [eax]
  00556	8b 55 08	 mov	 edx, DWORD PTR _player$[ebp]
  00559	8b 02		 mov	 eax, DWORD PTR [edx]
  0055b	8b 55 08	 mov	 edx, DWORD PTR _player$[ebp]
  0055e	8b 12		 mov	 edx, DWORD PTR [edx]
  00560	8b 40 18	 mov	 eax, DWORD PTR [eax+24]
  00563	03 42 44	 add	 eax, DWORD PTR [edx+68]
  00566	39 41 04	 cmp	 DWORD PTR [ecx+4], eax
  00569	7d 14		 jge	 SHORT $LN29@P_IsClimbi
  0056b	8b 45 f4	 mov	 eax, DWORD PTR _glidesector$[ebp]
  0056e	8b 08		 mov	 ecx, DWORD PTR [eax]
  00570	8b 51 0c	 mov	 edx, DWORD PTR [ecx+12]
  00573	3b 15 00 00 00
	00		 cmp	 edx, DWORD PTR _skyflatnum
  00579	75 04		 jne	 SHORT $LN29@P_IsClimbi

; 2148 : 				return false;

  0057b	33 c0		 xor	 eax, eax
  0057d	eb 6f		 jmp	 SHORT $LN1@P_IsClimbi
$LN29@P_IsClimbi:

; 2149 : 
; 2150 : 			if ((player->mo->z + FIXEDSCALE(16*FRACUNIT,player->mo->scale) < glidesector->sector->floorheight)
; 2151 : 				|| (player->mo->z >= glidesector->sector->ceilingheight))

  0057f	8b 45 08	 mov	 eax, DWORD PTR _player$[ebp]
  00582	8b 30		 mov	 esi, DWORD PTR [eax]
  00584	68 00 00 10 00	 push	 1048576			; 00100000H
  00589	68 00 00 64 00	 push	 6553600			; 00640000H
  0058e	8b 4d 08	 mov	 ecx, DWORD PTR _player$[ebp]
  00591	8b 11		 mov	 edx, DWORD PTR [ecx]
  00593	0f b7 82 cc 00
	00 00		 movzx	 eax, WORD PTR [edx+204]
  0059a	c1 e0 10	 shl	 eax, 16			; 00000010H
  0059d	50		 push	 eax
  0059e	e8 00 00 00 00	 call	 _FixedDiv
  005a3	83 c4 08	 add	 esp, 8
  005a6	50		 push	 eax
  005a7	e8 00 00 00 00	 call	 _FixedMul
  005ac	83 c4 08	 add	 esp, 8
  005af	03 46 18	 add	 eax, DWORD PTR [esi+24]
  005b2	8b 4d f4	 mov	 ecx, DWORD PTR _glidesector$[ebp]
  005b5	8b 11		 mov	 edx, DWORD PTR [ecx]
  005b7	3b 02		 cmp	 eax, DWORD PTR [edx]
  005b9	7c 12		 jl	 SHORT $LN31@P_IsClimbi
  005bb	8b 45 08	 mov	 eax, DWORD PTR _player$[ebp]
  005be	8b 08		 mov	 ecx, DWORD PTR [eax]
  005c0	8b 55 f4	 mov	 edx, DWORD PTR _glidesector$[ebp]
  005c3	8b 02		 mov	 eax, DWORD PTR [edx]
  005c5	8b 49 18	 mov	 ecx, DWORD PTR [ecx+24]
  005c8	3b 48 04	 cmp	 ecx, DWORD PTR [eax+4]
  005cb	7c 07		 jl	 SHORT $LN30@P_IsClimbi
$LN31@P_IsClimbi:

; 2152 : 				floorclimb = true;

  005cd	c7 45 ec 01 00
	00 00		 mov	 DWORD PTR _floorclimb$4[ebp], 1
$LN30@P_IsClimbi:

; 2153 : 		}
; 2154 : 
; 2155 : 		climb = false;

  005d4	c7 45 f0 00 00
	00 00		 mov	 DWORD PTR _climb$[ebp], 0

; 2156 : 
; 2157 : 		if (!floorclimb)

  005db	83 7d ec 00	 cmp	 DWORD PTR _floorclimb$4[ebp], 0
  005df	75 04		 jne	 SHORT $LN32@P_IsClimbi

; 2158 : 			return false;

  005e1	33 c0		 xor	 eax, eax
  005e3	eb 09		 jmp	 SHORT $LN1@P_IsClimbi
$LN32@P_IsClimbi:

; 2159 : 
; 2160 : 		return true;

  005e5	b8 01 00 00 00	 mov	 eax, 1
  005ea	eb 02		 jmp	 SHORT $LN1@P_IsClimbi
$LN5@P_IsClimbi:

; 2161 : 	}
; 2162 : 
; 2163 : 	return false;

  005ec	33 c0		 xor	 eax, eax
$LN1@P_IsClimbi:

; 2164 : }

  005ee	5f		 pop	 edi
  005ef	5e		 pop	 esi
  005f0	5b		 pop	 ebx
  005f1	8b e5		 mov	 esp, ebp
  005f3	5d		 pop	 ebp
  005f4	c3		 ret	 0
_P_IsClimbingValid ENDP
_TEXT	ENDS
; Function compile flags: /Odtp /ZI
; File C:\Users\RafaTheFox\Downloads\SRB2-Public-master\src\p_map.c
;	COMDAT _PTR_SlideCameraTraverse
_TEXT	SEGMENT
_li$ = -4						; size = 4
_in$ = 8						; size = 4
_PTR_SlideCameraTraverse PROC				; COMDAT

; 1987 : {

  00000	55		 push	 ebp
  00001	8b ec		 mov	 ebp, esp
  00003	83 ec 44	 sub	 esp, 68			; 00000044H
  00006	53		 push	 ebx
  00007	56		 push	 esi
  00008	57		 push	 edi

; 1988 : 	line_t *li;
; 1989 : 
; 1990 : 	I_Assert(in->isaline);
; 1991 : 
; 1992 : 	li = in->d.line;

  00009	8b 45 08	 mov	 eax, DWORD PTR _in$[ebp]
  0000c	8b 48 08	 mov	 ecx, DWORD PTR [eax+8]
  0000f	89 4d fc	 mov	 DWORD PTR _li$[ebp], ecx

; 1993 : 
; 1994 : 	if (!(li->flags & ML_TWOSIDED))

  00012	8b 45 fc	 mov	 eax, DWORD PTR _li$[ebp]
  00015	0f bf 48 10	 movsx	 ecx, WORD PTR [eax+16]
  00019	83 e1 04	 and	 ecx, 4
  0001c	75 2f		 jne	 SHORT $LN2@PTR_SlideC

; 1995 : 	{
; 1996 : 		if (P_PointOnLineSide(mapcampointer->x, mapcampointer->y, li))

  0001e	8b 45 fc	 mov	 eax, DWORD PTR _li$[ebp]
  00021	50		 push	 eax
  00022	8b 0d 00 00 00
	00		 mov	 ecx, DWORD PTR _mapcampointer
  00028	8b 51 14	 mov	 edx, DWORD PTR [ecx+20]
  0002b	52		 push	 edx
  0002c	a1 00 00 00 00	 mov	 eax, DWORD PTR _mapcampointer
  00031	8b 48 10	 mov	 ecx, DWORD PTR [eax+16]
  00034	51		 push	 ecx
  00035	e8 00 00 00 00	 call	 _P_PointOnLineSide
  0003a	83 c4 0c	 add	 esp, 12			; 0000000cH
  0003d	85 c0		 test	 eax, eax
  0003f	74 0a		 je	 SHORT $LN3@PTR_SlideC

; 1997 : 			return true; // don't hit the back side

  00041	b8 01 00 00 00	 mov	 eax, 1
  00046	e9 8c 00 00 00	 jmp	 $LN1@PTR_SlideC
$LN3@PTR_SlideC:

; 1998 : 		goto isblocking;

  0004b	eb 54		 jmp	 SHORT $isblocking$9
$LN2@PTR_SlideC:

; 1999 : 	}
; 2000 : 
; 2001 : 	// set openrange, opentop, openbottom
; 2002 : 	P_CameraLineOpening(li);

  0004d	8b 45 fc	 mov	 eax, DWORD PTR _li$[ebp]
  00050	50		 push	 eax
  00051	e8 00 00 00 00	 call	 _P_CameraLineOpening
  00056	83 c4 04	 add	 esp, 4

; 2003 : 
; 2004 : 	if (openrange < mapcampointer->height)

  00059	a1 00 00 00 00	 mov	 eax, DWORD PTR _mapcampointer
  0005e	8b 0d 00 00 00
	00		 mov	 ecx, DWORD PTR _openrange
  00064	3b 48 30	 cmp	 ecx, DWORD PTR [eax+48]
  00067	7d 02		 jge	 SHORT $LN4@PTR_SlideC

; 2005 : 		goto isblocking; // doesn't fit

  00069	eb 36		 jmp	 SHORT $isblocking$9
$LN4@PTR_SlideC:

; 2006 : 
; 2007 : 	if (opentop - mapcampointer->z < mapcampointer->height)

  0006b	a1 00 00 00 00	 mov	 eax, DWORD PTR _mapcampointer
  00070	8b 0d 00 00 00
	00		 mov	 ecx, DWORD PTR _opentop
  00076	2b 48 18	 sub	 ecx, DWORD PTR [eax+24]
  00079	8b 15 00 00 00
	00		 mov	 edx, DWORD PTR _mapcampointer
  0007f	3b 4a 30	 cmp	 ecx, DWORD PTR [edx+48]
  00082	7d 02		 jge	 SHORT $LN5@PTR_SlideC

; 2008 : 		goto isblocking; // mobj is too high

  00084	eb 1b		 jmp	 SHORT $isblocking$9
$LN5@PTR_SlideC:

; 2009 : 
; 2010 : 	if (openbottom - mapcampointer->z > 0) // We don't want to make the camera step up.

  00086	a1 00 00 00 00	 mov	 eax, DWORD PTR _mapcampointer
  0008b	8b 0d 00 00 00
	00		 mov	 ecx, DWORD PTR _openbottom
  00091	2b 48 18	 sub	 ecx, DWORD PTR [eax+24]
  00094	85 c9		 test	 ecx, ecx
  00096	7e 02		 jle	 SHORT $LN6@PTR_SlideC

; 2011 : 		goto isblocking; // too big a step up

  00098	eb 07		 jmp	 SHORT $isblocking$9
$LN6@PTR_SlideC:

; 2012 : 
; 2013 : 	// this line doesn't block movement
; 2014 : 	return true;

  0009a	b8 01 00 00 00	 mov	 eax, 1
  0009f	eb 36		 jmp	 SHORT $LN1@PTR_SlideC
$isblocking$9:

; 2015 : 
; 2016 : 	// the line does block movement,
; 2017 : 	// see if it is closer than best so far
; 2018 : isblocking:
; 2019 : 	{
; 2020 : 		if (in->frac < bestslidefrac)

  000a1	8b 45 08	 mov	 eax, DWORD PTR _in$[ebp]
  000a4	8b 08		 mov	 ecx, DWORD PTR [eax]
  000a6	3b 0d 00 00 00
	00		 cmp	 ecx, DWORD PTR _bestslidefrac
  000ac	7d 27		 jge	 SHORT $LN7@PTR_SlideC

; 2021 : 		{
; 2022 : 			secondslidefrac = bestslidefrac;

  000ae	a1 00 00 00 00	 mov	 eax, DWORD PTR _bestslidefrac
  000b3	a3 00 00 00 00	 mov	 DWORD PTR _secondslidefrac, eax

; 2023 : 			secondslideline = bestslideline;

  000b8	a1 00 00 00 00	 mov	 eax, DWORD PTR _bestslideline
  000bd	a3 00 00 00 00	 mov	 DWORD PTR _secondslideline, eax

; 2024 : 			bestslidefrac = in->frac;

  000c2	8b 45 08	 mov	 eax, DWORD PTR _in$[ebp]
  000c5	8b 08		 mov	 ecx, DWORD PTR [eax]
  000c7	89 0d 00 00 00
	00		 mov	 DWORD PTR _bestslidefrac, ecx

; 2025 : 			bestslideline = li;

  000cd	8b 45 fc	 mov	 eax, DWORD PTR _li$[ebp]
  000d0	a3 00 00 00 00	 mov	 DWORD PTR _bestslideline, eax
$LN7@PTR_SlideC:

; 2026 : 		}
; 2027 : 	}
; 2028 : 
; 2029 : 	return false; // stop

  000d5	33 c0		 xor	 eax, eax
$LN1@PTR_SlideC:

; 2030 : }

  000d7	5f		 pop	 edi
  000d8	5e		 pop	 esi
  000d9	5b		 pop	 ebx
  000da	8b e5		 mov	 esp, ebp
  000dc	5d		 pop	 ebp
  000dd	c3		 ret	 0
_PTR_SlideCameraTraverse ENDP
_TEXT	ENDS
; Function compile flags: /Odtp /ZI
; File C:\Users\RafaTheFox\Downloads\SRB2-Public-master\src\p_map.c
;	COMDAT _P_HitBounceLine
_TEXT	SEGMENT
_movelen$ = -20						; size = 4
_deltaangle$ = -16					; size = 4
_moveangle$ = -12					; size = 4
_lineangle$ = -8					; size = 4
_side$ = -4						; size = 4
_ld$ = 8						; size = 4
_P_HitBounceLine PROC					; COMDAT

; 1945 : {

  00000	55		 push	 ebp
  00001	8b ec		 mov	 ebp, esp
  00003	83 ec 54	 sub	 esp, 84			; 00000054H
  00006	53		 push	 ebx
  00007	56		 push	 esi
  00008	57		 push	 edi

; 1946 : 	INT32 side;
; 1947 : 	angle_t lineangle, moveangle, deltaangle;
; 1948 : 	fixed_t movelen;
; 1949 : 
; 1950 : 	if (ld->slopetype == ST_HORIZONTAL)

  00009	8b 45 08	 mov	 eax, DWORD PTR _ld$[ebp]
  0000c	83 78 2c 00	 cmp	 DWORD PTR [eax+44], 0
  00010	75 11		 jne	 SHORT $LN2@P_HitBounc

; 1951 : 	{
; 1952 : 		tmymove = -tmymove;

  00012	a1 00 00 00 00	 mov	 eax, DWORD PTR _tmymove
  00017	f7 d8		 neg	 eax
  00019	a3 00 00 00 00	 mov	 DWORD PTR _tmymove, eax

; 1953 : 		return;

  0001e	e9 18 01 00 00	 jmp	 $LN1@P_HitBounc
$LN2@P_HitBounc:

; 1954 : 	}
; 1955 : 
; 1956 : 	if (ld->slopetype == ST_VERTICAL)

  00023	8b 45 08	 mov	 eax, DWORD PTR _ld$[ebp]
  00026	83 78 2c 01	 cmp	 DWORD PTR [eax+44], 1
  0002a	75 11		 jne	 SHORT $LN3@P_HitBounc

; 1957 : 	{
; 1958 : 		tmxmove = -tmxmove;

  0002c	a1 00 00 00 00	 mov	 eax, DWORD PTR _tmxmove
  00031	f7 d8		 neg	 eax
  00033	a3 00 00 00 00	 mov	 DWORD PTR _tmxmove, eax

; 1959 : 		return;

  00038	e9 fe 00 00 00	 jmp	 $LN1@P_HitBounc
$LN3@P_HitBounc:

; 1960 : 	}
; 1961 : 
; 1962 : 	side = P_PointOnLineSide(slidemo->x, slidemo->y, ld);

  0003d	8b 45 08	 mov	 eax, DWORD PTR _ld$[ebp]
  00040	50		 push	 eax
  00041	8b 0d 00 00 00
	00		 mov	 ecx, DWORD PTR _slidemo
  00047	8b 51 14	 mov	 edx, DWORD PTR [ecx+20]
  0004a	52		 push	 edx
  0004b	a1 00 00 00 00	 mov	 eax, DWORD PTR _slidemo
  00050	8b 48 10	 mov	 ecx, DWORD PTR [eax+16]
  00053	51		 push	 ecx
  00054	e8 00 00 00 00	 call	 _P_PointOnLineSide
  00059	83 c4 0c	 add	 esp, 12			; 0000000cH
  0005c	89 45 fc	 mov	 DWORD PTR _side$[ebp], eax

; 1963 : 
; 1964 : 	lineangle = R_PointToAngle2(0, 0, ld->dx, ld->dy);

  0005f	8b 45 08	 mov	 eax, DWORD PTR _ld$[ebp]
  00062	8b 48 0c	 mov	 ecx, DWORD PTR [eax+12]
  00065	51		 push	 ecx
  00066	8b 55 08	 mov	 edx, DWORD PTR _ld$[ebp]
  00069	8b 42 08	 mov	 eax, DWORD PTR [edx+8]
  0006c	50		 push	 eax
  0006d	6a 00		 push	 0
  0006f	6a 00		 push	 0
  00071	e8 00 00 00 00	 call	 _R_PointToAngle2
  00076	83 c4 10	 add	 esp, 16			; 00000010H
  00079	89 45 f8	 mov	 DWORD PTR _lineangle$[ebp], eax

; 1965 : 
; 1966 : 	if (lineangle >= ANGLE_180)

  0007c	81 7d f8 00 00
	00 80		 cmp	 DWORD PTR _lineangle$[ebp], -2147483648 ; 80000000H
  00083	72 0b		 jb	 SHORT $LN4@P_HitBounc

; 1967 : 		lineangle -= ANGLE_180;

  00085	8b 45 f8	 mov	 eax, DWORD PTR _lineangle$[ebp]
  00088	2d 00 00 00 80	 sub	 eax, -2147483648	; 80000000H
  0008d	89 45 f8	 mov	 DWORD PTR _lineangle$[ebp], eax
$LN4@P_HitBounc:

; 1968 : 
; 1969 : 	moveangle = R_PointToAngle2(0, 0, tmxmove, tmymove);

  00090	a1 00 00 00 00	 mov	 eax, DWORD PTR _tmymove
  00095	50		 push	 eax
  00096	8b 0d 00 00 00
	00		 mov	 ecx, DWORD PTR _tmxmove
  0009c	51		 push	 ecx
  0009d	6a 00		 push	 0
  0009f	6a 00		 push	 0
  000a1	e8 00 00 00 00	 call	 _R_PointToAngle2
  000a6	83 c4 10	 add	 esp, 16			; 00000010H
  000a9	89 45 f4	 mov	 DWORD PTR _moveangle$[ebp], eax

; 1970 : 	deltaangle = moveangle + 2*(lineangle - moveangle);

  000ac	8b 45 f8	 mov	 eax, DWORD PTR _lineangle$[ebp]
  000af	2b 45 f4	 sub	 eax, DWORD PTR _moveangle$[ebp]
  000b2	8b 4d f4	 mov	 ecx, DWORD PTR _moveangle$[ebp]
  000b5	8d 14 41	 lea	 edx, DWORD PTR [ecx+eax*2]
  000b8	89 55 f0	 mov	 DWORD PTR _deltaangle$[ebp], edx

; 1971 : 
; 1972 : 	lineangle >>= ANGLETOFINESHIFT;

  000bb	8b 45 f8	 mov	 eax, DWORD PTR _lineangle$[ebp]
  000be	c1 e8 13	 shr	 eax, 19			; 00000013H
  000c1	89 45 f8	 mov	 DWORD PTR _lineangle$[ebp], eax

; 1973 : 	deltaangle >>= ANGLETOFINESHIFT;

  000c4	8b 45 f0	 mov	 eax, DWORD PTR _deltaangle$[ebp]
  000c7	c1 e8 13	 shr	 eax, 19			; 00000013H
  000ca	89 45 f0	 mov	 DWORD PTR _deltaangle$[ebp], eax

; 1974 : 
; 1975 : 	movelen = P_AproxDistance(tmxmove, tmymove);

  000cd	a1 00 00 00 00	 mov	 eax, DWORD PTR _tmymove
  000d2	50		 push	 eax
  000d3	8b 0d 00 00 00
	00		 mov	 ecx, DWORD PTR _tmxmove
  000d9	51		 push	 ecx
  000da	e8 00 00 00 00	 call	 _P_AproxDistance
  000df	83 c4 08	 add	 esp, 8
  000e2	89 45 ec	 mov	 DWORD PTR _movelen$[ebp], eax

; 1976 : 
; 1977 : 	tmxmove = FixedMul(movelen, FINECOSINE(deltaangle));

  000e5	8b 45 f0	 mov	 eax, DWORD PTR _deltaangle$[ebp]
  000e8	8b 0d 00 00 00
	00		 mov	 ecx, DWORD PTR _finecosine
  000ee	8b 14 81	 mov	 edx, DWORD PTR [ecx+eax*4]
  000f1	52		 push	 edx
  000f2	8b 45 ec	 mov	 eax, DWORD PTR _movelen$[ebp]
  000f5	50		 push	 eax
  000f6	e8 00 00 00 00	 call	 _FixedMul
  000fb	83 c4 08	 add	 esp, 8
  000fe	a3 00 00 00 00	 mov	 DWORD PTR _tmxmove, eax

; 1978 : 	tmymove = FixedMul(movelen, FINESINE(deltaangle));

  00103	8b 45 f0	 mov	 eax, DWORD PTR _deltaangle$[ebp]
  00106	8b 0c 85 00 00
	00 00		 mov	 ecx, DWORD PTR _finesine[eax*4]
  0010d	51		 push	 ecx
  0010e	8b 55 ec	 mov	 edx, DWORD PTR _movelen$[ebp]
  00111	52		 push	 edx
  00112	e8 00 00 00 00	 call	 _FixedMul
  00117	83 c4 08	 add	 esp, 8
  0011a	a3 00 00 00 00	 mov	 DWORD PTR _tmymove, eax

; 1979 : 
; 1980 : 	deltaangle = R_PointToAngle2(0, 0, tmxmove, tmymove);

  0011f	a1 00 00 00 00	 mov	 eax, DWORD PTR _tmymove
  00124	50		 push	 eax
  00125	8b 0d 00 00 00
	00		 mov	 ecx, DWORD PTR _tmxmove
  0012b	51		 push	 ecx
  0012c	6a 00		 push	 0
  0012e	6a 00		 push	 0
  00130	e8 00 00 00 00	 call	 _R_PointToAngle2
  00135	83 c4 10	 add	 esp, 16			; 00000010H
  00138	89 45 f0	 mov	 DWORD PTR _deltaangle$[ebp], eax
$LN1@P_HitBounc:

; 1981 : }

  0013b	5f		 pop	 edi
  0013c	5e		 pop	 esi
  0013d	5b		 pop	 ebx
  0013e	8b e5		 mov	 esp, ebp
  00140	5d		 pop	 ebp
  00141	c3		 ret	 0
_P_HitBounceLine ENDP
_TEXT	ENDS
; Function compile flags: /Odtp /ZI
; File C:\Users\RafaTheFox\Downloads\SRB2-Public-master\src\p_map.c
;	COMDAT _P_HitSlideLine
_TEXT	SEGMENT
_newlen$ = -24						; size = 4
_movelen$ = -20						; size = 4
_deltaangle$ = -16					; size = 4
_moveangle$ = -12					; size = 4
_lineangle$ = -8					; size = 4
_side$ = -4						; size = 4
_ld$ = 8						; size = 4
_P_HitSlideLine PROC					; COMDAT

; 1899 : {

  00000	55		 push	 ebp
  00001	8b ec		 mov	 ebp, esp
  00003	83 ec 58	 sub	 esp, 88			; 00000058H
  00006	53		 push	 ebx
  00007	56		 push	 esi
  00008	57		 push	 edi

; 1900 : 	INT32 side;
; 1901 : 	angle_t lineangle, moveangle, deltaangle;
; 1902 : 	fixed_t movelen, newlen;
; 1903 : 
; 1904 : 	if (ld->slopetype == ST_HORIZONTAL)

  00009	8b 45 08	 mov	 eax, DWORD PTR _ld$[ebp]
  0000c	83 78 2c 00	 cmp	 DWORD PTR [eax+44], 0
  00010	75 0f		 jne	 SHORT $LN2@P_HitSlide

; 1905 : 	{
; 1906 : 		tmymove = 0;

  00012	c7 05 00 00 00
	00 00 00 00 00	 mov	 DWORD PTR _tmymove, 0

; 1907 : 		return;

  0001c	e9 21 01 00 00	 jmp	 $LN1@P_HitSlide
$LN2@P_HitSlide:

; 1908 : 	}
; 1909 : 
; 1910 : 	if (ld->slopetype == ST_VERTICAL)

  00021	8b 45 08	 mov	 eax, DWORD PTR _ld$[ebp]
  00024	83 78 2c 01	 cmp	 DWORD PTR [eax+44], 1
  00028	75 0f		 jne	 SHORT $LN3@P_HitSlide

; 1911 : 	{
; 1912 : 		tmxmove = 0;

  0002a	c7 05 00 00 00
	00 00 00 00 00	 mov	 DWORD PTR _tmxmove, 0

; 1913 : 		return;

  00034	e9 09 01 00 00	 jmp	 $LN1@P_HitSlide
$LN3@P_HitSlide:

; 1914 : 	}
; 1915 : 
; 1916 : 	side = P_PointOnLineSide(slidemo->x, slidemo->y, ld);

  00039	8b 45 08	 mov	 eax, DWORD PTR _ld$[ebp]
  0003c	50		 push	 eax
  0003d	8b 0d 00 00 00
	00		 mov	 ecx, DWORD PTR _slidemo
  00043	8b 51 14	 mov	 edx, DWORD PTR [ecx+20]
  00046	52		 push	 edx
  00047	a1 00 00 00 00	 mov	 eax, DWORD PTR _slidemo
  0004c	8b 48 10	 mov	 ecx, DWORD PTR [eax+16]
  0004f	51		 push	 ecx
  00050	e8 00 00 00 00	 call	 _P_PointOnLineSide
  00055	83 c4 0c	 add	 esp, 12			; 0000000cH
  00058	89 45 fc	 mov	 DWORD PTR _side$[ebp], eax

; 1917 : 
; 1918 : 	lineangle = R_PointToAngle2(0, 0, ld->dx, ld->dy);

  0005b	8b 45 08	 mov	 eax, DWORD PTR _ld$[ebp]
  0005e	8b 48 0c	 mov	 ecx, DWORD PTR [eax+12]
  00061	51		 push	 ecx
  00062	8b 55 08	 mov	 edx, DWORD PTR _ld$[ebp]
  00065	8b 42 08	 mov	 eax, DWORD PTR [edx+8]
  00068	50		 push	 eax
  00069	6a 00		 push	 0
  0006b	6a 00		 push	 0
  0006d	e8 00 00 00 00	 call	 _R_PointToAngle2
  00072	83 c4 10	 add	 esp, 16			; 00000010H
  00075	89 45 f8	 mov	 DWORD PTR _lineangle$[ebp], eax

; 1919 : 
; 1920 : 	if (side == 1)

  00078	83 7d fc 01	 cmp	 DWORD PTR _side$[ebp], 1
  0007c	75 0b		 jne	 SHORT $LN4@P_HitSlide

; 1921 : 		lineangle += ANGLE_180;

  0007e	8b 45 f8	 mov	 eax, DWORD PTR _lineangle$[ebp]
  00081	2d 00 00 00 80	 sub	 eax, -2147483648	; 80000000H
  00086	89 45 f8	 mov	 DWORD PTR _lineangle$[ebp], eax
$LN4@P_HitSlide:

; 1922 : 
; 1923 : 	moveangle = R_PointToAngle2(0, 0, tmxmove, tmymove);

  00089	a1 00 00 00 00	 mov	 eax, DWORD PTR _tmymove
  0008e	50		 push	 eax
  0008f	8b 0d 00 00 00
	00		 mov	 ecx, DWORD PTR _tmxmove
  00095	51		 push	 ecx
  00096	6a 00		 push	 0
  00098	6a 00		 push	 0
  0009a	e8 00 00 00 00	 call	 _R_PointToAngle2
  0009f	83 c4 10	 add	 esp, 16			; 00000010H
  000a2	89 45 f4	 mov	 DWORD PTR _moveangle$[ebp], eax

; 1924 : 	deltaangle = moveangle-lineangle;

  000a5	8b 45 f4	 mov	 eax, DWORD PTR _moveangle$[ebp]
  000a8	2b 45 f8	 sub	 eax, DWORD PTR _lineangle$[ebp]
  000ab	89 45 f0	 mov	 DWORD PTR _deltaangle$[ebp], eax

; 1925 : 
; 1926 : 	if (deltaangle > ANGLE_180)

  000ae	81 7d f0 00 00
	00 80		 cmp	 DWORD PTR _deltaangle$[ebp], -2147483648 ; 80000000H
  000b5	76 0b		 jbe	 SHORT $LN5@P_HitSlide

; 1927 : 		deltaangle += ANGLE_180;

  000b7	8b 45 f0	 mov	 eax, DWORD PTR _deltaangle$[ebp]
  000ba	2d 00 00 00 80	 sub	 eax, -2147483648	; 80000000H
  000bf	89 45 f0	 mov	 DWORD PTR _deltaangle$[ebp], eax
$LN5@P_HitSlide:

; 1928 : 
; 1929 : 	lineangle >>= ANGLETOFINESHIFT;

  000c2	8b 45 f8	 mov	 eax, DWORD PTR _lineangle$[ebp]
  000c5	c1 e8 13	 shr	 eax, 19			; 00000013H
  000c8	89 45 f8	 mov	 DWORD PTR _lineangle$[ebp], eax

; 1930 : 	deltaangle >>= ANGLETOFINESHIFT;

  000cb	8b 45 f0	 mov	 eax, DWORD PTR _deltaangle$[ebp]
  000ce	c1 e8 13	 shr	 eax, 19			; 00000013H
  000d1	89 45 f0	 mov	 DWORD PTR _deltaangle$[ebp], eax

; 1931 : 
; 1932 : 	movelen = P_AproxDistance(tmxmove, tmymove);

  000d4	a1 00 00 00 00	 mov	 eax, DWORD PTR _tmymove
  000d9	50		 push	 eax
  000da	8b 0d 00 00 00
	00		 mov	 ecx, DWORD PTR _tmxmove
  000e0	51		 push	 ecx
  000e1	e8 00 00 00 00	 call	 _P_AproxDistance
  000e6	83 c4 08	 add	 esp, 8
  000e9	89 45 ec	 mov	 DWORD PTR _movelen$[ebp], eax

; 1933 : 	newlen = FixedMul(movelen, FINECOSINE(deltaangle));

  000ec	8b 45 f0	 mov	 eax, DWORD PTR _deltaangle$[ebp]
  000ef	8b 0d 00 00 00
	00		 mov	 ecx, DWORD PTR _finecosine
  000f5	8b 14 81	 mov	 edx, DWORD PTR [ecx+eax*4]
  000f8	52		 push	 edx
  000f9	8b 45 ec	 mov	 eax, DWORD PTR _movelen$[ebp]
  000fc	50		 push	 eax
  000fd	e8 00 00 00 00	 call	 _FixedMul
  00102	83 c4 08	 add	 esp, 8
  00105	89 45 e8	 mov	 DWORD PTR _newlen$[ebp], eax

; 1934 : 
; 1935 : 	tmxmove = FixedMul(newlen, FINECOSINE(lineangle));

  00108	8b 45 f8	 mov	 eax, DWORD PTR _lineangle$[ebp]
  0010b	8b 0d 00 00 00
	00		 mov	 ecx, DWORD PTR _finecosine
  00111	8b 14 81	 mov	 edx, DWORD PTR [ecx+eax*4]
  00114	52		 push	 edx
  00115	8b 45 e8	 mov	 eax, DWORD PTR _newlen$[ebp]
  00118	50		 push	 eax
  00119	e8 00 00 00 00	 call	 _FixedMul
  0011e	83 c4 08	 add	 esp, 8
  00121	a3 00 00 00 00	 mov	 DWORD PTR _tmxmove, eax

; 1936 : 	tmymove = FixedMul(newlen, FINESINE(lineangle));

  00126	8b 45 f8	 mov	 eax, DWORD PTR _lineangle$[ebp]
  00129	8b 0c 85 00 00
	00 00		 mov	 ecx, DWORD PTR _finesine[eax*4]
  00130	51		 push	 ecx
  00131	8b 55 e8	 mov	 edx, DWORD PTR _newlen$[ebp]
  00134	52		 push	 edx
  00135	e8 00 00 00 00	 call	 _FixedMul
  0013a	83 c4 08	 add	 esp, 8
  0013d	a3 00 00 00 00	 mov	 DWORD PTR _tmymove, eax
$LN1@P_HitSlide:

; 1937 : }

  00142	5f		 pop	 edi
  00143	5e		 pop	 esi
  00144	5b		 pop	 ebx
  00145	8b e5		 mov	 esp, ebp
  00147	5d		 pop	 ebp
  00148	c3		 ret	 0
_P_HitSlideLine ENDP
_TEXT	ENDS
; Function compile flags: /Odtp /ZI
; File C:\Users\RafaTheFox\Downloads\SRB2-Public-master\src\p_map.c
;	COMDAT _P_HitCameraSlideLine
_TEXT	SEGMENT
_newlen$ = -24						; size = 4
_movelen$ = -20						; size = 4
_deltaangle$ = -16					; size = 4
_moveangle$ = -12					; size = 4
_lineangle$ = -8					; size = 4
_side$ = -4						; size = 4
_ld$ = 8						; size = 4
_thiscam$ = 12						; size = 4
_P_HitCameraSlideLine PROC				; COMDAT

; 1854 : {

  00000	55		 push	 ebp
  00001	8b ec		 mov	 ebp, esp
  00003	83 ec 58	 sub	 esp, 88			; 00000058H
  00006	53		 push	 ebx
  00007	56		 push	 esi
  00008	57		 push	 edi

; 1855 : 	INT32 side;
; 1856 : 	angle_t lineangle, moveangle, deltaangle;
; 1857 : 	fixed_t movelen, newlen;
; 1858 : 
; 1859 : 	if (ld->slopetype == ST_HORIZONTAL)

  00009	8b 45 08	 mov	 eax, DWORD PTR _ld$[ebp]
  0000c	83 78 2c 00	 cmp	 DWORD PTR [eax+44], 0
  00010	75 0f		 jne	 SHORT $LN2@P_HitCamer

; 1860 : 	{
; 1861 : 		tmymove = 0;

  00012	c7 05 00 00 00
	00 00 00 00 00	 mov	 DWORD PTR _tmymove, 0

; 1862 : 		return;

  0001c	e9 1c 01 00 00	 jmp	 $LN1@P_HitCamer
$LN2@P_HitCamer:

; 1863 : 	}
; 1864 : 
; 1865 : 	if (ld->slopetype == ST_VERTICAL)

  00021	8b 45 08	 mov	 eax, DWORD PTR _ld$[ebp]
  00024	83 78 2c 01	 cmp	 DWORD PTR [eax+44], 1
  00028	75 0f		 jne	 SHORT $LN3@P_HitCamer

; 1866 : 	{
; 1867 : 		tmxmove = 0;

  0002a	c7 05 00 00 00
	00 00 00 00 00	 mov	 DWORD PTR _tmxmove, 0

; 1868 : 		return;

  00034	e9 04 01 00 00	 jmp	 $LN1@P_HitCamer
$LN3@P_HitCamer:

; 1869 : 	}
; 1870 : 
; 1871 : 	side = P_PointOnLineSide(thiscam->x, thiscam->y, ld);

  00039	8b 45 08	 mov	 eax, DWORD PTR _ld$[ebp]
  0003c	50		 push	 eax
  0003d	8b 4d 0c	 mov	 ecx, DWORD PTR _thiscam$[ebp]
  00040	8b 51 14	 mov	 edx, DWORD PTR [ecx+20]
  00043	52		 push	 edx
  00044	8b 45 0c	 mov	 eax, DWORD PTR _thiscam$[ebp]
  00047	8b 48 10	 mov	 ecx, DWORD PTR [eax+16]
  0004a	51		 push	 ecx
  0004b	e8 00 00 00 00	 call	 _P_PointOnLineSide
  00050	83 c4 0c	 add	 esp, 12			; 0000000cH
  00053	89 45 fc	 mov	 DWORD PTR _side$[ebp], eax

; 1872 : 	lineangle = R_PointToAngle2(0, 0, ld->dx, ld->dy);

  00056	8b 45 08	 mov	 eax, DWORD PTR _ld$[ebp]
  00059	8b 48 0c	 mov	 ecx, DWORD PTR [eax+12]
  0005c	51		 push	 ecx
  0005d	8b 55 08	 mov	 edx, DWORD PTR _ld$[ebp]
  00060	8b 42 08	 mov	 eax, DWORD PTR [edx+8]
  00063	50		 push	 eax
  00064	6a 00		 push	 0
  00066	6a 00		 push	 0
  00068	e8 00 00 00 00	 call	 _R_PointToAngle2
  0006d	83 c4 10	 add	 esp, 16			; 00000010H
  00070	89 45 f8	 mov	 DWORD PTR _lineangle$[ebp], eax

; 1873 : 
; 1874 : 	if (side == 1)

  00073	83 7d fc 01	 cmp	 DWORD PTR _side$[ebp], 1
  00077	75 0b		 jne	 SHORT $LN4@P_HitCamer

; 1875 : 		lineangle += ANGLE_180;

  00079	8b 45 f8	 mov	 eax, DWORD PTR _lineangle$[ebp]
  0007c	2d 00 00 00 80	 sub	 eax, -2147483648	; 80000000H
  00081	89 45 f8	 mov	 DWORD PTR _lineangle$[ebp], eax
$LN4@P_HitCamer:

; 1876 : 
; 1877 : 	moveangle = R_PointToAngle2(0, 0, tmxmove, tmymove);

  00084	a1 00 00 00 00	 mov	 eax, DWORD PTR _tmymove
  00089	50		 push	 eax
  0008a	8b 0d 00 00 00
	00		 mov	 ecx, DWORD PTR _tmxmove
  00090	51		 push	 ecx
  00091	6a 00		 push	 0
  00093	6a 00		 push	 0
  00095	e8 00 00 00 00	 call	 _R_PointToAngle2
  0009a	83 c4 10	 add	 esp, 16			; 00000010H
  0009d	89 45 f4	 mov	 DWORD PTR _moveangle$[ebp], eax

; 1878 : 	deltaangle = moveangle-lineangle;

  000a0	8b 45 f4	 mov	 eax, DWORD PTR _moveangle$[ebp]
  000a3	2b 45 f8	 sub	 eax, DWORD PTR _lineangle$[ebp]
  000a6	89 45 f0	 mov	 DWORD PTR _deltaangle$[ebp], eax

; 1879 : 
; 1880 : 	if (deltaangle > ANGLE_180)

  000a9	81 7d f0 00 00
	00 80		 cmp	 DWORD PTR _deltaangle$[ebp], -2147483648 ; 80000000H
  000b0	76 0b		 jbe	 SHORT $LN5@P_HitCamer

; 1881 : 		deltaangle += ANGLE_180;

  000b2	8b 45 f0	 mov	 eax, DWORD PTR _deltaangle$[ebp]
  000b5	2d 00 00 00 80	 sub	 eax, -2147483648	; 80000000H
  000ba	89 45 f0	 mov	 DWORD PTR _deltaangle$[ebp], eax
$LN5@P_HitCamer:

; 1882 : 
; 1883 : 	lineangle >>= ANGLETOFINESHIFT;

  000bd	8b 45 f8	 mov	 eax, DWORD PTR _lineangle$[ebp]
  000c0	c1 e8 13	 shr	 eax, 19			; 00000013H
  000c3	89 45 f8	 mov	 DWORD PTR _lineangle$[ebp], eax

; 1884 : 	deltaangle >>= ANGLETOFINESHIFT;

  000c6	8b 45 f0	 mov	 eax, DWORD PTR _deltaangle$[ebp]
  000c9	c1 e8 13	 shr	 eax, 19			; 00000013H
  000cc	89 45 f0	 mov	 DWORD PTR _deltaangle$[ebp], eax

; 1885 : 
; 1886 : 	movelen = P_AproxDistance(tmxmove, tmymove);

  000cf	a1 00 00 00 00	 mov	 eax, DWORD PTR _tmymove
  000d4	50		 push	 eax
  000d5	8b 0d 00 00 00
	00		 mov	 ecx, DWORD PTR _tmxmove
  000db	51		 push	 ecx
  000dc	e8 00 00 00 00	 call	 _P_AproxDistance
  000e1	83 c4 08	 add	 esp, 8
  000e4	89 45 ec	 mov	 DWORD PTR _movelen$[ebp], eax

; 1887 : 	newlen = FixedMul(movelen, FINECOSINE(deltaangle));

  000e7	8b 45 f0	 mov	 eax, DWORD PTR _deltaangle$[ebp]
  000ea	8b 0d 00 00 00
	00		 mov	 ecx, DWORD PTR _finecosine
  000f0	8b 14 81	 mov	 edx, DWORD PTR [ecx+eax*4]
  000f3	52		 push	 edx
  000f4	8b 45 ec	 mov	 eax, DWORD PTR _movelen$[ebp]
  000f7	50		 push	 eax
  000f8	e8 00 00 00 00	 call	 _FixedMul
  000fd	83 c4 08	 add	 esp, 8
  00100	89 45 e8	 mov	 DWORD PTR _newlen$[ebp], eax

; 1888 : 
; 1889 : 	tmxmove = FixedMul(newlen, FINECOSINE(lineangle));

  00103	8b 45 f8	 mov	 eax, DWORD PTR _lineangle$[ebp]
  00106	8b 0d 00 00 00
	00		 mov	 ecx, DWORD PTR _finecosine
  0010c	8b 14 81	 mov	 edx, DWORD PTR [ecx+eax*4]
  0010f	52		 push	 edx
  00110	8b 45 e8	 mov	 eax, DWORD PTR _newlen$[ebp]
  00113	50		 push	 eax
  00114	e8 00 00 00 00	 call	 _FixedMul
  00119	83 c4 08	 add	 esp, 8
  0011c	a3 00 00 00 00	 mov	 DWORD PTR _tmxmove, eax

; 1890 : 	tmymove = FixedMul(newlen, FINESINE(lineangle));

  00121	8b 45 f8	 mov	 eax, DWORD PTR _lineangle$[ebp]
  00124	8b 0c 85 00 00
	00 00		 mov	 ecx, DWORD PTR _finesine[eax*4]
  0012b	51		 push	 ecx
  0012c	8b 55 e8	 mov	 edx, DWORD PTR _newlen$[ebp]
  0012f	52		 push	 edx
  00130	e8 00 00 00 00	 call	 _FixedMul
  00135	83 c4 08	 add	 esp, 8
  00138	a3 00 00 00 00	 mov	 DWORD PTR _tmymove, eax
$LN1@P_HitCamer:

; 1891 : }

  0013d	5f		 pop	 edi
  0013e	5e		 pop	 esi
  0013f	5b		 pop	 ebx
  00140	8b e5		 mov	 esp, ebp
  00142	5d		 pop	 ebp
  00143	c3		 ret	 0
_P_HitCameraSlideLine ENDP
_TEXT	ENDS
; Function compile flags: /Odtp /ZI
; File C:\Users\RafaTheFox\Downloads\SRB2-Public-master\src\p_map.c
;	COMDAT _P_ThingHeightClip
_TEXT	SEGMENT
_onfloor$ = -8						; size = 4
_oldfloorz$ = -4					; size = 4
_thing$ = 8						; size = 4
_P_ThingHeightClip PROC					; COMDAT

; 1774 : {

  00000	55		 push	 ebp
  00001	8b ec		 mov	 ebp, esp
  00003	83 ec 48	 sub	 esp, 72			; 00000048H
  00006	53		 push	 ebx
  00007	56		 push	 esi
  00008	57		 push	 edi

; 1775 : 	fixed_t oldfloorz = thing->floorz;

  00009	8b 45 08	 mov	 eax, DWORD PTR _thing$[ebp]
  0000c	8b 48 38	 mov	 ecx, DWORD PTR [eax+56]
  0000f	89 4d fc	 mov	 DWORD PTR _oldfloorz$[ebp], ecx

; 1776 : 	boolean onfloor = P_IsObjectOnGround(thing);//(thing->z <= thing->floorz);

  00012	8b 45 08	 mov	 eax, DWORD PTR _thing$[ebp]
  00015	50		 push	 eax
  00016	e8 00 00 00 00	 call	 _P_IsObjectOnGround
  0001b	83 c4 04	 add	 esp, 4
  0001e	89 45 f8	 mov	 DWORD PTR _onfloor$[ebp], eax

; 1777 : 
; 1778 : 	if (thing->flags & MF_NOCLIPHEIGHT)

  00021	8b 45 08	 mov	 eax, DWORD PTR _thing$[ebp]
  00024	8b 48 60	 mov	 ecx, DWORD PTR [eax+96]
  00027	81 e1 00 00 80
	00		 and	 ecx, 8388608		; 00800000H
  0002d	74 0a		 je	 SHORT $LN2@P_ThingHei

; 1779 : 		return true;

  0002f	b8 01 00 00 00	 mov	 eax, 1
  00034	e9 2b 02 00 00	 jmp	 $LN1@P_ThingHei
$LN2@P_ThingHei:

; 1780 : 
; 1781 : 	// Have player fall through floor?
; 1782 : 	if (thing->player && thing->player->playerstate == PST_DEAD)

  00039	8b 45 08	 mov	 eax, DWORD PTR _thing$[ebp]
  0003c	83 b8 a4 00 00
	00 00		 cmp	 DWORD PTR [eax+164], 0
  00043	74 19		 je	 SHORT $LN3@P_ThingHei
  00045	8b 45 08	 mov	 eax, DWORD PTR _thing$[ebp]
  00048	8b 88 a4 00 00
	00		 mov	 ecx, DWORD PTR [eax+164]
  0004e	83 79 04 01	 cmp	 DWORD PTR [ecx+4], 1
  00052	75 0a		 jne	 SHORT $LN3@P_ThingHei

; 1783 : 		return true;

  00054	b8 01 00 00 00	 mov	 eax, 1
  00059	e9 06 02 00 00	 jmp	 $LN1@P_ThingHei
$LN3@P_ThingHei:

; 1784 : 
; 1785 : 	P_CheckPosition(thing, thing->x, thing->y);

  0005e	8b 45 08	 mov	 eax, DWORD PTR _thing$[ebp]
  00061	8b 48 14	 mov	 ecx, DWORD PTR [eax+20]
  00064	51		 push	 ecx
  00065	8b 55 08	 mov	 edx, DWORD PTR _thing$[ebp]
  00068	8b 42 10	 mov	 eax, DWORD PTR [edx+16]
  0006b	50		 push	 eax
  0006c	8b 4d 08	 mov	 ecx, DWORD PTR _thing$[ebp]
  0006f	51		 push	 ecx
  00070	e8 00 00 00 00	 call	 _P_CheckPosition
  00075	83 c4 0c	 add	 esp, 12			; 0000000cH

; 1786 : 
; 1787 : 	thing->floorz = tmfloorz;

  00078	8b 45 08	 mov	 eax, DWORD PTR _thing$[ebp]
  0007b	8b 0d 00 00 00
	00		 mov	 ecx, DWORD PTR _tmfloorz
  00081	89 48 38	 mov	 DWORD PTR [eax+56], ecx

; 1788 : 	thing->ceilingz = tmceilingz;

  00084	8b 45 08	 mov	 eax, DWORD PTR _thing$[ebp]
  00087	8b 0d 00 00 00
	00		 mov	 ecx, DWORD PTR _tmceilingz
  0008d	89 48 3c	 mov	 DWORD PTR [eax+60], ecx

; 1789 : 
; 1790 : 	// Ugly hack?!?! As long as just ceilingz is the lowest,
; 1791 : 	// you'll still get crushed, right?
; 1792 : 	if (tmfloorz > oldfloorz+thing->height)

  00090	8b 45 08	 mov	 eax, DWORD PTR _thing$[ebp]
  00093	8b 4d fc	 mov	 ecx, DWORD PTR _oldfloorz$[ebp]
  00096	03 48 44	 add	 ecx, DWORD PTR [eax+68]
  00099	39 0d 00 00 00
	00		 cmp	 DWORD PTR _tmfloorz, ecx
  0009f	7e 0a		 jle	 SHORT $LN4@P_ThingHei

; 1793 : 		return true;

  000a1	b8 01 00 00 00	 mov	 eax, 1
  000a6	e9 b9 01 00 00	 jmp	 $LN1@P_ThingHei
$LN4@P_ThingHei:

; 1794 : 
; 1795 : 	if (!tmfloorthing && onfloor && !(thing->flags & MF_NOGRAVITY))

  000ab	83 3d 00 00 00
	00 00		 cmp	 DWORD PTR _tmfloorthing, 0
  000b2	0f 85 07 01 00
	00		 jne	 $LN5@P_ThingHei
  000b8	83 7d f8 00	 cmp	 DWORD PTR _onfloor$[ebp], 0
  000bc	0f 84 fd 00 00
	00		 je	 $LN5@P_ThingHei
  000c2	8b 45 08	 mov	 eax, DWORD PTR _thing$[ebp]
  000c5	8b 48 60	 mov	 ecx, DWORD PTR [eax+96]
  000c8	81 e1 00 02 00
	00		 and	 ecx, 512		; 00000200H
  000ce	0f 85 eb 00 00
	00		 jne	 $LN5@P_ThingHei

; 1796 : 	{
; 1797 : 		if (thing->eflags & MFE_VERTICALFLIP)

  000d4	8b 45 08	 mov	 eax, DWORD PTR _thing$[ebp]
  000d7	8b 88 84 00 00
	00		 mov	 ecx, DWORD PTR [eax+132]
  000dd	83 e1 20	 and	 ecx, 32			; 00000020H
  000e0	74 1a		 je	 SHORT $LN7@P_ThingHei

; 1798 : 			thing->pmomz = thing->z + thing->height - thing->ceilingz;

  000e2	8b 45 08	 mov	 eax, DWORD PTR _thing$[ebp]
  000e5	8b 48 18	 mov	 ecx, DWORD PTR [eax+24]
  000e8	8b 55 08	 mov	 edx, DWORD PTR _thing$[ebp]
  000eb	03 4a 44	 add	 ecx, DWORD PTR [edx+68]
  000ee	8b 45 08	 mov	 eax, DWORD PTR _thing$[ebp]
  000f1	2b 48 3c	 sub	 ecx, DWORD PTR [eax+60]
  000f4	8b 55 08	 mov	 edx, DWORD PTR _thing$[ebp]
  000f7	89 4a 54	 mov	 DWORD PTR [edx+84], ecx
  000fa	eb 12		 jmp	 SHORT $LN8@P_ThingHei
$LN7@P_ThingHei:

; 1799 : 		else
; 1800 : 			thing->pmomz = thing->floorz - thing->z;

  000fc	8b 45 08	 mov	 eax, DWORD PTR _thing$[ebp]
  000ff	8b 4d 08	 mov	 ecx, DWORD PTR _thing$[ebp]
  00102	8b 50 38	 mov	 edx, DWORD PTR [eax+56]
  00105	2b 51 18	 sub	 edx, DWORD PTR [ecx+24]
  00108	8b 45 08	 mov	 eax, DWORD PTR _thing$[ebp]
  0010b	89 50 54	 mov	 DWORD PTR [eax+84], edx
$LN8@P_ThingHei:

; 1801 : 
; 1802 : 		if (thing->player)

  0010e	8b 45 08	 mov	 eax, DWORD PTR _thing$[ebp]
  00111	83 b8 a4 00 00
	00 00		 cmp	 DWORD PTR [eax+164], 0
  00118	74 75		 je	 SHORT $LN12@P_ThingHei

; 1803 : 		{
; 1804 : 			if (splitscreen && cv_chasecam2.value && thing->player == &players[secondarydisplayplayer])

  0011a	83 3d 00 00 00
	00 00		 cmp	 DWORD PTR _splitscreen, 0
  00121	74 37		 je	 SHORT $LN10@P_ThingHei
  00123	83 3d 14 00 00
	00 00		 cmp	 DWORD PTR _cv_chasecam2+20, 0
  0012a	74 2e		 je	 SHORT $LN10@P_ThingHei
  0012c	69 05 00 00 00
	00 fc 01 00 00	 imul	 eax, DWORD PTR _secondarydisplayplayer, 508
  00136	05 00 00 00 00	 add	 eax, OFFSET _players
  0013b	8b 4d 08	 mov	 ecx, DWORD PTR _thing$[ebp]
  0013e	39 81 a4 00 00
	00		 cmp	 DWORD PTR [ecx+164], eax
  00144	75 14		 jne	 SHORT $LN10@P_ThingHei

; 1805 : 				camera2.z += thing->pmomz;

  00146	8b 45 08	 mov	 eax, DWORD PTR _thing$[ebp]
  00149	8b 0d 18 00 00
	00		 mov	 ecx, DWORD PTR _camera2+24
  0014f	03 48 54	 add	 ecx, DWORD PTR [eax+84]
  00152	89 0d 18 00 00
	00		 mov	 DWORD PTR _camera2+24, ecx
  00158	eb 35		 jmp	 SHORT $LN12@P_ThingHei
$LN10@P_ThingHei:

; 1806 : 			else if (cv_chasecam.value && thing->player == &players[displayplayer])

  0015a	83 3d 14 00 00
	00 00		 cmp	 DWORD PTR _cv_chasecam+20, 0
  00161	74 2c		 je	 SHORT $LN12@P_ThingHei
  00163	69 05 00 00 00
	00 fc 01 00 00	 imul	 eax, DWORD PTR _displayplayer, 508
  0016d	05 00 00 00 00	 add	 eax, OFFSET _players
  00172	8b 4d 08	 mov	 ecx, DWORD PTR _thing$[ebp]
  00175	39 81 a4 00 00
	00		 cmp	 DWORD PTR [ecx+164], eax
  0017b	75 12		 jne	 SHORT $LN12@P_ThingHei

; 1807 : 				camera.z += thing->pmomz;

  0017d	8b 45 08	 mov	 eax, DWORD PTR _thing$[ebp]
  00180	8b 0d 18 00 00
	00		 mov	 ecx, DWORD PTR _camera+24
  00186	03 48 54	 add	 ecx, DWORD PTR [eax+84]
  00189	89 0d 18 00 00
	00		 mov	 DWORD PTR _camera+24, ecx
$LN12@P_ThingHei:

; 1808 : 		}
; 1809 : 
; 1810 : 		if (thing->eflags & MFE_VERTICALFLIP)

  0018f	8b 45 08	 mov	 eax, DWORD PTR _thing$[ebp]
  00192	8b 88 84 00 00
	00		 mov	 ecx, DWORD PTR [eax+132]
  00198	83 e1 20	 and	 ecx, 32			; 00000020H
  0019b	74 14		 je	 SHORT $LN13@P_ThingHei

; 1811 : 			thing->z = thing->ceilingz - thing->height;

  0019d	8b 45 08	 mov	 eax, DWORD PTR _thing$[ebp]
  001a0	8b 4d 08	 mov	 ecx, DWORD PTR _thing$[ebp]
  001a3	8b 50 3c	 mov	 edx, DWORD PTR [eax+60]
  001a6	2b 51 44	 sub	 edx, DWORD PTR [ecx+68]
  001a9	8b 45 08	 mov	 eax, DWORD PTR _thing$[ebp]
  001ac	89 50 18	 mov	 DWORD PTR [eax+24], edx
  001af	eb 0c		 jmp	 SHORT $LN14@P_ThingHei
$LN13@P_ThingHei:

; 1812 : 		else
; 1813 : 			thing->z = thing->floorz;

  001b1	8b 45 08	 mov	 eax, DWORD PTR _thing$[ebp]
  001b4	8b 4d 08	 mov	 ecx, DWORD PTR _thing$[ebp]
  001b7	8b 51 38	 mov	 edx, DWORD PTR [ecx+56]
  001ba	89 50 18	 mov	 DWORD PTR [eax+24], edx
$LN14@P_ThingHei:

; 1814 : 	}

  001bd	eb 65		 jmp	 SHORT $LN19@P_ThingHei
$LN5@P_ThingHei:

; 1815 : 	else if (!tmfloorthing)

  001bf	83 3d 00 00 00
	00 00		 cmp	 DWORD PTR _tmfloorthing, 0
  001c6	75 5c		 jne	 SHORT $LN19@P_ThingHei

; 1816 : 	{
; 1817 : 		// don't adjust a floating monster unless forced to
; 1818 : 		if (thing->eflags & MFE_VERTICALFLIP)

  001c8	8b 45 08	 mov	 eax, DWORD PTR _thing$[ebp]
  001cb	8b 88 84 00 00
	00		 mov	 ecx, DWORD PTR [eax+132]
  001d1	83 e1 20	 and	 ecx, 32			; 00000020H
  001d4	74 22		 je	 SHORT $LN16@P_ThingHei

; 1819 : 		{
; 1820 : 			if (!onfloor && thing->z < tmfloorz)

  001d6	83 7d f8 00	 cmp	 DWORD PTR _onfloor$[ebp], 0
  001da	75 1a		 jne	 SHORT $LN18@P_ThingHei
  001dc	8b 45 08	 mov	 eax, DWORD PTR _thing$[ebp]
  001df	8b 48 18	 mov	 ecx, DWORD PTR [eax+24]
  001e2	3b 0d 00 00 00
	00		 cmp	 ecx, DWORD PTR _tmfloorz
  001e8	7d 0c		 jge	 SHORT $LN18@P_ThingHei

; 1821 : 				thing->z = thing->floorz;

  001ea	8b 45 08	 mov	 eax, DWORD PTR _thing$[ebp]
  001ed	8b 4d 08	 mov	 ecx, DWORD PTR _thing$[ebp]
  001f0	8b 51 38	 mov	 edx, DWORD PTR [ecx+56]
  001f3	89 50 18	 mov	 DWORD PTR [eax+24], edx
$LN18@P_ThingHei:

; 1822 : 		}

  001f6	eb 2c		 jmp	 SHORT $LN19@P_ThingHei
$LN16@P_ThingHei:

; 1823 : 		else if (!onfloor && thing->z + thing->height > tmceilingz)

  001f8	83 7d f8 00	 cmp	 DWORD PTR _onfloor$[ebp], 0
  001fc	75 26		 jne	 SHORT $LN19@P_ThingHei
  001fe	8b 45 08	 mov	 eax, DWORD PTR _thing$[ebp]
  00201	8b 48 18	 mov	 ecx, DWORD PTR [eax+24]
  00204	8b 55 08	 mov	 edx, DWORD PTR _thing$[ebp]
  00207	03 4a 44	 add	 ecx, DWORD PTR [edx+68]
  0020a	3b 0d 00 00 00
	00		 cmp	 ecx, DWORD PTR _tmceilingz
  00210	7e 12		 jle	 SHORT $LN19@P_ThingHei

; 1824 : 			thing->z = thing->ceilingz - thing->height;

  00212	8b 45 08	 mov	 eax, DWORD PTR _thing$[ebp]
  00215	8b 4d 08	 mov	 ecx, DWORD PTR _thing$[ebp]
  00218	8b 50 3c	 mov	 edx, DWORD PTR [eax+60]
  0021b	2b 51 44	 sub	 edx, DWORD PTR [ecx+68]
  0021e	8b 45 08	 mov	 eax, DWORD PTR _thing$[ebp]
  00221	89 50 18	 mov	 DWORD PTR [eax+24], edx
$LN19@P_ThingHei:

; 1825 : 	}
; 1826 : 
; 1827 : 	// debug: be sure it falls to the floor
; 1828 : 	thing->eflags &= ~MFE_ONGROUND;

  00224	8b 45 08	 mov	 eax, DWORD PTR _thing$[ebp]
  00227	8b 88 84 00 00
	00		 mov	 ecx, DWORD PTR [eax+132]
  0022d	83 e1 fe	 and	 ecx, -2			; fffffffeH
  00230	8b 55 08	 mov	 edx, DWORD PTR _thing$[ebp]
  00233	89 8a 84 00 00
	00		 mov	 DWORD PTR [edx+132], ecx

; 1829 : 
; 1830 : 	if (thing->ceilingz - thing->floorz < thing->height && thing->z >= thing->floorz)

  00239	8b 45 08	 mov	 eax, DWORD PTR _thing$[ebp]
  0023c	8b 4d 08	 mov	 ecx, DWORD PTR _thing$[ebp]
  0023f	8b 50 3c	 mov	 edx, DWORD PTR [eax+60]
  00242	2b 51 38	 sub	 edx, DWORD PTR [ecx+56]
  00245	8b 45 08	 mov	 eax, DWORD PTR _thing$[ebp]
  00248	3b 50 44	 cmp	 edx, DWORD PTR [eax+68]
  0024b	7d 12		 jge	 SHORT $LN20@P_ThingHei
  0024d	8b 45 08	 mov	 eax, DWORD PTR _thing$[ebp]
  00250	8b 4d 08	 mov	 ecx, DWORD PTR _thing$[ebp]
  00253	8b 50 18	 mov	 edx, DWORD PTR [eax+24]
  00256	3b 51 38	 cmp	 edx, DWORD PTR [ecx+56]
  00259	7c 04		 jl	 SHORT $LN20@P_ThingHei

; 1831 : 		// BP: i know that this code cause many trouble but this also fixes
; 1832 : 		// a lot of problems, mainly this is implementation of the stepping
; 1833 : 		// for mobj (walk on solid corpse without jumping or fake 3d bridge)
; 1834 : 		// problem is imp into imp at map01 and monster going at top of others
; 1835 : 		return false;

  0025b	33 c0		 xor	 eax, eax
  0025d	eb 05		 jmp	 SHORT $LN1@P_ThingHei
$LN20@P_ThingHei:

; 1836 : 
; 1837 : 	return true;

  0025f	b8 01 00 00 00	 mov	 eax, 1
$LN1@P_ThingHei:

; 1838 : }

  00264	5f		 pop	 edi
  00265	5e		 pop	 esi
  00266	5b		 pop	 ebx
  00267	8b e5		 mov	 esp, ebp
  00269	5d		 pop	 ebp
  0026a	c3		 ret	 0
_P_ThingHeightClip ENDP
_TEXT	ENDS
; Function compile flags: /Odtp /ZI
; File C:\Users\RafaTheFox\Downloads\SRB2-Public-master\src\p_map.c
;	COMDAT _CheckMissileImpact
_TEXT	SEGMENT
_mobj$ = 8						; size = 4
_CheckMissileImpact PROC				; COMDAT

; 1379 : {

  00000	55		 push	 ebp
  00001	8b ec		 mov	 ebp, esp
  00003	83 ec 40	 sub	 esp, 64			; 00000040H
  00006	53		 push	 ebx
  00007	56		 push	 esi
  00008	57		 push	 edi

; 1380 : 	if (!(mobj->flags & MF_MISSILE) || !mobj->target)
; 1381 : 		return;
; 1382 : 
; 1383 : 	if (!mobj->target->player)
; 1384 : 		return;
; 1385 : }

  00009	5f		 pop	 edi
  0000a	5e		 pop	 esi
  0000b	5b		 pop	 ebx
  0000c	8b e5		 mov	 esp, ebp
  0000e	5d		 pop	 ebp
  0000f	c3		 ret	 0
_CheckMissileImpact ENDP
_TEXT	ENDS
; Function compile flags: /Odtp /ZI
; File C:\Users\RafaTheFox\Downloads\SRB2-Public-master\src\p_map.c
;	COMDAT _PIT_CheckLine
_TEXT	SEGMENT
_ld$ = 8						; size = 4
_PIT_CheckLine PROC					; COMDAT

; 902  : {

  00000	55		 push	 ebp
  00001	8b ec		 mov	 ebp, esp
  00003	83 ec 40	 sub	 esp, 64			; 00000040H
  00006	53		 push	 ebx
  00007	56		 push	 esi
  00008	57		 push	 edi

; 903  : 	if (ld->polyobj && !(ld->polyobj->flags & POF_SOLID))

  00009	8b 45 08	 mov	 eax, DWORD PTR _ld$[ebp]
  0000c	83 78 48 00	 cmp	 DWORD PTR [eax+72], 0
  00010	74 1b		 je	 SHORT $LN2@PIT_CheckL
  00012	8b 45 08	 mov	 eax, DWORD PTR _ld$[ebp]
  00015	8b 48 48	 mov	 ecx, DWORD PTR [eax+72]
  00018	8b 91 98 00 00
	00		 mov	 edx, DWORD PTR [ecx+152]
  0001e	83 e2 03	 and	 edx, 3
  00021	75 0a		 jne	 SHORT $LN2@PIT_CheckL

; 904  : 		return true;

  00023	b8 01 00 00 00	 mov	 eax, 1
  00028	e9 7d 01 00 00	 jmp	 $LN1@PIT_CheckL
$LN2@PIT_CheckL:

; 905  : 
; 906  : 	if (tmbbox[BOXRIGHT] <= ld->bbox[BOXLEFT] || tmbbox[BOXLEFT] >= ld->bbox[BOXRIGHT]
; 907  : 		|| tmbbox[BOXTOP] <= ld->bbox[BOXBOTTOM] || tmbbox[BOXBOTTOM] >= ld->bbox[BOXTOP])

  0002d	b8 04 00 00 00	 mov	 eax, 4
  00032	6b c8 03	 imul	 ecx, eax, 3
  00035	ba 04 00 00 00	 mov	 edx, 4
  0003a	d1 e2		 shl	 edx, 1
  0003c	8b 45 08	 mov	 eax, DWORD PTR _ld$[ebp]
  0003f	8b 89 00 00 00
	00		 mov	 ecx, DWORD PTR _tmbbox[ecx]
  00045	3b 4c 10 1c	 cmp	 ecx, DWORD PTR [eax+edx+28]
  00049	7e 5c		 jle	 SHORT $LN4@PIT_CheckL
  0004b	b8 04 00 00 00	 mov	 eax, 4
  00050	d1 e0		 shl	 eax, 1
  00052	b9 04 00 00 00	 mov	 ecx, 4
  00057	6b d1 03	 imul	 edx, ecx, 3
  0005a	8b 4d 08	 mov	 ecx, DWORD PTR _ld$[ebp]
  0005d	8b 80 00 00 00
	00		 mov	 eax, DWORD PTR _tmbbox[eax]
  00063	3b 44 11 1c	 cmp	 eax, DWORD PTR [ecx+edx+28]
  00067	7d 3e		 jge	 SHORT $LN4@PIT_CheckL
  00069	b8 04 00 00 00	 mov	 eax, 4
  0006e	6b c8 00	 imul	 ecx, eax, 0
  00071	ba 04 00 00 00	 mov	 edx, 4
  00076	c1 e2 00	 shl	 edx, 0
  00079	8b 45 08	 mov	 eax, DWORD PTR _ld$[ebp]
  0007c	8b 89 00 00 00
	00		 mov	 ecx, DWORD PTR _tmbbox[ecx]
  00082	3b 4c 10 1c	 cmp	 ecx, DWORD PTR [eax+edx+28]
  00086	7e 1f		 jle	 SHORT $LN4@PIT_CheckL
  00088	b8 04 00 00 00	 mov	 eax, 4
  0008d	c1 e0 00	 shl	 eax, 0
  00090	b9 04 00 00 00	 mov	 ecx, 4
  00095	6b d1 00	 imul	 edx, ecx, 0
  00098	8b 4d 08	 mov	 ecx, DWORD PTR _ld$[ebp]
  0009b	8b 80 00 00 00
	00		 mov	 eax, DWORD PTR _tmbbox[eax]
  000a1	3b 44 11 1c	 cmp	 eax, DWORD PTR [ecx+edx+28]
  000a5	7c 0a		 jl	 SHORT $LN3@PIT_CheckL
$LN4@PIT_CheckL:

; 908  : 	{
; 909  : 		return true;

  000a7	b8 01 00 00 00	 mov	 eax, 1
  000ac	e9 f9 00 00 00	 jmp	 $LN1@PIT_CheckL
$LN3@PIT_CheckL:

; 910  : 	}
; 911  : 
; 912  : 	if (P_BoxOnLineSide(tmbbox, ld) != -1)

  000b1	8b 45 08	 mov	 eax, DWORD PTR _ld$[ebp]
  000b4	50		 push	 eax
  000b5	68 00 00 00 00	 push	 OFFSET _tmbbox
  000ba	e8 00 00 00 00	 call	 _P_BoxOnLineSide
  000bf	83 c4 08	 add	 esp, 8
  000c2	83 f8 ff	 cmp	 eax, -1
  000c5	74 0a		 je	 SHORT $LN5@PIT_CheckL

; 913  : 		return true;

  000c7	b8 01 00 00 00	 mov	 eax, 1
  000cc	e9 d9 00 00 00	 jmp	 $LN1@PIT_CheckL
$LN5@PIT_CheckL:

; 914  : 
; 915  : 	// A line has been hit
; 916  : 
; 917  : 	// The moving thing's destination position will cross
; 918  : 	// the given line.
; 919  : 	// If this should not be allowed, return false.
; 920  : 	// If the line is special, keep track of it
; 921  : 	// to process later if the move is proven ok.
; 922  : 	// NOTE: specials are NOT sorted by order,
; 923  : 	// so two special lines that are only 8 pixels apart
; 924  : 	// could be crossed in either order.
; 925  : 
; 926  : 	// this line is out of the if so upper and lower textures can be hit by a splat
; 927  : 	blockingline = ld;

  000d1	8b 45 08	 mov	 eax, DWORD PTR _ld$[ebp]
  000d4	a3 00 00 00 00	 mov	 DWORD PTR _blockingline, eax

; 928  : 	if (!ld->backsector)

  000d9	8b 45 08	 mov	 eax, DWORD PTR _ld$[ebp]
  000dc	83 78 34 00	 cmp	 DWORD PTR [eax+52], 0
  000e0	75 07		 jne	 SHORT $LN6@PIT_CheckL

; 929  : 		return false; // one sided line

  000e2	33 c0		 xor	 eax, eax
  000e4	e9 c1 00 00 00	 jmp	 $LN1@PIT_CheckL
$LN6@PIT_CheckL:

; 930  : 
; 931  : 	// missiles can cross uncrossable lines
; 932  : 	if (!(tmthing->flags & MF_MISSILE))

  000e9	a1 00 00 00 00	 mov	 eax, DWORD PTR _tmthing
  000ee	8b 48 60	 mov	 ecx, DWORD PTR [eax+96]
  000f1	81 e1 00 00 01
	00		 and	 ecx, 65536		; 00010000H
  000f7	75 3b		 jne	 SHORT $LN8@PIT_CheckL

; 933  : 	{
; 934  : 		if (((tmthing->flags & MF_ENEMY) || (tmthing->flags & MF_BOSS) || (tmthing->type == MT_EGGGUARD)) && ld->flags & ML_BLOCKMONSTERS)

  000f9	a1 00 00 00 00	 mov	 eax, DWORD PTR _tmthing
  000fe	8b 48 60	 mov	 ecx, DWORD PTR [eax+96]
  00101	81 e1 00 00 00
	01		 and	 ecx, 16777216		; 01000000H
  00107	75 1b		 jne	 SHORT $LN9@PIT_CheckL
  00109	a1 00 00 00 00	 mov	 eax, DWORD PTR _tmthing
  0010e	8b 48 60	 mov	 ecx, DWORD PTR [eax+96]
  00111	81 e1 80 00 00
	00		 and	 ecx, 128		; 00000080H
  00117	75 0b		 jne	 SHORT $LN9@PIT_CheckL
  00119	a1 00 00 00 00	 mov	 eax, DWORD PTR _tmthing
  0011e	83 78 7c 15	 cmp	 DWORD PTR [eax+124], 21	; 00000015H
  00122	75 10		 jne	 SHORT $LN8@PIT_CheckL
$LN9@PIT_CheckL:
  00124	8b 45 08	 mov	 eax, DWORD PTR _ld$[ebp]
  00127	0f bf 48 10	 movsx	 ecx, WORD PTR [eax+16]
  0012b	83 e1 02	 and	 ecx, 2
  0012e	74 04		 je	 SHORT $LN8@PIT_CheckL

; 935  : 			return false; // block monsters only

  00130	33 c0		 xor	 eax, eax
  00132	eb 76		 jmp	 SHORT $LN1@PIT_CheckL
$LN8@PIT_CheckL:

; 936  : 	}
; 937  : 
; 938  : 	// set openrange, opentop, openbottom
; 939  : 	P_LineOpening(ld);

  00134	8b 45 08	 mov	 eax, DWORD PTR _ld$[ebp]
  00137	50		 push	 eax
  00138	e8 00 00 00 00	 call	 _P_LineOpening
  0013d	83 c4 04	 add	 esp, 4

; 940  : 
; 941  : 	// adjust floor / ceiling heights
; 942  : 	if (opentop < tmceilingz)

  00140	a1 00 00 00 00	 mov	 eax, DWORD PTR _opentop
  00145	3b 05 00 00 00
	00		 cmp	 eax, DWORD PTR _tmceilingz
  0014b	7d 1e		 jge	 SHORT $LN10@PIT_CheckL

; 943  : 	{
; 944  : 		tmsectorceilingz = tmceilingz = opentop;

  0014d	a1 00 00 00 00	 mov	 eax, DWORD PTR _opentop
  00152	a3 00 00 00 00	 mov	 DWORD PTR _tmceilingz, eax
  00157	8b 0d 00 00 00
	00		 mov	 ecx, DWORD PTR _tmceilingz
  0015d	89 0d 00 00 00
	00		 mov	 DWORD PTR _tmsectorceilingz, ecx

; 945  : 		ceilingline = ld;

  00163	8b 45 08	 mov	 eax, DWORD PTR _ld$[ebp]
  00166	a3 00 00 00 00	 mov	 DWORD PTR _ceilingline, eax
$LN10@PIT_CheckL:

; 946  : 	}
; 947  : 
; 948  : 	if (openbottom > tmfloorz)

  0016b	a1 00 00 00 00	 mov	 eax, DWORD PTR _openbottom
  00170	3b 05 00 00 00
	00		 cmp	 eax, DWORD PTR _tmfloorz
  00176	7e 16		 jle	 SHORT $LN11@PIT_CheckL

; 949  : 	{
; 950  : 		tmsectorfloorz = tmfloorz = openbottom;

  00178	a1 00 00 00 00	 mov	 eax, DWORD PTR _openbottom
  0017d	a3 00 00 00 00	 mov	 DWORD PTR _tmfloorz, eax
  00182	8b 0d 00 00 00
	00		 mov	 ecx, DWORD PTR _tmfloorz
  00188	89 0d 00 00 00
	00		 mov	 DWORD PTR _tmsectorfloorz, ecx
$LN11@PIT_CheckL:

; 951  : 	}
; 952  : 
; 953  : 	if (lowfloor < tmdropoffz)

  0018e	a1 00 00 00 00	 mov	 eax, DWORD PTR _lowfloor
  00193	3b 05 00 00 00
	00		 cmp	 eax, DWORD PTR _tmdropoffz
  00199	7d 0a		 jge	 SHORT $LN12@PIT_CheckL

; 954  : 		tmdropoffz = lowfloor;

  0019b	a1 00 00 00 00	 mov	 eax, DWORD PTR _lowfloor
  001a0	a3 00 00 00 00	 mov	 DWORD PTR _tmdropoffz, eax
$LN12@PIT_CheckL:

; 955  : 
; 956  : 	return true;

  001a5	b8 01 00 00 00	 mov	 eax, 1
$LN1@PIT_CheckL:

; 957  : }

  001aa	5f		 pop	 edi
  001ab	5e		 pop	 esi
  001ac	5b		 pop	 ebx
  001ad	8b e5		 mov	 esp, ebp
  001af	5d		 pop	 ebp
  001b0	c3		 ret	 0
_PIT_CheckLine ENDP
_TEXT	ENDS
; Function compile flags: /Odtp /ZI
; File C:\Users\RafaTheFox\Downloads\SRB2-Public-master\src\p_map.c
;	COMDAT _PIT_CheckCameraLine
_TEXT	SEGMENT
_ld$ = 8						; size = 4
_PIT_CheckCameraLine PROC				; COMDAT

; 847  : {

  00000	55		 push	 ebp
  00001	8b ec		 mov	 ebp, esp
  00003	83 ec 40	 sub	 esp, 64			; 00000040H
  00006	53		 push	 ebx
  00007	56		 push	 esi
  00008	57		 push	 edi

; 848  : 	if (ld->polyobj && !(ld->polyobj->flags & POF_SOLID))

  00009	8b 45 08	 mov	 eax, DWORD PTR _ld$[ebp]
  0000c	83 78 48 00	 cmp	 DWORD PTR [eax+72], 0
  00010	74 1b		 je	 SHORT $LN2@PIT_CheckC
  00012	8b 45 08	 mov	 eax, DWORD PTR _ld$[ebp]
  00015	8b 48 48	 mov	 ecx, DWORD PTR [eax+72]
  00018	8b 91 98 00 00
	00		 mov	 edx, DWORD PTR [ecx+152]
  0001e	83 e2 03	 and	 edx, 3
  00021	75 0a		 jne	 SHORT $LN2@PIT_CheckC

; 849  : 		return true;

  00023	b8 01 00 00 00	 mov	 eax, 1
  00028	e9 2f 01 00 00	 jmp	 $LN1@PIT_CheckC
$LN2@PIT_CheckC:

; 850  : 
; 851  : 	if (tmbbox[BOXRIGHT] <= ld->bbox[BOXLEFT] || tmbbox[BOXLEFT] >= ld->bbox[BOXRIGHT]
; 852  : 		|| tmbbox[BOXTOP] <= ld->bbox[BOXBOTTOM] || tmbbox[BOXBOTTOM] >= ld->bbox[BOXTOP])

  0002d	b8 04 00 00 00	 mov	 eax, 4
  00032	6b c8 03	 imul	 ecx, eax, 3
  00035	ba 04 00 00 00	 mov	 edx, 4
  0003a	d1 e2		 shl	 edx, 1
  0003c	8b 45 08	 mov	 eax, DWORD PTR _ld$[ebp]
  0003f	8b 89 00 00 00
	00		 mov	 ecx, DWORD PTR _tmbbox[ecx]
  00045	3b 4c 10 1c	 cmp	 ecx, DWORD PTR [eax+edx+28]
  00049	7e 5c		 jle	 SHORT $LN4@PIT_CheckC
  0004b	b8 04 00 00 00	 mov	 eax, 4
  00050	d1 e0		 shl	 eax, 1
  00052	b9 04 00 00 00	 mov	 ecx, 4
  00057	6b d1 03	 imul	 edx, ecx, 3
  0005a	8b 4d 08	 mov	 ecx, DWORD PTR _ld$[ebp]
  0005d	8b 80 00 00 00
	00		 mov	 eax, DWORD PTR _tmbbox[eax]
  00063	3b 44 11 1c	 cmp	 eax, DWORD PTR [ecx+edx+28]
  00067	7d 3e		 jge	 SHORT $LN4@PIT_CheckC
  00069	b8 04 00 00 00	 mov	 eax, 4
  0006e	6b c8 00	 imul	 ecx, eax, 0
  00071	ba 04 00 00 00	 mov	 edx, 4
  00076	c1 e2 00	 shl	 edx, 0
  00079	8b 45 08	 mov	 eax, DWORD PTR _ld$[ebp]
  0007c	8b 89 00 00 00
	00		 mov	 ecx, DWORD PTR _tmbbox[ecx]
  00082	3b 4c 10 1c	 cmp	 ecx, DWORD PTR [eax+edx+28]
  00086	7e 1f		 jle	 SHORT $LN4@PIT_CheckC
  00088	b8 04 00 00 00	 mov	 eax, 4
  0008d	c1 e0 00	 shl	 eax, 0
  00090	b9 04 00 00 00	 mov	 ecx, 4
  00095	6b d1 00	 imul	 edx, ecx, 0
  00098	8b 4d 08	 mov	 ecx, DWORD PTR _ld$[ebp]
  0009b	8b 80 00 00 00
	00		 mov	 eax, DWORD PTR _tmbbox[eax]
  000a1	3b 44 11 1c	 cmp	 eax, DWORD PTR [ecx+edx+28]
  000a5	7c 0a		 jl	 SHORT $LN3@PIT_CheckC
$LN4@PIT_CheckC:

; 853  : 	{
; 854  : 		return true;

  000a7	b8 01 00 00 00	 mov	 eax, 1
  000ac	e9 ab 00 00 00	 jmp	 $LN1@PIT_CheckC
$LN3@PIT_CheckC:

; 855  : 	}
; 856  : 
; 857  : 	if (P_BoxOnLineSide(tmbbox, ld) != -1)

  000b1	8b 45 08	 mov	 eax, DWORD PTR _ld$[ebp]
  000b4	50		 push	 eax
  000b5	68 00 00 00 00	 push	 OFFSET _tmbbox
  000ba	e8 00 00 00 00	 call	 _P_BoxOnLineSide
  000bf	83 c4 08	 add	 esp, 8
  000c2	83 f8 ff	 cmp	 eax, -1
  000c5	74 0a		 je	 SHORT $LN5@PIT_CheckC

; 858  : 		return true;

  000c7	b8 01 00 00 00	 mov	 eax, 1
  000cc	e9 8b 00 00 00	 jmp	 $LN1@PIT_CheckC
$LN5@PIT_CheckC:

; 859  : 
; 860  : 	// A line has been hit
; 861  : 
; 862  : 	// The moving thing's destination position will cross
; 863  : 	// the given line.
; 864  : 	// If this should not be allowed, return false.
; 865  : 	// If the line is special, keep track of it
; 866  : 	// to process later if the move is proven ok.
; 867  : 	// NOTE: specials are NOT sorted by order,
; 868  : 	// so two special lines that are only 8 pixels apart
; 869  : 	// could be crossed in either order.
; 870  : 
; 871  : 	// this line is out of the if so upper and lower textures can be hit by a splat
; 872  : 	blockingline = ld;

  000d1	8b 45 08	 mov	 eax, DWORD PTR _ld$[ebp]
  000d4	a3 00 00 00 00	 mov	 DWORD PTR _blockingline, eax

; 873  : 	if (!ld->backsector)

  000d9	8b 45 08	 mov	 eax, DWORD PTR _ld$[ebp]
  000dc	83 78 34 00	 cmp	 DWORD PTR [eax+52], 0
  000e0	75 04		 jne	 SHORT $LN6@PIT_CheckC

; 874  : 		return false; // one sided line

  000e2	33 c0		 xor	 eax, eax
  000e4	eb 76		 jmp	 SHORT $LN1@PIT_CheckC
$LN6@PIT_CheckC:

; 875  : 
; 876  : 	// set openrange, opentop, openbottom
; 877  : 	P_CameraLineOpening(ld);

  000e6	8b 45 08	 mov	 eax, DWORD PTR _ld$[ebp]
  000e9	50		 push	 eax
  000ea	e8 00 00 00 00	 call	 _P_CameraLineOpening
  000ef	83 c4 04	 add	 esp, 4

; 878  : 
; 879  : 	// adjust floor / ceiling heights
; 880  : 	if (opentop < tmceilingz)

  000f2	a1 00 00 00 00	 mov	 eax, DWORD PTR _opentop
  000f7	3b 05 00 00 00
	00		 cmp	 eax, DWORD PTR _tmceilingz
  000fd	7d 1e		 jge	 SHORT $LN7@PIT_CheckC

; 881  : 	{
; 882  : 		tmsectorceilingz = tmceilingz = opentop;

  000ff	a1 00 00 00 00	 mov	 eax, DWORD PTR _opentop
  00104	a3 00 00 00 00	 mov	 DWORD PTR _tmceilingz, eax
  00109	8b 0d 00 00 00
	00		 mov	 ecx, DWORD PTR _tmceilingz
  0010f	89 0d 00 00 00
	00		 mov	 DWORD PTR _tmsectorceilingz, ecx

; 883  : 		ceilingline = ld;

  00115	8b 45 08	 mov	 eax, DWORD PTR _ld$[ebp]
  00118	a3 00 00 00 00	 mov	 DWORD PTR _ceilingline, eax
$LN7@PIT_CheckC:

; 884  : 	}
; 885  : 
; 886  : 	if (openbottom > tmfloorz)

  0011d	a1 00 00 00 00	 mov	 eax, DWORD PTR _openbottom
  00122	3b 05 00 00 00
	00		 cmp	 eax, DWORD PTR _tmfloorz
  00128	7e 16		 jle	 SHORT $LN8@PIT_CheckC

; 887  : 	{
; 888  : 		tmsectorfloorz = tmfloorz = openbottom;

  0012a	a1 00 00 00 00	 mov	 eax, DWORD PTR _openbottom
  0012f	a3 00 00 00 00	 mov	 DWORD PTR _tmfloorz, eax
  00134	8b 0d 00 00 00
	00		 mov	 ecx, DWORD PTR _tmfloorz
  0013a	89 0d 00 00 00
	00		 mov	 DWORD PTR _tmsectorfloorz, ecx
$LN8@PIT_CheckC:

; 889  : 	}
; 890  : 
; 891  : 	if (lowfloor < tmdropoffz)

  00140	a1 00 00 00 00	 mov	 eax, DWORD PTR _lowfloor
  00145	3b 05 00 00 00
	00		 cmp	 eax, DWORD PTR _tmdropoffz
  0014b	7d 0a		 jge	 SHORT $LN9@PIT_CheckC

; 892  : 		tmdropoffz = lowfloor;

  0014d	a1 00 00 00 00	 mov	 eax, DWORD PTR _lowfloor
  00152	a3 00 00 00 00	 mov	 DWORD PTR _tmdropoffz, eax
$LN9@PIT_CheckC:

; 893  : 
; 894  : 	return true;

  00157	b8 01 00 00 00	 mov	 eax, 1
$LN1@PIT_CheckC:

; 895  : }

  0015c	5f		 pop	 edi
  0015d	5e		 pop	 esi
  0015e	5b		 pop	 ebx
  0015f	8b e5		 mov	 esp, ebp
  00161	5d		 pop	 ebp
  00162	c3		 ret	 0
_PIT_CheckCameraLine ENDP
_TEXT	ENDS
; Function compile flags: /Odtp /ZI
; File C:\Users\RafaTheFox\Downloads\SRB2-Public-master\src\p_map.c
;	COMDAT _PIT_CheckThing
_TEXT	SEGMENT
tv824 = -84						; size = 4
tv239 = -80						; size = 4
tv819 = -80						; size = 4
tv942 = -80						; size = 4
tv1072 = -80						; size = 4
tv1157 = -80						; size = 4
tv1347 = -80						; size = 4
_tmtopz$ = -12						; size = 4
_topz$ = -8						; size = 4
_blockdist$ = -4					; size = 4
_thing$ = 8						; size = 4
_PIT_CheckThing PROC					; COMDAT

; 192  : {

  00000	55		 push	 ebp
  00001	8b ec		 mov	 ebp, esp
  00003	83 ec 54	 sub	 esp, 84			; 00000054H
  00006	53		 push	 ebx
  00007	56		 push	 esi
  00008	57		 push	 edi

; 193  : 	fixed_t blockdist, topz, tmtopz;
; 194  : 
; 195  : 	// don't clip against self
; 196  : 	tmsprung = false;

  00009	c7 05 00 00 00
	00 00 00 00 00	 mov	 DWORD PTR _tmsprung, 0

; 197  : 
; 198  : 	// Ignore spectators, except when using a spring.
; 199  : 	if ((tmthing->player && tmthing->player->spectator && !(thing->flags & MF_SPRING)) ||

  00013	a1 00 00 00 00	 mov	 eax, DWORD PTR _tmthing
  00018	83 b8 a4 00 00
	00 00		 cmp	 DWORD PTR [eax+164], 0
  0001f	74 24		 je	 SHORT $LN10@PIT_CheckT
  00021	a1 00 00 00 00	 mov	 eax, DWORD PTR _tmthing
  00026	8b 88 a4 00 00
	00		 mov	 ecx, DWORD PTR [eax+164]
  0002c	0f b6 91 f0 01
	00 00		 movzx	 edx, BYTE PTR [ecx+496]
  00033	85 d2		 test	 edx, edx
  00035	74 0e		 je	 SHORT $LN10@PIT_CheckT
  00037	8b 45 08	 mov	 eax, DWORD PTR _thing$[ebp]
  0003a	8b 48 60	 mov	 ecx, DWORD PTR [eax+96]
  0003d	81 e1 00 00 02
	00		 and	 ecx, 131072		; 00020000H
  00043	74 20		 je	 SHORT $LN9@PIT_CheckT
$LN10@PIT_CheckT:
  00045	8b 45 08	 mov	 eax, DWORD PTR _thing$[ebp]
  00048	83 b8 a4 00 00
	00 00		 cmp	 DWORD PTR [eax+164], 0
  0004f	74 1e		 je	 SHORT $LN8@PIT_CheckT
  00051	8b 45 08	 mov	 eax, DWORD PTR _thing$[ebp]
  00054	8b 88 a4 00 00
	00		 mov	 ecx, DWORD PTR [eax+164]
  0005a	0f b6 91 f0 01
	00 00		 movzx	 edx, BYTE PTR [ecx+496]
  00061	85 d2		 test	 edx, edx
  00063	74 0a		 je	 SHORT $LN8@PIT_CheckT
$LN9@PIT_CheckT:

; 200  : 		(thing->player && thing->player->spectator))
; 201  : 		return true;

  00065	b8 01 00 00 00	 mov	 eax, 1
  0006a	e9 b3 21 00 00	 jmp	 $LN1@PIT_CheckT
$LN8@PIT_CheckT:

; 202  : 
; 203  : 	if (!(thing->flags & (MF_SOLID|MF_SPECIAL|MF_SHOOTABLE)))

  0006f	8b 45 08	 mov	 eax, DWORD PTR _thing$[ebp]
  00072	8b 48 60	 mov	 ecx, DWORD PTR [eax+96]
  00075	83 e1 07	 and	 ecx, 7
  00078	75 0a		 jne	 SHORT $LN11@PIT_CheckT

; 204  : 		return true;

  0007a	b8 01 00 00 00	 mov	 eax, 1
  0007f	e9 9e 21 00 00	 jmp	 $LN1@PIT_CheckT
$LN11@PIT_CheckT:

; 205  : 
; 206  : 	if (!tmthing || !thing || thing == tmthing || !thing->state || thing->state == &states[S_DISS])

  00084	83 3d 00 00 00
	00 00		 cmp	 DWORD PTR _tmthing, 0
  0008b	74 33		 je	 SHORT $LN13@PIT_CheckT
  0008d	83 7d 08 00	 cmp	 DWORD PTR _thing$[ebp], 0
  00091	74 2d		 je	 SHORT $LN13@PIT_CheckT
  00093	8b 45 08	 mov	 eax, DWORD PTR _thing$[ebp]
  00096	3b 05 00 00 00
	00		 cmp	 eax, DWORD PTR _tmthing
  0009c	74 22		 je	 SHORT $LN13@PIT_CheckT
  0009e	8b 45 08	 mov	 eax, DWORD PTR _thing$[ebp]
  000a1	83 78 5c 00	 cmp	 DWORD PTR [eax+92], 0
  000a5	74 19		 je	 SHORT $LN13@PIT_CheckT
  000a7	b8 1c 00 00 00	 mov	 eax, 28			; 0000001cH
  000ac	69 c8 4f 06 00
	00		 imul	 ecx, eax, 1615
  000b2	81 c1 00 00 00
	00		 add	 ecx, OFFSET _states
  000b8	8b 55 08	 mov	 edx, DWORD PTR _thing$[ebp]
  000bb	39 4a 5c	 cmp	 DWORD PTR [edx+92], ecx
  000be	75 0a		 jne	 SHORT $LN12@PIT_CheckT
$LN13@PIT_CheckT:

; 207  : 		return true;

  000c0	b8 01 00 00 00	 mov	 eax, 1
  000c5	e9 58 21 00 00	 jmp	 $LN1@PIT_CheckT
$LN12@PIT_CheckT:

; 208  : 
; 209  : 	// Don't collide with your buddies while NiGHTS-flying.
; 210  : 	if (tmthing->player && thing->player && (maptol & TOL_NIGHTS)
; 211  : 		&& ((tmthing->player->pflags & PF_NIGHTSMODE) || (thing->player->pflags & PF_NIGHTSMODE)))

  000ca	a1 00 00 00 00	 mov	 eax, DWORD PTR _tmthing
  000cf	83 b8 a4 00 00
	00 00		 cmp	 DWORD PTR [eax+164], 0
  000d6	74 52		 je	 SHORT $LN14@PIT_CheckT
  000d8	8b 45 08	 mov	 eax, DWORD PTR _thing$[ebp]
  000db	83 b8 a4 00 00
	00 00		 cmp	 DWORD PTR [eax+164], 0
  000e2	74 46		 je	 SHORT $LN14@PIT_CheckT
  000e4	0f bf 05 00 00
	00 00		 movsx	 eax, WORD PTR _maptol
  000eb	83 e0 40	 and	 eax, 64			; 00000040H
  000ee	74 3a		 je	 SHORT $LN14@PIT_CheckT
  000f0	a1 00 00 00 00	 mov	 eax, DWORD PTR _tmthing
  000f5	8b 88 a4 00 00
	00		 mov	 ecx, DWORD PTR [eax+164]
  000fb	8b 91 ac 00 00
	00		 mov	 edx, DWORD PTR [ecx+172]
  00101	81 e2 00 00 20
	00		 and	 edx, 2097152		; 00200000H
  00107	75 17		 jne	 SHORT $LN15@PIT_CheckT
  00109	8b 45 08	 mov	 eax, DWORD PTR _thing$[ebp]
  0010c	8b 88 a4 00 00
	00		 mov	 ecx, DWORD PTR [eax+164]
  00112	8b 91 ac 00 00
	00		 mov	 edx, DWORD PTR [ecx+172]
  00118	81 e2 00 00 20
	00		 and	 edx, 2097152		; 00200000H
  0011e	74 0a		 je	 SHORT $LN14@PIT_CheckT
$LN15@PIT_CheckT:

; 212  : 		return true;

  00120	b8 01 00 00 00	 mov	 eax, 1
  00125	e9 f8 20 00 00	 jmp	 $LN1@PIT_CheckT
$LN14@PIT_CheckT:

; 213  : 
; 214  : 	blockdist = thing->radius + tmthing->radius;

  0012a	8b 45 08	 mov	 eax, DWORD PTR _thing$[ebp]
  0012d	8b 48 40	 mov	 ecx, DWORD PTR [eax+64]
  00130	8b 15 00 00 00
	00		 mov	 edx, DWORD PTR _tmthing
  00136	03 4a 40	 add	 ecx, DWORD PTR [edx+64]
  00139	89 4d fc	 mov	 DWORD PTR _blockdist$[ebp], ecx

; 215  : 
; 216  : 	if (abs(thing->x - tmx) >= blockdist || abs(thing->y - tmy) >= blockdist)

  0013c	8b 45 08	 mov	 eax, DWORD PTR _thing$[ebp]
  0013f	8b 48 10	 mov	 ecx, DWORD PTR [eax+16]
  00142	2b 0d 00 00 00
	00		 sub	 ecx, DWORD PTR _tmx
  00148	51		 push	 ecx
  00149	e8 00 00 00 00	 call	 _abs
  0014e	83 c4 04	 add	 esp, 4
  00151	3b 45 fc	 cmp	 eax, DWORD PTR _blockdist$[ebp]
  00154	7d 1a		 jge	 SHORT $LN17@PIT_CheckT
  00156	8b 45 08	 mov	 eax, DWORD PTR _thing$[ebp]
  00159	8b 48 14	 mov	 ecx, DWORD PTR [eax+20]
  0015c	2b 0d 00 00 00
	00		 sub	 ecx, DWORD PTR _tmy
  00162	51		 push	 ecx
  00163	e8 00 00 00 00	 call	 _abs
  00168	83 c4 04	 add	 esp, 4
  0016b	3b 45 fc	 cmp	 eax, DWORD PTR _blockdist$[ebp]
  0016e	7c 0a		 jl	 SHORT $LN16@PIT_CheckT
$LN17@PIT_CheckT:

; 217  : 		return true; // didn't hit it

  00170	b8 01 00 00 00	 mov	 eax, 1
  00175	e9 a8 20 00 00	 jmp	 $LN1@PIT_CheckT
$LN16@PIT_CheckT:

; 218  : 
; 219  : 	if (thing->type == MT_HOOPCOLLIDE)

  0017a	8b 45 08	 mov	 eax, DWORD PTR _thing$[ebp]
  0017d	81 78 7c f9 00
	00 00		 cmp	 DWORD PTR [eax+124], 249 ; 000000f9H
  00184	75 29		 jne	 SHORT $LN18@PIT_CheckT

; 220  : 	{
; 221  : 		if (thing->flags & MF_SPECIAL)

  00186	8b 45 08	 mov	 eax, DWORD PTR _thing$[ebp]
  00189	8b 48 60	 mov	 ecx, DWORD PTR [eax+96]
  0018c	83 e1 01	 and	 ecx, 1
  0018f	74 14		 je	 SHORT $LN19@PIT_CheckT

; 222  : 			P_TouchSpecialThing(thing, tmthing, true);

  00191	6a 01		 push	 1
  00193	a1 00 00 00 00	 mov	 eax, DWORD PTR _tmthing
  00198	50		 push	 eax
  00199	8b 4d 08	 mov	 ecx, DWORD PTR _thing$[ebp]
  0019c	51		 push	 ecx
  0019d	e8 00 00 00 00	 call	 _P_TouchSpecialThing
  001a2	83 c4 0c	 add	 esp, 12			; 0000000cH
$LN19@PIT_CheckT:

; 223  : 		return true;

  001a5	b8 01 00 00 00	 mov	 eax, 1
  001aa	e9 73 20 00 00	 jmp	 $LN1@PIT_CheckT
$LN18@PIT_CheckT:

; 224  : 	}
; 225  : 	if (tmthing->type == MT_HOOPCOLLIDE)

  001af	a1 00 00 00 00	 mov	 eax, DWORD PTR _tmthing
  001b4	81 78 7c f9 00
	00 00		 cmp	 DWORD PTR [eax+124], 249 ; 000000f9H
  001bb	75 2c		 jne	 SHORT $LN20@PIT_CheckT

; 226  : 	{
; 227  : 		if (tmthing->flags & MF_SPECIAL)

  001bd	a1 00 00 00 00	 mov	 eax, DWORD PTR _tmthing
  001c2	8b 48 60	 mov	 ecx, DWORD PTR [eax+96]
  001c5	83 e1 01	 and	 ecx, 1
  001c8	74 15		 je	 SHORT $LN21@PIT_CheckT

; 228  : 			P_TouchSpecialThing(tmthing, thing, true);

  001ca	6a 01		 push	 1
  001cc	8b 45 08	 mov	 eax, DWORD PTR _thing$[ebp]
  001cf	50		 push	 eax
  001d0	8b 0d 00 00 00
	00		 mov	 ecx, DWORD PTR _tmthing
  001d6	51		 push	 ecx
  001d7	e8 00 00 00 00	 call	 _P_TouchSpecialThing
  001dc	83 c4 0c	 add	 esp, 12			; 0000000cH
$LN21@PIT_CheckT:

; 229  : 		return true;

  001df	b8 01 00 00 00	 mov	 eax, 1
  001e4	e9 39 20 00 00	 jmp	 $LN1@PIT_CheckT
$LN20@PIT_CheckT:

; 230  : 	}
; 231  : 
; 232  : 	// check for skulls slamming into things
; 233  : 	if (tmthing->flags2 & MF2_SKULLFLY)

  001e9	a1 00 00 00 00	 mov	 eax, DWORD PTR _tmthing
  001ee	8b 88 88 00 00
	00		 mov	 ecx, DWORD PTR [eax+136]
  001f4	81 e1 00 10 00
	00		 and	 ecx, 4096		; 00001000H
  001fa	0f 84 90 00 00
	00		 je	 $LN24@PIT_CheckT

; 234  : 	{
; 235  : 		if (tmthing->type == MT_EGGMOBILE) // Don't make Eggman stop!

  00200	a1 00 00 00 00	 mov	 eax, DWORD PTR _tmthing
  00205	83 78 7c 1d	 cmp	 DWORD PTR [eax+124], 29	; 0000001dH
  00209	75 3b		 jne	 SHORT $LN23@PIT_CheckT

; 236  : 		{
; 237  : 			tmthing->momx = -tmthing->momx;

  0020b	a1 00 00 00 00	 mov	 eax, DWORD PTR _tmthing
  00210	8b 48 48	 mov	 ecx, DWORD PTR [eax+72]
  00213	f7 d9		 neg	 ecx
  00215	8b 15 00 00 00
	00		 mov	 edx, DWORD PTR _tmthing
  0021b	89 4a 48	 mov	 DWORD PTR [edx+72], ecx

; 238  : 			tmthing->momy = -tmthing->momy;

  0021e	a1 00 00 00 00	 mov	 eax, DWORD PTR _tmthing
  00223	8b 48 4c	 mov	 ecx, DWORD PTR [eax+76]
  00226	f7 d9		 neg	 ecx
  00228	8b 15 00 00 00
	00		 mov	 edx, DWORD PTR _tmthing
  0022e	89 4a 4c	 mov	 DWORD PTR [edx+76], ecx

; 239  : 			tmthing->momz = -tmthing->momz;

  00231	a1 00 00 00 00	 mov	 eax, DWORD PTR _tmthing
  00236	8b 48 50	 mov	 ecx, DWORD PTR [eax+80]
  00239	f7 d9		 neg	 ecx
  0023b	8b 15 00 00 00
	00		 mov	 edx, DWORD PTR _tmthing
  00241	89 4a 50	 mov	 DWORD PTR [edx+80], ecx

; 240  : 		}

  00244	eb 4a		 jmp	 SHORT $LN24@PIT_CheckT
$LN23@PIT_CheckT:

; 241  : 		else
; 242  : 		{
; 243  : 			tmthing->flags2 &= ~MF2_SKULLFLY;

  00246	a1 00 00 00 00	 mov	 eax, DWORD PTR _tmthing
  0024b	8b 88 88 00 00
	00		 mov	 ecx, DWORD PTR [eax+136]
  00251	81 e1 ff ef ff
	ff		 and	 ecx, -4097		; ffffefffH
  00257	8b 15 00 00 00
	00		 mov	 edx, DWORD PTR _tmthing
  0025d	89 8a 88 00 00
	00		 mov	 DWORD PTR [edx+136], ecx

; 244  : 			tmthing->momx = tmthing->momy = tmthing->momz = 0;

  00263	a1 00 00 00 00	 mov	 eax, DWORD PTR _tmthing
  00268	c7 40 50 00 00
	00 00		 mov	 DWORD PTR [eax+80], 0
  0026f	8b 0d 00 00 00
	00		 mov	 ecx, DWORD PTR _tmthing
  00275	c7 41 4c 00 00
	00 00		 mov	 DWORD PTR [ecx+76], 0
  0027c	8b 15 00 00 00
	00		 mov	 edx, DWORD PTR _tmthing
  00282	c7 42 48 00 00
	00 00		 mov	 DWORD PTR [edx+72], 0

; 245  : 			return false; // stop moving

  00289	33 c0		 xor	 eax, eax
  0028b	e9 92 1f 00 00	 jmp	 $LN1@PIT_CheckT
$LN24@PIT_CheckT:

; 246  : 		}
; 247  : 	}
; 248  : 
; 249  : 	// missiles can hit other things
; 250  : 	if (tmthing->flags & MF_MISSILE || tmthing->type == MT_SHELL || tmthing->type == MT_FIREBALL)

  00290	a1 00 00 00 00	 mov	 eax, DWORD PTR _tmthing
  00295	8b 48 60	 mov	 ecx, DWORD PTR [eax+96]
  00298	81 e1 00 00 01
	00		 and	 ecx, 65536		; 00010000H
  0029e	75 20		 jne	 SHORT $LN26@PIT_CheckT
  002a0	a1 00 00 00 00	 mov	 eax, DWORD PTR _tmthing
  002a5	81 78 7c e8 00
	00 00		 cmp	 DWORD PTR [eax+124], 232 ; 000000e8H
  002ac	74 12		 je	 SHORT $LN26@PIT_CheckT
  002ae	a1 00 00 00 00	 mov	 eax, DWORD PTR _tmthing
  002b3	81 78 7c e7 00
	00 00		 cmp	 DWORD PTR [eax+124], 231 ; 000000e7H
  002ba	0f 85 61 04 00
	00		 jne	 $LN52@PIT_CheckT
$LN26@PIT_CheckT:

; 251  : 	{
; 252  : 		// see if it went over / under
; 253  : 		if (tmthing->z > thing->z + thing->height)

  002c0	8b 45 08	 mov	 eax, DWORD PTR _thing$[ebp]
  002c3	8b 48 18	 mov	 ecx, DWORD PTR [eax+24]
  002c6	8b 55 08	 mov	 edx, DWORD PTR _thing$[ebp]
  002c9	03 4a 44	 add	 ecx, DWORD PTR [edx+68]
  002cc	a1 00 00 00 00	 mov	 eax, DWORD PTR _tmthing
  002d1	39 48 18	 cmp	 DWORD PTR [eax+24], ecx
  002d4	7e 0a		 jle	 SHORT $LN27@PIT_CheckT

; 254  : 			return true; // overhead

  002d6	b8 01 00 00 00	 mov	 eax, 1
  002db	e9 42 1f 00 00	 jmp	 $LN1@PIT_CheckT
$LN27@PIT_CheckT:

; 255  : 		if (tmthing->z + tmthing->height < thing->z)

  002e0	a1 00 00 00 00	 mov	 eax, DWORD PTR _tmthing
  002e5	8b 48 18	 mov	 ecx, DWORD PTR [eax+24]
  002e8	8b 15 00 00 00
	00		 mov	 edx, DWORD PTR _tmthing
  002ee	03 4a 44	 add	 ecx, DWORD PTR [edx+68]
  002f1	8b 45 08	 mov	 eax, DWORD PTR _thing$[ebp]
  002f4	3b 48 18	 cmp	 ecx, DWORD PTR [eax+24]
  002f7	7d 0a		 jge	 SHORT $LN28@PIT_CheckT

; 256  : 			return true; // underneath

  002f9	b8 01 00 00 00	 mov	 eax, 1
  002fe	e9 1f 1f 00 00	 jmp	 $LN1@PIT_CheckT
$LN28@PIT_CheckT:

; 257  : 
; 258  : 		if (tmthing->type != MT_SHELL && tmthing->target && tmthing->target->type == thing->type)

  00303	a1 00 00 00 00	 mov	 eax, DWORD PTR _tmthing
  00308	81 78 7c e8 00
	00 00		 cmp	 DWORD PTR [eax+124], 232 ; 000000e8H
  0030f	74 4e		 je	 SHORT $LN31@PIT_CheckT
  00311	a1 00 00 00 00	 mov	 eax, DWORD PTR _tmthing
  00316	83 b8 98 00 00
	00 00		 cmp	 DWORD PTR [eax+152], 0
  0031d	74 40		 je	 SHORT $LN31@PIT_CheckT
  0031f	a1 00 00 00 00	 mov	 eax, DWORD PTR _tmthing
  00324	8b 88 98 00 00
	00		 mov	 ecx, DWORD PTR [eax+152]
  0032a	8b 55 08	 mov	 edx, DWORD PTR _thing$[ebp]
  0032d	8b 41 7c	 mov	 eax, DWORD PTR [ecx+124]
  00330	3b 42 7c	 cmp	 eax, DWORD PTR [edx+124]
  00333	75 2a		 jne	 SHORT $LN31@PIT_CheckT

; 259  : 		{
; 260  : 			// Don't hit same species as originator.
; 261  : 			if (thing == tmthing->target)

  00335	a1 00 00 00 00	 mov	 eax, DWORD PTR _tmthing
  0033a	8b 4d 08	 mov	 ecx, DWORD PTR _thing$[ebp]
  0033d	3b 88 98 00 00
	00		 cmp	 ecx, DWORD PTR [eax+152]
  00343	75 0a		 jne	 SHORT $LN30@PIT_CheckT

; 262  : 				return true;

  00345	b8 01 00 00 00	 mov	 eax, 1
  0034a	e9 d3 1e 00 00	 jmp	 $LN1@PIT_CheckT
$LN30@PIT_CheckT:

; 263  : 
; 264  : 			if (thing->type != MT_PLAYER)

  0034f	8b 45 08	 mov	 eax, DWORD PTR _thing$[ebp]
  00352	83 78 7c 00	 cmp	 DWORD PTR [eax+124], 0
  00356	74 07		 je	 SHORT $LN31@PIT_CheckT

; 265  : 			{
; 266  : 				// Explode, but do no damage.
; 267  : 				// Let players missile other players.
; 268  : 				return false;

  00358	33 c0		 xor	 eax, eax
  0035a	e9 c3 1e 00 00	 jmp	 $LN1@PIT_CheckT
$LN31@PIT_CheckT:

; 269  : 			}
; 270  : 		}
; 271  : 
; 272  : 		// Special case for bounce rings so they don't get caught behind solid objects.
; 273  : 		if ((tmthing->type == MT_THROWNBOUNCE && tmthing->fuse > 8*TICRATE) && thing->flags & MF_SOLID)

  0035f	a1 00 00 00 00	 mov	 eax, DWORD PTR _tmthing
  00364	81 78 7c dc 00
	00 00		 cmp	 DWORD PTR [eax+124], 220 ; 000000dcH
  0036b	75 26		 jne	 SHORT $LN32@PIT_CheckT
  0036d	a1 00 00 00 00	 mov	 eax, DWORD PTR _tmthing
  00372	81 b8 bc 00 00
	00 18 01 00 00	 cmp	 DWORD PTR [eax+188], 280 ; 00000118H
  0037c	7e 15		 jle	 SHORT $LN32@PIT_CheckT
  0037e	8b 45 08	 mov	 eax, DWORD PTR _thing$[ebp]
  00381	8b 48 60	 mov	 ecx, DWORD PTR [eax+96]
  00384	83 e1 02	 and	 ecx, 2
  00387	74 0a		 je	 SHORT $LN32@PIT_CheckT

; 274  : 			return true;

  00389	b8 01 00 00 00	 mov	 eax, 1
  0038e	e9 8f 1e 00 00	 jmp	 $LN1@PIT_CheckT
$LN32@PIT_CheckT:

; 275  : 
; 276  : 		if (tmthing->type == MT_BLACKEGGMAN_MISSILE
; 277  : 			&& thing->type == MT_BLACKEGGMAN
; 278  : 			&& tmthing->target != thing)

  00393	a1 00 00 00 00	 mov	 eax, DWORD PTR _tmthing
  00398	83 78 7c 2a	 cmp	 DWORD PTR [eax+124], 42	; 0000002aH
  0039c	75 39		 jne	 SHORT $LN33@PIT_CheckT
  0039e	8b 45 08	 mov	 eax, DWORD PTR _thing$[ebp]
  003a1	83 78 7c 27	 cmp	 DWORD PTR [eax+124], 39	; 00000027H
  003a5	75 30		 jne	 SHORT $LN33@PIT_CheckT
  003a7	a1 00 00 00 00	 mov	 eax, DWORD PTR _tmthing
  003ac	8b 88 98 00 00
	00		 mov	 ecx, DWORD PTR [eax+152]
  003b2	3b 4d 08	 cmp	 ecx, DWORD PTR _thing$[ebp]
  003b5	74 20		 je	 SHORT $LN33@PIT_CheckT

; 279  : 		{
; 280  : 			P_SetMobjState(thing, thing->info->painstate);

  003b7	8b 45 08	 mov	 eax, DWORD PTR _thing$[ebp]
  003ba	8b 88 80 00 00
	00		 mov	 ecx, DWORD PTR [eax+128]
  003c0	8b 51 1c	 mov	 edx, DWORD PTR [ecx+28]
  003c3	52		 push	 edx
  003c4	8b 45 08	 mov	 eax, DWORD PTR _thing$[ebp]
  003c7	50		 push	 eax
  003c8	e8 00 00 00 00	 call	 _P_SetMobjState
  003cd	83 c4 08	 add	 esp, 8

; 281  : 			return false;

  003d0	33 c0		 xor	 eax, eax
  003d2	e9 4b 1e 00 00	 jmp	 $LN1@PIT_CheckT
$LN33@PIT_CheckT:

; 282  : 		}
; 283  : 
; 284  : 		if (!(thing->flags & MF_SHOOTABLE))

  003d7	8b 45 08	 mov	 eax, DWORD PTR _thing$[ebp]
  003da	8b 48 60	 mov	 ecx, DWORD PTR [eax+96]
  003dd	83 e1 04	 and	 ecx, 4
  003e0	75 23		 jne	 SHORT $LN34@PIT_CheckT

; 285  : 		{
; 286  : 			// didn't do any damage
; 287  : 			return !(thing->flags & MF_SOLID);

  003e2	8b 45 08	 mov	 eax, DWORD PTR _thing$[ebp]
  003e5	8b 48 60	 mov	 ecx, DWORD PTR [eax+96]
  003e8	83 e1 02	 and	 ecx, 2
  003eb	75 09		 jne	 SHORT $LN219@PIT_CheckT
  003ed	c7 45 b0 01 00
	00 00		 mov	 DWORD PTR tv239[ebp], 1
  003f4	eb 07		 jmp	 SHORT $LN220@PIT_CheckT
$LN219@PIT_CheckT:
  003f6	c7 45 b0 00 00
	00 00		 mov	 DWORD PTR tv239[ebp], 0
$LN220@PIT_CheckT:
  003fd	8b 45 b0	 mov	 eax, DWORD PTR tv239[ebp]
  00400	e9 1d 1e 00 00	 jmp	 $LN1@PIT_CheckT
$LN34@PIT_CheckT:

; 288  : 		}
; 289  : 
; 290  : 		if (tmthing->type == MT_SHELL && tmthing->threshold > TICRATE)

  00405	a1 00 00 00 00	 mov	 eax, DWORD PTR _tmthing
  0040a	81 78 7c e8 00
	00 00		 cmp	 DWORD PTR [eax+124], 232 ; 000000e8H
  00411	75 18		 jne	 SHORT $LN35@PIT_CheckT
  00413	a1 00 00 00 00	 mov	 eax, DWORD PTR _tmthing
  00418	83 b8 a0 00 00
	00 23		 cmp	 DWORD PTR [eax+160], 35	; 00000023H
  0041f	7e 0a		 jle	 SHORT $LN35@PIT_CheckT

; 291  : 			return true;

  00421	b8 01 00 00 00	 mov	 eax, 1
  00426	e9 f7 1d 00 00	 jmp	 $LN1@PIT_CheckT
$LN35@PIT_CheckT:

; 292  : #ifdef SEENAMES
; 293  : 		if (tmthing->type == MT_NAMECHECK)

  0042b	a1 00 00 00 00	 mov	 eax, DWORD PTR _tmthing
  00430	81 78 7c 3d 01
	00 00		 cmp	 DWORD PTR [eax+124], 317 ; 0000013dH
  00437	75 66		 jne	 SHORT $LN36@PIT_CheckT

; 294  : 		{
; 295  : 			if (thing->player && tmthing->target->player && thing->player != tmthing->target->player) // Don't hit yourself

  00439	8b 45 08	 mov	 eax, DWORD PTR _thing$[ebp]
  0043c	83 b8 a4 00 00
	00 00		 cmp	 DWORD PTR [eax+164], 0
  00443	74 53		 je	 SHORT $LN38@PIT_CheckT
  00445	a1 00 00 00 00	 mov	 eax, DWORD PTR _tmthing
  0044a	8b 88 98 00 00
	00		 mov	 ecx, DWORD PTR [eax+152]
  00450	83 b9 a4 00 00
	00 00		 cmp	 DWORD PTR [ecx+164], 0
  00457	74 3f		 je	 SHORT $LN38@PIT_CheckT
  00459	a1 00 00 00 00	 mov	 eax, DWORD PTR _tmthing
  0045e	8b 88 98 00 00
	00		 mov	 ecx, DWORD PTR [eax+152]
  00464	8b 55 08	 mov	 edx, DWORD PTR _thing$[ebp]
  00467	8b 82 a4 00 00
	00		 mov	 eax, DWORD PTR [edx+164]
  0046d	3b 81 a4 00 00
	00		 cmp	 eax, DWORD PTR [ecx+164]
  00473	74 23		 je	 SHORT $LN38@PIT_CheckT

; 296  : 				if (!thing->player->spectator) // Can't see spectators

  00475	8b 45 08	 mov	 eax, DWORD PTR _thing$[ebp]
  00478	8b 88 a4 00 00
	00		 mov	 ecx, DWORD PTR [eax+164]
  0047e	0f b6 91 f0 01
	00 00		 movzx	 edx, BYTE PTR [ecx+496]
  00485	85 d2		 test	 edx, edx
  00487	75 0f		 jne	 SHORT $LN38@PIT_CheckT

; 297  : 					seenplayer = thing->player;

  00489	8b 45 08	 mov	 eax, DWORD PTR _thing$[ebp]
  0048c	8b 88 a4 00 00
	00		 mov	 ecx, DWORD PTR [eax+164]
  00492	89 0d 00 00 00
	00		 mov	 DWORD PTR _seenplayer, ecx
$LN38@PIT_CheckT:

; 298  : 			return false;

  00498	33 c0		 xor	 eax, eax
  0049a	e9 83 1d 00 00	 jmp	 $LN1@PIT_CheckT
$LN36@PIT_CheckT:

; 299  : 		}
; 300  : #endif
; 301  : 		// damage / explode
; 302  : 		if (tmthing->flags & MF_ENEMY) // An actual ENEMY! (Like the deton, for example)

  0049f	a1 00 00 00 00	 mov	 eax, DWORD PTR _tmthing
  004a4	8b 48 60	 mov	 ecx, DWORD PTR [eax+96]
  004a7	81 e1 00 00 00
	01		 and	 ecx, 16777216		; 01000000H
  004ad	74 20		 je	 SHORT $LN39@PIT_CheckT

; 303  : 			P_DamageMobj(thing, tmthing, tmthing, 1);

  004af	6a 01		 push	 1
  004b1	a1 00 00 00 00	 mov	 eax, DWORD PTR _tmthing
  004b6	50		 push	 eax
  004b7	8b 0d 00 00 00
	00		 mov	 ecx, DWORD PTR _tmthing
  004bd	51		 push	 ecx
  004be	8b 55 08	 mov	 edx, DWORD PTR _thing$[ebp]
  004c1	52		 push	 edx
  004c2	e8 00 00 00 00	 call	 _P_DamageMobj
  004c7	83 c4 10	 add	 esp, 16			; 00000010H
  004ca	e9 31 02 00 00	 jmp	 $LN50@PIT_CheckT
$LN39@PIT_CheckT:

; 304  : 		else if (tmthing->type == MT_BLACKEGGMAN_MISSILE && thing->player
; 305  : 			&& (thing->player->pflags & PF_JUMPED)
; 306  : 			&& !thing->player->powers[pw_flashing]
; 307  : 			&& thing->tracer != tmthing
; 308  : 			&& tmthing->target != thing)

  004cf	a1 00 00 00 00	 mov	 eax, DWORD PTR _tmthing
  004d4	83 78 7c 2a	 cmp	 DWORD PTR [eax+124], 42	; 0000002aH
  004d8	0f 85 75 01 00
	00		 jne	 $LN41@PIT_CheckT
  004de	8b 45 08	 mov	 eax, DWORD PTR _thing$[ebp]
  004e1	83 b8 a4 00 00
	00 00		 cmp	 DWORD PTR [eax+164], 0
  004e8	0f 84 65 01 00
	00		 je	 $LN41@PIT_CheckT
  004ee	8b 45 08	 mov	 eax, DWORD PTR _thing$[ebp]
  004f1	8b 88 a4 00 00
	00		 mov	 ecx, DWORD PTR [eax+164]
  004f7	8b 91 ac 00 00
	00		 mov	 edx, DWORD PTR [ecx+172]
  004fd	81 e2 00 10 00
	00		 and	 edx, 4096		; 00001000H
  00503	0f 84 4a 01 00
	00		 je	 $LN41@PIT_CheckT
  00509	8b 45 08	 mov	 eax, DWORD PTR _thing$[ebp]
  0050c	8b 88 a4 00 00
	00		 mov	 ecx, DWORD PTR [eax+164]
  00512	ba 04 00 00 00	 mov	 edx, 4
  00517	d1 e2		 shl	 edx, 1
  00519	83 7c 11 38 00	 cmp	 DWORD PTR [ecx+edx+56], 0
  0051e	0f 85 2f 01 00
	00		 jne	 $LN41@PIT_CheckT
  00524	8b 45 08	 mov	 eax, DWORD PTR _thing$[ebp]
  00527	8b 88 b0 00 00
	00		 mov	 ecx, DWORD PTR [eax+176]
  0052d	3b 0d 00 00 00
	00		 cmp	 ecx, DWORD PTR _tmthing
  00533	0f 84 1a 01 00
	00		 je	 $LN41@PIT_CheckT
  00539	a1 00 00 00 00	 mov	 eax, DWORD PTR _tmthing
  0053e	8b 88 98 00 00
	00		 mov	 ecx, DWORD PTR [eax+152]
  00544	3b 4d 08	 cmp	 ecx, DWORD PTR _thing$[ebp]
  00547	0f 84 06 01 00
	00		 je	 $LN41@PIT_CheckT

; 309  : 		{
; 310  : 			// Hop on the missile for a ride!
; 311  : 			thing->player->pflags |= PF_ITEMHANG;

  0054d	8b 45 08	 mov	 eax, DWORD PTR _thing$[ebp]
  00550	8b 88 a4 00 00
	00		 mov	 ecx, DWORD PTR [eax+164]
  00556	8b 91 ac 00 00
	00		 mov	 edx, DWORD PTR [ecx+172]
  0055c	81 ca 00 00 08
	00		 or	 edx, 524288		; 00080000H
  00562	8b 45 08	 mov	 eax, DWORD PTR _thing$[ebp]
  00565	8b 88 a4 00 00
	00		 mov	 ecx, DWORD PTR [eax+164]
  0056b	89 91 ac 00 00
	00		 mov	 DWORD PTR [ecx+172], edx

; 312  : 			thing->player->pflags &= ~PF_JUMPED;

  00571	8b 45 08	 mov	 eax, DWORD PTR _thing$[ebp]
  00574	8b 88 a4 00 00
	00		 mov	 ecx, DWORD PTR [eax+164]
  0057a	8b 91 ac 00 00
	00		 mov	 edx, DWORD PTR [ecx+172]
  00580	81 e2 ff ef ff
	ff		 and	 edx, -4097		; ffffefffH
  00586	8b 45 08	 mov	 eax, DWORD PTR _thing$[ebp]
  00589	8b 88 a4 00 00
	00		 mov	 ecx, DWORD PTR [eax+164]
  0058f	89 91 ac 00 00
	00		 mov	 DWORD PTR [ecx+172], edx

; 313  : 			P_SetTarget(&thing->tracer, tmthing);

  00595	a1 00 00 00 00	 mov	 eax, DWORD PTR _tmthing
  0059a	50		 push	 eax
  0059b	8b 4d 08	 mov	 ecx, DWORD PTR _thing$[ebp]
  0059e	81 c1 b0 00 00
	00		 add	 ecx, 176		; 000000b0H
  005a4	51		 push	 ecx
  005a5	e8 00 00 00 00	 call	 _P_SetTarget
  005aa	83 c4 08	 add	 esp, 8

; 314  : 			P_SetTarget(&tmthing->target, thing); // Set owner to the player

  005ad	8b 45 08	 mov	 eax, DWORD PTR _thing$[ebp]
  005b0	50		 push	 eax
  005b1	8b 0d 00 00 00
	00		 mov	 ecx, DWORD PTR _tmthing
  005b7	81 c1 98 00 00
	00		 add	 ecx, 152		; 00000098H
  005bd	51		 push	 ecx
  005be	e8 00 00 00 00	 call	 _P_SetTarget
  005c3	83 c4 08	 add	 esp, 8

; 315  : 			P_SetTarget(&tmthing->tracer, NULL); // Disable homing-ness

  005c6	6a 00		 push	 0
  005c8	a1 00 00 00 00	 mov	 eax, DWORD PTR _tmthing
  005cd	05 b0 00 00 00	 add	 eax, 176		; 000000b0H
  005d2	50		 push	 eax
  005d3	e8 00 00 00 00	 call	 _P_SetTarget
  005d8	83 c4 08	 add	 esp, 8

; 316  : 			tmthing->momz = 0;

  005db	a1 00 00 00 00	 mov	 eax, DWORD PTR _tmthing
  005e0	c7 40 50 00 00
	00 00		 mov	 DWORD PTR [eax+80], 0

; 317  : 
; 318  : 			thing->angle = tmthing->angle;

  005e7	8b 45 08	 mov	 eax, DWORD PTR _thing$[ebp]
  005ea	8b 0d 00 00 00
	00		 mov	 ecx, DWORD PTR _tmthing
  005f0	8b 51 24	 mov	 edx, DWORD PTR [ecx+36]
  005f3	89 50 24	 mov	 DWORD PTR [eax+36], edx

; 319  : 
; 320  : 			if (thing->player == &players[consoleplayer])

  005f6	69 05 00 00 00
	00 fc 01 00 00	 imul	 eax, DWORD PTR _consoleplayer, 508
  00600	05 00 00 00 00	 add	 eax, OFFSET _players
  00605	8b 4d 08	 mov	 ecx, DWORD PTR _thing$[ebp]
  00608	39 81 a4 00 00
	00		 cmp	 DWORD PTR [ecx+164], eax
  0060e	75 0e		 jne	 SHORT $LN43@PIT_CheckT

; 321  : 				localangle = thing->angle;

  00610	8b 45 08	 mov	 eax, DWORD PTR _thing$[ebp]
  00613	8b 48 24	 mov	 ecx, DWORD PTR [eax+36]
  00616	89 0d 00 00 00
	00		 mov	 DWORD PTR _localangle, ecx
  0061c	eb 26		 jmp	 SHORT $LN45@PIT_CheckT
$LN43@PIT_CheckT:

; 322  : 			else if (thing->player == &players[secondarydisplayplayer])

  0061e	69 05 00 00 00
	00 fc 01 00 00	 imul	 eax, DWORD PTR _secondarydisplayplayer, 508
  00628	05 00 00 00 00	 add	 eax, OFFSET _players
  0062d	8b 4d 08	 mov	 ecx, DWORD PTR _thing$[ebp]
  00630	39 81 a4 00 00
	00		 cmp	 DWORD PTR [ecx+164], eax
  00636	75 0c		 jne	 SHORT $LN45@PIT_CheckT

; 323  : 				localangle2 = thing->angle;

  00638	8b 45 08	 mov	 eax, DWORD PTR _thing$[ebp]
  0063b	8b 48 24	 mov	 ecx, DWORD PTR [eax+36]
  0063e	89 0d 00 00 00
	00		 mov	 DWORD PTR _localangle2, ecx
$LN45@PIT_CheckT:

; 324  : 
; 325  : 			return true;

  00644	b8 01 00 00 00	 mov	 eax, 1
  00649	e9 d4 1b 00 00	 jmp	 $LN1@PIT_CheckT

; 326  : 		}

  0064e	e9 ad 00 00 00	 jmp	 $LN50@PIT_CheckT
$LN41@PIT_CheckT:

; 327  : 		else if (tmthing->type == MT_BLACKEGGMAN_MISSILE && thing->player && ((thing->player->pflags & PF_ITEMHANG) || (thing->player->pflags & PF_JUMPED)))

  00653	a1 00 00 00 00	 mov	 eax, DWORD PTR _tmthing
  00658	83 78 7c 2a	 cmp	 DWORD PTR [eax+124], 42	; 0000002aH
  0065c	75 3c		 jne	 SHORT $LN46@PIT_CheckT
  0065e	8b 45 08	 mov	 eax, DWORD PTR _thing$[ebp]
  00661	83 b8 a4 00 00
	00 00		 cmp	 DWORD PTR [eax+164], 0
  00668	74 30		 je	 SHORT $LN46@PIT_CheckT
  0066a	8b 45 08	 mov	 eax, DWORD PTR _thing$[ebp]
  0066d	8b 88 a4 00 00
	00		 mov	 ecx, DWORD PTR [eax+164]
  00673	8b 91 ac 00 00
	00		 mov	 edx, DWORD PTR [ecx+172]
  00679	81 e2 00 00 08
	00		 and	 edx, 524288		; 00080000H
  0067f	75 17		 jne	 SHORT $LN48@PIT_CheckT
  00681	8b 45 08	 mov	 eax, DWORD PTR _thing$[ebp]
  00684	8b 88 a4 00 00
	00		 mov	 ecx, DWORD PTR [eax+164]
  0068a	8b 91 ac 00 00
	00		 mov	 edx, DWORD PTR [ecx+172]
  00690	81 e2 00 10 00
	00		 and	 edx, 4096		; 00001000H
  00696	74 02		 je	 SHORT $LN46@PIT_CheckT
$LN48@PIT_CheckT:

; 328  : 		{
; 329  : 			// Ignore
; 330  : 		}

  00698	eb 66		 jmp	 SHORT $LN50@PIT_CheckT
$LN46@PIT_CheckT:

; 331  : 		else if (tmthing->type == MT_BLACKEGGMAN_GOOPFIRE)

  0069a	a1 00 00 00 00	 mov	 eax, DWORD PTR _tmthing
  0069f	83 78 7c 29	 cmp	 DWORD PTR [eax+124], 41	; 00000029H
  006a3	75 3a		 jne	 SHORT $LN49@PIT_CheckT

; 332  : 		{
; 333  : 			P_UnsetThingPosition(tmthing);

  006a5	a1 00 00 00 00	 mov	 eax, DWORD PTR _tmthing
  006aa	50		 push	 eax
  006ab	e8 00 00 00 00	 call	 _P_UnsetThingPosition
  006b0	83 c4 04	 add	 esp, 4

; 334  : 			tmthing->x = thing->x;

  006b3	a1 00 00 00 00	 mov	 eax, DWORD PTR _tmthing
  006b8	8b 4d 08	 mov	 ecx, DWORD PTR _thing$[ebp]
  006bb	8b 51 10	 mov	 edx, DWORD PTR [ecx+16]
  006be	89 50 10	 mov	 DWORD PTR [eax+16], edx

; 335  : 			tmthing->y = thing->y;

  006c1	a1 00 00 00 00	 mov	 eax, DWORD PTR _tmthing
  006c6	8b 4d 08	 mov	 ecx, DWORD PTR _thing$[ebp]
  006c9	8b 51 14	 mov	 edx, DWORD PTR [ecx+20]
  006cc	89 50 14	 mov	 DWORD PTR [eax+20], edx

; 336  : 			P_SetThingPosition(tmthing);

  006cf	a1 00 00 00 00	 mov	 eax, DWORD PTR _tmthing
  006d4	50		 push	 eax
  006d5	e8 00 00 00 00	 call	 _P_SetThingPosition
  006da	83 c4 04	 add	 esp, 4

; 337  : 		}

  006dd	eb 21		 jmp	 SHORT $LN50@PIT_CheckT
$LN49@PIT_CheckT:

; 338  : 		else
; 339  : 			P_DamageMobj(thing, tmthing, tmthing->target, 1);

  006df	6a 01		 push	 1
  006e1	a1 00 00 00 00	 mov	 eax, DWORD PTR _tmthing
  006e6	8b 88 98 00 00
	00		 mov	 ecx, DWORD PTR [eax+152]
  006ec	51		 push	 ecx
  006ed	8b 15 00 00 00
	00		 mov	 edx, DWORD PTR _tmthing
  006f3	52		 push	 edx
  006f4	8b 45 08	 mov	 eax, DWORD PTR _thing$[ebp]
  006f7	50		 push	 eax
  006f8	e8 00 00 00 00	 call	 _P_DamageMobj
  006fd	83 c4 10	 add	 esp, 16			; 00000010H
$LN50@PIT_CheckT:

; 340  : 
; 341  : 		// don't traverse any more
; 342  : 
; 343  : 		if (tmthing->type == MT_SHELL)

  00700	a1 00 00 00 00	 mov	 eax, DWORD PTR _tmthing
  00705	81 78 7c e8 00
	00 00		 cmp	 DWORD PTR [eax+124], 232 ; 000000e8H
  0070c	75 0c		 jne	 SHORT $LN51@PIT_CheckT

; 344  : 			return true;

  0070e	b8 01 00 00 00	 mov	 eax, 1
  00713	e9 0a 1b 00 00	 jmp	 $LN1@PIT_CheckT
  00718	eb 07		 jmp	 SHORT $LN52@PIT_CheckT
$LN51@PIT_CheckT:

; 345  : 		else
; 346  : 			return false;

  0071a	33 c0		 xor	 eax, eax
  0071c	e9 01 1b 00 00	 jmp	 $LN1@PIT_CheckT
$LN52@PIT_CheckT:

; 347  : 	}
; 348  : 
; 349  : 	if ((thing->flags & MF_PUSHABLE) && (tmthing->player || tmthing->flags & MF_PUSHABLE)
; 350  : 		&& tmthing->z + tmthing->height > thing->z && tmthing->z < thing->z + thing->height
; 351  : 		&& !(netgame && tmthing->player && tmthing->player->spectator)) // Push thing!

  00721	8b 45 08	 mov	 eax, DWORD PTR _thing$[ebp]
  00724	8b 48 60	 mov	 ecx, DWORD PTR [eax+96]
  00727	83 e1 40	 and	 ecx, 64			; 00000040H
  0072a	0f 84 78 03 00
	00		 je	 $LN53@PIT_CheckT
  00730	a1 00 00 00 00	 mov	 eax, DWORD PTR _tmthing
  00735	83 b8 a4 00 00
	00 00		 cmp	 DWORD PTR [eax+164], 0
  0073c	75 11		 jne	 SHORT $LN54@PIT_CheckT
  0073e	a1 00 00 00 00	 mov	 eax, DWORD PTR _tmthing
  00743	8b 48 60	 mov	 ecx, DWORD PTR [eax+96]
  00746	83 e1 40	 and	 ecx, 64			; 00000040H
  00749	0f 84 59 03 00
	00		 je	 $LN53@PIT_CheckT
$LN54@PIT_CheckT:
  0074f	a1 00 00 00 00	 mov	 eax, DWORD PTR _tmthing
  00754	8b 48 18	 mov	 ecx, DWORD PTR [eax+24]
  00757	8b 15 00 00 00
	00		 mov	 edx, DWORD PTR _tmthing
  0075d	03 4a 44	 add	 ecx, DWORD PTR [edx+68]
  00760	8b 45 08	 mov	 eax, DWORD PTR _thing$[ebp]
  00763	3b 48 18	 cmp	 ecx, DWORD PTR [eax+24]
  00766	0f 8e 3c 03 00
	00		 jle	 $LN53@PIT_CheckT
  0076c	8b 45 08	 mov	 eax, DWORD PTR _thing$[ebp]
  0076f	8b 48 18	 mov	 ecx, DWORD PTR [eax+24]
  00772	8b 55 08	 mov	 edx, DWORD PTR _thing$[ebp]
  00775	03 4a 44	 add	 ecx, DWORD PTR [edx+68]
  00778	a1 00 00 00 00	 mov	 eax, DWORD PTR _tmthing
  0077d	39 48 18	 cmp	 DWORD PTR [eax+24], ecx
  00780	0f 8d 22 03 00
	00		 jge	 $LN53@PIT_CheckT
  00786	83 3d 00 00 00
	00 00		 cmp	 DWORD PTR _netgame, 0
  0078d	74 28		 je	 SHORT $LN55@PIT_CheckT
  0078f	a1 00 00 00 00	 mov	 eax, DWORD PTR _tmthing
  00794	83 b8 a4 00 00
	00 00		 cmp	 DWORD PTR [eax+164], 0
  0079b	74 1a		 je	 SHORT $LN55@PIT_CheckT
  0079d	a1 00 00 00 00	 mov	 eax, DWORD PTR _tmthing
  007a2	8b 88 a4 00 00
	00		 mov	 ecx, DWORD PTR [eax+164]
  007a8	0f b6 91 f0 01
	00 00		 movzx	 edx, BYTE PTR [ecx+496]
  007af	85 d2		 test	 edx, edx
  007b1	0f 85 f1 02 00
	00		 jne	 $LN53@PIT_CheckT
$LN55@PIT_CheckT:

; 352  : 	{
; 353  : 		if (thing->flags2 & MF2_SLIDEPUSH) // Make it slide

  007b7	8b 45 08	 mov	 eax, DWORD PTR _thing$[ebp]
  007ba	8b 88 88 00 00
	00		 mov	 ecx, DWORD PTR [eax+136]
  007c0	81 e1 00 00 80
	00		 and	 ecx, 8388608		; 00800000H
  007c6	0f 84 f5 01 00
	00		 je	 $LN56@PIT_CheckT

; 354  : 		{
; 355  : 			if (tmthing->momy > 0 && tmthing->momy > 4*FRACUNIT && tmthing->momy > thing->momy)

  007cc	a1 00 00 00 00	 mov	 eax, DWORD PTR _tmthing
  007d1	83 78 4c 00	 cmp	 DWORD PTR [eax+76], 0
  007d5	7e 49		 jle	 SHORT $LN58@PIT_CheckT
  007d7	a1 00 00 00 00	 mov	 eax, DWORD PTR _tmthing
  007dc	81 78 4c 00 00
	04 00		 cmp	 DWORD PTR [eax+76], 262144 ; 00040000H
  007e3	7e 3b		 jle	 SHORT $LN58@PIT_CheckT
  007e5	a1 00 00 00 00	 mov	 eax, DWORD PTR _tmthing
  007ea	8b 4d 08	 mov	 ecx, DWORD PTR _thing$[ebp]
  007ed	8b 50 4c	 mov	 edx, DWORD PTR [eax+76]
  007f0	3b 51 4c	 cmp	 edx, DWORD PTR [ecx+76]
  007f3	7e 2b		 jle	 SHORT $LN58@PIT_CheckT

; 356  : 			{
; 357  : 				thing->momy += PUSHACCEL;

  007f5	8b 45 08	 mov	 eax, DWORD PTR _thing$[ebp]
  007f8	8b 48 4c	 mov	 ecx, DWORD PTR [eax+76]
  007fb	81 c1 00 00 02
	00		 add	 ecx, 131072		; 00020000H
  00801	8b 55 08	 mov	 edx, DWORD PTR _thing$[ebp]
  00804	89 4a 4c	 mov	 DWORD PTR [edx+76], ecx

; 358  : 				tmthing->momy -= PUSHACCEL;

  00807	a1 00 00 00 00	 mov	 eax, DWORD PTR _tmthing
  0080c	8b 48 4c	 mov	 ecx, DWORD PTR [eax+76]
  0080f	81 e9 00 00 02
	00		 sub	 ecx, 131072		; 00020000H
  00815	8b 15 00 00 00
	00		 mov	 edx, DWORD PTR _tmthing
  0081b	89 4a 4c	 mov	 DWORD PTR [edx+76], ecx

; 359  : 			}

  0081e	eb 52		 jmp	 SHORT $LN60@PIT_CheckT
$LN58@PIT_CheckT:

; 360  : 			else if (tmthing->momy < 0 && tmthing->momy < -4*FRACUNIT
; 361  : 				&& tmthing->momy < thing->momy)

  00820	a1 00 00 00 00	 mov	 eax, DWORD PTR _tmthing
  00825	83 78 4c 00	 cmp	 DWORD PTR [eax+76], 0
  00829	7d 47		 jge	 SHORT $LN60@PIT_CheckT
  0082b	a1 00 00 00 00	 mov	 eax, DWORD PTR _tmthing
  00830	81 78 4c 00 00
	fc ff		 cmp	 DWORD PTR [eax+76], -262144 ; fffc0000H
  00837	7d 39		 jge	 SHORT $LN60@PIT_CheckT
  00839	a1 00 00 00 00	 mov	 eax, DWORD PTR _tmthing
  0083e	8b 4d 08	 mov	 ecx, DWORD PTR _thing$[ebp]
  00841	8b 50 4c	 mov	 edx, DWORD PTR [eax+76]
  00844	3b 51 4c	 cmp	 edx, DWORD PTR [ecx+76]
  00847	7d 29		 jge	 SHORT $LN60@PIT_CheckT

; 362  : 			{
; 363  : 				thing->momy -= PUSHACCEL;

  00849	8b 45 08	 mov	 eax, DWORD PTR _thing$[ebp]
  0084c	8b 48 4c	 mov	 ecx, DWORD PTR [eax+76]
  0084f	81 e9 00 00 02
	00		 sub	 ecx, 131072		; 00020000H
  00855	8b 55 08	 mov	 edx, DWORD PTR _thing$[ebp]
  00858	89 4a 4c	 mov	 DWORD PTR [edx+76], ecx

; 364  : 				tmthing->momy += PUSHACCEL;

  0085b	a1 00 00 00 00	 mov	 eax, DWORD PTR _tmthing
  00860	8b 48 4c	 mov	 ecx, DWORD PTR [eax+76]
  00863	81 c1 00 00 02
	00		 add	 ecx, 131072		; 00020000H
  00869	8b 15 00 00 00
	00		 mov	 edx, DWORD PTR _tmthing
  0086f	89 4a 4c	 mov	 DWORD PTR [edx+76], ecx
$LN60@PIT_CheckT:

; 365  : 			}
; 366  : 			if (tmthing->momx > 0 && tmthing->momx > 4*FRACUNIT
; 367  : 				&& tmthing->momx > thing->momx)

  00872	a1 00 00 00 00	 mov	 eax, DWORD PTR _tmthing
  00877	83 78 48 00	 cmp	 DWORD PTR [eax+72], 0
  0087b	7e 49		 jle	 SHORT $LN61@PIT_CheckT
  0087d	a1 00 00 00 00	 mov	 eax, DWORD PTR _tmthing
  00882	81 78 48 00 00
	04 00		 cmp	 DWORD PTR [eax+72], 262144 ; 00040000H
  00889	7e 3b		 jle	 SHORT $LN61@PIT_CheckT
  0088b	a1 00 00 00 00	 mov	 eax, DWORD PTR _tmthing
  00890	8b 4d 08	 mov	 ecx, DWORD PTR _thing$[ebp]
  00893	8b 50 48	 mov	 edx, DWORD PTR [eax+72]
  00896	3b 51 48	 cmp	 edx, DWORD PTR [ecx+72]
  00899	7e 2b		 jle	 SHORT $LN61@PIT_CheckT

; 368  : 			{
; 369  : 				thing->momx += PUSHACCEL;

  0089b	8b 45 08	 mov	 eax, DWORD PTR _thing$[ebp]
  0089e	8b 48 48	 mov	 ecx, DWORD PTR [eax+72]
  008a1	81 c1 00 00 02
	00		 add	 ecx, 131072		; 00020000H
  008a7	8b 55 08	 mov	 edx, DWORD PTR _thing$[ebp]
  008aa	89 4a 48	 mov	 DWORD PTR [edx+72], ecx

; 370  : 				tmthing->momx -= PUSHACCEL;

  008ad	a1 00 00 00 00	 mov	 eax, DWORD PTR _tmthing
  008b2	8b 48 48	 mov	 ecx, DWORD PTR [eax+72]
  008b5	81 e9 00 00 02
	00		 sub	 ecx, 131072		; 00020000H
  008bb	8b 15 00 00 00
	00		 mov	 edx, DWORD PTR _tmthing
  008c1	89 4a 48	 mov	 DWORD PTR [edx+72], ecx

; 371  : 			}

