; Listing generated by Microsoft (R) Optimizing Compiler Version 19.41.34123.0 

	TITLE	C:\Users\RafaTheFox\Downloads\SRB2-Public-master\objs\VC10\Win32\Debug\p_saveg.obj
	.686P
	.XMM
	include listing.inc
	.model	flat

INCLUDELIB LIBCMTD
INCLUDELIB OLDNAMES

_DATA	SEGMENT
COMM	_ATTRPACK:DWORD
COMM	_savedata:BYTE:014H
COMM	_save_p:DWORD
_DATA	ENDS
PUBLIC	_P_SaveGame
PUBLIC	_P_SaveNetGame
PUBLIC	_P_LoadGame
PUBLIC	_P_LoadNetGame
PUBLIC	??_C@_0DL@HBJMEMDC@Invalid?5sector?5number?5?$CFu?5from?5s@ ; `string'
PUBLIC	??_C@_0CD@KCKDBDPK@Invalid?5line?5number?5?$CFu?5from?5ser@ ; `string'
PUBLIC	??_C@_0M@FAFIBFOK@?$ACnot?5found?6@		; `string'
PUBLIC	??_C@_0L@KMDBPMPG@not?5found?6@			; `string'
PUBLIC	??_C@_0CL@GDNAMFKP@found?5mobj?5with?5unknown?5map?5thi@ ; `string'
PUBLIC	??_C@_0CN@BPDAAKJ@found?5mobj?5with?5unknown?5map?5thi@ ; `string'
PUBLIC	??_C@_0BD@MCNAHAPO@Savegame?5corrupted@		; `string'
PUBLIC	??_C@_0DD@GPDFCACP@P_UnarchiveSpecials?3?5Unknown?5tc@ ; `string'
PUBLIC	??_C@_0DF@BDLHMDIB@P_UnArchivePolyObjects?3?5polyobj@ ; `string'
PUBLIC	??_C@_0BI@EFKODFJI@tracer?5not?5found?5on?5?$CFd?6@ ; `string'
PUBLIC	??_C@_0BI@CNJDGCEA@target?5not?5found?5on?5?$CFd?6@ ; `string'
PUBLIC	??_C@_0BJ@NACOAMLD@capsule?5not?5found?5on?5?$CFd?6@ ; `string'
PUBLIC	??_C@_0BH@GBCONNNL@axis1?5not?5found?5on?5?$CFd?6@ ; `string'
PUBLIC	??_C@_0BH@MCHIFLHC@axis2?5not?5found?5on?5?$CFd?6@ ; `string'
PUBLIC	??_C@_0BO@FBIHGGPL@awayviewmobj?5not?5found?5on?5?$CFd?6@ ; `string'
PUBLIC	??_C@_0CF@JHAPBDAC@Save?5game?5not?5for?5this?5modifica@ ; `string'
PUBLIC	??_C@_0FB@MGJCGEIE@This?5save?5file?5is?5for?5a?5particu@ ; `string'
PUBLIC	??_C@_0BA@OPCGMOGJ@dummyconsvar?51?6@		; `string'
EXTRN	___report_rangecheckfailure:PROC
EXTRN	_memcpy:PROC
EXTRN	_memset:PROC
EXTRN	_strcmp:PROC
EXTRN	_fflush:PROC
EXTRN	_fputs:PROC
EXTRN	_I_Error:PROC
EXTRN	_CONS_Printf:PROC
EXTRN	_COM_BufAddText:PROC
EXTRN	_CV_SaveNetVars:PROC
EXTRN	_CV_LoadNetVars:PROC
EXTRN	_W_CacheLumpNum:PROC
EXTRN	_P_SpawnHoopsAndRings:PROC
EXTRN	_G_BuildMapName:PROC
EXTRN	_G_DeferedInitNew:PROC
EXTRN	_G_SetGamestate:PROC
EXTRN	_P_GetRandIndex:PROC
EXTRN	_P_SetRandIndex:PROC
EXTRN	_P_SetTarget:PROC
EXTRN	_Polyobj_GetForNum:PROC
EXTRN	_Polyobj_MoveOnLoad:PROC
EXTRN	_T_PolyObjRotate:PROC
EXTRN	_T_PolyObjMove:PROC
EXTRN	_T_PolyObjWaypoint:PROC
EXTRN	_T_PolyDoorSlide:PROC
EXTRN	_T_PolyDoorSwing:PROC
EXTRN	_T_PolyObjFlag:PROC
EXTRN	_P_InitThinkers:PROC
EXTRN	_P_AddThinker:PROC
EXTRN	_P_RemoveSavegameMobj:PROC
EXTRN	_P_MobjThinker:PROC
EXTRN	_P_SetThingPosition:PROC
EXTRN	_P_SwitchWeather:PROC
EXTRN	_P_ChangeSectorTag:PROC
EXTRN	_T_FireFlicker:PROC
EXTRN	_T_LightningFlash:PROC
EXTRN	_T_StrobeFlash:PROC
EXTRN	_T_Glow:PROC
EXTRN	_T_LightFade:PROC
EXTRN	_T_CrushCeiling:PROC
EXTRN	_T_MoveCeiling:PROC
EXTRN	_T_MoveFloor:PROC
EXTRN	_T_MoveElevator:PROC
EXTRN	_T_ContinuousFalling:PROC
EXTRN	_T_BounceCheese:PROC
EXTRN	_T_StartCrumble:PROC
EXTRN	_T_MarioBlock:PROC
EXTRN	_T_SpikeSector:PROC
EXTRN	_T_FloatSector:PROC
EXTRN	_T_BridgeThinker:PROC
EXTRN	_T_ThwompSector:PROC
EXTRN	_T_NoEnemiesSector:PROC
EXTRN	_T_EachTimeThinker:PROC
EXTRN	_T_CameraScanner:PROC
EXTRN	_T_RaiseSector:PROC
EXTRN	_T_ExecutorDelay:PROC
EXTRN	_T_Scroll:PROC
EXTRN	_T_LaserFlash:PROC
EXTRN	_T_Friction:PROC
EXTRN	_T_Disappear:PROC
EXTRN	_T_Pusher:PROC
EXTRN	_P_GetPushThing:PROC
EXTRN	_P_AddLevelFlat:PROC
EXTRN	_P_SetupLevelSky:PROC
EXTRN	_P_SetupLevel:PROC
EXTRN	_R_TextureNumForName:PROC
EXTRN	_R_CheckTextureNumForName:PROC
EXTRN	_SetPlayerSkinByNum:PROC
EXTRN	_Y_EndIntermission:PROC
EXTRN	_Z_Free:PROC
EXTRN	_Z_MallocAlign:PROC
EXTRN	_Z_CallocAlign:PROC
EXTRN	@__security_check_cookie@4:PROC
EXTRN	_gamestate:DWORD
EXTRN	_devparm:DWORD
EXTRN	_states:BYTE
EXTRN	_mobjinfo:BYTE
EXTRN	_playerstatetics:BYTE
EXTRN	_gamemap:WORD
EXTRN	_globalweather:BYTE
EXTRN	_curWeather:DWORD
EXTRN	_lastmapsaved:WORD
EXTRN	_gamecomplete:DWORD
EXTRN	_modifiedgame:DWORD
EXTRN	_paused:BYTE
EXTRN	_consoleplayer:DWORD
EXTRN	_secondarydisplayplayer:DWORD
EXTRN	_spstage_end:WORD
EXTRN	_countdowntimer:DWORD
EXTRN	_countdowntimeup:BYTE
EXTRN	_totalrings:DWORD
EXTRN	_lastmap:WORD
EXTRN	_redflag:DWORD
EXTRN	_blueflag:DWORD
EXTRN	_rflagpoint:DWORD
EXTRN	_bflagpoint:DWORD
EXTRN	_emeralds:WORD
EXTRN	_token:DWORD
EXTRN	_tokenlist:DWORD
EXTRN	_sstimer:DWORD
EXTRN	_bluescore:DWORD
EXTRN	_redscore:DWORD
EXTRN	_countdown:DWORD
EXTRN	_countdown2:DWORD
EXTRN	_gravity:DWORD
EXTRN	_autobalance:WORD
EXTRN	_teamscramble:WORD
EXTRN	_scrambleplayers:ZWORD
EXTRN	_scrambleteams:ZWORD
EXTRN	_scrambletotal:WORD
EXTRN	_scramblecount:WORD
EXTRN	_matchtype:DWORD
EXTRN	_tagtype:DWORD
EXTRN	_hidetime:DWORD
EXTRN	_debugfile:DWORD
EXTRN	_timeattackfolder:ZWORD
EXTRN	_players:BYTE
EXTRN	_playeringame:BYTE
EXTRN	_localangle:DWORD
EXTRN	_localangle2:DWORD
EXTRN	_leveltime:DWORD
EXTRN	_PolyObjects:DWORD
EXTRN	_numPolyObjects:DWORD
EXTRN	_thinkercap:BYTE
EXTRN	_itemrespawnque:BYTE
EXTRN	_itemrespawntime:BYTE
EXTRN	_iquehead:DWORD
EXTRN	_iquetail:DWORD
EXTRN	_cv_viewheight:BYTE
EXTRN	_lastloadedmaplumpnum:DWORD
EXTRN	_levelflats:DWORD
EXTRN	_nummapthings:DWORD
EXTRN	_mapthings:DWORD
EXTRN	_numsectors:DWORD
EXTRN	_sectors:DWORD
EXTRN	_numlines:DWORD
EXTRN	_lines:DWORD
EXTRN	_sides:DWORD
EXTRN	_levelskynum:DWORD
EXTRN	_globallevelskynum:DWORD
EXTRN	___security_cookie:DWORD
;	COMDAT ??_C@_0BA@OPCGMOGJ@dummyconsvar?51?6@
CONST	SEGMENT
??_C@_0BA@OPCGMOGJ@dummyconsvar?51?6@ DB 'dummyconsvar 1', 0aH, 00H ; `string'
CONST	ENDS
;	COMDAT ??_C@_0FB@MGJCGEIE@This?5save?5file?5is?5for?5a?5particu@
CONST	SEGMENT
??_C@_0FB@MGJCGEIE@This?5save?5file?5is?5for?5a?5particu@ DB 'This save f'
	DB	'ile is for a particular mod, it cannot be used with the regul'
	DB	'ar game.', 00H				; `string'
CONST	ENDS
;	COMDAT ??_C@_0CF@JHAPBDAC@Save?5game?5not?5for?5this?5modifica@
CONST	SEGMENT
??_C@_0CF@JHAPBDAC@Save?5game?5not?5for?5this?5modifica@ DB 'Save game no'
	DB	't for this modification.', 00H		; `string'
CONST	ENDS
;	COMDAT ??_C@_0BO@FBIHGGPL@awayviewmobj?5not?5found?5on?5?$CFd?6@
CONST	SEGMENT
??_C@_0BO@FBIHGGPL@awayviewmobj?5not?5found?5on?5?$CFd?6@ DB 'awayviewmob'
	DB	'j not found on %d', 0aH, 00H		; `string'
CONST	ENDS
;	COMDAT ??_C@_0BH@MCHIFLHC@axis2?5not?5found?5on?5?$CFd?6@
CONST	SEGMENT
??_C@_0BH@MCHIFLHC@axis2?5not?5found?5on?5?$CFd?6@ DB 'axis2 not found on'
	DB	' %d', 0aH, 00H				; `string'
CONST	ENDS
;	COMDAT ??_C@_0BH@GBCONNNL@axis1?5not?5found?5on?5?$CFd?6@
CONST	SEGMENT
??_C@_0BH@GBCONNNL@axis1?5not?5found?5on?5?$CFd?6@ DB 'axis1 not found on'
	DB	' %d', 0aH, 00H				; `string'
CONST	ENDS
;	COMDAT ??_C@_0BJ@NACOAMLD@capsule?5not?5found?5on?5?$CFd?6@
CONST	SEGMENT
??_C@_0BJ@NACOAMLD@capsule?5not?5found?5on?5?$CFd?6@ DB 'capsule not foun'
	DB	'd on %d', 0aH, 00H				; `string'
CONST	ENDS
;	COMDAT ??_C@_0BI@CNJDGCEA@target?5not?5found?5on?5?$CFd?6@
CONST	SEGMENT
??_C@_0BI@CNJDGCEA@target?5not?5found?5on?5?$CFd?6@ DB 'target not found '
	DB	'on %d', 0aH, 00H				; `string'
CONST	ENDS
;	COMDAT ??_C@_0BI@EFKODFJI@tracer?5not?5found?5on?5?$CFd?6@
CONST	SEGMENT
??_C@_0BI@EFKODFJI@tracer?5not?5found?5on?5?$CFd?6@ DB 'tracer not found '
	DB	'on %d', 0aH, 00H				; `string'
CONST	ENDS
;	COMDAT ??_C@_0DF@BDLHMDIB@P_UnArchivePolyObjects?3?5polyobj@
CONST	SEGMENT
??_C@_0DF@BDLHMDIB@P_UnArchivePolyObjects?3?5polyobj@ DB 'P_UnArchivePoly'
	DB	'Objects: polyobj count inconsistency', 0aH, 00H ; `string'
CONST	ENDS
;	COMDAT ??_C@_0DD@GPDFCACP@P_UnarchiveSpecials?3?5Unknown?5tc@
CONST	SEGMENT
??_C@_0DD@GPDFCACP@P_UnarchiveSpecials?3?5Unknown?5tc@ DB 'P_UnarchiveSpe'
	DB	'cials: Unknown tclass %d in savegame', 00H	; `string'
CONST	ENDS
;	COMDAT ??_C@_0BD@MCNAHAPO@Savegame?5corrupted@
CONST	SEGMENT
??_C@_0BD@MCNAHAPO@Savegame?5corrupted@ DB 'Savegame corrupted', 00H ; `string'
CONST	ENDS
;	COMDAT ??_C@_0CN@BPDAAKJ@found?5mobj?5with?5unknown?5map?5thi@
CONST	SEGMENT
??_C@_0CN@BPDAAKJ@found?5mobj?5with?5unknown?5map?5thi@ DB 'found mobj wi'
	DB	'th unknown map thing type NULL', 0aH, 00H	; `string'
CONST	ENDS
;	COMDAT ??_C@_0CL@GDNAMFKP@found?5mobj?5with?5unknown?5map?5thi@
CONST	SEGMENT
??_C@_0CL@GDNAMFKP@found?5mobj?5with?5unknown?5map?5thi@ DB 'found mobj w'
	DB	'ith unknown map thing type %d', 0aH, 00H	; `string'
CONST	ENDS
;	COMDAT ??_C@_0L@KMDBPMPG@not?5found?6@
CONST	SEGMENT
??_C@_0L@KMDBPMPG@not?5found?6@ DB 'not found', 0aH, 00H ; `string'
CONST	ENDS
;	COMDAT ??_C@_0M@FAFIBFOK@?$ACnot?5found?6@
CONST	SEGMENT
??_C@_0M@FAFIBFOK@?$ACnot?5found?6@ DB 02H, 'not found', 0aH, 00H ; `string'
CONST	ENDS
;	COMDAT ??_C@_0CD@KCKDBDPK@Invalid?5line?5number?5?$CFu?5from?5ser@
CONST	SEGMENT
??_C@_0CD@KCKDBDPK@Invalid?5line?5number?5?$CFu?5from?5ser@ DB 'Invalid l'
	DB	'ine number %u from server', 00H		; `string'
CONST	ENDS
;	COMDAT ??_C@_0DL@HBJMEMDC@Invalid?5sector?5number?5?$CFu?5from?5s@
CONST	SEGMENT
??_C@_0DL@HBJMEMDC@Invalid?5sector?5number?5?$CFu?5from?5s@ DB 'Invalid s'
	DB	'ector number %u from server (expected end at %Iu)', 00H ; `string'
CONST	ENDS
;	COMDAT voltbl
voltbl	SEGMENT
_volmd	DW	010H
	DW	01b1H
voltbl	ENDS
; Function compile flags: /Odtp /ZI
; File C:\Users\RafaTheFox\Downloads\SRB2-Public-master\src\p_saveg.c
;	COMDAT _P_NetUnArchiveMisc
_TEXT	SEGMENT
tv67 = -80						; size = 4
tv78 = -80						; size = 4
tv164 = -80						; size = 4
tv156 = -77						; size = 1
_j$ = -12						; size = 4
_i$ = -8						; size = 4
_pig$ = -4						; size = 4
_P_NetUnArchiveMisc PROC				; COMDAT

; 2795 : {

  00000	55		 push	 ebp
  00001	8b ec		 mov	 ebp, esp
  00003	83 ec 50	 sub	 esp, 80			; 00000050H
  00006	53		 push	 ebx
  00007	56		 push	 esi
  00008	57		 push	 edi

; 2796 : 	UINT32 pig;
; 2797 : 	INT32 i, j;
; 2798 : 
; 2799 : 	gamemap = READINT16(save_p);

  00009	a1 00 00 00 00	 mov	 eax, DWORD PTR _save_p
  0000e	66 8b 08	 mov	 cx, WORD PTR [eax]
  00011	66 89 0d 00 00
	00 00		 mov	 WORD PTR _gamemap, cx
  00018	8b 15 00 00 00
	00		 mov	 edx, DWORD PTR _save_p
  0001e	83 c2 02	 add	 edx, 2
  00021	89 15 00 00 00
	00		 mov	 DWORD PTR _save_p, edx

; 2800 : 	G_SetGamestate(READINT16(save_p));

  00027	a1 00 00 00 00	 mov	 eax, DWORD PTR _save_p
  0002c	0f bf 08	 movsx	 ecx, WORD PTR [eax]
  0002f	89 4d b0	 mov	 DWORD PTR tv67[ebp], ecx
  00032	8b 15 00 00 00
	00		 mov	 edx, DWORD PTR _save_p
  00038	83 c2 02	 add	 edx, 2
  0003b	89 15 00 00 00
	00		 mov	 DWORD PTR _save_p, edx
  00041	8b 45 b0	 mov	 eax, DWORD PTR tv67[ebp]
  00044	50		 push	 eax
  00045	e8 00 00 00 00	 call	 _G_SetGamestate
  0004a	83 c4 04	 add	 esp, 4

; 2801 : 
; 2802 : 	tokenlist = READUINT32(save_p);

  0004d	a1 00 00 00 00	 mov	 eax, DWORD PTR _save_p
  00052	8b 08		 mov	 ecx, DWORD PTR [eax]
  00054	89 0d 00 00 00
	00		 mov	 DWORD PTR _tokenlist, ecx
  0005a	8b 15 00 00 00
	00		 mov	 edx, DWORD PTR _save_p
  00060	83 c2 04	 add	 edx, 4
  00063	89 15 00 00 00
	00		 mov	 DWORD PTR _save_p, edx

; 2803 : 
; 2804 : 	pig = READUINT32(save_p);

  00069	a1 00 00 00 00	 mov	 eax, DWORD PTR _save_p
  0006e	8b 08		 mov	 ecx, DWORD PTR [eax]
  00070	89 4d fc	 mov	 DWORD PTR _pig$[ebp], ecx
  00073	8b 15 00 00 00
	00		 mov	 edx, DWORD PTR _save_p
  00079	83 c2 04	 add	 edx, 4
  0007c	89 15 00 00 00
	00		 mov	 DWORD PTR _save_p, edx

; 2805 : 
; 2806 : 	for (i = 0; i < MAXPLAYERS; i++)

  00082	c7 45 f8 00 00
	00 00		 mov	 DWORD PTR _i$[ebp], 0
  00089	eb 09		 jmp	 SHORT $LN4@P_NetUnArc
$LN2@P_NetUnArc:
  0008b	8b 45 f8	 mov	 eax, DWORD PTR _i$[ebp]
  0008e	83 c0 01	 add	 eax, 1
  00091	89 45 f8	 mov	 DWORD PTR _i$[ebp], eax
$LN4@P_NetUnArc:
  00094	83 7d f8 20	 cmp	 DWORD PTR _i$[ebp], 32	; 00000020H
  00098	7d 3f		 jge	 SHORT $LN3@P_NetUnArc

; 2807 : 	{
; 2808 : 		playeringame[i] = (pig & (1<<i)) != 0;

  0009a	b8 01 00 00 00	 mov	 eax, 1
  0009f	8b 4d f8	 mov	 ecx, DWORD PTR _i$[ebp]
  000a2	d3 e0		 shl	 eax, cl
  000a4	23 45 fc	 and	 eax, DWORD PTR _pig$[ebp]
  000a7	74 09		 je	 SHORT $LN20@P_NetUnArc
  000a9	c7 45 b0 01 00
	00 00		 mov	 DWORD PTR tv78[ebp], 1
  000b0	eb 07		 jmp	 SHORT $LN21@P_NetUnArc
$LN20@P_NetUnArc:
  000b2	c7 45 b0 00 00
	00 00		 mov	 DWORD PTR tv78[ebp], 0
$LN21@P_NetUnArc:
  000b9	8b 4d f8	 mov	 ecx, DWORD PTR _i$[ebp]
  000bc	8b 55 b0	 mov	 edx, DWORD PTR tv78[ebp]
  000bf	89 14 8d 00 00
	00 00		 mov	 DWORD PTR _playeringame[ecx*4], edx

; 2809 : 		players[i].playerstate = PST_REBORN;

  000c6	69 45 f8 fc 01
	00 00		 imul	 eax, DWORD PTR _i$[ebp], 508
  000cd	c7 80 04 00 00
	00 02 00 00 00	 mov	 DWORD PTR _players[eax+4], 2

; 2810 : 	}

  000d7	eb b2		 jmp	 SHORT $LN2@P_NetUnArc
$LN3@P_NetUnArc:

; 2811 : 
; 2812 : 	if (!P_SetupLevel(gamemap, true))

  000d9	6a 01		 push	 1
  000db	0f bf 05 00 00
	00 00		 movsx	 eax, WORD PTR _gamemap
  000e2	50		 push	 eax
  000e3	e8 00 00 00 00	 call	 _P_SetupLevel
  000e8	83 c4 08	 add	 esp, 8
  000eb	85 c0		 test	 eax, eax
  000ed	75 07		 jne	 SHORT $LN17@P_NetUnArc

; 2813 : 		return false;

  000ef	33 c0		 xor	 eax, eax
  000f1	e9 5e 03 00 00	 jmp	 $LN1@P_NetUnArc
$LN17@P_NetUnArc:

; 2814 : 	// the "\2" instead of NULL is a hackishly hackish hack to avoid loading precipitation
; 2815 : 
; 2816 : 	for (i = 0; i < MAXPLAYERS; i++)

  000f6	c7 45 f8 00 00
	00 00		 mov	 DWORD PTR _i$[ebp], 0
  000fd	eb 09		 jmp	 SHORT $LN7@P_NetUnArc
$LN5@P_NetUnArc:
  000ff	8b 45 f8	 mov	 eax, DWORD PTR _i$[ebp]
  00102	83 c0 01	 add	 eax, 1
  00105	89 45 f8	 mov	 DWORD PTR _i$[ebp], eax
$LN7@P_NetUnArc:
  00108	83 7d f8 20	 cmp	 DWORD PTR _i$[ebp], 32	; 00000020H
  0010c	7d 42		 jge	 SHORT $LN6@P_NetUnArc

; 2817 : 		for (j = 0; j < S_PLAY_SUPERTRANS9+1; j++)

  0010e	c7 45 f4 00 00
	00 00		 mov	 DWORD PTR _j$[ebp], 0
  00115	eb 09		 jmp	 SHORT $LN10@P_NetUnArc
$LN8@P_NetUnArc:
  00117	8b 45 f4	 mov	 eax, DWORD PTR _j$[ebp]
  0011a	83 c0 01	 add	 eax, 1
  0011d	89 45 f4	 mov	 DWORD PTR _j$[ebp], eax
$LN10@P_NetUnArc:
  00120	83 7d f4 3a	 cmp	 DWORD PTR _j$[ebp], 58	; 0000003aH
  00124	7d 28		 jge	 SHORT $LN9@P_NetUnArc

; 2818 : 			playerstatetics[i][j] = READINT32(save_p);

  00126	69 45 f8 e8 00
	00 00		 imul	 eax, DWORD PTR _i$[ebp], 232
  0012d	8b 4d f4	 mov	 ecx, DWORD PTR _j$[ebp]
  00130	8b 15 00 00 00
	00		 mov	 edx, DWORD PTR _save_p
  00136	8b 12		 mov	 edx, DWORD PTR [edx]
  00138	89 94 88 00 00
	00 00		 mov	 DWORD PTR _playerstatetics[eax+ecx*4], edx
  0013f	a1 00 00 00 00	 mov	 eax, DWORD PTR _save_p
  00144	83 c0 04	 add	 eax, 4
  00147	a3 00 00 00 00	 mov	 DWORD PTR _save_p, eax
  0014c	eb c9		 jmp	 SHORT $LN8@P_NetUnArc
$LN9@P_NetUnArc:
  0014e	eb af		 jmp	 SHORT $LN5@P_NetUnArc
$LN6@P_NetUnArc:

; 2819 : 
; 2820 : 	// get the time
; 2821 : 	leveltime = READUINT32(save_p);

  00150	a1 00 00 00 00	 mov	 eax, DWORD PTR _save_p
  00155	8b 08		 mov	 ecx, DWORD PTR [eax]
  00157	89 0d 00 00 00
	00		 mov	 DWORD PTR _leveltime, ecx
  0015d	8b 15 00 00 00
	00		 mov	 edx, DWORD PTR _save_p
  00163	83 c2 04	 add	 edx, 4
  00166	89 15 00 00 00
	00		 mov	 DWORD PTR _save_p, edx

; 2822 : 	totalrings = READUINT32(save_p);

  0016c	a1 00 00 00 00	 mov	 eax, DWORD PTR _save_p
  00171	8b 08		 mov	 ecx, DWORD PTR [eax]
  00173	89 0d 00 00 00
	00		 mov	 DWORD PTR _totalrings, ecx
  00179	8b 15 00 00 00
	00		 mov	 edx, DWORD PTR _save_p
  0017f	83 c2 04	 add	 edx, 4
  00182	89 15 00 00 00
	00		 mov	 DWORD PTR _save_p, edx

; 2823 : 	lastmap = READINT16(save_p);

  00188	a1 00 00 00 00	 mov	 eax, DWORD PTR _save_p
  0018d	66 8b 08	 mov	 cx, WORD PTR [eax]
  00190	66 89 0d 00 00
	00 00		 mov	 WORD PTR _lastmap, cx
  00197	8b 15 00 00 00
	00		 mov	 edx, DWORD PTR _save_p
  0019d	83 c2 02	 add	 edx, 2
  001a0	89 15 00 00 00
	00		 mov	 DWORD PTR _save_p, edx

; 2824 : 
; 2825 : 	emeralds = READUINT16(save_p);

  001a6	a1 00 00 00 00	 mov	 eax, DWORD PTR _save_p
  001ab	66 8b 08	 mov	 cx, WORD PTR [eax]
  001ae	66 89 0d 00 00
	00 00		 mov	 WORD PTR _emeralds, cx
  001b5	8b 15 00 00 00
	00		 mov	 edx, DWORD PTR _save_p
  001bb	83 c2 02	 add	 edx, 2
  001be	89 15 00 00 00
	00		 mov	 DWORD PTR _save_p, edx

; 2826 : 
; 2827 : 	token = READUINT32(save_p);

  001c4	a1 00 00 00 00	 mov	 eax, DWORD PTR _save_p
  001c9	8b 08		 mov	 ecx, DWORD PTR [eax]
  001cb	89 0d 00 00 00
	00		 mov	 DWORD PTR _token, ecx
  001d1	8b 15 00 00 00
	00		 mov	 edx, DWORD PTR _save_p
  001d7	83 c2 04	 add	 edx, 4
  001da	89 15 00 00 00
	00		 mov	 DWORD PTR _save_p, edx

; 2828 : 	sstimer = READINT32(save_p);

  001e0	a1 00 00 00 00	 mov	 eax, DWORD PTR _save_p
  001e5	8b 08		 mov	 ecx, DWORD PTR [eax]
  001e7	89 0d 00 00 00
	00		 mov	 DWORD PTR _sstimer, ecx
  001ed	8b 15 00 00 00
	00		 mov	 edx, DWORD PTR _save_p
  001f3	83 c2 04	 add	 edx, 4
  001f6	89 15 00 00 00
	00		 mov	 DWORD PTR _save_p, edx

; 2829 : 	bluescore = READUINT32(save_p);

  001fc	a1 00 00 00 00	 mov	 eax, DWORD PTR _save_p
  00201	8b 08		 mov	 ecx, DWORD PTR [eax]
  00203	89 0d 00 00 00
	00		 mov	 DWORD PTR _bluescore, ecx
  00209	8b 15 00 00 00
	00		 mov	 edx, DWORD PTR _save_p
  0020f	83 c2 04	 add	 edx, 4
  00212	89 15 00 00 00
	00		 mov	 DWORD PTR _save_p, edx

; 2830 : 	redscore = READUINT32(save_p);

  00218	a1 00 00 00 00	 mov	 eax, DWORD PTR _save_p
  0021d	8b 08		 mov	 ecx, DWORD PTR [eax]
  0021f	89 0d 00 00 00
	00		 mov	 DWORD PTR _redscore, ecx
  00225	8b 15 00 00 00
	00		 mov	 edx, DWORD PTR _save_p
  0022b	83 c2 04	 add	 edx, 4
  0022e	89 15 00 00 00
	00		 mov	 DWORD PTR _save_p, edx

; 2831 : 
; 2832 : 	autobalance = READINT16(save_p);

  00234	a1 00 00 00 00	 mov	 eax, DWORD PTR _save_p
  00239	66 8b 08	 mov	 cx, WORD PTR [eax]
  0023c	66 89 0d 00 00
	00 00		 mov	 WORD PTR _autobalance, cx
  00243	8b 15 00 00 00
	00		 mov	 edx, DWORD PTR _save_p
  00249	83 c2 02	 add	 edx, 2
  0024c	89 15 00 00 00
	00		 mov	 DWORD PTR _save_p, edx

; 2833 : 	teamscramble = READINT16(save_p);

  00252	a1 00 00 00 00	 mov	 eax, DWORD PTR _save_p
  00257	66 8b 08	 mov	 cx, WORD PTR [eax]
  0025a	66 89 0d 00 00
	00 00		 mov	 WORD PTR _teamscramble, cx
  00261	8b 15 00 00 00
	00		 mov	 edx, DWORD PTR _save_p
  00267	83 c2 02	 add	 edx, 2
  0026a	89 15 00 00 00
	00		 mov	 DWORD PTR _save_p, edx

; 2834 : 
; 2835 : 	for (i = 0; i < MAXPLAYERS; i++)

  00270	c7 45 f8 00 00
	00 00		 mov	 DWORD PTR _i$[ebp], 0
  00277	eb 09		 jmp	 SHORT $LN13@P_NetUnArc
$LN11@P_NetUnArc:
  00279	8b 45 f8	 mov	 eax, DWORD PTR _i$[ebp]
  0027c	83 c0 01	 add	 eax, 1
  0027f	89 45 f8	 mov	 DWORD PTR _i$[ebp], eax
$LN13@P_NetUnArc:
  00282	83 7d f8 20	 cmp	 DWORD PTR _i$[ebp], 32	; 00000020H
  00286	7d 23		 jge	 SHORT $LN12@P_NetUnArc

; 2836 : 		scrambleplayers[i] = READINT16(save_p);

  00288	8b 45 f8	 mov	 eax, DWORD PTR _i$[ebp]
  0028b	8b 0d 00 00 00
	00		 mov	 ecx, DWORD PTR _save_p
  00291	66 8b 11	 mov	 dx, WORD PTR [ecx]
  00294	66 89 14 45 00
	00 00 00	 mov	 WORD PTR _scrambleplayers[eax*2], dx
  0029c	a1 00 00 00 00	 mov	 eax, DWORD PTR _save_p
  002a1	83 c0 02	 add	 eax, 2
  002a4	a3 00 00 00 00	 mov	 DWORD PTR _save_p, eax
  002a9	eb ce		 jmp	 SHORT $LN11@P_NetUnArc
$LN12@P_NetUnArc:

; 2837 : 
; 2838 : 	for (i = 0; i < MAXPLAYERS; i++)

  002ab	c7 45 f8 00 00
	00 00		 mov	 DWORD PTR _i$[ebp], 0
  002b2	eb 09		 jmp	 SHORT $LN16@P_NetUnArc
$LN14@P_NetUnArc:
  002b4	8b 45 f8	 mov	 eax, DWORD PTR _i$[ebp]
  002b7	83 c0 01	 add	 eax, 1
  002ba	89 45 f8	 mov	 DWORD PTR _i$[ebp], eax
$LN16@P_NetUnArc:
  002bd	83 7d f8 20	 cmp	 DWORD PTR _i$[ebp], 32	; 00000020H
  002c1	7d 23		 jge	 SHORT $LN15@P_NetUnArc

; 2839 : 		scrambleteams[i] = READINT16(save_p);

  002c3	8b 45 f8	 mov	 eax, DWORD PTR _i$[ebp]
  002c6	8b 0d 00 00 00
	00		 mov	 ecx, DWORD PTR _save_p
  002cc	66 8b 11	 mov	 dx, WORD PTR [ecx]
  002cf	66 89 14 45 00
	00 00 00	 mov	 WORD PTR _scrambleteams[eax*2], dx
  002d7	a1 00 00 00 00	 mov	 eax, DWORD PTR _save_p
  002dc	83 c0 02	 add	 eax, 2
  002df	a3 00 00 00 00	 mov	 DWORD PTR _save_p, eax
  002e4	eb ce		 jmp	 SHORT $LN14@P_NetUnArc
$LN15@P_NetUnArc:

; 2840 : 
; 2841 : 	scrambletotal = READINT16(save_p);

  002e6	a1 00 00 00 00	 mov	 eax, DWORD PTR _save_p
  002eb	66 8b 08	 mov	 cx, WORD PTR [eax]
  002ee	66 89 0d 00 00
	00 00		 mov	 WORD PTR _scrambletotal, cx
  002f5	8b 15 00 00 00
	00		 mov	 edx, DWORD PTR _save_p
  002fb	83 c2 02	 add	 edx, 2
  002fe	89 15 00 00 00
	00		 mov	 DWORD PTR _save_p, edx

; 2842 : 	scramblecount = READINT16(save_p);

  00304	a1 00 00 00 00	 mov	 eax, DWORD PTR _save_p
  00309	66 8b 08	 mov	 cx, WORD PTR [eax]
  0030c	66 89 0d 00 00
	00 00		 mov	 WORD PTR _scramblecount, cx
  00313	8b 15 00 00 00
	00		 mov	 edx, DWORD PTR _save_p
  00319	83 c2 02	 add	 edx, 2
  0031c	89 15 00 00 00
	00		 mov	 DWORD PTR _save_p, edx

; 2843 : 
; 2844 : 	countdown = READUINT32(save_p);

  00322	a1 00 00 00 00	 mov	 eax, DWORD PTR _save_p
  00327	8b 08		 mov	 ecx, DWORD PTR [eax]
  00329	89 0d 00 00 00
	00		 mov	 DWORD PTR _countdown, ecx
  0032f	8b 15 00 00 00
	00		 mov	 edx, DWORD PTR _save_p
  00335	83 c2 04	 add	 edx, 4
  00338	89 15 00 00 00
	00		 mov	 DWORD PTR _save_p, edx

; 2845 : 	countdown2 = READUINT32(save_p);

  0033e	a1 00 00 00 00	 mov	 eax, DWORD PTR _save_p
  00343	8b 08		 mov	 ecx, DWORD PTR [eax]
  00345	89 0d 00 00 00
	00		 mov	 DWORD PTR _countdown2, ecx
  0034b	8b 15 00 00 00
	00		 mov	 edx, DWORD PTR _save_p
  00351	83 c2 04	 add	 edx, 4
  00354	89 15 00 00 00
	00		 mov	 DWORD PTR _save_p, edx

; 2846 : 
; 2847 : 	gravity = READFIXED(save_p);

  0035a	a1 00 00 00 00	 mov	 eax, DWORD PTR _save_p
  0035f	8b 08		 mov	 ecx, DWORD PTR [eax]
  00361	89 0d 00 00 00
	00		 mov	 DWORD PTR _gravity, ecx
  00367	8b 15 00 00 00
	00		 mov	 edx, DWORD PTR _save_p
  0036d	83 c2 04	 add	 edx, 4
  00370	89 15 00 00 00
	00		 mov	 DWORD PTR _save_p, edx

; 2848 : 
; 2849 : 	countdowntimer = READUINT32(save_p);

  00376	a1 00 00 00 00	 mov	 eax, DWORD PTR _save_p
  0037b	8b 08		 mov	 ecx, DWORD PTR [eax]
  0037d	89 0d 00 00 00
	00		 mov	 DWORD PTR _countdowntimer, ecx
  00383	8b 15 00 00 00
	00		 mov	 edx, DWORD PTR _save_p
  00389	83 c2 04	 add	 edx, 4
  0038c	89 15 00 00 00
	00		 mov	 DWORD PTR _save_p, edx

; 2850 : 	countdowntimeup = READUINT8(save_p);

  00392	a1 00 00 00 00	 mov	 eax, DWORD PTR _save_p
  00397	8a 08		 mov	 cl, BYTE PTR [eax]
  00399	88 0d 00 00 00
	00		 mov	 BYTE PTR _countdowntimeup, cl
  0039f	8b 15 00 00 00
	00		 mov	 edx, DWORD PTR _save_p
  003a5	83 c2 01	 add	 edx, 1
  003a8	89 15 00 00 00
	00		 mov	 DWORD PTR _save_p, edx

; 2851 : 
; 2852 : 	P_SetRandIndex(READUINT8(save_p));

  003ae	a1 00 00 00 00	 mov	 eax, DWORD PTR _save_p
  003b3	8a 08		 mov	 cl, BYTE PTR [eax]
  003b5	88 4d b3	 mov	 BYTE PTR tv156[ebp], cl
  003b8	8b 15 00 00 00
	00		 mov	 edx, DWORD PTR _save_p
  003be	83 c2 01	 add	 edx, 1
  003c1	89 15 00 00 00
	00		 mov	 DWORD PTR _save_p, edx
  003c7	0f b6 45 b3	 movzx	 eax, BYTE PTR tv156[ebp]
  003cb	50		 push	 eax
  003cc	e8 00 00 00 00	 call	 _P_SetRandIndex
  003d1	83 c4 04	 add	 esp, 4

; 2853 : 
; 2854 : 	matchtype = READINT32(save_p);

  003d4	a1 00 00 00 00	 mov	 eax, DWORD PTR _save_p
  003d9	8b 08		 mov	 ecx, DWORD PTR [eax]
  003db	89 0d 00 00 00
	00		 mov	 DWORD PTR _matchtype, ecx
  003e1	8b 15 00 00 00
	00		 mov	 edx, DWORD PTR _save_p
  003e7	83 c2 04	 add	 edx, 4
  003ea	89 15 00 00 00
	00		 mov	 DWORD PTR _save_p, edx

; 2855 : 	tagtype = READINT32(save_p);

  003f0	a1 00 00 00 00	 mov	 eax, DWORD PTR _save_p
  003f5	8b 08		 mov	 ecx, DWORD PTR [eax]
  003f7	89 0d 00 00 00
	00		 mov	 DWORD PTR _tagtype, ecx
  003fd	8b 15 00 00 00
	00		 mov	 edx, DWORD PTR _save_p
  00403	83 c2 04	 add	 edx, 4
  00406	89 15 00 00 00
	00		 mov	 DWORD PTR _save_p, edx

; 2856 : 
; 2857 : 	hidetime = READUINT32(save_p);

  0040c	a1 00 00 00 00	 mov	 eax, DWORD PTR _save_p
  00411	8b 08		 mov	 ecx, DWORD PTR [eax]
  00413	89 0d 00 00 00
	00		 mov	 DWORD PTR _hidetime, ecx
  00419	8b 15 00 00 00
	00		 mov	 edx, DWORD PTR _save_p
  0041f	83 c2 04	 add	 edx, 4
  00422	89 15 00 00 00
	00		 mov	 DWORD PTR _save_p, edx

; 2858 : 
; 2859 : 	// Is it paused?
; 2860 : 	if (READUINT8(save_p) == 0x2f)

  00428	a1 00 00 00 00	 mov	 eax, DWORD PTR _save_p
  0042d	0f b6 08	 movzx	 ecx, BYTE PTR [eax]
  00430	89 4d b0	 mov	 DWORD PTR tv164[ebp], ecx
  00433	8b 15 00 00 00
	00		 mov	 edx, DWORD PTR _save_p
  00439	83 c2 01	 add	 edx, 1
  0043c	89 15 00 00 00
	00		 mov	 DWORD PTR _save_p, edx
  00442	83 7d b0 2f	 cmp	 DWORD PTR tv164[ebp], 47 ; 0000002fH
  00446	75 07		 jne	 SHORT $LN18@P_NetUnArc

; 2861 : 		paused = true;

  00448	c6 05 00 00 00
	00 01		 mov	 BYTE PTR _paused, 1
$LN18@P_NetUnArc:

; 2862 : 
; 2863 : 	return true;

  0044f	b8 01 00 00 00	 mov	 eax, 1
$LN1@P_NetUnArc:

; 2864 : }

  00454	5f		 pop	 edi
  00455	5e		 pop	 esi
  00456	5b		 pop	 ebx
  00457	8b e5		 mov	 esp, ebp
  00459	5d		 pop	 ebp
  0045a	c3		 ret	 0
_P_NetUnArchiveMisc ENDP
_TEXT	ENDS
; Function compile flags: /Odtp /ZI
; File C:\Users\RafaTheFox\Downloads\SRB2-Public-master\src\p_saveg.c
;	COMDAT _P_NetArchiveMisc
_TEXT	SEGMENT
tv75 = -200						; size = 4
_p_tmp$1 = -132						; size = 4
_p_tmp$2 = -128						; size = 4
_p_tmp$3 = -124						; size = 4
_p_tmp$4 = -120						; size = 4
_p_tmp$5 = -116						; size = 4
_p_tmp$6 = -112						; size = 4
_p_tmp$7 = -108						; size = 4
_p_tmp$8 = -104						; size = 4
_p_tmp$9 = -100						; size = 4
_p_tmp$10 = -96						; size = 4
_p_tmp$11 = -92						; size = 4
_p_tmp$12 = -88						; size = 4
_p_tmp$13 = -84						; size = 4
_p_tmp$14 = -80						; size = 4
_p_tmp$15 = -76						; size = 4
_p_tmp$16 = -72						; size = 4
_p_tmp$17 = -68						; size = 4
_p_tmp$18 = -64						; size = 4
_p_tmp$19 = -60						; size = 4
_p_tmp$20 = -56						; size = 4
_p_tmp$21 = -52						; size = 4
_p_tmp$22 = -48						; size = 4
_p_tmp$23 = -44						; size = 4
_p_tmp$24 = -40						; size = 4
_p_tmp$25 = -36						; size = 4
_p_tmp$26 = -32						; size = 4
_p_tmp$27 = -28						; size = 4
_p_tmp$28 = -24						; size = 4
_p_tmp$29 = -20						; size = 4
_p_tmp$30 = -16						; size = 4
_j$ = -12						; size = 4
_i$ = -8						; size = 4
_pig$ = -4						; size = 4
_P_NetArchiveMisc PROC					; COMDAT

; 2731 : {

  00000	55		 push	 ebp
  00001	8b ec		 mov	 ebp, esp
  00003	81 ec c8 00 00
	00		 sub	 esp, 200		; 000000c8H
  00009	53		 push	 ebx
  0000a	56		 push	 esi
  0000b	57		 push	 edi

; 2732 : 	UINT32 pig = 0;

  0000c	c7 45 fc 00 00
	00 00		 mov	 DWORD PTR _pig$[ebp], 0
$LN4@P_NetArchi:

; 2733 : 	INT32 i, j;
; 2734 : 
; 2735 : 	WRITEINT16(save_p, gamemap);

  00013	a1 00 00 00 00	 mov	 eax, DWORD PTR _save_p
  00018	89 45 f0	 mov	 DWORD PTR _p_tmp$30[ebp], eax
  0001b	8b 45 f0	 mov	 eax, DWORD PTR _p_tmp$30[ebp]
  0001e	66 8b 0d 00 00
	00 00		 mov	 cx, WORD PTR _gamemap
  00025	66 89 08	 mov	 WORD PTR [eax], cx
  00028	8b 45 f0	 mov	 eax, DWORD PTR _p_tmp$30[ebp]
  0002b	83 c0 02	 add	 eax, 2
  0002e	89 45 f0	 mov	 DWORD PTR _p_tmp$30[ebp], eax
  00031	8b 45 f0	 mov	 eax, DWORD PTR _p_tmp$30[ebp]
  00034	a3 00 00 00 00	 mov	 DWORD PTR _save_p, eax
  00039	33 c0		 xor	 eax, eax
  0003b	75 d6		 jne	 SHORT $LN4@P_NetArchi
$LN3@P_NetArchi:

; 2736 : 	WRITEUINT16(save_p, gamestate);

  0003d	a1 00 00 00 00	 mov	 eax, DWORD PTR _save_p
  00042	89 45 ec	 mov	 DWORD PTR _p_tmp$29[ebp], eax
  00045	8b 45 ec	 mov	 eax, DWORD PTR _p_tmp$29[ebp]
  00048	66 8b 0d 00 00
	00 00		 mov	 cx, WORD PTR _gamestate
  0004f	66 89 08	 mov	 WORD PTR [eax], cx
  00052	8b 45 ec	 mov	 eax, DWORD PTR _p_tmp$29[ebp]
  00055	83 c0 02	 add	 eax, 2
  00058	89 45 ec	 mov	 DWORD PTR _p_tmp$29[ebp], eax
  0005b	8b 45 ec	 mov	 eax, DWORD PTR _p_tmp$29[ebp]
  0005e	a3 00 00 00 00	 mov	 DWORD PTR _save_p, eax
  00063	33 c0		 xor	 eax, eax
  00065	75 d6		 jne	 SHORT $LN3@P_NetArchi
$LN6@P_NetArchi:

; 2737 : 
; 2738 : 	WRITEUINT32(save_p, tokenlist);

  00067	a1 00 00 00 00	 mov	 eax, DWORD PTR _save_p
  0006c	89 45 e8	 mov	 DWORD PTR _p_tmp$28[ebp], eax
  0006f	8b 45 e8	 mov	 eax, DWORD PTR _p_tmp$28[ebp]
  00072	8b 0d 00 00 00
	00		 mov	 ecx, DWORD PTR _tokenlist
  00078	89 08		 mov	 DWORD PTR [eax], ecx
  0007a	8b 45 e8	 mov	 eax, DWORD PTR _p_tmp$28[ebp]
  0007d	83 c0 04	 add	 eax, 4
  00080	89 45 e8	 mov	 DWORD PTR _p_tmp$28[ebp], eax
  00083	8b 45 e8	 mov	 eax, DWORD PTR _p_tmp$28[ebp]
  00086	a3 00 00 00 00	 mov	 DWORD PTR _save_p, eax
  0008b	33 c0		 xor	 eax, eax
  0008d	75 d8		 jne	 SHORT $LN6@P_NetArchi

; 2739 : 
; 2740 : 	for (i = 0; i < MAXPLAYERS; i++)

  0008f	c7 45 f8 00 00
	00 00		 mov	 DWORD PTR _i$[ebp], 0
  00096	eb 09		 jmp	 SHORT $LN13@P_NetArchi
$LN11@P_NetArchi:
  00098	8b 45 f8	 mov	 eax, DWORD PTR _i$[ebp]
  0009b	83 c0 01	 add	 eax, 1
  0009e	89 45 f8	 mov	 DWORD PTR _i$[ebp], eax
$LN13@P_NetArchi:
  000a1	83 7d f8 20	 cmp	 DWORD PTR _i$[ebp], 32	; 00000020H
  000a5	7d 36		 jge	 SHORT $LN12@P_NetArchi

; 2741 : 		pig |= (playeringame[i] != 0)<<i;

  000a7	8b 45 f8	 mov	 eax, DWORD PTR _i$[ebp]
  000aa	83 3c 85 00 00
	00 00 00	 cmp	 DWORD PTR _playeringame[eax*4], 0
  000b2	74 0c		 je	 SHORT $LN110@P_NetArchi
  000b4	c7 85 38 ff ff
	ff 01 00 00 00	 mov	 DWORD PTR tv75[ebp], 1
  000be	eb 0a		 jmp	 SHORT $LN111@P_NetArchi
$LN110@P_NetArchi:
  000c0	c7 85 38 ff ff
	ff 00 00 00 00	 mov	 DWORD PTR tv75[ebp], 0
$LN111@P_NetArchi:
  000ca	8b 95 38 ff ff
	ff		 mov	 edx, DWORD PTR tv75[ebp]
  000d0	8b 4d f8	 mov	 ecx, DWORD PTR _i$[ebp]
  000d3	d3 e2		 shl	 edx, cl
  000d5	0b 55 fc	 or	 edx, DWORD PTR _pig$[ebp]
  000d8	89 55 fc	 mov	 DWORD PTR _pig$[ebp], edx
  000db	eb bb		 jmp	 SHORT $LN11@P_NetArchi
$LN12@P_NetArchi:

; 2742 : 
; 2743 : 	WRITEUINT32(save_p, pig);

  000dd	a1 00 00 00 00	 mov	 eax, DWORD PTR _save_p
  000e2	89 45 e4	 mov	 DWORD PTR _p_tmp$27[ebp], eax
  000e5	8b 45 e4	 mov	 eax, DWORD PTR _p_tmp$27[ebp]
  000e8	8b 4d fc	 mov	 ecx, DWORD PTR _pig$[ebp]
  000eb	89 08		 mov	 DWORD PTR [eax], ecx
  000ed	8b 45 e4	 mov	 eax, DWORD PTR _p_tmp$27[ebp]
  000f0	83 c0 04	 add	 eax, 4
  000f3	89 45 e4	 mov	 DWORD PTR _p_tmp$27[ebp], eax
  000f6	8b 45 e4	 mov	 eax, DWORD PTR _p_tmp$27[ebp]
  000f9	a3 00 00 00 00	 mov	 DWORD PTR _save_p, eax
  000fe	33 c0		 xor	 eax, eax
  00100	75 db		 jne	 SHORT $LN12@P_NetArchi

; 2744 : 
; 2745 : 	for (i = 0; i < MAXPLAYERS; i++)

  00102	c7 45 f8 00 00
	00 00		 mov	 DWORD PTR _i$[ebp], 0
  00109	eb 09		 jmp	 SHORT $LN19@P_NetArchi
$LN17@P_NetArchi:
  0010b	8b 45 f8	 mov	 eax, DWORD PTR _i$[ebp]
  0010e	83 c0 01	 add	 eax, 1
  00111	89 45 f8	 mov	 DWORD PTR _i$[ebp], eax
$LN19@P_NetArchi:
  00114	83 7d f8 20	 cmp	 DWORD PTR _i$[ebp], 32	; 00000020H
  00118	7d 4f		 jge	 SHORT $LN18@P_NetArchi

; 2746 : 		for (j = 0; j < S_PLAY_SUPERTRANS9+1; j++)

  0011a	c7 45 f4 00 00
	00 00		 mov	 DWORD PTR _j$[ebp], 0
  00121	eb 09		 jmp	 SHORT $LN22@P_NetArchi
$LN20@P_NetArchi:
  00123	8b 45 f4	 mov	 eax, DWORD PTR _j$[ebp]
  00126	83 c0 01	 add	 eax, 1
  00129	89 45 f4	 mov	 DWORD PTR _j$[ebp], eax
$LN22@P_NetArchi:
  0012c	83 7d f4 3a	 cmp	 DWORD PTR _j$[ebp], 58	; 0000003aH
  00130	7d 35		 jge	 SHORT $LN21@P_NetArchi
$LN25@P_NetArchi:

; 2747 : 			WRITEINT32(save_p, playerstatetics[i][j]);

  00132	a1 00 00 00 00	 mov	 eax, DWORD PTR _save_p
  00137	89 45 e0	 mov	 DWORD PTR _p_tmp$26[ebp], eax
  0013a	69 45 f8 e8 00
	00 00		 imul	 eax, DWORD PTR _i$[ebp], 232
  00141	8b 4d e0	 mov	 ecx, DWORD PTR _p_tmp$26[ebp]
  00144	8b 55 f4	 mov	 edx, DWORD PTR _j$[ebp]
  00147	8b 84 90 00 00
	00 00		 mov	 eax, DWORD PTR _playerstatetics[eax+edx*4]
  0014e	89 01		 mov	 DWORD PTR [ecx], eax
  00150	8b 45 e0	 mov	 eax, DWORD PTR _p_tmp$26[ebp]
  00153	83 c0 04	 add	 eax, 4
  00156	89 45 e0	 mov	 DWORD PTR _p_tmp$26[ebp], eax
  00159	8b 45 e0	 mov	 eax, DWORD PTR _p_tmp$26[ebp]
  0015c	a3 00 00 00 00	 mov	 DWORD PTR _save_p, eax
  00161	33 c0		 xor	 eax, eax
  00163	75 cd		 jne	 SHORT $LN25@P_NetArchi
  00165	eb bc		 jmp	 SHORT $LN20@P_NetArchi
$LN21@P_NetArchi:
  00167	eb a2		 jmp	 SHORT $LN17@P_NetArchi
$LN18@P_NetArchi:

; 2748 : 
; 2749 : 	WRITEUINT32(save_p, leveltime);

  00169	a1 00 00 00 00	 mov	 eax, DWORD PTR _save_p
  0016e	89 45 dc	 mov	 DWORD PTR _p_tmp$25[ebp], eax
  00171	8b 45 dc	 mov	 eax, DWORD PTR _p_tmp$25[ebp]
  00174	8b 0d 00 00 00
	00		 mov	 ecx, DWORD PTR _leveltime
  0017a	89 08		 mov	 DWORD PTR [eax], ecx
  0017c	8b 45 dc	 mov	 eax, DWORD PTR _p_tmp$25[ebp]
  0017f	83 c0 04	 add	 eax, 4
  00182	89 45 dc	 mov	 DWORD PTR _p_tmp$25[ebp], eax
  00185	8b 45 dc	 mov	 eax, DWORD PTR _p_tmp$25[ebp]
  00188	a3 00 00 00 00	 mov	 DWORD PTR _save_p, eax
  0018d	33 c0		 xor	 eax, eax
  0018f	75 d8		 jne	 SHORT $LN18@P_NetArchi
$LN27@P_NetArchi:

; 2750 : 	WRITEUINT32(save_p, totalrings);

  00191	a1 00 00 00 00	 mov	 eax, DWORD PTR _save_p
  00196	89 45 d8	 mov	 DWORD PTR _p_tmp$24[ebp], eax
  00199	8b 45 d8	 mov	 eax, DWORD PTR _p_tmp$24[ebp]
  0019c	8b 0d 00 00 00
	00		 mov	 ecx, DWORD PTR _totalrings
  001a2	89 08		 mov	 DWORD PTR [eax], ecx
  001a4	8b 45 d8	 mov	 eax, DWORD PTR _p_tmp$24[ebp]
  001a7	83 c0 04	 add	 eax, 4
  001aa	89 45 d8	 mov	 DWORD PTR _p_tmp$24[ebp], eax
  001ad	8b 45 d8	 mov	 eax, DWORD PTR _p_tmp$24[ebp]
  001b0	a3 00 00 00 00	 mov	 DWORD PTR _save_p, eax
  001b5	33 c0		 xor	 eax, eax
  001b7	75 d8		 jne	 SHORT $LN27@P_NetArchi
$LN30@P_NetArchi:

; 2751 : 	WRITEINT16(save_p, lastmap);

  001b9	a1 00 00 00 00	 mov	 eax, DWORD PTR _save_p
  001be	89 45 d4	 mov	 DWORD PTR _p_tmp$23[ebp], eax
  001c1	8b 45 d4	 mov	 eax, DWORD PTR _p_tmp$23[ebp]
  001c4	66 8b 0d 00 00
	00 00		 mov	 cx, WORD PTR _lastmap
  001cb	66 89 08	 mov	 WORD PTR [eax], cx
  001ce	8b 45 d4	 mov	 eax, DWORD PTR _p_tmp$23[ebp]
  001d1	83 c0 02	 add	 eax, 2
  001d4	89 45 d4	 mov	 DWORD PTR _p_tmp$23[ebp], eax
  001d7	8b 45 d4	 mov	 eax, DWORD PTR _p_tmp$23[ebp]
  001da	a3 00 00 00 00	 mov	 DWORD PTR _save_p, eax
  001df	33 c0		 xor	 eax, eax
  001e1	75 d6		 jne	 SHORT $LN30@P_NetArchi
$LN33@P_NetArchi:

; 2752 : 
; 2753 : 	WRITEUINT16(save_p, emeralds);

  001e3	a1 00 00 00 00	 mov	 eax, DWORD PTR _save_p
  001e8	89 45 d0	 mov	 DWORD PTR _p_tmp$22[ebp], eax
  001eb	8b 45 d0	 mov	 eax, DWORD PTR _p_tmp$22[ebp]
  001ee	66 8b 0d 00 00
	00 00		 mov	 cx, WORD PTR _emeralds
  001f5	66 89 08	 mov	 WORD PTR [eax], cx
  001f8	8b 45 d0	 mov	 eax, DWORD PTR _p_tmp$22[ebp]
  001fb	83 c0 02	 add	 eax, 2
  001fe	89 45 d0	 mov	 DWORD PTR _p_tmp$22[ebp], eax
  00201	8b 45 d0	 mov	 eax, DWORD PTR _p_tmp$22[ebp]
  00204	a3 00 00 00 00	 mov	 DWORD PTR _save_p, eax
  00209	33 c0		 xor	 eax, eax
  0020b	75 d6		 jne	 SHORT $LN33@P_NetArchi
$LN36@P_NetArchi:

; 2754 : 
; 2755 : 	WRITEUINT32(save_p, token);

  0020d	a1 00 00 00 00	 mov	 eax, DWORD PTR _save_p
  00212	89 45 cc	 mov	 DWORD PTR _p_tmp$21[ebp], eax
  00215	8b 45 cc	 mov	 eax, DWORD PTR _p_tmp$21[ebp]
  00218	8b 0d 00 00 00
	00		 mov	 ecx, DWORD PTR _token
  0021e	89 08		 mov	 DWORD PTR [eax], ecx
  00220	8b 45 cc	 mov	 eax, DWORD PTR _p_tmp$21[ebp]
  00223	83 c0 04	 add	 eax, 4
  00226	89 45 cc	 mov	 DWORD PTR _p_tmp$21[ebp], eax
  00229	8b 45 cc	 mov	 eax, DWORD PTR _p_tmp$21[ebp]
  0022c	a3 00 00 00 00	 mov	 DWORD PTR _save_p, eax
  00231	33 c0		 xor	 eax, eax
  00233	75 d8		 jne	 SHORT $LN36@P_NetArchi
$LN39@P_NetArchi:

; 2756 : 	WRITEINT32(save_p, sstimer);

  00235	a1 00 00 00 00	 mov	 eax, DWORD PTR _save_p
  0023a	89 45 c8	 mov	 DWORD PTR _p_tmp$20[ebp], eax
  0023d	8b 45 c8	 mov	 eax, DWORD PTR _p_tmp$20[ebp]
  00240	8b 0d 00 00 00
	00		 mov	 ecx, DWORD PTR _sstimer
  00246	89 08		 mov	 DWORD PTR [eax], ecx
  00248	8b 45 c8	 mov	 eax, DWORD PTR _p_tmp$20[ebp]
  0024b	83 c0 04	 add	 eax, 4
  0024e	89 45 c8	 mov	 DWORD PTR _p_tmp$20[ebp], eax
  00251	8b 45 c8	 mov	 eax, DWORD PTR _p_tmp$20[ebp]
  00254	a3 00 00 00 00	 mov	 DWORD PTR _save_p, eax
  00259	33 c0		 xor	 eax, eax
  0025b	75 d8		 jne	 SHORT $LN39@P_NetArchi
$LN42@P_NetArchi:

; 2757 : 	WRITEUINT32(save_p, bluescore);

  0025d	a1 00 00 00 00	 mov	 eax, DWORD PTR _save_p
  00262	89 45 c4	 mov	 DWORD PTR _p_tmp$19[ebp], eax
  00265	8b 45 c4	 mov	 eax, DWORD PTR _p_tmp$19[ebp]
  00268	8b 0d 00 00 00
	00		 mov	 ecx, DWORD PTR _bluescore
  0026e	89 08		 mov	 DWORD PTR [eax], ecx
  00270	8b 45 c4	 mov	 eax, DWORD PTR _p_tmp$19[ebp]
  00273	83 c0 04	 add	 eax, 4
  00276	89 45 c4	 mov	 DWORD PTR _p_tmp$19[ebp], eax
  00279	8b 45 c4	 mov	 eax, DWORD PTR _p_tmp$19[ebp]
  0027c	a3 00 00 00 00	 mov	 DWORD PTR _save_p, eax
  00281	33 c0		 xor	 eax, eax
  00283	75 d8		 jne	 SHORT $LN42@P_NetArchi
$LN45@P_NetArchi:

; 2758 : 	WRITEUINT32(save_p, redscore);

  00285	a1 00 00 00 00	 mov	 eax, DWORD PTR _save_p
  0028a	89 45 c0	 mov	 DWORD PTR _p_tmp$18[ebp], eax
  0028d	8b 45 c0	 mov	 eax, DWORD PTR _p_tmp$18[ebp]
  00290	8b 0d 00 00 00
	00		 mov	 ecx, DWORD PTR _redscore
  00296	89 08		 mov	 DWORD PTR [eax], ecx
  00298	8b 45 c0	 mov	 eax, DWORD PTR _p_tmp$18[ebp]
  0029b	83 c0 04	 add	 eax, 4
  0029e	89 45 c0	 mov	 DWORD PTR _p_tmp$18[ebp], eax
  002a1	8b 45 c0	 mov	 eax, DWORD PTR _p_tmp$18[ebp]
  002a4	a3 00 00 00 00	 mov	 DWORD PTR _save_p, eax
  002a9	33 c0		 xor	 eax, eax
  002ab	75 d8		 jne	 SHORT $LN45@P_NetArchi
$LN48@P_NetArchi:

; 2759 : 
; 2760 : 	WRITEINT16(save_p, autobalance);

  002ad	a1 00 00 00 00	 mov	 eax, DWORD PTR _save_p
  002b2	89 45 bc	 mov	 DWORD PTR _p_tmp$17[ebp], eax
  002b5	8b 45 bc	 mov	 eax, DWORD PTR _p_tmp$17[ebp]
  002b8	66 8b 0d 00 00
	00 00		 mov	 cx, WORD PTR _autobalance
  002bf	66 89 08	 mov	 WORD PTR [eax], cx
  002c2	8b 45 bc	 mov	 eax, DWORD PTR _p_tmp$17[ebp]
  002c5	83 c0 02	 add	 eax, 2
  002c8	89 45 bc	 mov	 DWORD PTR _p_tmp$17[ebp], eax
  002cb	8b 45 bc	 mov	 eax, DWORD PTR _p_tmp$17[ebp]
  002ce	a3 00 00 00 00	 mov	 DWORD PTR _save_p, eax
  002d3	33 c0		 xor	 eax, eax
  002d5	75 d6		 jne	 SHORT $LN48@P_NetArchi
$LN51@P_NetArchi:

; 2761 : 	WRITEINT16(save_p, teamscramble);

  002d7	a1 00 00 00 00	 mov	 eax, DWORD PTR _save_p
  002dc	89 45 b8	 mov	 DWORD PTR _p_tmp$16[ebp], eax
  002df	8b 45 b8	 mov	 eax, DWORD PTR _p_tmp$16[ebp]
  002e2	66 8b 0d 00 00
	00 00		 mov	 cx, WORD PTR _teamscramble
  002e9	66 89 08	 mov	 WORD PTR [eax], cx
  002ec	8b 45 b8	 mov	 eax, DWORD PTR _p_tmp$16[ebp]
  002ef	83 c0 02	 add	 eax, 2
  002f2	89 45 b8	 mov	 DWORD PTR _p_tmp$16[ebp], eax
  002f5	8b 45 b8	 mov	 eax, DWORD PTR _p_tmp$16[ebp]
  002f8	a3 00 00 00 00	 mov	 DWORD PTR _save_p, eax
  002fd	33 c0		 xor	 eax, eax
  002ff	75 d6		 jne	 SHORT $LN51@P_NetArchi

; 2762 : 
; 2763 : 	for (i = 0; i < MAXPLAYERS; i++)

  00301	c7 45 f8 00 00
	00 00		 mov	 DWORD PTR _i$[ebp], 0
  00308	eb 09		 jmp	 SHORT $LN58@P_NetArchi
$LN56@P_NetArchi:
  0030a	8b 45 f8	 mov	 eax, DWORD PTR _i$[ebp]
  0030d	83 c0 01	 add	 eax, 1
  00310	89 45 f8	 mov	 DWORD PTR _i$[ebp], eax
$LN58@P_NetArchi:
  00313	83 7d f8 20	 cmp	 DWORD PTR _i$[ebp], 32	; 00000020H
  00317	7d 30		 jge	 SHORT $LN57@P_NetArchi
$LN61@P_NetArchi:

; 2764 : 		WRITEINT16(save_p, scrambleplayers[i]);

  00319	a1 00 00 00 00	 mov	 eax, DWORD PTR _save_p
  0031e	89 45 b4	 mov	 DWORD PTR _p_tmp$15[ebp], eax
  00321	8b 45 b4	 mov	 eax, DWORD PTR _p_tmp$15[ebp]
  00324	8b 4d f8	 mov	 ecx, DWORD PTR _i$[ebp]
  00327	66 8b 14 4d 00
	00 00 00	 mov	 dx, WORD PTR _scrambleplayers[ecx*2]
  0032f	66 89 10	 mov	 WORD PTR [eax], dx
  00332	8b 45 b4	 mov	 eax, DWORD PTR _p_tmp$15[ebp]
  00335	83 c0 02	 add	 eax, 2
  00338	89 45 b4	 mov	 DWORD PTR _p_tmp$15[ebp], eax
  0033b	8b 45 b4	 mov	 eax, DWORD PTR _p_tmp$15[ebp]
  0033e	a3 00 00 00 00	 mov	 DWORD PTR _save_p, eax
  00343	33 c0		 xor	 eax, eax
  00345	75 d2		 jne	 SHORT $LN61@P_NetArchi
  00347	eb c1		 jmp	 SHORT $LN56@P_NetArchi
$LN57@P_NetArchi:

; 2765 : 
; 2766 : 	for (i = 0; i < MAXPLAYERS; i++)

  00349	c7 45 f8 00 00
	00 00		 mov	 DWORD PTR _i$[ebp], 0
  00350	eb 09		 jmp	 SHORT $LN64@P_NetArchi
$LN62@P_NetArchi:
  00352	8b 45 f8	 mov	 eax, DWORD PTR _i$[ebp]
  00355	83 c0 01	 add	 eax, 1
  00358	89 45 f8	 mov	 DWORD PTR _i$[ebp], eax
$LN64@P_NetArchi:
  0035b	83 7d f8 20	 cmp	 DWORD PTR _i$[ebp], 32	; 00000020H
  0035f	7d 30		 jge	 SHORT $LN63@P_NetArchi
$LN67@P_NetArchi:

; 2767 : 		WRITEINT16(save_p, scrambleteams[i]);

  00361	a1 00 00 00 00	 mov	 eax, DWORD PTR _save_p
  00366	89 45 b0	 mov	 DWORD PTR _p_tmp$14[ebp], eax
  00369	8b 45 b0	 mov	 eax, DWORD PTR _p_tmp$14[ebp]
  0036c	8b 4d f8	 mov	 ecx, DWORD PTR _i$[ebp]
  0036f	66 8b 14 4d 00
	00 00 00	 mov	 dx, WORD PTR _scrambleteams[ecx*2]
  00377	66 89 10	 mov	 WORD PTR [eax], dx
  0037a	8b 45 b0	 mov	 eax, DWORD PTR _p_tmp$14[ebp]
  0037d	83 c0 02	 add	 eax, 2
  00380	89 45 b0	 mov	 DWORD PTR _p_tmp$14[ebp], eax
  00383	8b 45 b0	 mov	 eax, DWORD PTR _p_tmp$14[ebp]
  00386	a3 00 00 00 00	 mov	 DWORD PTR _save_p, eax
  0038b	33 c0		 xor	 eax, eax
  0038d	75 d2		 jne	 SHORT $LN67@P_NetArchi
  0038f	eb c1		 jmp	 SHORT $LN62@P_NetArchi
$LN63@P_NetArchi:

; 2768 : 
; 2769 : 	WRITEINT16(save_p, scrambletotal);

  00391	a1 00 00 00 00	 mov	 eax, DWORD PTR _save_p
  00396	89 45 ac	 mov	 DWORD PTR _p_tmp$13[ebp], eax
  00399	8b 45 ac	 mov	 eax, DWORD PTR _p_tmp$13[ebp]
  0039c	66 8b 0d 00 00
	00 00		 mov	 cx, WORD PTR _scrambletotal
  003a3	66 89 08	 mov	 WORD PTR [eax], cx
  003a6	8b 45 ac	 mov	 eax, DWORD PTR _p_tmp$13[ebp]
  003a9	83 c0 02	 add	 eax, 2
  003ac	89 45 ac	 mov	 DWORD PTR _p_tmp$13[ebp], eax
  003af	8b 45 ac	 mov	 eax, DWORD PTR _p_tmp$13[ebp]
  003b2	a3 00 00 00 00	 mov	 DWORD PTR _save_p, eax
  003b7	33 c0		 xor	 eax, eax
  003b9	75 d6		 jne	 SHORT $LN63@P_NetArchi
$LN69@P_NetArchi:

; 2770 : 	WRITEINT16(save_p, scramblecount);

  003bb	a1 00 00 00 00	 mov	 eax, DWORD PTR _save_p
  003c0	89 45 a8	 mov	 DWORD PTR _p_tmp$12[ebp], eax
  003c3	8b 45 a8	 mov	 eax, DWORD PTR _p_tmp$12[ebp]
  003c6	66 8b 0d 00 00
	00 00		 mov	 cx, WORD PTR _scramblecount
  003cd	66 89 08	 mov	 WORD PTR [eax], cx
  003d0	8b 45 a8	 mov	 eax, DWORD PTR _p_tmp$12[ebp]
  003d3	83 c0 02	 add	 eax, 2
  003d6	89 45 a8	 mov	 DWORD PTR _p_tmp$12[ebp], eax
  003d9	8b 45 a8	 mov	 eax, DWORD PTR _p_tmp$12[ebp]
  003dc	a3 00 00 00 00	 mov	 DWORD PTR _save_p, eax
  003e1	33 c0		 xor	 eax, eax
  003e3	75 d6		 jne	 SHORT $LN69@P_NetArchi
$LN72@P_NetArchi:

; 2771 : 
; 2772 : 	WRITEUINT32(save_p, countdown);

  003e5	a1 00 00 00 00	 mov	 eax, DWORD PTR _save_p
  003ea	89 45 a4	 mov	 DWORD PTR _p_tmp$11[ebp], eax
  003ed	8b 45 a4	 mov	 eax, DWORD PTR _p_tmp$11[ebp]
  003f0	8b 0d 00 00 00
	00		 mov	 ecx, DWORD PTR _countdown
  003f6	89 08		 mov	 DWORD PTR [eax], ecx
  003f8	8b 45 a4	 mov	 eax, DWORD PTR _p_tmp$11[ebp]
  003fb	83 c0 04	 add	 eax, 4
  003fe	89 45 a4	 mov	 DWORD PTR _p_tmp$11[ebp], eax
  00401	8b 45 a4	 mov	 eax, DWORD PTR _p_tmp$11[ebp]
  00404	a3 00 00 00 00	 mov	 DWORD PTR _save_p, eax
  00409	33 c0		 xor	 eax, eax
  0040b	75 d8		 jne	 SHORT $LN72@P_NetArchi
$LN75@P_NetArchi:

; 2773 : 	WRITEUINT32(save_p, countdown2);

  0040d	a1 00 00 00 00	 mov	 eax, DWORD PTR _save_p
  00412	89 45 a0	 mov	 DWORD PTR _p_tmp$10[ebp], eax
  00415	8b 45 a0	 mov	 eax, DWORD PTR _p_tmp$10[ebp]
  00418	8b 0d 00 00 00
	00		 mov	 ecx, DWORD PTR _countdown2
  0041e	89 08		 mov	 DWORD PTR [eax], ecx
  00420	8b 45 a0	 mov	 eax, DWORD PTR _p_tmp$10[ebp]
  00423	83 c0 04	 add	 eax, 4
  00426	89 45 a0	 mov	 DWORD PTR _p_tmp$10[ebp], eax
  00429	8b 45 a0	 mov	 eax, DWORD PTR _p_tmp$10[ebp]
  0042c	a3 00 00 00 00	 mov	 DWORD PTR _save_p, eax
  00431	33 c0		 xor	 eax, eax
  00433	75 d8		 jne	 SHORT $LN75@P_NetArchi
$LN78@P_NetArchi:

; 2774 : 
; 2775 : 	WRITEFIXED(save_p, gravity);

  00435	a1 00 00 00 00	 mov	 eax, DWORD PTR _save_p
  0043a	89 45 9c	 mov	 DWORD PTR _p_tmp$9[ebp], eax
  0043d	8b 45 9c	 mov	 eax, DWORD PTR _p_tmp$9[ebp]
  00440	8b 0d 00 00 00
	00		 mov	 ecx, DWORD PTR _gravity
  00446	89 08		 mov	 DWORD PTR [eax], ecx
  00448	8b 45 9c	 mov	 eax, DWORD PTR _p_tmp$9[ebp]
  0044b	83 c0 04	 add	 eax, 4
  0044e	89 45 9c	 mov	 DWORD PTR _p_tmp$9[ebp], eax
  00451	8b 45 9c	 mov	 eax, DWORD PTR _p_tmp$9[ebp]
  00454	a3 00 00 00 00	 mov	 DWORD PTR _save_p, eax
  00459	33 c0		 xor	 eax, eax
  0045b	75 d8		 jne	 SHORT $LN78@P_NetArchi
$LN81@P_NetArchi:

; 2776 : 
; 2777 : 	WRITEUINT32(save_p, countdowntimer);

  0045d	a1 00 00 00 00	 mov	 eax, DWORD PTR _save_p
  00462	89 45 98	 mov	 DWORD PTR _p_tmp$8[ebp], eax
  00465	8b 45 98	 mov	 eax, DWORD PTR _p_tmp$8[ebp]
  00468	8b 0d 00 00 00
	00		 mov	 ecx, DWORD PTR _countdowntimer
  0046e	89 08		 mov	 DWORD PTR [eax], ecx
  00470	8b 45 98	 mov	 eax, DWORD PTR _p_tmp$8[ebp]
  00473	83 c0 04	 add	 eax, 4
  00476	89 45 98	 mov	 DWORD PTR _p_tmp$8[ebp], eax
  00479	8b 45 98	 mov	 eax, DWORD PTR _p_tmp$8[ebp]
  0047c	a3 00 00 00 00	 mov	 DWORD PTR _save_p, eax
  00481	33 c0		 xor	 eax, eax
  00483	75 d8		 jne	 SHORT $LN81@P_NetArchi
$LN84@P_NetArchi:

; 2778 : 	WRITEUINT8(save_p, countdowntimeup);

  00485	a1 00 00 00 00	 mov	 eax, DWORD PTR _save_p
  0048a	89 45 94	 mov	 DWORD PTR _p_tmp$7[ebp], eax
  0048d	8b 45 94	 mov	 eax, DWORD PTR _p_tmp$7[ebp]
  00490	8a 0d 00 00 00
	00		 mov	 cl, BYTE PTR _countdowntimeup
  00496	88 08		 mov	 BYTE PTR [eax], cl
  00498	8b 45 94	 mov	 eax, DWORD PTR _p_tmp$7[ebp]
  0049b	83 c0 01	 add	 eax, 1
  0049e	89 45 94	 mov	 DWORD PTR _p_tmp$7[ebp], eax
  004a1	8b 45 94	 mov	 eax, DWORD PTR _p_tmp$7[ebp]
  004a4	a3 00 00 00 00	 mov	 DWORD PTR _save_p, eax
  004a9	33 c0		 xor	 eax, eax
  004ab	75 d8		 jne	 SHORT $LN84@P_NetArchi
$LN87@P_NetArchi:

; 2779 : 
; 2780 : 	WRITEUINT8(save_p, P_GetRandIndex());

  004ad	a1 00 00 00 00	 mov	 eax, DWORD PTR _save_p
  004b2	89 45 90	 mov	 DWORD PTR _p_tmp$6[ebp], eax
  004b5	e8 00 00 00 00	 call	 _P_GetRandIndex
  004ba	8b 4d 90	 mov	 ecx, DWORD PTR _p_tmp$6[ebp]
  004bd	88 01		 mov	 BYTE PTR [ecx], al
  004bf	8b 45 90	 mov	 eax, DWORD PTR _p_tmp$6[ebp]
  004c2	83 c0 01	 add	 eax, 1
  004c5	89 45 90	 mov	 DWORD PTR _p_tmp$6[ebp], eax
  004c8	8b 45 90	 mov	 eax, DWORD PTR _p_tmp$6[ebp]
  004cb	a3 00 00 00 00	 mov	 DWORD PTR _save_p, eax
  004d0	33 c0		 xor	 eax, eax
  004d2	75 d9		 jne	 SHORT $LN87@P_NetArchi
$LN90@P_NetArchi:

; 2781 : 
; 2782 : 	WRITEINT32(save_p, matchtype);

  004d4	a1 00 00 00 00	 mov	 eax, DWORD PTR _save_p
  004d9	89 45 8c	 mov	 DWORD PTR _p_tmp$5[ebp], eax
  004dc	8b 45 8c	 mov	 eax, DWORD PTR _p_tmp$5[ebp]
  004df	8b 0d 00 00 00
	00		 mov	 ecx, DWORD PTR _matchtype
  004e5	89 08		 mov	 DWORD PTR [eax], ecx
  004e7	8b 45 8c	 mov	 eax, DWORD PTR _p_tmp$5[ebp]
  004ea	83 c0 04	 add	 eax, 4
  004ed	89 45 8c	 mov	 DWORD PTR _p_tmp$5[ebp], eax
  004f0	8b 45 8c	 mov	 eax, DWORD PTR _p_tmp$5[ebp]
  004f3	a3 00 00 00 00	 mov	 DWORD PTR _save_p, eax
  004f8	33 c0		 xor	 eax, eax
  004fa	75 d8		 jne	 SHORT $LN90@P_NetArchi
$LN93@P_NetArchi:

; 2783 : 	WRITEINT32(save_p, tagtype);

  004fc	a1 00 00 00 00	 mov	 eax, DWORD PTR _save_p
  00501	89 45 88	 mov	 DWORD PTR _p_tmp$4[ebp], eax
  00504	8b 45 88	 mov	 eax, DWORD PTR _p_tmp$4[ebp]
  00507	8b 0d 00 00 00
	00		 mov	 ecx, DWORD PTR _tagtype
  0050d	89 08		 mov	 DWORD PTR [eax], ecx
  0050f	8b 45 88	 mov	 eax, DWORD PTR _p_tmp$4[ebp]
  00512	83 c0 04	 add	 eax, 4
  00515	89 45 88	 mov	 DWORD PTR _p_tmp$4[ebp], eax
  00518	8b 45 88	 mov	 eax, DWORD PTR _p_tmp$4[ebp]
  0051b	a3 00 00 00 00	 mov	 DWORD PTR _save_p, eax
  00520	33 c0		 xor	 eax, eax
  00522	75 d8		 jne	 SHORT $LN93@P_NetArchi
$LN96@P_NetArchi:

; 2784 : 
; 2785 : 	WRITEUINT32(save_p, hidetime);

  00524	a1 00 00 00 00	 mov	 eax, DWORD PTR _save_p
  00529	89 45 84	 mov	 DWORD PTR _p_tmp$3[ebp], eax
  0052c	8b 45 84	 mov	 eax, DWORD PTR _p_tmp$3[ebp]
  0052f	8b 0d 00 00 00
	00		 mov	 ecx, DWORD PTR _hidetime
  00535	89 08		 mov	 DWORD PTR [eax], ecx
  00537	8b 45 84	 mov	 eax, DWORD PTR _p_tmp$3[ebp]
  0053a	83 c0 04	 add	 eax, 4
  0053d	89 45 84	 mov	 DWORD PTR _p_tmp$3[ebp], eax
  00540	8b 45 84	 mov	 eax, DWORD PTR _p_tmp$3[ebp]
  00543	a3 00 00 00 00	 mov	 DWORD PTR _save_p, eax
  00548	33 c0		 xor	 eax, eax
  0054a	75 d8		 jne	 SHORT $LN96@P_NetArchi

; 2786 : 
; 2787 : 	// Is it paused?
; 2788 : 	if (paused)

  0054c	0f b6 05 00 00
	00 00		 movzx	 eax, BYTE PTR _paused
  00553	85 c0		 test	 eax, eax
  00555	74 25		 je	 SHORT $LN107@P_NetArchi
$LN103@P_NetArchi:

; 2789 : 		WRITEUINT8(save_p, 0x2f);

  00557	a1 00 00 00 00	 mov	 eax, DWORD PTR _save_p
  0055c	89 45 80	 mov	 DWORD PTR _p_tmp$2[ebp], eax
  0055f	8b 45 80	 mov	 eax, DWORD PTR _p_tmp$2[ebp]
  00562	c6 00 2f	 mov	 BYTE PTR [eax], 47	; 0000002fH
  00565	8b 45 80	 mov	 eax, DWORD PTR _p_tmp$2[ebp]
  00568	83 c0 01	 add	 eax, 1
  0056b	89 45 80	 mov	 DWORD PTR _p_tmp$2[ebp], eax
  0056e	8b 45 80	 mov	 eax, DWORD PTR _p_tmp$2[ebp]
  00571	a3 00 00 00 00	 mov	 DWORD PTR _save_p, eax
  00576	33 c0		 xor	 eax, eax
  00578	75 dd		 jne	 SHORT $LN103@P_NetArchi
  0057a	eb 32		 jmp	 SHORT $LN105@P_NetArchi
$LN107@P_NetArchi:

; 2790 : 	else
; 2791 : 		WRITEUINT8(save_p, 0x2e);

  0057c	a1 00 00 00 00	 mov	 eax, DWORD PTR _save_p
  00581	89 85 7c ff ff
	ff		 mov	 DWORD PTR _p_tmp$1[ebp], eax
  00587	8b 85 7c ff ff
	ff		 mov	 eax, DWORD PTR _p_tmp$1[ebp]
  0058d	c6 00 2e	 mov	 BYTE PTR [eax], 46	; 0000002eH
  00590	8b 85 7c ff ff
	ff		 mov	 eax, DWORD PTR _p_tmp$1[ebp]
  00596	83 c0 01	 add	 eax, 1
  00599	89 85 7c ff ff
	ff		 mov	 DWORD PTR _p_tmp$1[ebp], eax
  0059f	8b 85 7c ff ff
	ff		 mov	 eax, DWORD PTR _p_tmp$1[ebp]
  005a5	a3 00 00 00 00	 mov	 DWORD PTR _save_p, eax
  005aa	33 c0		 xor	 eax, eax
  005ac	75 ce		 jne	 SHORT $LN107@P_NetArchi
$LN105@P_NetArchi:

; 2792 : }

  005ae	5f		 pop	 edi
  005af	5e		 pop	 esi
  005b0	5b		 pop	 ebx
  005b1	8b e5		 mov	 esp, ebp
  005b3	5d		 pop	 ebp
  005b4	c3		 ret	 0
_P_NetArchiveMisc ENDP
_TEXT	ENDS
; Function compile flags: /Odtp /ZI
; File C:\Users\RafaTheFox\Downloads\SRB2-Public-master\src\p_saveg.c
;	COMDAT _P_UnArchiveSPGame
_TEXT	SEGMENT
tv80 = -144						; size = 4
$T1 = -140						; size = 4
_tmp_i$2 = -72						; size = 4
_testname$ = -68					; size = 64
__$ArrayPad$ = -4					; size = 4
_mapoverride$ = 8					; size = 2
_P_UnArchiveSPGame PROC					; COMDAT

; 2689 : {

  00000	55		 push	 ebp
  00001	8b ec		 mov	 ebp, esp
  00003	81 ec 90 00 00
	00		 sub	 esp, 144		; 00000090H
  00009	a1 00 00 00 00	 mov	 eax, DWORD PTR ___security_cookie
  0000e	33 c5		 xor	 eax, ebp
  00010	89 45 fc	 mov	 DWORD PTR __$ArrayPad$[ebp], eax
  00013	53		 push	 ebx
  00014	56		 push	 esi
  00015	57		 push	 edi

; 2690 : 	char testname[sizeof(timeattackfolder)];
; 2691 : 
; 2692 : 	gamemap = READINT16(save_p);

  00016	a1 00 00 00 00	 mov	 eax, DWORD PTR _save_p
  0001b	66 8b 08	 mov	 cx, WORD PTR [eax]
  0001e	66 89 0d 00 00
	00 00		 mov	 WORD PTR _gamemap, cx
  00025	8b 15 00 00 00
	00		 mov	 edx, DWORD PTR _save_p
  0002b	83 c2 02	 add	 edx, 2
  0002e	89 15 00 00 00
	00		 mov	 DWORD PTR _save_p, edx

; 2693 : 
; 2694 : 	if (mapoverride != 0)

  00034	0f bf 45 08	 movsx	 eax, WORD PTR _mapoverride$[ebp]
  00038	85 c0		 test	 eax, eax
  0003a	74 16		 je	 SHORT $LN5@P_UnArchiv

; 2695 : 	{
; 2696 : 		gamemap = mapoverride;

  0003c	66 8b 45 08	 mov	 ax, WORD PTR _mapoverride$[ebp]
  00040	66 a3 00 00 00
	00		 mov	 WORD PTR _gamemap, ax

; 2697 : 		gamecomplete = true;

  00046	c7 05 00 00 00
	00 01 00 00 00	 mov	 DWORD PTR _gamecomplete, 1

; 2698 : 	}

  00050	eb 0a		 jmp	 SHORT $LN6@P_UnArchiv
$LN5@P_UnArchiv:

; 2699 : 	else
; 2700 : 		gamecomplete = false;

  00052	c7 05 00 00 00
	00 00 00 00 00	 mov	 DWORD PTR _gamecomplete, 0
$LN6@P_UnArchiv:

; 2701 : 
; 2702 : 	lastmapsaved = gamemap;

  0005c	66 a1 00 00 00
	00		 mov	 ax, WORD PTR _gamemap
  00062	66 a3 00 00 00
	00		 mov	 WORD PTR _lastmapsaved, ax

; 2703 : 
; 2704 : 	tokenlist = 0;

  00068	c7 05 00 00 00
	00 00 00 00 00	 mov	 DWORD PTR _tokenlist, 0

; 2705 : 	token = 0;

  00072	c7 05 00 00 00
	00 00 00 00 00	 mov	 DWORD PTR _token, 0

; 2706 : 
; 2707 : 	savedata.emeralds = (UINT16)(READUINT16(save_p)-357);

  0007c	a1 00 00 00 00	 mov	 eax, DWORD PTR _save_p
  00081	0f b7 08	 movzx	 ecx, WORD PTR [eax]
  00084	81 e9 65 01 00
	00		 sub	 ecx, 357		; 00000165H
  0008a	66 89 0d 10 00
	00 00		 mov	 WORD PTR _savedata+16, cx
  00091	8b 15 00 00 00
	00		 mov	 edx, DWORD PTR _save_p
  00097	83 c2 02	 add	 edx, 2
  0009a	89 15 00 00 00
	00		 mov	 DWORD PTR _save_p, edx

; 2708 : 
; 2709 : 	READSTRINGN(save_p, testname, sizeof(testname));

  000a0	c7 45 b8 00 00
	00 00		 mov	 DWORD PTR _tmp_i$2[ebp], 0
  000a7	eb 09		 jmp	 SHORT $LN4@P_UnArchiv
$LN2@P_UnArchiv:
  000a9	8b 45 b8	 mov	 eax, DWORD PTR _tmp_i$2[ebp]
  000ac	83 c0 01	 add	 eax, 1
  000af	89 45 b8	 mov	 DWORD PTR _tmp_i$2[ebp], eax
$LN4@P_UnArchiv:
  000b2	83 7d b8 40	 cmp	 DWORD PTR _tmp_i$2[ebp], 64 ; 00000040H
  000b6	73 37		 jae	 SHORT $LN3@P_UnArchiv
  000b8	8b 45 b8	 mov	 eax, DWORD PTR _tmp_i$2[ebp]
  000bb	8b 0d 00 00 00
	00		 mov	 ecx, DWORD PTR _save_p
  000c1	8a 11		 mov	 dl, BYTE PTR [ecx]
  000c3	88 54 05 bc	 mov	 BYTE PTR _testname$[ebp+eax], dl
  000c7	8b 45 b8	 mov	 eax, DWORD PTR _tmp_i$2[ebp]
  000ca	0f be 4c 05 bc	 movsx	 ecx, BYTE PTR _testname$[ebp+eax]
  000cf	89 8d 70 ff ff
	ff		 mov	 DWORD PTR tv80[ebp], ecx
  000d5	8b 15 00 00 00
	00		 mov	 edx, DWORD PTR _save_p
  000db	83 c2 01	 add	 edx, 1
  000de	89 15 00 00 00
	00		 mov	 DWORD PTR _save_p, edx
  000e4	83 bd 70 ff ff
	ff 00		 cmp	 DWORD PTR tv80[ebp], 0
  000eb	74 02		 je	 SHORT $LN3@P_UnArchiv
  000ed	eb ba		 jmp	 SHORT $LN2@P_UnArchiv
$LN3@P_UnArchiv:
  000ef	8b 45 b8	 mov	 eax, DWORD PTR _tmp_i$2[ebp]
  000f2	89 85 74 ff ff
	ff		 mov	 DWORD PTR $T1[ebp], eax
  000f8	83 bd 74 ff ff
	ff 40		 cmp	 DWORD PTR $T1[ebp], 64	; 00000040H
  000ff	73 02		 jae	 SHORT $LN11@P_UnArchiv
  00101	eb 06		 jmp	 SHORT $LN12@P_UnArchiv
$LN11@P_UnArchiv:
  00103	e8 00 00 00 00	 call	 ___report_rangecheckfailure
  00108	90		 npad	 1
$LN12@P_UnArchiv:
  00109	8b 8d 74 ff ff
	ff		 mov	 ecx, DWORD PTR $T1[ebp]
  0010f	c6 44 0d bc 00	 mov	 BYTE PTR _testname$[ebp+ecx], 0

; 2710 : 
; 2711 : 	if (strcmp(testname, timeattackfolder))

  00114	68 00 00 00 00	 push	 OFFSET _timeattackfolder
  00119	8d 45 bc	 lea	 eax, DWORD PTR _testname$[ebp]
  0011c	50		 push	 eax
  0011d	e8 00 00 00 00	 call	 _strcmp
  00122	83 c4 08	 add	 esp, 8
  00125	85 c0		 test	 eax, eax
  00127	74 25		 je	 SHORT $LN9@P_UnArchiv

; 2712 : 	{
; 2713 : 		if (modifiedgame)

  00129	83 3d 00 00 00
	00 00		 cmp	 DWORD PTR _modifiedgame, 0
  00130	74 0f		 je	 SHORT $LN8@P_UnArchiv

; 2714 : 			I_Error("Save game not for this modification.");

  00132	68 00 00 00 00	 push	 OFFSET ??_C@_0CF@JHAPBDAC@Save?5game?5not?5for?5this?5modifica@
  00137	e8 00 00 00 00	 call	 _I_Error
  0013c	83 c4 04	 add	 esp, 4
  0013f	eb 0d		 jmp	 SHORT $LN9@P_UnArchiv
$LN8@P_UnArchiv:

; 2715 : 		else
; 2716 : 			I_Error("This save file is for a particular mod, it cannot be used with the regular game.");

  00141	68 00 00 00 00	 push	 OFFSET ??_C@_0FB@MGJCGEIE@This?5save?5file?5is?5for?5a?5particu@
  00146	e8 00 00 00 00	 call	 _I_Error
  0014b	83 c4 04	 add	 esp, 4
$LN9@P_UnArchiv:

; 2717 : 	}
; 2718 : 
; 2719 : 	memset(playeringame, 0, sizeof(*playeringame));

  0014e	6a 04		 push	 4
  00150	6a 00		 push	 0
  00152	68 00 00 00 00	 push	 OFFSET _playeringame
  00157	e8 00 00 00 00	 call	 _memset
  0015c	83 c4 0c	 add	 esp, 12			; 0000000cH

; 2720 : 	playeringame[consoleplayer] = true;

  0015f	a1 00 00 00 00	 mov	 eax, DWORD PTR _consoleplayer
  00164	c7 04 85 00 00
	00 00 01 00 00
	00		 mov	 DWORD PTR _playeringame[eax*4], 1

; 2721 : 
; 2722 : 	P_UnArchivePlayer();

  0016f	e8 00 00 00 00	 call	 _P_UnArchivePlayer
  00174	90		 npad	 1

; 2723 : 
; 2724 : 	G_DeferedInitNew(false, G_BuildMapName(gamemap), savedata.skin, false, true);

  00175	6a 01		 push	 1
  00177	6a 00		 push	 0
  00179	0f b6 05 01 00
	00 00		 movzx	 eax, BYTE PTR _savedata+1
  00180	50		 push	 eax
  00181	0f bf 0d 00 00
	00 00		 movsx	 ecx, WORD PTR _gamemap
  00188	51		 push	 ecx
  00189	e8 00 00 00 00	 call	 _G_BuildMapName
  0018e	83 c4 04	 add	 esp, 4
  00191	50		 push	 eax
  00192	6a 00		 push	 0
  00194	e8 00 00 00 00	 call	 _G_DeferedInitNew
  00199	83 c4 14	 add	 esp, 20			; 00000014H

; 2725 : 	COM_BufAddText("dummyconsvar 1\n"); // G_DeferedInitNew doesn't do this

  0019c	68 00 00 00 00	 push	 OFFSET ??_C@_0BA@OPCGMOGJ@dummyconsvar?51?6@
  001a1	e8 00 00 00 00	 call	 _COM_BufAddText
  001a6	83 c4 04	 add	 esp, 4

; 2726 : 
; 2727 : 	return true;

  001a9	b8 01 00 00 00	 mov	 eax, 1
$LN1@P_UnArchiv:

; 2728 : }

  001ae	5f		 pop	 edi
  001af	5e		 pop	 esi
  001b0	5b		 pop	 ebx
  001b1	8b 4d fc	 mov	 ecx, DWORD PTR __$ArrayPad$[ebp]
  001b4	33 cd		 xor	 ecx, ebp
  001b6	e8 00 00 00 00	 call	 @__security_check_cookie@4
  001bb	8b e5		 mov	 esp, ebp
  001bd	5d		 pop	 ebp
  001be	c3		 ret	 0
_P_UnArchiveSPGame ENDP
_TEXT	ENDS
; Function compile flags: /Odtp /ZI
; File C:\Users\RafaTheFox\Downloads\SRB2-Public-master\src\p_saveg.c
;	COMDAT _P_ArchiveMisc
_TEXT	SEGMENT
_p_tmp$1 = -24						; size = 4
_p_tmp$2 = -20						; size = 4
_tmp_i$3 = -16						; size = 4
_p_tmp$4 = -12						; size = 4
_p_tmp$5 = -8						; size = 4
_p_tmp$6 = -4						; size = 4
_P_ArchiveMisc PROC					; COMDAT

; 2676 : {

  00000	55		 push	 ebp
  00001	8b ec		 mov	 ebp, esp
  00003	83 ec 58	 sub	 esp, 88			; 00000058H
  00006	53		 push	 ebx
  00007	56		 push	 esi
  00008	57		 push	 edi

; 2677 : 	if (gamecomplete)

  00009	83 3d 00 00 00
	00 00		 cmp	 DWORD PTR _gamecomplete, 0
  00010	74 2c		 je	 SHORT $LN20@P_ArchiveM
$LN4@P_ArchiveM:

; 2678 : 		WRITEINT16(save_p, spstage_end);

  00012	a1 00 00 00 00	 mov	 eax, DWORD PTR _save_p
  00017	89 45 fc	 mov	 DWORD PTR _p_tmp$6[ebp], eax
  0001a	8b 45 fc	 mov	 eax, DWORD PTR _p_tmp$6[ebp]
  0001d	66 8b 0d 00 00
	00 00		 mov	 cx, WORD PTR _spstage_end
  00024	66 89 08	 mov	 WORD PTR [eax], cx
  00027	8b 45 fc	 mov	 eax, DWORD PTR _p_tmp$6[ebp]
  0002a	83 c0 02	 add	 eax, 2
  0002d	89 45 fc	 mov	 DWORD PTR _p_tmp$6[ebp], eax
  00030	8b 45 fc	 mov	 eax, DWORD PTR _p_tmp$6[ebp]
  00033	a3 00 00 00 00	 mov	 DWORD PTR _save_p, eax
  00038	33 c0		 xor	 eax, eax
  0003a	75 d6		 jne	 SHORT $LN4@P_ArchiveM
  0003c	eb 2a		 jmp	 SHORT $LN6@P_ArchiveM
$LN20@P_ArchiveM:

; 2679 : 	else
; 2680 : 		WRITEINT16(save_p, gamemap);

  0003e	a1 00 00 00 00	 mov	 eax, DWORD PTR _save_p
  00043	89 45 f8	 mov	 DWORD PTR _p_tmp$5[ebp], eax
  00046	8b 45 f8	 mov	 eax, DWORD PTR _p_tmp$5[ebp]
  00049	66 8b 0d 00 00
	00 00		 mov	 cx, WORD PTR _gamemap
  00050	66 89 08	 mov	 WORD PTR [eax], cx
  00053	8b 45 f8	 mov	 eax, DWORD PTR _p_tmp$5[ebp]
  00056	83 c0 02	 add	 eax, 2
  00059	89 45 f8	 mov	 DWORD PTR _p_tmp$5[ebp], eax
  0005c	8b 45 f8	 mov	 eax, DWORD PTR _p_tmp$5[ebp]
  0005f	a3 00 00 00 00	 mov	 DWORD PTR _save_p, eax
  00064	33 c0		 xor	 eax, eax
  00066	75 d6		 jne	 SHORT $LN20@P_ArchiveM
$LN6@P_ArchiveM:

; 2681 : 
; 2682 : 	lastmapsaved = gamemap;

  00068	66 a1 00 00 00
	00		 mov	 ax, WORD PTR _gamemap
  0006e	66 a3 00 00 00
	00		 mov	 WORD PTR _lastmapsaved, ax
$LN10@P_ArchiveM:

; 2683 : 
; 2684 : 	WRITEUINT16(save_p, emeralds+357);

  00074	a1 00 00 00 00	 mov	 eax, DWORD PTR _save_p
  00079	89 45 f4	 mov	 DWORD PTR _p_tmp$4[ebp], eax
  0007c	0f b7 05 00 00
	00 00		 movzx	 eax, WORD PTR _emeralds
  00083	05 65 01 00 00	 add	 eax, 357		; 00000165H
  00088	8b 4d f4	 mov	 ecx, DWORD PTR _p_tmp$4[ebp]
  0008b	66 89 01	 mov	 WORD PTR [ecx], ax
  0008e	8b 45 f4	 mov	 eax, DWORD PTR _p_tmp$4[ebp]
  00091	83 c0 02	 add	 eax, 2
  00094	89 45 f4	 mov	 DWORD PTR _p_tmp$4[ebp], eax
  00097	8b 45 f4	 mov	 eax, DWORD PTR _p_tmp$4[ebp]
  0009a	a3 00 00 00 00	 mov	 DWORD PTR _save_p, eax
  0009f	33 c0		 xor	 eax, eax
  000a1	75 d1		 jne	 SHORT $LN10@P_ArchiveM

; 2685 : 	WRITESTRINGN(save_p, timeattackfolder, sizeof(timeattackfolder));

  000a3	c7 45 f0 00 00
	00 00		 mov	 DWORD PTR _tmp_i$3[ebp], 0
  000aa	eb 09		 jmp	 SHORT $LN13@P_ArchiveM
$LN11@P_ArchiveM:
  000ac	8b 45 f0	 mov	 eax, DWORD PTR _tmp_i$3[ebp]
  000af	83 c0 01	 add	 eax, 1
  000b2	89 45 f0	 mov	 DWORD PTR _tmp_i$3[ebp], eax
$LN13@P_ArchiveM:
  000b5	83 7d f0 40	 cmp	 DWORD PTR _tmp_i$3[ebp], 64 ; 00000040H
  000b9	73 3b		 jae	 SHORT $LN12@P_ArchiveM
  000bb	8b 45 f0	 mov	 eax, DWORD PTR _tmp_i$3[ebp]
  000be	0f be 88 00 00
	00 00		 movsx	 ecx, BYTE PTR _timeattackfolder[eax]
  000c5	85 c9		 test	 ecx, ecx
  000c7	74 2d		 je	 SHORT $LN12@P_ArchiveM
$LN16@P_ArchiveM:
  000c9	a1 00 00 00 00	 mov	 eax, DWORD PTR _save_p
  000ce	89 45 ec	 mov	 DWORD PTR _p_tmp$2[ebp], eax
  000d1	8b 45 ec	 mov	 eax, DWORD PTR _p_tmp$2[ebp]
  000d4	8b 4d f0	 mov	 ecx, DWORD PTR _tmp_i$3[ebp]
  000d7	8a 91 00 00 00
	00		 mov	 dl, BYTE PTR _timeattackfolder[ecx]
  000dd	88 10		 mov	 BYTE PTR [eax], dl
  000df	8b 45 ec	 mov	 eax, DWORD PTR _p_tmp$2[ebp]
  000e2	83 c0 01	 add	 eax, 1
  000e5	89 45 ec	 mov	 DWORD PTR _p_tmp$2[ebp], eax
  000e8	8b 45 ec	 mov	 eax, DWORD PTR _p_tmp$2[ebp]
  000eb	a3 00 00 00 00	 mov	 DWORD PTR _save_p, eax
  000f0	33 c0		 xor	 eax, eax
  000f2	75 d5		 jne	 SHORT $LN16@P_ArchiveM
  000f4	eb b6		 jmp	 SHORT $LN11@P_ArchiveM
$LN12@P_ArchiveM:
  000f6	a1 00 00 00 00	 mov	 eax, DWORD PTR _save_p
  000fb	89 45 e8	 mov	 DWORD PTR _p_tmp$1[ebp], eax
  000fe	8b 45 e8	 mov	 eax, DWORD PTR _p_tmp$1[ebp]
  00101	c6 00 00	 mov	 BYTE PTR [eax], 0
  00104	8b 45 e8	 mov	 eax, DWORD PTR _p_tmp$1[ebp]
  00107	83 c0 01	 add	 eax, 1
  0010a	89 45 e8	 mov	 DWORD PTR _p_tmp$1[ebp], eax
  0010d	8b 45 e8	 mov	 eax, DWORD PTR _p_tmp$1[ebp]
  00110	a3 00 00 00 00	 mov	 DWORD PTR _save_p, eax
  00115	33 c0		 xor	 eax, eax
  00117	75 dd		 jne	 SHORT $LN12@P_ArchiveM

; 2686 : }

  00119	5f		 pop	 edi
  0011a	5e		 pop	 esi
  0011b	5b		 pop	 ebx
  0011c	8b e5		 mov	 esp, ebp
  0011e	5d		 pop	 ebp
  0011f	c3		 ret	 0
_P_ArchiveMisc ENDP
_TEXT	ENDS
; Function compile flags: /Odtp /ZI
; File C:\Users\RafaTheFox\Downloads\SRB2-Public-master\src\p_saveg.c
;	COMDAT _P_NetUnArchiveSpecials
_TEXT	SEGMENT
tv66 = -76						; size = 4
_j$ = -8						; size = 4
_i$ = -4						; size = 4
_P_NetUnArchiveSpecials PROC				; COMDAT

; 2637 : {

  00000	55		 push	 ebp
  00001	8b ec		 mov	 ebp, esp
  00003	83 ec 4c	 sub	 esp, 76			; 0000004cH
  00006	53		 push	 ebx
  00007	56		 push	 esi
  00008	57		 push	 edi

; 2638 : 	size_t i;
; 2639 : 	INT32 j;
; 2640 : 
; 2641 : 	// BP: added save itemrespawn queue for deathmatch
; 2642 : 	iquetail = iquehead = 0;

  00009	c7 05 00 00 00
	00 00 00 00 00	 mov	 DWORD PTR _iquehead, 0
  00013	a1 00 00 00 00	 mov	 eax, DWORD PTR _iquehead
  00018	a3 00 00 00 00	 mov	 DWORD PTR _iquetail, eax
$LN2@P_NetUnArc:

; 2643 : 	while ((i = READUINT32(save_p)) != 0xffffffff)

  0001d	a1 00 00 00 00	 mov	 eax, DWORD PTR _save_p
  00022	8b 08		 mov	 ecx, DWORD PTR [eax]
  00024	89 4d fc	 mov	 DWORD PTR _i$[ebp], ecx
  00027	8b 55 fc	 mov	 edx, DWORD PTR _i$[ebp]
  0002a	89 55 b4	 mov	 DWORD PTR tv66[ebp], edx
  0002d	a1 00 00 00 00	 mov	 eax, DWORD PTR _save_p
  00032	83 c0 04	 add	 eax, 4
  00035	a3 00 00 00 00	 mov	 DWORD PTR _save_p, eax
  0003a	83 7d b4 ff	 cmp	 DWORD PTR tv66[ebp], -1
  0003e	74 49		 je	 SHORT $LN3@P_NetUnArc

; 2644 : 	{
; 2645 : 		itemrespawnque[iquehead] = &mapthings[i];

  00040	6b 45 fc 14	 imul	 eax, DWORD PTR _i$[ebp], 20
  00044	03 05 00 00 00
	00		 add	 eax, DWORD PTR _mapthings
  0004a	8b 0d 00 00 00
	00		 mov	 ecx, DWORD PTR _iquehead
  00050	89 04 8d 00 00
	00 00		 mov	 DWORD PTR _itemrespawnque[ecx*4], eax

; 2646 : 		itemrespawntime[iquehead++] = READINT32(save_p);

  00057	a1 00 00 00 00	 mov	 eax, DWORD PTR _iquehead
  0005c	8b 0d 00 00 00
	00		 mov	 ecx, DWORD PTR _save_p
  00062	8b 11		 mov	 edx, DWORD PTR [ecx]
  00064	89 14 85 00 00
	00 00		 mov	 DWORD PTR _itemrespawntime[eax*4], edx
  0006b	a1 00 00 00 00	 mov	 eax, DWORD PTR _iquehead
  00070	83 c0 01	 add	 eax, 1
  00073	a3 00 00 00 00	 mov	 DWORD PTR _iquehead, eax
  00078	8b 0d 00 00 00
	00		 mov	 ecx, DWORD PTR _save_p
  0007e	83 c1 04	 add	 ecx, 4
  00081	89 0d 00 00 00
	00		 mov	 DWORD PTR _save_p, ecx

; 2647 : 	}

  00087	eb 94		 jmp	 SHORT $LN2@P_NetUnArc
$LN3@P_NetUnArc:

; 2648 : 
; 2649 : 	j = READINT32(save_p);

  00089	a1 00 00 00 00	 mov	 eax, DWORD PTR _save_p
  0008e	8b 08		 mov	 ecx, DWORD PTR [eax]
  00090	89 4d f8	 mov	 DWORD PTR _j$[ebp], ecx
  00093	8b 15 00 00 00
	00		 mov	 edx, DWORD PTR _save_p
  00099	83 c2 04	 add	 edx, 4
  0009c	89 15 00 00 00
	00		 mov	 DWORD PTR _save_p, edx

; 2650 : 	if (j != globallevelskynum)

  000a2	8b 45 f8	 mov	 eax, DWORD PTR _j$[ebp]
  000a5	3b 05 00 00 00
	00		 cmp	 eax, DWORD PTR _globallevelskynum
  000ab	74 22		 je	 SHORT $LN4@P_NetUnArc

; 2651 : 	{
; 2652 : 		globallevelskynum = levelskynum = j;

  000ad	8b 45 f8	 mov	 eax, DWORD PTR _j$[ebp]
  000b0	a3 00 00 00 00	 mov	 DWORD PTR _levelskynum, eax
  000b5	8b 0d 00 00 00
	00		 mov	 ecx, DWORD PTR _levelskynum
  000bb	89 0d 00 00 00
	00		 mov	 DWORD PTR _globallevelskynum, ecx

; 2653 : 		P_SetupLevelSky(levelskynum);

  000c1	a1 00 00 00 00	 mov	 eax, DWORD PTR _levelskynum
  000c6	50		 push	 eax
  000c7	e8 00 00 00 00	 call	 _P_SetupLevelSky
  000cc	83 c4 04	 add	 esp, 4
$LN4@P_NetUnArc:

; 2654 : 	}
; 2655 : 
; 2656 : 	globalweather = READUINT8(save_p);

  000cf	a1 00 00 00 00	 mov	 eax, DWORD PTR _save_p
  000d4	8a 08		 mov	 cl, BYTE PTR [eax]
  000d6	88 0d 00 00 00
	00		 mov	 BYTE PTR _globalweather, cl
  000dc	8b 15 00 00 00
	00		 mov	 edx, DWORD PTR _save_p
  000e2	83 c2 01	 add	 edx, 1
  000e5	89 15 00 00 00
	00		 mov	 DWORD PTR _save_p, edx

; 2657 : 
; 2658 : 	if (globalweather)

  000eb	0f b6 05 00 00
	00 00		 movzx	 eax, BYTE PTR _globalweather
  000f2	85 c0		 test	 eax, eax
  000f4	74 2b		 je	 SHORT $LN5@P_NetUnArc

; 2659 : 	{
; 2660 : 		if (curWeather == globalweather)

  000f6	0f b6 05 00 00
	00 00		 movzx	 eax, BYTE PTR _globalweather
  000fd	39 05 00 00 00
	00		 cmp	 DWORD PTR _curWeather, eax
  00103	75 0a		 jne	 SHORT $LN7@P_NetUnArc

; 2661 : 			curWeather = PRECIP_NONE;

  00105	c7 05 00 00 00
	00 00 00 00 00	 mov	 DWORD PTR _curWeather, 0
$LN7@P_NetUnArc:

; 2662 : 
; 2663 : 		P_SwitchWeather(globalweather);

  0010f	0f b6 05 00 00
	00 00		 movzx	 eax, BYTE PTR _globalweather
  00116	50		 push	 eax
  00117	e8 00 00 00 00	 call	 _P_SwitchWeather
  0011c	83 c4 04	 add	 esp, 4

; 2664 : 	}

  0011f	eb 19		 jmp	 SHORT $LN8@P_NetUnArc
$LN5@P_NetUnArc:

; 2665 : 	else // PRECIP_NONE
; 2666 : 	{
; 2667 : 		if (curWeather != PRECIP_NONE)

  00121	83 3d 00 00 00
	00 00		 cmp	 DWORD PTR _curWeather, 0
  00128	74 10		 je	 SHORT $LN8@P_NetUnArc

; 2668 : 			P_SwitchWeather(globalweather);

  0012a	0f b6 05 00 00
	00 00		 movzx	 eax, BYTE PTR _globalweather
  00131	50		 push	 eax
  00132	e8 00 00 00 00	 call	 _P_SwitchWeather
  00137	83 c4 04	 add	 esp, 4
$LN8@P_NetUnArc:

; 2669 : 	}
; 2670 : }

  0013a	5f		 pop	 edi
  0013b	5e		 pop	 esi
  0013c	5b		 pop	 ebx
  0013d	8b e5		 mov	 esp, ebp
  0013f	5d		 pop	 ebp
  00140	c3		 ret	 0
_P_NetUnArchiveSpecials ENDP
_TEXT	ENDS
; Function compile flags: /Odtp /ZI
; File C:\Users\RafaTheFox\Downloads\SRB2-Public-master\src\p_saveg.c
;	COMDAT _P_NetArchiveSpecials
_TEXT	SEGMENT
_p_tmp$1 = -28						; size = 4
_p_tmp$2 = -24						; size = 4
_p_tmp$3 = -20						; size = 4
_p_tmp$4 = -16						; size = 4
_p_tmp$5 = -12						; size = 4
_z$ = -8						; size = 4
_i$ = -4						; size = 4
_P_NetArchiveSpecials PROC				; COMDAT

; 2604 : {

  00000	55		 push	 ebp
  00001	8b ec		 mov	 ebp, esp
  00003	83 ec 5c	 sub	 esp, 92			; 0000005cH
  00006	53		 push	 ebx
  00007	56		 push	 esi
  00008	57		 push	 edi

; 2605 : 	size_t i, z;
; 2606 : 
; 2607 : 	// itemrespawn queue for deathmatch
; 2608 : 	i = iquetail;

  00009	a1 00 00 00 00	 mov	 eax, DWORD PTR _iquetail
  0000e	89 45 fc	 mov	 DWORD PTR _i$[ebp], eax
$LN2@P_NetArchi:

; 2609 : 	while (iquehead != i)

  00011	a1 00 00 00 00	 mov	 eax, DWORD PTR _iquehead
  00016	3b 45 fc	 cmp	 eax, DWORD PTR _i$[ebp]
  00019	0f 84 9b 00 00
	00		 je	 $LN3@P_NetArchi

; 2610 : 	{
; 2611 : 		for (z = 0; z < nummapthings; z++)

  0001f	c7 45 f8 00 00
	00 00		 mov	 DWORD PTR _z$[ebp], 0
  00026	eb 09		 jmp	 SHORT $LN6@P_NetArchi
$LN4@P_NetArchi:
  00028	8b 45 f8	 mov	 eax, DWORD PTR _z$[ebp]
  0002b	83 c0 01	 add	 eax, 1
  0002e	89 45 f8	 mov	 DWORD PTR _z$[ebp], eax
$LN6@P_NetArchi:
  00031	8b 45 f8	 mov	 eax, DWORD PTR _z$[ebp]
  00034	3b 05 00 00 00
	00		 cmp	 eax, DWORD PTR _nummapthings
  0003a	73 3f		 jae	 SHORT $LN5@P_NetArchi

; 2612 : 		{
; 2613 : 			if (&mapthings[z] == itemrespawnque[i])

  0003c	6b 45 f8 14	 imul	 eax, DWORD PTR _z$[ebp], 20
  00040	03 05 00 00 00
	00		 add	 eax, DWORD PTR _mapthings
  00046	8b 4d fc	 mov	 ecx, DWORD PTR _i$[ebp]
  00049	3b 04 8d 00 00
	00 00		 cmp	 eax, DWORD PTR _itemrespawnque[ecx*4]
  00050	75 27		 jne	 SHORT $LN22@P_NetArchi
$LN9@P_NetArchi:

; 2614 : 			{
; 2615 : 				WRITEUINT32(save_p, z);

  00052	a1 00 00 00 00	 mov	 eax, DWORD PTR _save_p
  00057	89 45 f4	 mov	 DWORD PTR _p_tmp$5[ebp], eax
  0005a	8b 45 f4	 mov	 eax, DWORD PTR _p_tmp$5[ebp]
  0005d	8b 4d f8	 mov	 ecx, DWORD PTR _z$[ebp]
  00060	89 08		 mov	 DWORD PTR [eax], ecx
  00062	8b 45 f4	 mov	 eax, DWORD PTR _p_tmp$5[ebp]
  00065	83 c0 04	 add	 eax, 4
  00068	89 45 f4	 mov	 DWORD PTR _p_tmp$5[ebp], eax
  0006b	8b 45 f4	 mov	 eax, DWORD PTR _p_tmp$5[ebp]
  0006e	a3 00 00 00 00	 mov	 DWORD PTR _save_p, eax
  00073	33 c0		 xor	 eax, eax
  00075	75 db		 jne	 SHORT $LN9@P_NetArchi

; 2616 : 				break;

  00077	eb 02		 jmp	 SHORT $LN5@P_NetArchi
$LN22@P_NetArchi:

; 2617 : 			}
; 2618 : 		}

  00079	eb ad		 jmp	 SHORT $LN4@P_NetArchi
$LN5@P_NetArchi:

; 2619 : 		WRITEUINT32(save_p, itemrespawntime[i]);

  0007b	a1 00 00 00 00	 mov	 eax, DWORD PTR _save_p
  00080	89 45 f0	 mov	 DWORD PTR _p_tmp$4[ebp], eax
  00083	8b 45 f0	 mov	 eax, DWORD PTR _p_tmp$4[ebp]
  00086	8b 4d fc	 mov	 ecx, DWORD PTR _i$[ebp]
  00089	8b 14 8d 00 00
	00 00		 mov	 edx, DWORD PTR _itemrespawntime[ecx*4]
  00090	89 10		 mov	 DWORD PTR [eax], edx
  00092	8b 45 f0	 mov	 eax, DWORD PTR _p_tmp$4[ebp]
  00095	83 c0 04	 add	 eax, 4
  00098	89 45 f0	 mov	 DWORD PTR _p_tmp$4[ebp], eax
  0009b	8b 45 f0	 mov	 eax, DWORD PTR _p_tmp$4[ebp]
  0009e	a3 00 00 00 00	 mov	 DWORD PTR _save_p, eax
  000a3	33 c0		 xor	 eax, eax
  000a5	75 d4		 jne	 SHORT $LN5@P_NetArchi

; 2620 : 		i = (i + 1) & (ITEMQUESIZE-1);

  000a7	8b 45 fc	 mov	 eax, DWORD PTR _i$[ebp]
  000aa	83 c0 01	 add	 eax, 1
  000ad	25 ff 03 00 00	 and	 eax, 1023		; 000003ffH
  000b2	89 45 fc	 mov	 DWORD PTR _i$[ebp], eax

; 2621 : 	}

  000b5	e9 57 ff ff ff	 jmp	 $LN2@P_NetArchi
$LN3@P_NetArchi:

; 2622 : 
; 2623 : 	// end delimiter
; 2624 : 	WRITEUINT32(save_p, 0xffffffff);

  000ba	a1 00 00 00 00	 mov	 eax, DWORD PTR _save_p
  000bf	89 45 ec	 mov	 DWORD PTR _p_tmp$3[ebp], eax
  000c2	8b 45 ec	 mov	 eax, DWORD PTR _p_tmp$3[ebp]
  000c5	c7 00 ff ff ff
	ff		 mov	 DWORD PTR [eax], -1
  000cb	8b 45 ec	 mov	 eax, DWORD PTR _p_tmp$3[ebp]
  000ce	83 c0 04	 add	 eax, 4
  000d1	89 45 ec	 mov	 DWORD PTR _p_tmp$3[ebp], eax
  000d4	8b 45 ec	 mov	 eax, DWORD PTR _p_tmp$3[ebp]
  000d7	a3 00 00 00 00	 mov	 DWORD PTR _save_p, eax
  000dc	33 c0		 xor	 eax, eax
  000de	75 da		 jne	 SHORT $LN3@P_NetArchi
$LN14@P_NetArchi:

; 2625 : 
; 2626 : 	// Sky number
; 2627 : 	WRITEINT32(save_p, globallevelskynum);

  000e0	a1 00 00 00 00	 mov	 eax, DWORD PTR _save_p
  000e5	89 45 e8	 mov	 DWORD PTR _p_tmp$2[ebp], eax
  000e8	8b 45 e8	 mov	 eax, DWORD PTR _p_tmp$2[ebp]
  000eb	8b 0d 00 00 00
	00		 mov	 ecx, DWORD PTR _globallevelskynum
  000f1	89 08		 mov	 DWORD PTR [eax], ecx
  000f3	8b 45 e8	 mov	 eax, DWORD PTR _p_tmp$2[ebp]
  000f6	83 c0 04	 add	 eax, 4
  000f9	89 45 e8	 mov	 DWORD PTR _p_tmp$2[ebp], eax
  000fc	8b 45 e8	 mov	 eax, DWORD PTR _p_tmp$2[ebp]
  000ff	a3 00 00 00 00	 mov	 DWORD PTR _save_p, eax
  00104	33 c0		 xor	 eax, eax
  00106	75 d8		 jne	 SHORT $LN14@P_NetArchi
$LN17@P_NetArchi:

; 2628 : 
; 2629 : 	// Current global weather type
; 2630 : 	WRITEUINT8(save_p, globalweather);

  00108	a1 00 00 00 00	 mov	 eax, DWORD PTR _save_p
  0010d	89 45 e4	 mov	 DWORD PTR _p_tmp$1[ebp], eax
  00110	8b 45 e4	 mov	 eax, DWORD PTR _p_tmp$1[ebp]
  00113	8a 0d 00 00 00
	00		 mov	 cl, BYTE PTR _globalweather
  00119	88 08		 mov	 BYTE PTR [eax], cl
  0011b	8b 45 e4	 mov	 eax, DWORD PTR _p_tmp$1[ebp]
  0011e	83 c0 01	 add	 eax, 1
  00121	89 45 e4	 mov	 DWORD PTR _p_tmp$1[ebp], eax
  00124	8b 45 e4	 mov	 eax, DWORD PTR _p_tmp$1[ebp]
  00127	a3 00 00 00 00	 mov	 DWORD PTR _save_p, eax
  0012c	33 c0		 xor	 eax, eax
  0012e	75 d8		 jne	 SHORT $LN17@P_NetArchi

; 2631 : }

  00130	5f		 pop	 edi
  00131	5e		 pop	 esi
  00132	5b		 pop	 ebx
  00133	8b e5		 mov	 esp, ebp
  00135	5d		 pop	 ebp
  00136	c3		 ret	 0
_P_NetArchiveSpecials ENDP
_TEXT	ENDS
; Function compile flags: /Odtp /ZI
; File C:\Users\RafaTheFox\Downloads\SRB2-Public-master\src\p_saveg.c
;	COMDAT _P_RelinkPointers
_TEXT	SEGMENT
_temp$ = -12						; size = 4
_mobj$ = -8						; size = 4
_currentthinker$ = -4					; size = 4
_P_RelinkPointers PROC					; COMDAT

; 2538 : {

  00000	55		 push	 ebp
  00001	8b ec		 mov	 ebp, esp
  00003	83 ec 4c	 sub	 esp, 76			; 0000004cH
  00006	53		 push	 ebx
  00007	56		 push	 esi
  00008	57		 push	 edi

; 2539 : 	thinker_t *currentthinker;
; 2540 : 	mobj_t *mobj;
; 2541 : 	UINT32 temp;
; 2542 : 
; 2543 : 	// use info field (value = oldposition) to relink mobjs
; 2544 : 	for (currentthinker = thinkercap.next; currentthinker != &thinkercap;

  00009	a1 04 00 00 00	 mov	 eax, DWORD PTR _thinkercap+4
  0000e	89 45 fc	 mov	 DWORD PTR _currentthinker$[ebp], eax
  00011	eb 09		 jmp	 SHORT $LN4@P_RelinkPo
$LN2@P_RelinkPo:

; 2545 : 		currentthinker = currentthinker->next)

  00013	8b 45 fc	 mov	 eax, DWORD PTR _currentthinker$[ebp]
  00016	8b 48 04	 mov	 ecx, DWORD PTR [eax+4]
  00019	89 4d fc	 mov	 DWORD PTR _currentthinker$[ebp], ecx
$LN4@P_RelinkPo:

; 2539 : 	thinker_t *currentthinker;
; 2540 : 	mobj_t *mobj;
; 2541 : 	UINT32 temp;
; 2542 : 
; 2543 : 	// use info field (value = oldposition) to relink mobjs
; 2544 : 	for (currentthinker = thinkercap.next; currentthinker != &thinkercap;

  0001c	81 7d fc 00 00
	00 00		 cmp	 DWORD PTR _currentthinker$[ebp], OFFSET _thinkercap
  00023	0f 84 f9 02 00
	00		 je	 $LN3@P_RelinkPo

; 2546 : 	{
; 2547 : 		if (currentthinker->function.acp1 == (actionf_p1)P_MobjThinker)

  00029	8b 45 fc	 mov	 eax, DWORD PTR _currentthinker$[ebp]
  0002c	81 78 08 00 00
	00 00		 cmp	 DWORD PTR [eax+8], OFFSET _P_MobjThinker
  00033	0f 85 e4 02 00
	00		 jne	 $LN19@P_RelinkPo

; 2548 : 		{
; 2549 : 			mobj = (mobj_t *)currentthinker;

  00039	8b 45 fc	 mov	 eax, DWORD PTR _currentthinker$[ebp]
  0003c	89 45 f8	 mov	 DWORD PTR _mobj$[ebp], eax

; 2550 : 
; 2551 : 			if (mobj->type == MT_HOOP || mobj->type == MT_HOOPCOLLIDE || mobj->type == MT_HOOPCENTER)

  0003f	8b 45 f8	 mov	 eax, DWORD PTR _mobj$[ebp]
  00042	81 78 7c f8 00
	00 00		 cmp	 DWORD PTR [eax+124], 248 ; 000000f8H
  00049	74 18		 je	 SHORT $LN7@P_RelinkPo
  0004b	8b 45 f8	 mov	 eax, DWORD PTR _mobj$[ebp]
  0004e	81 78 7c f9 00
	00 00		 cmp	 DWORD PTR [eax+124], 249 ; 000000f9H
  00055	74 0c		 je	 SHORT $LN7@P_RelinkPo
  00057	8b 45 f8	 mov	 eax, DWORD PTR _mobj$[ebp]
  0005a	81 78 7c fa 00
	00 00		 cmp	 DWORD PTR [eax+124], 250 ; 000000faH
  00061	75 02		 jne	 SHORT $LN6@P_RelinkPo
$LN7@P_RelinkPo:

; 2552 : 				continue;

  00063	eb ae		 jmp	 SHORT $LN2@P_RelinkPo
$LN6@P_RelinkPo:

; 2553 : 
; 2554 : 			if (mobj->tracer)

  00065	8b 45 f8	 mov	 eax, DWORD PTR _mobj$[ebp]
  00068	83 b8 b0 00 00
	00 00		 cmp	 DWORD PTR [eax+176], 0
  0006f	74 50		 je	 SHORT $LN9@P_RelinkPo

; 2555 : 			{
; 2556 : 				temp = (UINT32)(size_t)mobj->tracer;

  00071	8b 45 f8	 mov	 eax, DWORD PTR _mobj$[ebp]
  00074	8b 88 b0 00 00
	00		 mov	 ecx, DWORD PTR [eax+176]
  0007a	89 4d f4	 mov	 DWORD PTR _temp$[ebp], ecx

; 2557 : 				mobj->tracer = NULL;

  0007d	8b 45 f8	 mov	 eax, DWORD PTR _mobj$[ebp]
  00080	c7 80 b0 00 00
	00 00 00 00 00	 mov	 DWORD PTR [eax+176], 0

; 2558 : 				if (!P_SetTarget(&mobj->tracer, FindNewPosition(temp)))

  0008a	8b 45 f4	 mov	 eax, DWORD PTR _temp$[ebp]
  0008d	50		 push	 eax
  0008e	e8 00 00 00 00	 call	 _FindNewPosition
  00093	83 c4 04	 add	 esp, 4
  00096	50		 push	 eax
  00097	8b 4d f8	 mov	 ecx, DWORD PTR _mobj$[ebp]
  0009a	81 c1 b0 00 00
	00		 add	 ecx, 176		; 000000b0H
  000a0	51		 push	 ecx
  000a1	e8 00 00 00 00	 call	 _P_SetTarget
  000a6	83 c4 08	 add	 esp, 8
  000a9	85 c0		 test	 eax, eax
  000ab	75 14		 jne	 SHORT $LN9@P_RelinkPo

; 2559 : 					CONS_Printf("tracer not found on %d\n", mobj->type);

  000ad	8b 45 f8	 mov	 eax, DWORD PTR _mobj$[ebp]
  000b0	8b 48 7c	 mov	 ecx, DWORD PTR [eax+124]
  000b3	51		 push	 ecx
  000b4	68 00 00 00 00	 push	 OFFSET ??_C@_0BI@EFKODFJI@tracer?5not?5found?5on?5?$CFd?6@
  000b9	e8 00 00 00 00	 call	 _CONS_Printf
  000be	83 c4 08	 add	 esp, 8
$LN9@P_RelinkPo:

; 2560 : 			}
; 2561 : 			if (mobj->target)

  000c1	8b 45 f8	 mov	 eax, DWORD PTR _mobj$[ebp]
  000c4	83 b8 98 00 00
	00 00		 cmp	 DWORD PTR [eax+152], 0
  000cb	74 50		 je	 SHORT $LN11@P_RelinkPo

; 2562 : 			{
; 2563 : 				temp = (UINT32)(size_t)mobj->target;

  000cd	8b 45 f8	 mov	 eax, DWORD PTR _mobj$[ebp]
  000d0	8b 88 98 00 00
	00		 mov	 ecx, DWORD PTR [eax+152]
  000d6	89 4d f4	 mov	 DWORD PTR _temp$[ebp], ecx

; 2564 : 				mobj->target = NULL;

  000d9	8b 45 f8	 mov	 eax, DWORD PTR _mobj$[ebp]
  000dc	c7 80 98 00 00
	00 00 00 00 00	 mov	 DWORD PTR [eax+152], 0

; 2565 : 				if (!P_SetTarget(&mobj->target, FindNewPosition(temp)))

  000e6	8b 45 f4	 mov	 eax, DWORD PTR _temp$[ebp]
  000e9	50		 push	 eax
  000ea	e8 00 00 00 00	 call	 _FindNewPosition
  000ef	83 c4 04	 add	 esp, 4
  000f2	50		 push	 eax
  000f3	8b 4d f8	 mov	 ecx, DWORD PTR _mobj$[ebp]
  000f6	81 c1 98 00 00
	00		 add	 ecx, 152		; 00000098H
  000fc	51		 push	 ecx
  000fd	e8 00 00 00 00	 call	 _P_SetTarget
  00102	83 c4 08	 add	 esp, 8
  00105	85 c0		 test	 eax, eax
  00107	75 14		 jne	 SHORT $LN11@P_RelinkPo

; 2566 : 					CONS_Printf("target not found on %d\n", mobj->type);

  00109	8b 45 f8	 mov	 eax, DWORD PTR _mobj$[ebp]
  0010c	8b 48 7c	 mov	 ecx, DWORD PTR [eax+124]
  0010f	51		 push	 ecx
  00110	68 00 00 00 00	 push	 OFFSET ??_C@_0BI@CNJDGCEA@target?5not?5found?5on?5?$CFd?6@
  00115	e8 00 00 00 00	 call	 _CONS_Printf
  0011a	83 c4 08	 add	 esp, 8
$LN11@P_RelinkPo:

; 2567 : 			}
; 2568 : 			if (mobj->player && mobj->player->capsule)

  0011d	8b 45 f8	 mov	 eax, DWORD PTR _mobj$[ebp]
  00120	83 b8 a4 00 00
	00 00		 cmp	 DWORD PTR [eax+164], 0
  00127	74 74		 je	 SHORT $LN13@P_RelinkPo
  00129	8b 45 f8	 mov	 eax, DWORD PTR _mobj$[ebp]
  0012c	8b 88 a4 00 00
	00		 mov	 ecx, DWORD PTR [eax+164]
  00132	83 b9 d0 01 00
	00 00		 cmp	 DWORD PTR [ecx+464], 0
  00139	74 62		 je	 SHORT $LN13@P_RelinkPo

; 2569 : 			{
; 2570 : 				temp = (UINT32)(size_t)mobj->player->capsule;

  0013b	8b 45 f8	 mov	 eax, DWORD PTR _mobj$[ebp]
  0013e	8b 88 a4 00 00
	00		 mov	 ecx, DWORD PTR [eax+164]
  00144	8b 91 d0 01 00
	00		 mov	 edx, DWORD PTR [ecx+464]
  0014a	89 55 f4	 mov	 DWORD PTR _temp$[ebp], edx

; 2571 : 				mobj->player->capsule = NULL;

  0014d	8b 45 f8	 mov	 eax, DWORD PTR _mobj$[ebp]
  00150	8b 88 a4 00 00
	00		 mov	 ecx, DWORD PTR [eax+164]
  00156	c7 81 d0 01 00
	00 00 00 00 00	 mov	 DWORD PTR [ecx+464], 0

; 2572 : 				if (!P_SetTarget(&mobj->player->capsule, FindNewPosition(temp)))

  00160	8b 45 f4	 mov	 eax, DWORD PTR _temp$[ebp]
  00163	50		 push	 eax
  00164	e8 00 00 00 00	 call	 _FindNewPosition
  00169	83 c4 04	 add	 esp, 4
  0016c	50		 push	 eax
  0016d	8b 4d f8	 mov	 ecx, DWORD PTR _mobj$[ebp]
  00170	8b 91 a4 00 00
	00		 mov	 edx, DWORD PTR [ecx+164]
  00176	81 c2 d0 01 00
	00		 add	 edx, 464		; 000001d0H
  0017c	52		 push	 edx
  0017d	e8 00 00 00 00	 call	 _P_SetTarget
  00182	83 c4 08	 add	 esp, 8
  00185	85 c0		 test	 eax, eax
  00187	75 14		 jne	 SHORT $LN13@P_RelinkPo

; 2573 : 					CONS_Printf("capsule not found on %d\n", mobj->type);

  00189	8b 45 f8	 mov	 eax, DWORD PTR _mobj$[ebp]
  0018c	8b 48 7c	 mov	 ecx, DWORD PTR [eax+124]
  0018f	51		 push	 ecx
  00190	68 00 00 00 00	 push	 OFFSET ??_C@_0BJ@NACOAMLD@capsule?5not?5found?5on?5?$CFd?6@
  00195	e8 00 00 00 00	 call	 _CONS_Printf
  0019a	83 c4 08	 add	 esp, 8
$LN13@P_RelinkPo:

; 2574 : 			}
; 2575 : 			if (mobj->player && mobj->player->axis1)

  0019d	8b 45 f8	 mov	 eax, DWORD PTR _mobj$[ebp]
  001a0	83 b8 a4 00 00
	00 00		 cmp	 DWORD PTR [eax+164], 0
  001a7	74 74		 je	 SHORT $LN15@P_RelinkPo
  001a9	8b 45 f8	 mov	 eax, DWORD PTR _mobj$[ebp]
  001ac	8b 88 a4 00 00
	00		 mov	 ecx, DWORD PTR [eax+164]
  001b2	83 b9 a4 01 00
	00 00		 cmp	 DWORD PTR [ecx+420], 0
  001b9	74 62		 je	 SHORT $LN15@P_RelinkPo

; 2576 : 			{
; 2577 : 				temp = (UINT32)(size_t)mobj->player->axis1;

  001bb	8b 45 f8	 mov	 eax, DWORD PTR _mobj$[ebp]
  001be	8b 88 a4 00 00
	00		 mov	 ecx, DWORD PTR [eax+164]
  001c4	8b 91 a4 01 00
	00		 mov	 edx, DWORD PTR [ecx+420]
  001ca	89 55 f4	 mov	 DWORD PTR _temp$[ebp], edx

; 2578 : 				mobj->player->axis1 = NULL;

  001cd	8b 45 f8	 mov	 eax, DWORD PTR _mobj$[ebp]
  001d0	8b 88 a4 00 00
	00		 mov	 ecx, DWORD PTR [eax+164]
  001d6	c7 81 a4 01 00
	00 00 00 00 00	 mov	 DWORD PTR [ecx+420], 0

; 2579 : 				if (!P_SetTarget(&mobj->player->axis1, FindNewPosition(temp)))

  001e0	8b 45 f4	 mov	 eax, DWORD PTR _temp$[ebp]
  001e3	50		 push	 eax
  001e4	e8 00 00 00 00	 call	 _FindNewPosition
  001e9	83 c4 04	 add	 esp, 4
  001ec	50		 push	 eax
  001ed	8b 4d f8	 mov	 ecx, DWORD PTR _mobj$[ebp]
  001f0	8b 91 a4 00 00
	00		 mov	 edx, DWORD PTR [ecx+164]
  001f6	81 c2 a4 01 00
	00		 add	 edx, 420		; 000001a4H
  001fc	52		 push	 edx
  001fd	e8 00 00 00 00	 call	 _P_SetTarget
  00202	83 c4 08	 add	 esp, 8
  00205	85 c0		 test	 eax, eax
  00207	75 14		 jne	 SHORT $LN15@P_RelinkPo

; 2580 : 					CONS_Printf("axis1 not found on %d\n", mobj->type);

  00209	8b 45 f8	 mov	 eax, DWORD PTR _mobj$[ebp]
  0020c	8b 48 7c	 mov	 ecx, DWORD PTR [eax+124]
  0020f	51		 push	 ecx
  00210	68 00 00 00 00	 push	 OFFSET ??_C@_0BH@GBCONNNL@axis1?5not?5found?5on?5?$CFd?6@
  00215	e8 00 00 00 00	 call	 _CONS_Printf
  0021a	83 c4 08	 add	 esp, 8
$LN15@P_RelinkPo:

; 2581 : 			}
; 2582 : 			if (mobj->player && mobj->player->axis2)

  0021d	8b 45 f8	 mov	 eax, DWORD PTR _mobj$[ebp]
  00220	83 b8 a4 00 00
	00 00		 cmp	 DWORD PTR [eax+164], 0
  00227	74 74		 je	 SHORT $LN17@P_RelinkPo
  00229	8b 45 f8	 mov	 eax, DWORD PTR _mobj$[ebp]
  0022c	8b 88 a4 00 00
	00		 mov	 ecx, DWORD PTR [eax+164]
  00232	83 b9 a8 01 00
	00 00		 cmp	 DWORD PTR [ecx+424], 0
  00239	74 62		 je	 SHORT $LN17@P_RelinkPo

; 2583 : 			{
; 2584 : 				temp = (UINT32)(size_t)mobj->player->axis2;

  0023b	8b 45 f8	 mov	 eax, DWORD PTR _mobj$[ebp]
  0023e	8b 88 a4 00 00
	00		 mov	 ecx, DWORD PTR [eax+164]
  00244	8b 91 a8 01 00
	00		 mov	 edx, DWORD PTR [ecx+424]
  0024a	89 55 f4	 mov	 DWORD PTR _temp$[ebp], edx

; 2585 : 				mobj->player->axis2 = NULL;

  0024d	8b 45 f8	 mov	 eax, DWORD PTR _mobj$[ebp]
  00250	8b 88 a4 00 00
	00		 mov	 ecx, DWORD PTR [eax+164]
  00256	c7 81 a8 01 00
	00 00 00 00 00	 mov	 DWORD PTR [ecx+424], 0

; 2586 : 				if (!P_SetTarget(&mobj->player->axis2, FindNewPosition(temp)))

  00260	8b 45 f4	 mov	 eax, DWORD PTR _temp$[ebp]
  00263	50		 push	 eax
  00264	e8 00 00 00 00	 call	 _FindNewPosition
  00269	83 c4 04	 add	 esp, 4
  0026c	50		 push	 eax
  0026d	8b 4d f8	 mov	 ecx, DWORD PTR _mobj$[ebp]
  00270	8b 91 a4 00 00
	00		 mov	 edx, DWORD PTR [ecx+164]
  00276	81 c2 a8 01 00
	00		 add	 edx, 424		; 000001a8H
  0027c	52		 push	 edx
  0027d	e8 00 00 00 00	 call	 _P_SetTarget
  00282	83 c4 08	 add	 esp, 8
  00285	85 c0		 test	 eax, eax
  00287	75 14		 jne	 SHORT $LN17@P_RelinkPo

; 2587 : 					CONS_Printf("axis2 not found on %d\n", mobj->type);

  00289	8b 45 f8	 mov	 eax, DWORD PTR _mobj$[ebp]
  0028c	8b 48 7c	 mov	 ecx, DWORD PTR [eax+124]
  0028f	51		 push	 ecx
  00290	68 00 00 00 00	 push	 OFFSET ??_C@_0BH@MCHIFLHC@axis2?5not?5found?5on?5?$CFd?6@
  00295	e8 00 00 00 00	 call	 _CONS_Printf
  0029a	83 c4 08	 add	 esp, 8
$LN17@P_RelinkPo:

; 2588 : 			}
; 2589 : 			if (mobj->player && mobj->player->awayviewmobj)

  0029d	8b 45 f8	 mov	 eax, DWORD PTR _mobj$[ebp]
  002a0	83 b8 a4 00 00
	00 00		 cmp	 DWORD PTR [eax+164], 0
  002a7	74 74		 je	 SHORT $LN19@P_RelinkPo
  002a9	8b 45 f8	 mov	 eax, DWORD PTR _mobj$[ebp]
  002ac	8b 88 a4 00 00
	00		 mov	 ecx, DWORD PTR [eax+164]
  002b2	83 b9 e8 01 00
	00 00		 cmp	 DWORD PTR [ecx+488], 0
  002b9	74 62		 je	 SHORT $LN19@P_RelinkPo

; 2590 : 			{
; 2591 : 				temp = (UINT32)(size_t)mobj->player->awayviewmobj;

  002bb	8b 45 f8	 mov	 eax, DWORD PTR _mobj$[ebp]
  002be	8b 88 a4 00 00
	00		 mov	 ecx, DWORD PTR [eax+164]
  002c4	8b 91 e8 01 00
	00		 mov	 edx, DWORD PTR [ecx+488]
  002ca	89 55 f4	 mov	 DWORD PTR _temp$[ebp], edx

; 2592 : 				mobj->player->awayviewmobj = NULL;

  002cd	8b 45 f8	 mov	 eax, DWORD PTR _mobj$[ebp]
  002d0	8b 88 a4 00 00
	00		 mov	 ecx, DWORD PTR [eax+164]
  002d6	c7 81 e8 01 00
	00 00 00 00 00	 mov	 DWORD PTR [ecx+488], 0

; 2593 : 				if (!P_SetTarget(&mobj->player->awayviewmobj, FindNewPosition(temp)))

  002e0	8b 45 f4	 mov	 eax, DWORD PTR _temp$[ebp]
  002e3	50		 push	 eax
  002e4	e8 00 00 00 00	 call	 _FindNewPosition
  002e9	83 c4 04	 add	 esp, 4
  002ec	50		 push	 eax
  002ed	8b 4d f8	 mov	 ecx, DWORD PTR _mobj$[ebp]
  002f0	8b 91 a4 00 00
	00		 mov	 edx, DWORD PTR [ecx+164]
  002f6	81 c2 e8 01 00
	00		 add	 edx, 488		; 000001e8H
  002fc	52		 push	 edx
  002fd	e8 00 00 00 00	 call	 _P_SetTarget
  00302	83 c4 08	 add	 esp, 8
  00305	85 c0		 test	 eax, eax
  00307	75 14		 jne	 SHORT $LN19@P_RelinkPo

; 2594 : 					CONS_Printf("awayviewmobj not found on %d\n", mobj->type);

  00309	8b 45 f8	 mov	 eax, DWORD PTR _mobj$[ebp]
  0030c	8b 48 7c	 mov	 ecx, DWORD PTR [eax+124]
  0030f	51		 push	 ecx
  00310	68 00 00 00 00	 push	 OFFSET ??_C@_0BO@FBIHGGPL@awayviewmobj?5not?5found?5on?5?$CFd?6@
  00315	e8 00 00 00 00	 call	 _CONS_Printf
  0031a	83 c4 08	 add	 esp, 8
$LN19@P_RelinkPo:

; 2595 : 			}
; 2596 : 		}
; 2597 : 	}

  0031d	e9 f1 fc ff ff	 jmp	 $LN2@P_RelinkPo
$LN3@P_RelinkPo:

; 2598 : }

  00322	5f		 pop	 edi
  00323	5e		 pop	 esi
  00324	5b		 pop	 ebx
  00325	8b e5		 mov	 esp, ebp
  00327	5d		 pop	 ebp
  00328	c3		 ret	 0
_P_RelinkPointers ENDP
_TEXT	ENDS
; Function compile flags: /Odtp /ZI
; File C:\Users\RafaTheFox\Downloads\SRB2-Public-master\src\p_saveg.c
;	COMDAT _P_FinishMobjs
_TEXT	SEGMENT
_mobj$ = -8						; size = 4
_currentthinker$ = -4					; size = 4
_P_FinishMobjs PROC					; COMDAT

; 2521 : {

  00000	55		 push	 ebp
  00001	8b ec		 mov	 ebp, esp
  00003	83 ec 48	 sub	 esp, 72			; 00000048H
  00006	53		 push	 ebx
  00007	56		 push	 esi
  00008	57		 push	 edi

; 2522 : 	thinker_t *currentthinker;
; 2523 : 	mobj_t *mobj;
; 2524 : 
; 2525 : 	// put info field there real value
; 2526 : 	for (currentthinker = thinkercap.next; currentthinker != &thinkercap;

  00009	a1 04 00 00 00	 mov	 eax, DWORD PTR _thinkercap+4
  0000e	89 45 fc	 mov	 DWORD PTR _currentthinker$[ebp], eax
  00011	eb 09		 jmp	 SHORT $LN4@P_FinishMo
$LN2@P_FinishMo:

; 2527 : 		currentthinker = currentthinker->next)

  00013	8b 45 fc	 mov	 eax, DWORD PTR _currentthinker$[ebp]
  00016	8b 48 04	 mov	 ecx, DWORD PTR [eax+4]
  00019	89 4d fc	 mov	 DWORD PTR _currentthinker$[ebp], ecx
$LN4@P_FinishMo:

; 2522 : 	thinker_t *currentthinker;
; 2523 : 	mobj_t *mobj;
; 2524 : 
; 2525 : 	// put info field there real value
; 2526 : 	for (currentthinker = thinkercap.next; currentthinker != &thinkercap;

  0001c	81 7d fc 00 00
	00 00		 cmp	 DWORD PTR _currentthinker$[ebp], OFFSET _thinkercap
  00023	74 2a		 je	 SHORT $LN3@P_FinishMo

; 2528 : 	{
; 2529 : 		if (currentthinker->function.acp1 == (actionf_p1)P_MobjThinker)

  00025	8b 45 fc	 mov	 eax, DWORD PTR _currentthinker$[ebp]
  00028	81 78 08 00 00
	00 00		 cmp	 DWORD PTR [eax+8], OFFSET _P_MobjThinker
  0002f	75 1c		 jne	 SHORT $LN5@P_FinishMo

; 2530 : 		{
; 2531 : 			mobj = (mobj_t *)currentthinker;

  00031	8b 45 fc	 mov	 eax, DWORD PTR _currentthinker$[ebp]
  00034	89 45 f8	 mov	 DWORD PTR _mobj$[ebp], eax

; 2532 : 			mobj->info = &mobjinfo[mobj->type];

  00037	8b 45 f8	 mov	 eax, DWORD PTR _mobj$[ebp]
  0003a	6b 48 7c 60	 imul	 ecx, DWORD PTR [eax+124], 96
  0003e	81 c1 00 00 00
	00		 add	 ecx, OFFSET _mobjinfo
  00044	8b 55 f8	 mov	 edx, DWORD PTR _mobj$[ebp]
  00047	89 8a 80 00 00
	00		 mov	 DWORD PTR [edx+128], ecx
$LN5@P_FinishMo:

; 2533 : 		}
; 2534 : 	}

  0004d	eb c4		 jmp	 SHORT $LN2@P_FinishMo
$LN3@P_FinishMo:

; 2535 : }

  0004f	5f		 pop	 edi
  00050	5e		 pop	 esi
  00051	5b		 pop	 ebx
  00052	8b e5		 mov	 esp, ebp
  00054	5d		 pop	 ebp
  00055	c3		 ret	 0
_P_FinishMobjs ENDP
_TEXT	ENDS
; Function compile flags: /Odtp /ZI
; File C:\Users\RafaTheFox\Downloads\SRB2-Public-master\src\p_saveg.c
;	COMDAT _P_UnArchivePolyObjects
_TEXT	SEGMENT
_numSavedPolys$ = -8					; size = 4
_i$ = -4						; size = 4
_P_UnArchivePolyObjects PROC				; COMDAT

; 2505 : {

  00000	55		 push	 ebp
  00001	8b ec		 mov	 ebp, esp
  00003	83 ec 48	 sub	 esp, 72			; 00000048H
  00006	53		 push	 ebx
  00007	56		 push	 esi
  00008	57		 push	 edi

; 2506 : 	INT32 i, numSavedPolys;
; 2507 : 
; 2508 : 	numSavedPolys = READINT32(save_p);

  00009	a1 00 00 00 00	 mov	 eax, DWORD PTR _save_p
  0000e	8b 08		 mov	 ecx, DWORD PTR [eax]
  00010	89 4d f8	 mov	 DWORD PTR _numSavedPolys$[ebp], ecx
  00013	8b 15 00 00 00
	00		 mov	 edx, DWORD PTR _save_p
  00019	83 c2 04	 add	 edx, 4
  0001c	89 15 00 00 00
	00		 mov	 DWORD PTR _save_p, edx

; 2509 : 
; 2510 : 	if (numSavedPolys != numPolyObjects)

  00022	8b 45 f8	 mov	 eax, DWORD PTR _numSavedPolys$[ebp]
  00025	3b 05 00 00 00
	00		 cmp	 eax, DWORD PTR _numPolyObjects
  0002b	74 0d		 je	 SHORT $LN5@P_UnArchiv

; 2511 : 		I_Error("P_UnArchivePolyObjects: polyobj count inconsistency\n");

  0002d	68 00 00 00 00	 push	 OFFSET ??_C@_0DF@BDLHMDIB@P_UnArchivePolyObjects?3?5polyobj@
  00032	e8 00 00 00 00	 call	 _I_Error
  00037	83 c4 04	 add	 esp, 4
$LN5@P_UnArchiv:

; 2512 : 
; 2513 : 	for (i = 0; i < numSavedPolys; ++i)

  0003a	c7 45 fc 00 00
	00 00		 mov	 DWORD PTR _i$[ebp], 0
  00041	eb 09		 jmp	 SHORT $LN4@P_UnArchiv
$LN2@P_UnArchiv:
  00043	8b 45 fc	 mov	 eax, DWORD PTR _i$[ebp]
  00046	83 c0 01	 add	 eax, 1
  00049	89 45 fc	 mov	 DWORD PTR _i$[ebp], eax
$LN4@P_UnArchiv:
  0004c	8b 45 fc	 mov	 eax, DWORD PTR _i$[ebp]
  0004f	3b 45 f8	 cmp	 eax, DWORD PTR _numSavedPolys$[ebp]
  00052	7d 18		 jge	 SHORT $LN3@P_UnArchiv

; 2514 : 		P_UnArchivePolyObj(&PolyObjects[i]);

  00054	69 45 fc a8 00
	00 00		 imul	 eax, DWORD PTR _i$[ebp], 168
  0005b	03 05 00 00 00
	00		 add	 eax, DWORD PTR _PolyObjects
  00061	50		 push	 eax
  00062	e8 00 00 00 00	 call	 _P_UnArchivePolyObj
  00067	83 c4 04	 add	 esp, 4
  0006a	eb d7		 jmp	 SHORT $LN2@P_UnArchiv
$LN3@P_UnArchiv:

; 2515 : }

  0006c	5f		 pop	 edi
  0006d	5e		 pop	 esi
  0006e	5b		 pop	 ebx
  0006f	8b e5		 mov	 esp, ebp
  00071	5d		 pop	 ebp
  00072	c3		 ret	 0
_P_UnArchivePolyObjects ENDP
_TEXT	ENDS
; Function compile flags: /Odtp /ZI
; File C:\Users\RafaTheFox\Downloads\SRB2-Public-master\src\p_saveg.c
;	COMDAT _P_ArchivePolyObjects
_TEXT	SEGMENT
_p_tmp$1 = -8						; size = 4
_i$ = -4						; size = 4
_P_ArchivePolyObjects PROC				; COMDAT

; 2494 : {

  00000	55		 push	 ebp
  00001	8b ec		 mov	 ebp, esp
  00003	83 ec 48	 sub	 esp, 72			; 00000048H
  00006	53		 push	 ebx
  00007	56		 push	 esi
  00008	57		 push	 edi
$LN4@P_ArchiveP:

; 2495 : 	INT32 i;
; 2496 : 
; 2497 : 	// save number of polyobjects
; 2498 : 	WRITEINT32(save_p, numPolyObjects);

  00009	a1 00 00 00 00	 mov	 eax, DWORD PTR _save_p
  0000e	89 45 f8	 mov	 DWORD PTR _p_tmp$1[ebp], eax
  00011	8b 45 f8	 mov	 eax, DWORD PTR _p_tmp$1[ebp]
  00014	8b 0d 00 00 00
	00		 mov	 ecx, DWORD PTR _numPolyObjects
  0001a	89 08		 mov	 DWORD PTR [eax], ecx
  0001c	8b 45 f8	 mov	 eax, DWORD PTR _p_tmp$1[ebp]
  0001f	83 c0 04	 add	 eax, 4
  00022	89 45 f8	 mov	 DWORD PTR _p_tmp$1[ebp], eax
  00025	8b 45 f8	 mov	 eax, DWORD PTR _p_tmp$1[ebp]
  00028	a3 00 00 00 00	 mov	 DWORD PTR _save_p, eax
  0002d	33 c0		 xor	 eax, eax
  0002f	75 d8		 jne	 SHORT $LN4@P_ArchiveP

; 2499 : 
; 2500 : 	for (i = 0; i < numPolyObjects; ++i)

  00031	c7 45 fc 00 00
	00 00		 mov	 DWORD PTR _i$[ebp], 0
  00038	eb 09		 jmp	 SHORT $LN7@P_ArchiveP
$LN5@P_ArchiveP:
  0003a	8b 45 fc	 mov	 eax, DWORD PTR _i$[ebp]
  0003d	83 c0 01	 add	 eax, 1
  00040	89 45 fc	 mov	 DWORD PTR _i$[ebp], eax
$LN7@P_ArchiveP:
  00043	8b 45 fc	 mov	 eax, DWORD PTR _i$[ebp]
  00046	3b 05 00 00 00
	00		 cmp	 eax, DWORD PTR _numPolyObjects
  0004c	7d 18		 jge	 SHORT $LN6@P_ArchiveP

; 2501 : 		P_ArchivePolyObj(&PolyObjects[i]);

  0004e	69 45 fc a8 00
	00 00		 imul	 eax, DWORD PTR _i$[ebp], 168
  00055	03 05 00 00 00
	00		 add	 eax, DWORD PTR _PolyObjects
  0005b	50		 push	 eax
  0005c	e8 00 00 00 00	 call	 _P_ArchivePolyObj
  00061	83 c4 04	 add	 esp, 4
  00064	eb d4		 jmp	 SHORT $LN5@P_ArchiveP
$LN6@P_ArchiveP:

; 2502 : }

  00066	5f		 pop	 edi
  00067	5e		 pop	 esi
  00068	5b		 pop	 ebx
  00069	8b e5		 mov	 esp, ebp
  0006b	5d		 pop	 ebp
  0006c	c3		 ret	 0
_P_ArchivePolyObjects ENDP
_TEXT	ENDS
; Function compile flags: /Odtp /ZI
; File C:\Users\RafaTheFox\Downloads\SRB2-Public-master\src\p_saveg.c
;	COMDAT _P_UnArchivePolyObj
_TEXT	SEGMENT
_y$ = -16						; size = 4
_x$ = -12						; size = 4
_angle$ = -8						; size = 4
_id$ = -4						; size = 4
_po$ = 8						; size = 4
_P_UnArchivePolyObj PROC				; COMDAT

; 2467 : {

  00000	55		 push	 ebp
  00001	8b ec		 mov	 ebp, esp
  00003	83 ec 50	 sub	 esp, 80			; 00000050H
  00006	53		 push	 ebx
  00007	56		 push	 esi
  00008	57		 push	 edi

; 2468 : 	INT32 id;
; 2469 : 	UINT32 angle;
; 2470 : 	fixed_t x, y;
; 2471 : 
; 2472 : 	// nullify all polyobject thinker pointers;
; 2473 : 	// the thinkers themselves will fight over who gets the field
; 2474 : 	// when they first start to run.
; 2475 : 	po->thinker = NULL;

  00009	8b 45 08	 mov	 eax, DWORD PTR _po$[ebp]
  0000c	c7 80 9c 00 00
	00 00 00 00 00	 mov	 DWORD PTR [eax+156], 0

; 2476 : 
; 2477 : 	id = READINT32(save_p);

  00016	a1 00 00 00 00	 mov	 eax, DWORD PTR _save_p
  0001b	8b 08		 mov	 ecx, DWORD PTR [eax]
  0001d	89 4d fc	 mov	 DWORD PTR _id$[ebp], ecx
  00020	8b 15 00 00 00
	00		 mov	 edx, DWORD PTR _save_p
  00026	83 c2 04	 add	 edx, 4
  00029	89 15 00 00 00
	00		 mov	 DWORD PTR _save_p, edx

; 2478 : 
; 2479 : 	angle = READANGLE(save_p);

  0002f	a1 00 00 00 00	 mov	 eax, DWORD PTR _save_p
  00034	8b 08		 mov	 ecx, DWORD PTR [eax]
  00036	89 4d f8	 mov	 DWORD PTR _angle$[ebp], ecx
  00039	8b 15 00 00 00
	00		 mov	 edx, DWORD PTR _save_p
  0003f	83 c2 04	 add	 edx, 4
  00042	89 15 00 00 00
	00		 mov	 DWORD PTR _save_p, edx

; 2480 : 
; 2481 : 	x = READFIXED(save_p);

  00048	a1 00 00 00 00	 mov	 eax, DWORD PTR _save_p
  0004d	8b 08		 mov	 ecx, DWORD PTR [eax]
  0004f	89 4d f4	 mov	 DWORD PTR _x$[ebp], ecx
  00052	8b 15 00 00 00
	00		 mov	 edx, DWORD PTR _save_p
  00058	83 c2 04	 add	 edx, 4
  0005b	89 15 00 00 00
	00		 mov	 DWORD PTR _save_p, edx

; 2482 : 	y = READFIXED(save_p);

  00061	a1 00 00 00 00	 mov	 eax, DWORD PTR _save_p
  00066	8b 08		 mov	 ecx, DWORD PTR [eax]
  00068	89 4d f0	 mov	 DWORD PTR _y$[ebp], ecx
  0006b	8b 15 00 00 00
	00		 mov	 edx, DWORD PTR _save_p
  00071	83 c2 04	 add	 edx, 4
  00074	89 15 00 00 00
	00		 mov	 DWORD PTR _save_p, edx

; 2483 : 
; 2484 : 	// if the object is bad or isn't in the id hash, we can do nothing more
; 2485 : 	// with it, so return now
; 2486 : 	if (po->isBad || po != Polyobj_GetForNum(id))

  0007a	8b 45 08	 mov	 eax, DWORD PTR _po$[ebp]
  0007d	0f b6 88 a0 00
	00 00		 movzx	 ecx, BYTE PTR [eax+160]
  00084	85 c9		 test	 ecx, ecx
  00086	75 11		 jne	 SHORT $LN3@P_UnArchiv
  00088	8b 45 fc	 mov	 eax, DWORD PTR _id$[ebp]
  0008b	50		 push	 eax
  0008c	e8 00 00 00 00	 call	 _Polyobj_GetForNum
  00091	83 c4 04	 add	 esp, 4
  00094	39 45 08	 cmp	 DWORD PTR _po$[ebp], eax
  00097	74 02		 je	 SHORT $LN2@P_UnArchiv
$LN3@P_UnArchiv:

; 2487 : 		return;

  00099	eb 18		 jmp	 SHORT $LN1@P_UnArchiv
$LN2@P_UnArchiv:

; 2488 : 
; 2489 : 	// rotate and translate polyobject
; 2490 : 	Polyobj_MoveOnLoad(po, angle, x, y);

  0009b	8b 45 f0	 mov	 eax, DWORD PTR _y$[ebp]
  0009e	50		 push	 eax
  0009f	8b 4d f4	 mov	 ecx, DWORD PTR _x$[ebp]
  000a2	51		 push	 ecx
  000a3	8b 55 f8	 mov	 edx, DWORD PTR _angle$[ebp]
  000a6	52		 push	 edx
  000a7	8b 45 08	 mov	 eax, DWORD PTR _po$[ebp]
  000aa	50		 push	 eax
  000ab	e8 00 00 00 00	 call	 _Polyobj_MoveOnLoad
  000b0	83 c4 10	 add	 esp, 16			; 00000010H
$LN1@P_UnArchiv:

; 2491 : }

  000b3	5f		 pop	 edi
  000b4	5e		 pop	 esi
  000b5	5b		 pop	 ebx
  000b6	8b e5		 mov	 esp, ebp
  000b8	5d		 pop	 ebp
  000b9	c3		 ret	 0
_P_UnArchivePolyObj ENDP
_TEXT	ENDS
; Function compile flags: /Odtp /ZI
; File C:\Users\RafaTheFox\Downloads\SRB2-Public-master\src\p_saveg.c
;	COMDAT _P_ArchivePolyObj
_TEXT	SEGMENT
_p_tmp$1 = -16						; size = 4
_p_tmp$2 = -12						; size = 4
_p_tmp$3 = -8						; size = 4
_p_tmp$4 = -4						; size = 4
_po$ = 8						; size = 4
_P_ArchivePolyObj PROC					; COMDAT

; 2458 : {

  00000	55		 push	 ebp
  00001	8b ec		 mov	 ebp, esp
  00003	83 ec 50	 sub	 esp, 80			; 00000050H
  00006	53		 push	 ebx
  00007	56		 push	 esi
  00008	57		 push	 edi
$LN4@P_ArchiveP:

; 2459 : 	WRITEINT32(save_p, po->id);

  00009	a1 00 00 00 00	 mov	 eax, DWORD PTR _save_p
  0000e	89 45 fc	 mov	 DWORD PTR _p_tmp$4[ebp], eax
  00011	8b 45 fc	 mov	 eax, DWORD PTR _p_tmp$4[ebp]
  00014	8b 4d 08	 mov	 ecx, DWORD PTR _po$[ebp]
  00017	8b 51 08	 mov	 edx, DWORD PTR [ecx+8]
  0001a	89 10		 mov	 DWORD PTR [eax], edx
  0001c	8b 45 fc	 mov	 eax, DWORD PTR _p_tmp$4[ebp]
  0001f	83 c0 04	 add	 eax, 4
  00022	89 45 fc	 mov	 DWORD PTR _p_tmp$4[ebp], eax
  00025	8b 45 fc	 mov	 eax, DWORD PTR _p_tmp$4[ebp]
  00028	a3 00 00 00 00	 mov	 DWORD PTR _save_p, eax
  0002d	33 c0		 xor	 eax, eax
  0002f	75 d8		 jne	 SHORT $LN4@P_ArchiveP
$LN3@P_ArchiveP:

; 2460 : 	WRITEANGLE(save_p, po->angle);

  00031	a1 00 00 00 00	 mov	 eax, DWORD PTR _save_p
  00036	89 45 f8	 mov	 DWORD PTR _p_tmp$3[ebp], eax
  00039	8b 45 f8	 mov	 eax, DWORD PTR _p_tmp$3[ebp]
  0003c	8b 4d 08	 mov	 ecx, DWORD PTR _po$[ebp]
  0003f	8b 51 70	 mov	 edx, DWORD PTR [ecx+112]
  00042	89 10		 mov	 DWORD PTR [eax], edx
  00044	8b 45 f8	 mov	 eax, DWORD PTR _p_tmp$3[ebp]
  00047	83 c0 04	 add	 eax, 4
  0004a	89 45 f8	 mov	 DWORD PTR _p_tmp$3[ebp], eax
  0004d	8b 45 f8	 mov	 eax, DWORD PTR _p_tmp$3[ebp]
  00050	a3 00 00 00 00	 mov	 DWORD PTR _save_p, eax
  00055	33 c0		 xor	 eax, eax
  00057	75 d8		 jne	 SHORT $LN3@P_ArchiveP
$LN6@P_ArchiveP:

; 2461 : 
; 2462 : 	WRITEFIXED(save_p, po->spawnSpot.x);

  00059	a1 00 00 00 00	 mov	 eax, DWORD PTR _save_p
  0005e	89 45 f4	 mov	 DWORD PTR _p_tmp$2[ebp], eax
  00061	8b 45 f4	 mov	 eax, DWORD PTR _p_tmp$2[ebp]
  00064	8b 4d 08	 mov	 ecx, DWORD PTR _po$[ebp]
  00067	8b 51 54	 mov	 edx, DWORD PTR [ecx+84]
  0006a	89 10		 mov	 DWORD PTR [eax], edx
  0006c	8b 45 f4	 mov	 eax, DWORD PTR _p_tmp$2[ebp]
  0006f	83 c0 04	 add	 eax, 4
  00072	89 45 f4	 mov	 DWORD PTR _p_tmp$2[ebp], eax
  00075	8b 45 f4	 mov	 eax, DWORD PTR _p_tmp$2[ebp]
  00078	a3 00 00 00 00	 mov	 DWORD PTR _save_p, eax
  0007d	33 c0		 xor	 eax, eax
  0007f	75 d8		 jne	 SHORT $LN6@P_ArchiveP
$LN9@P_ArchiveP:

; 2463 : 	WRITEFIXED(save_p, po->spawnSpot.y);

  00081	a1 00 00 00 00	 mov	 eax, DWORD PTR _save_p
  00086	89 45 f0	 mov	 DWORD PTR _p_tmp$1[ebp], eax
  00089	8b 45 f0	 mov	 eax, DWORD PTR _p_tmp$1[ebp]
  0008c	8b 4d 08	 mov	 ecx, DWORD PTR _po$[ebp]
  0008f	8b 51 58	 mov	 edx, DWORD PTR [ecx+88]
  00092	89 10		 mov	 DWORD PTR [eax], edx
  00094	8b 45 f0	 mov	 eax, DWORD PTR _p_tmp$1[ebp]
  00097	83 c0 04	 add	 eax, 4
  0009a	89 45 f0	 mov	 DWORD PTR _p_tmp$1[ebp], eax
  0009d	8b 45 f0	 mov	 eax, DWORD PTR _p_tmp$1[ebp]
  000a0	a3 00 00 00 00	 mov	 DWORD PTR _save_p, eax
  000a5	33 c0		 xor	 eax, eax
  000a7	75 d8		 jne	 SHORT $LN9@P_ArchiveP

; 2464 : }

  000a9	5f		 pop	 edi
  000aa	5e		 pop	 esi
  000ab	5b		 pop	 ebx
  000ac	8b e5		 mov	 esp, ebp
  000ae	5d		 pop	 ebp
  000af	c3		 ret	 0
_P_ArchivePolyObj ENDP
_TEXT	ENDS
; Function compile flags: /Odtp /ZI
; File C:\Users\RafaTheFox\Downloads\SRB2-Public-master\src\p_saveg.c
;	COMDAT _P_NetUnArchiveThinkers
_TEXT	SEGMENT
tv74 = -116						; size = 4
_mobjnum$1 = -48					; size = 4
_delay$2 = -44						; size = 4
_spawnpointnum$3 = -40					; size = 2
_ceilingz$ = -36					; size = 4
_floorz$ = -32						; size = 4
_z$ = -28						; size = 4
_restoreNum$ = -22					; size = 1
_tclass$ = -21						; size = 1
_i$ = -20						; size = 4
_diff$ = -16						; size = 4
_mobj$ = -12						; size = 4
_next$ = -8						; size = 4
_currentthinker$ = -4					; size = 4
_P_NetUnArchiveThinkers PROC				; COMDAT

; 2062 : {

  00000	55		 push	 ebp
  00001	8b ec		 mov	 ebp, esp
  00003	83 ec 74	 sub	 esp, 116		; 00000074H
  00006	53		 push	 ebx
  00007	56		 push	 esi
  00008	57		 push	 edi

; 2063 : 	thinker_t *currentthinker;
; 2064 : 	thinker_t *next;
; 2065 : 	mobj_t *mobj;
; 2066 : 	UINT32 diff;
; 2067 : 	INT32 i;
; 2068 : 	UINT8 tclass;
; 2069 : 	UINT8 restoreNum = false;

  00009	c6 45 ea 00	 mov	 BYTE PTR _restoreNum$[ebp], 0

; 2070 : 	fixed_t z, floorz, ceilingz;
; 2071 : 
; 2072 : 	// remove all the current thinkers
; 2073 : 	currentthinker = thinkercap.next;

  0000d	a1 04 00 00 00	 mov	 eax, DWORD PTR _thinkercap+4
  00012	89 45 fc	 mov	 DWORD PTR _currentthinker$[ebp], eax

; 2074 : 	for (currentthinker = thinkercap.next; currentthinker != &thinkercap; currentthinker = next)

  00015	a1 04 00 00 00	 mov	 eax, DWORD PTR _thinkercap+4
  0001a	89 45 fc	 mov	 DWORD PTR _currentthinker$[ebp], eax
  0001d	eb 06		 jmp	 SHORT $LN4@P_NetUnArc
$LN2@P_NetUnArc:
  0001f	8b 45 f8	 mov	 eax, DWORD PTR _next$[ebp]
  00022	89 45 fc	 mov	 DWORD PTR _currentthinker$[ebp], eax
$LN4@P_NetUnArc:
  00025	81 7d fc 00 00
	00 00		 cmp	 DWORD PTR _currentthinker$[ebp], OFFSET _thinkercap
  0002c	74 37		 je	 SHORT $LN3@P_NetUnArc

; 2075 : 	{
; 2076 : 		next = currentthinker->next;

  0002e	8b 45 fc	 mov	 eax, DWORD PTR _currentthinker$[ebp]
  00031	8b 48 04	 mov	 ecx, DWORD PTR [eax+4]
  00034	89 4d f8	 mov	 DWORD PTR _next$[ebp], ecx

; 2077 : 
; 2078 : 		mobj = (mobj_t *)currentthinker;

  00037	8b 45 fc	 mov	 eax, DWORD PTR _currentthinker$[ebp]
  0003a	89 45 f4	 mov	 DWORD PTR _mobj$[ebp], eax

; 2079 : 		if (currentthinker->function.acp1 == (actionf_p1)P_MobjThinker)

  0003d	8b 45 fc	 mov	 eax, DWORD PTR _currentthinker$[ebp]
  00040	81 78 08 00 00
	00 00		 cmp	 DWORD PTR [eax+8], OFFSET _P_MobjThinker
  00047	75 0e		 jne	 SHORT $LN16@P_NetUnArc

; 2080 : 			P_RemoveSavegameMobj((mobj_t *)currentthinker); // item isn't saved, don't remove it

  00049	8b 45 fc	 mov	 eax, DWORD PTR _currentthinker$[ebp]
  0004c	50		 push	 eax
  0004d	e8 00 00 00 00	 call	 _P_RemoveSavegameMobj
  00052	83 c4 04	 add	 esp, 4
  00055	eb 0c		 jmp	 SHORT $LN17@P_NetUnArc
$LN16@P_NetUnArc:

; 2081 : 		else
; 2082 : 			Z_Free(currentthinker);

  00057	8b 45 fc	 mov	 eax, DWORD PTR _currentthinker$[ebp]
  0005a	50		 push	 eax
  0005b	e8 00 00 00 00	 call	 _Z_Free
  00060	83 c4 04	 add	 esp, 4
$LN17@P_NetUnArc:

; 2083 : 	}

  00063	eb ba		 jmp	 SHORT $LN2@P_NetUnArc
$LN3@P_NetUnArc:

; 2084 : 
; 2085 : 	// we don't want the removed mobjs to come back
; 2086 : 	iquetail = iquehead = 0;

  00065	c7 05 00 00 00
	00 00 00 00 00	 mov	 DWORD PTR _iquehead, 0
  0006f	a1 00 00 00 00	 mov	 eax, DWORD PTR _iquehead
  00074	a3 00 00 00 00	 mov	 DWORD PTR _iquetail, eax

; 2087 : 	P_InitThinkers();

  00079	e8 00 00 00 00	 call	 _P_InitThinkers
  0007e	90		 npad	 1
$LN5@P_NetUnArc:

; 2088 : 
; 2089 : 	// read in saved thinkers
; 2090 : 	for (;;)
; 2091 : 	{
; 2092 : 		tclass = READUINT8(save_p);

  0007f	a1 00 00 00 00	 mov	 eax, DWORD PTR _save_p
  00084	8a 08		 mov	 cl, BYTE PTR [eax]
  00086	88 4d eb	 mov	 BYTE PTR _tclass$[ebp], cl
  00089	8b 15 00 00 00
	00		 mov	 edx, DWORD PTR _save_p
  0008f	83 c2 01	 add	 edx, 1
  00092	89 15 00 00 00
	00		 mov	 DWORD PTR _save_p, edx

; 2093 : 
; 2094 : 		if (tclass == tc_end)

  00098	0f b6 45 eb	 movzx	 eax, BYTE PTR _tclass$[ebp]
  0009c	83 f8 22	 cmp	 eax, 34			; 00000022H
  0009f	75 05		 jne	 SHORT $LN18@P_NetUnArc

; 2095 : 			break; // leave the saved thinker reading loop

  000a1	e9 1b 0c 00 00	 jmp	 $LN6@P_NetUnArc
$LN18@P_NetUnArc:

; 2096 : 
; 2097 : 		switch (tclass)

  000a6	0f b6 45 eb	 movzx	 eax, BYTE PTR _tclass$[ebp]
  000aa	89 45 8c	 mov	 DWORD PTR tv74[ebp], eax
  000ad	83 7d 8c 21	 cmp	 DWORD PTR tv74[ebp], 33	; 00000021H
  000b1	0f 87 f3 0b 00
	00		 ja	 $LN111@P_NetUnArc
  000b7	8b 4d 8c	 mov	 ecx, DWORD PTR tv74[ebp]
  000ba	ff 24 8d 00 00
	00 00		 jmp	 DWORD PTR $LN116@P_NetUnArc[ecx*4]
$LN19@P_NetUnArc:

; 2098 : 		{
; 2099 : 			case tc_mobj:
; 2100 : 				diff = READUINT32(save_p);

  000c1	a1 00 00 00 00	 mov	 eax, DWORD PTR _save_p
  000c6	8b 08		 mov	 ecx, DWORD PTR [eax]
  000c8	89 4d f0	 mov	 DWORD PTR _diff$[ebp], ecx
  000cb	8b 15 00 00 00
	00		 mov	 edx, DWORD PTR _save_p
  000d1	83 c2 04	 add	 edx, 4
  000d4	89 15 00 00 00
	00		 mov	 DWORD PTR _save_p, edx

; 2101 : 
; 2102 : 				next = (void *)(size_t)READUINT32(save_p);

  000da	a1 00 00 00 00	 mov	 eax, DWORD PTR _save_p
  000df	8b 08		 mov	 ecx, DWORD PTR [eax]
  000e1	89 4d f8	 mov	 DWORD PTR _next$[ebp], ecx
  000e4	8b 15 00 00 00
	00		 mov	 edx, DWORD PTR _save_p
  000ea	83 c2 04	 add	 edx, 4
  000ed	89 15 00 00 00
	00		 mov	 DWORD PTR _save_p, edx

; 2103 : 
; 2104 : 				z = READFIXED(save_p); // Force this so 3dfloor problems don't arise.

  000f3	a1 00 00 00 00	 mov	 eax, DWORD PTR _save_p
  000f8	8b 08		 mov	 ecx, DWORD PTR [eax]
  000fa	89 4d e4	 mov	 DWORD PTR _z$[ebp], ecx
  000fd	8b 15 00 00 00
	00		 mov	 edx, DWORD PTR _save_p
  00103	83 c2 04	 add	 edx, 4
  00106	89 15 00 00 00
	00		 mov	 DWORD PTR _save_p, edx

; 2105 : 				floorz = READFIXED(save_p);

  0010c	a1 00 00 00 00	 mov	 eax, DWORD PTR _save_p
  00111	8b 08		 mov	 ecx, DWORD PTR [eax]
  00113	89 4d e0	 mov	 DWORD PTR _floorz$[ebp], ecx
  00116	8b 15 00 00 00
	00		 mov	 edx, DWORD PTR _save_p
  0011c	83 c2 04	 add	 edx, 4
  0011f	89 15 00 00 00
	00		 mov	 DWORD PTR _save_p, edx

; 2106 : 				ceilingz = READFIXED(save_p);

  00125	a1 00 00 00 00	 mov	 eax, DWORD PTR _save_p
  0012a	8b 08		 mov	 ecx, DWORD PTR [eax]
  0012c	89 4d dc	 mov	 DWORD PTR _ceilingz$[ebp], ecx
  0012f	8b 15 00 00 00
	00		 mov	 edx, DWORD PTR _save_p
  00135	83 c2 04	 add	 edx, 4
  00138	89 15 00 00 00
	00		 mov	 DWORD PTR _save_p, edx

; 2107 : 
; 2108 : 				if (diff & MD_SPAWNPOINT)

  0013e	8b 45 f0	 mov	 eax, DWORD PTR _diff$[ebp]
  00141	83 e0 01	 and	 eax, 1
  00144	0f 84 91 00 00
	00		 je	 $LN20@P_NetUnArc

; 2109 : 				{
; 2110 : 					UINT16 spawnpointnum = READUINT16(save_p);

  0014a	a1 00 00 00 00	 mov	 eax, DWORD PTR _save_p
  0014f	66 8b 08	 mov	 cx, WORD PTR [eax]
  00152	66 89 4d d8	 mov	 WORD PTR _spawnpointnum$3[ebp], cx
  00156	8b 15 00 00 00
	00		 mov	 edx, DWORD PTR _save_p
  0015c	83 c2 02	 add	 edx, 2
  0015f	89 15 00 00 00
	00		 mov	 DWORD PTR _save_p, edx

; 2111 : 
; 2112 : 					if (mapthings[spawnpointnum].type == 1705) // NiGHTS Hoop special case

  00165	0f b7 45 d8	 movzx	 eax, WORD PTR _spawnpointnum$3[ebp]
  00169	6b c8 14	 imul	 ecx, eax, 20
  0016c	8b 15 00 00 00
	00		 mov	 edx, DWORD PTR _mapthings
  00172	0f b7 44 0a 06	 movzx	 eax, WORD PTR [edx+ecx+6]
  00177	3d a9 06 00 00	 cmp	 eax, 1705		; 000006a9H
  0017c	75 1b		 jne	 SHORT $LN22@P_NetUnArc

; 2113 : 					{
; 2114 : 						P_SpawnHoopsAndRings(&mapthings[spawnpointnum]);

  0017e	0f b7 45 d8	 movzx	 eax, WORD PTR _spawnpointnum$3[ebp]
  00182	6b c8 14	 imul	 ecx, eax, 20
  00185	03 0d 00 00 00
	00		 add	 ecx, DWORD PTR _mapthings
  0018b	51		 push	 ecx
  0018c	e8 00 00 00 00	 call	 _P_SpawnHoopsAndRings
  00191	83 c4 04	 add	 esp, 4

; 2115 : 						continue;

  00194	e9 e6 fe ff ff	 jmp	 $LN5@P_NetUnArc
$LN22@P_NetUnArc:

; 2116 : 					}
; 2117 : 
; 2118 : 					mobj = Z_Calloc(sizeof (*mobj), PU_LEVEL, NULL);

  00199	6a 00		 push	 0
  0019b	6a 00		 push	 0
  0019d	6a 32		 push	 50			; 00000032H
  0019f	68 d4 00 00 00	 push	 212			; 000000d4H
  001a4	e8 00 00 00 00	 call	 _Z_CallocAlign
  001a9	83 c4 10	 add	 esp, 16			; 00000010H
  001ac	89 45 f4	 mov	 DWORD PTR _mobj$[ebp], eax

; 2119 : 
; 2120 : 					mobj->spawnpoint = &mapthings[spawnpointnum];

  001af	0f b7 45 d8	 movzx	 eax, WORD PTR _spawnpointnum$3[ebp]
  001b3	6b c8 14	 imul	 ecx, eax, 20
  001b6	03 0d 00 00 00
	00		 add	 ecx, DWORD PTR _mapthings
  001bc	8b 55 f4	 mov	 edx, DWORD PTR _mobj$[ebp]
  001bf	89 8a ac 00 00
	00		 mov	 DWORD PTR [edx+172], ecx

; 2121 : 					mapthings[spawnpointnum].mobj = mobj;

  001c5	0f b7 45 d8	 movzx	 eax, WORD PTR _spawnpointnum$3[ebp]
  001c9	6b c8 14	 imul	 ecx, eax, 20
  001cc	8b 15 00 00 00
	00		 mov	 edx, DWORD PTR _mapthings
  001d2	8b 45 f4	 mov	 eax, DWORD PTR _mobj$[ebp]
  001d5	89 44 0a 10	 mov	 DWORD PTR [edx+ecx+16], eax

; 2122 : 				}

  001d9	eb 16		 jmp	 SHORT $LN21@P_NetUnArc
$LN20@P_NetUnArc:

; 2123 : 				else
; 2124 : 					mobj = Z_Calloc(sizeof (*mobj), PU_LEVEL, NULL);

  001db	6a 00		 push	 0
  001dd	6a 00		 push	 0
  001df	6a 32		 push	 50			; 00000032H
  001e1	68 d4 00 00 00	 push	 212			; 000000d4H
  001e6	e8 00 00 00 00	 call	 _Z_CallocAlign
  001eb	83 c4 10	 add	 esp, 16			; 00000010H
  001ee	89 45 f4	 mov	 DWORD PTR _mobj$[ebp], eax
$LN21@P_NetUnArc:

; 2125 : 
; 2126 : 				mobj->z = z;

  001f1	8b 45 f4	 mov	 eax, DWORD PTR _mobj$[ebp]
  001f4	8b 4d e4	 mov	 ecx, DWORD PTR _z$[ebp]
  001f7	89 48 18	 mov	 DWORD PTR [eax+24], ecx

; 2127 : 				mobj->floorz = floorz;

  001fa	8b 45 f4	 mov	 eax, DWORD PTR _mobj$[ebp]
  001fd	8b 4d e0	 mov	 ecx, DWORD PTR _floorz$[ebp]
  00200	89 48 38	 mov	 DWORD PTR [eax+56], ecx

; 2128 : 				mobj->ceilingz = ceilingz;

  00203	8b 45 f4	 mov	 eax, DWORD PTR _mobj$[ebp]
  00206	8b 4d dc	 mov	 ecx, DWORD PTR _ceilingz$[ebp]
  00209	89 48 3c	 mov	 DWORD PTR [eax+60], ecx

; 2129 : 
; 2130 : 				if (diff & MD_TYPE)

  0020c	8b 45 f0	 mov	 eax, DWORD PTR _diff$[ebp]
  0020f	83 e0 04	 and	 eax, 4
  00212	74 20		 je	 SHORT $LN23@P_NetUnArc

; 2131 : 					mobj->type = READUINT32(save_p);

  00214	8b 45 f4	 mov	 eax, DWORD PTR _mobj$[ebp]
  00217	8b 0d 00 00 00
	00		 mov	 ecx, DWORD PTR _save_p
  0021d	8b 11		 mov	 edx, DWORD PTR [ecx]
  0021f	89 50 7c	 mov	 DWORD PTR [eax+124], edx
  00222	a1 00 00 00 00	 mov	 eax, DWORD PTR _save_p
  00227	83 c0 04	 add	 eax, 4
  0022a	a3 00 00 00 00	 mov	 DWORD PTR _save_p, eax
  0022f	e9 99 00 00 00	 jmp	 $LN24@P_NetUnArc
$LN23@P_NetUnArc:

; 2132 : 				else
; 2133 : 				{
; 2134 : 					for (i = 0; i < NUMMOBJTYPES; i++)

  00234	c7 45 ec 00 00
	00 00		 mov	 DWORD PTR _i$[ebp], 0
  0023b	eb 09		 jmp	 SHORT $LN12@P_NetUnArc
$LN10@P_NetUnArc:
  0023d	8b 45 ec	 mov	 eax, DWORD PTR _i$[ebp]
  00240	83 c0 01	 add	 eax, 1
  00243	89 45 ec	 mov	 DWORD PTR _i$[ebp], eax
$LN12@P_NetUnArc:
  00246	81 7d ec be 01
	00 00		 cmp	 DWORD PTR _i$[ebp], 446	; 000001beH
  0024d	7d 29		 jge	 SHORT $LN11@P_NetUnArc

; 2135 : 						if (mobj->spawnpoint && mobj->spawnpoint->type == mobjinfo[i].doomednum)

  0024f	8b 45 f4	 mov	 eax, DWORD PTR _mobj$[ebp]
  00252	83 b8 ac 00 00
	00 00		 cmp	 DWORD PTR [eax+172], 0
  00259	74 1b		 je	 SHORT $LN25@P_NetUnArc
  0025b	8b 45 f4	 mov	 eax, DWORD PTR _mobj$[ebp]
  0025e	8b 88 ac 00 00
	00		 mov	 ecx, DWORD PTR [eax+172]
  00264	0f b7 51 06	 movzx	 edx, WORD PTR [ecx+6]
  00268	6b 45 ec 60	 imul	 eax, DWORD PTR _i$[ebp], 96
  0026c	3b 90 00 00 00
	00		 cmp	 edx, DWORD PTR _mobjinfo[eax]
  00272	75 02		 jne	 SHORT $LN25@P_NetUnArc

; 2136 : 							break;

  00274	eb 02		 jmp	 SHORT $LN11@P_NetUnArc
$LN25@P_NetUnArc:
  00276	eb c5		 jmp	 SHORT $LN10@P_NetUnArc
$LN11@P_NetUnArc:

; 2137 : 					if (i == NUMMOBJTYPES)

  00278	81 7d ec be 01
	00 00		 cmp	 DWORD PTR _i$[ebp], 446	; 000001beH
  0027f	75 43		 jne	 SHORT $LN26@P_NetUnArc

; 2138 : 					{
; 2139 : 						if (mobj->spawnpoint)

  00281	8b 45 f4	 mov	 eax, DWORD PTR _mobj$[ebp]
  00284	83 b8 ac 00 00
	00 00		 cmp	 DWORD PTR [eax+172], 0
  0028b	74 1d		 je	 SHORT $LN27@P_NetUnArc

; 2140 : 							CONS_Printf("found mobj with unknown map thing type %d\n",

  0028d	8b 45 f4	 mov	 eax, DWORD PTR _mobj$[ebp]
  00290	8b 88 ac 00 00
	00		 mov	 ecx, DWORD PTR [eax+172]
  00296	0f b7 51 06	 movzx	 edx, WORD PTR [ecx+6]
  0029a	52		 push	 edx
  0029b	68 00 00 00 00	 push	 OFFSET ??_C@_0CL@GDNAMFKP@found?5mobj?5with?5unknown?5map?5thi@
  002a0	e8 00 00 00 00	 call	 _CONS_Printf
  002a5	83 c4 08	 add	 esp, 8
  002a8	eb 0d		 jmp	 SHORT $LN28@P_NetUnArc
$LN27@P_NetUnArc:

; 2141 : 							mobj->spawnpoint->type);
; 2142 : 						else
; 2143 : 							CONS_Printf("found mobj with unknown map thing type NULL\n");

  002aa	68 00 00 00 00	 push	 OFFSET ??_C@_0CN@BPDAAKJ@found?5mobj?5with?5unknown?5map?5thi@
  002af	e8 00 00 00 00	 call	 _CONS_Printf
  002b4	83 c4 04	 add	 esp, 4
$LN28@P_NetUnArc:

; 2144 : 						I_Error("Savegame corrupted");

  002b7	68 00 00 00 00	 push	 OFFSET ??_C@_0BD@MCNAHAPO@Savegame?5corrupted@
  002bc	e8 00 00 00 00	 call	 _I_Error
  002c1	83 c4 04	 add	 esp, 4
$LN26@P_NetUnArc:

; 2145 : 					}
; 2146 : 					mobj->type = i;

  002c4	8b 45 f4	 mov	 eax, DWORD PTR _mobj$[ebp]
  002c7	8b 4d ec	 mov	 ecx, DWORD PTR _i$[ebp]
  002ca	89 48 7c	 mov	 DWORD PTR [eax+124], ecx
$LN24@P_NetUnArc:

; 2147 : 				}
; 2148 : 				mobj->info = &mobjinfo[mobj->type];

  002cd	8b 45 f4	 mov	 eax, DWORD PTR _mobj$[ebp]
  002d0	6b 48 7c 60	 imul	 ecx, DWORD PTR [eax+124], 96
  002d4	81 c1 00 00 00
	00		 add	 ecx, OFFSET _mobjinfo
  002da	8b 55 f4	 mov	 edx, DWORD PTR _mobj$[ebp]
  002dd	89 8a 80 00 00
	00		 mov	 DWORD PTR [edx+128], ecx

; 2149 : 				if (diff & MD_POS)

  002e3	8b 45 f0	 mov	 eax, DWORD PTR _diff$[ebp]
  002e6	83 e0 02	 and	 eax, 2
  002e9	74 53		 je	 SHORT $LN29@P_NetUnArc

; 2150 : 				{
; 2151 : 					mobj->x = READFIXED(save_p);

  002eb	8b 45 f4	 mov	 eax, DWORD PTR _mobj$[ebp]
  002ee	8b 0d 00 00 00
	00		 mov	 ecx, DWORD PTR _save_p
  002f4	8b 11		 mov	 edx, DWORD PTR [ecx]
  002f6	89 50 10	 mov	 DWORD PTR [eax+16], edx
  002f9	a1 00 00 00 00	 mov	 eax, DWORD PTR _save_p
  002fe	83 c0 04	 add	 eax, 4
  00301	a3 00 00 00 00	 mov	 DWORD PTR _save_p, eax

; 2152 : 					mobj->y = READFIXED(save_p);

  00306	8b 45 f4	 mov	 eax, DWORD PTR _mobj$[ebp]
  00309	8b 0d 00 00 00
	00		 mov	 ecx, DWORD PTR _save_p
  0030f	8b 11		 mov	 edx, DWORD PTR [ecx]
  00311	89 50 14	 mov	 DWORD PTR [eax+20], edx
  00314	a1 00 00 00 00	 mov	 eax, DWORD PTR _save_p
  00319	83 c0 04	 add	 eax, 4
  0031c	a3 00 00 00 00	 mov	 DWORD PTR _save_p, eax

; 2153 : 					mobj->angle = READANGLE(save_p);

  00321	8b 45 f4	 mov	 eax, DWORD PTR _mobj$[ebp]
  00324	8b 0d 00 00 00
	00		 mov	 ecx, DWORD PTR _save_p
  0032a	8b 11		 mov	 edx, DWORD PTR [ecx]
  0032c	89 50 24	 mov	 DWORD PTR [eax+36], edx
  0032f	a1 00 00 00 00	 mov	 eax, DWORD PTR _save_p
  00334	83 c0 04	 add	 eax, 4
  00337	a3 00 00 00 00	 mov	 DWORD PTR _save_p, eax

; 2154 : 				}

  0033c	eb 49		 jmp	 SHORT $LN30@P_NetUnArc
$LN29@P_NetUnArc:

; 2155 : 				else
; 2156 : 				{
; 2157 : 					mobj->x = mobj->spawnpoint->x << FRACBITS;

  0033e	8b 45 f4	 mov	 eax, DWORD PTR _mobj$[ebp]
  00341	8b 88 ac 00 00
	00		 mov	 ecx, DWORD PTR [eax+172]
  00347	0f bf 11	 movsx	 edx, WORD PTR [ecx]
  0034a	c1 e2 10	 shl	 edx, 16			; 00000010H
  0034d	8b 45 f4	 mov	 eax, DWORD PTR _mobj$[ebp]
  00350	89 50 10	 mov	 DWORD PTR [eax+16], edx

; 2158 : 					mobj->y = mobj->spawnpoint->y << FRACBITS;

  00353	8b 45 f4	 mov	 eax, DWORD PTR _mobj$[ebp]
  00356	8b 88 ac 00 00
	00		 mov	 ecx, DWORD PTR [eax+172]
  0035c	0f bf 51 02	 movsx	 edx, WORD PTR [ecx+2]
  00360	c1 e2 10	 shl	 edx, 16			; 00000010H
  00363	8b 45 f4	 mov	 eax, DWORD PTR _mobj$[ebp]
  00366	89 50 14	 mov	 DWORD PTR [eax+20], edx

; 2159 : 					mobj->angle = ANGLE_45 * (mobj->spawnpoint->angle/45); /// \bug unknown

  00369	8b 45 f4	 mov	 eax, DWORD PTR _mobj$[ebp]
  0036c	8b 88 ac 00 00
	00		 mov	 ecx, DWORD PTR [eax+172]
  00372	0f bf 41 04	 movsx	 eax, WORD PTR [ecx+4]
  00376	99		 cdq
  00377	b9 2d 00 00 00	 mov	 ecx, 45			; 0000002dH
  0037c	f7 f9		 idiv	 ecx
  0037e	c1 e0 1d	 shl	 eax, 29			; 0000001dH
  00381	8b 55 f4	 mov	 edx, DWORD PTR _mobj$[ebp]
  00384	89 42 24	 mov	 DWORD PTR [edx+36], eax
$LN30@P_NetUnArc:

; 2160 : 				}
; 2161 : 				if (diff & MD_MOM)

  00387	8b 45 f0	 mov	 eax, DWORD PTR _diff$[ebp]
  0038a	83 e0 08	 and	 eax, 8
  0038d	74 51		 je	 SHORT $LN31@P_NetUnArc

; 2162 : 				{
; 2163 : 					mobj->momx = READFIXED(save_p);

  0038f	8b 45 f4	 mov	 eax, DWORD PTR _mobj$[ebp]
  00392	8b 0d 00 00 00
	00		 mov	 ecx, DWORD PTR _save_p
  00398	8b 11		 mov	 edx, DWORD PTR [ecx]
  0039a	89 50 48	 mov	 DWORD PTR [eax+72], edx
  0039d	a1 00 00 00 00	 mov	 eax, DWORD PTR _save_p
  003a2	83 c0 04	 add	 eax, 4
  003a5	a3 00 00 00 00	 mov	 DWORD PTR _save_p, eax

; 2164 : 					mobj->momy = READFIXED(save_p);

  003aa	8b 45 f4	 mov	 eax, DWORD PTR _mobj$[ebp]
  003ad	8b 0d 00 00 00
	00		 mov	 ecx, DWORD PTR _save_p
  003b3	8b 11		 mov	 edx, DWORD PTR [ecx]
  003b5	89 50 4c	 mov	 DWORD PTR [eax+76], edx
  003b8	a1 00 00 00 00	 mov	 eax, DWORD PTR _save_p
  003bd	83 c0 04	 add	 eax, 4
  003c0	a3 00 00 00 00	 mov	 DWORD PTR _save_p, eax

; 2165 : 					mobj->momz = READFIXED(save_p);

  003c5	8b 45 f4	 mov	 eax, DWORD PTR _mobj$[ebp]
  003c8	8b 0d 00 00 00
	00		 mov	 ecx, DWORD PTR _save_p
  003ce	8b 11		 mov	 edx, DWORD PTR [ecx]
  003d0	89 50 50	 mov	 DWORD PTR [eax+80], edx
  003d3	a1 00 00 00 00	 mov	 eax, DWORD PTR _save_p
  003d8	83 c0 04	 add	 eax, 4
  003db	a3 00 00 00 00	 mov	 DWORD PTR _save_p, eax
$LN31@P_NetUnArc:

; 2166 : 				} // otherwise they're zero, and the memset took care of it
; 2167 : 
; 2168 : 				if (diff & MD_RADIUS)

  003e0	8b 45 f0	 mov	 eax, DWORD PTR _diff$[ebp]
  003e3	83 e0 10	 and	 eax, 16			; 00000010H
  003e6	74 1d		 je	 SHORT $LN32@P_NetUnArc

; 2169 : 					mobj->radius = READFIXED(save_p);

  003e8	8b 45 f4	 mov	 eax, DWORD PTR _mobj$[ebp]
  003eb	8b 0d 00 00 00
	00		 mov	 ecx, DWORD PTR _save_p
  003f1	8b 11		 mov	 edx, DWORD PTR [ecx]
  003f3	89 50 40	 mov	 DWORD PTR [eax+64], edx
  003f6	a1 00 00 00 00	 mov	 eax, DWORD PTR _save_p
  003fb	83 c0 04	 add	 eax, 4
  003fe	a3 00 00 00 00	 mov	 DWORD PTR _save_p, eax
  00403	eb 12		 jmp	 SHORT $LN33@P_NetUnArc
$LN32@P_NetUnArc:

; 2170 : 				else
; 2171 : 					mobj->radius = mobj->info->radius;

  00405	8b 45 f4	 mov	 eax, DWORD PTR _mobj$[ebp]
  00408	8b 88 80 00 00
	00		 mov	 ecx, DWORD PTR [eax+128]
  0040e	8b 55 f4	 mov	 edx, DWORD PTR _mobj$[ebp]
  00411	8b 41 40	 mov	 eax, DWORD PTR [ecx+64]
  00414	89 42 40	 mov	 DWORD PTR [edx+64], eax
$LN33@P_NetUnArc:

; 2172 : 				if (diff & MD_HEIGHT)

  00417	8b 45 f0	 mov	 eax, DWORD PTR _diff$[ebp]
  0041a	83 e0 20	 and	 eax, 32			; 00000020H
  0041d	74 1d		 je	 SHORT $LN34@P_NetUnArc

; 2173 : 					mobj->height = READFIXED(save_p);

  0041f	8b 45 f4	 mov	 eax, DWORD PTR _mobj$[ebp]
  00422	8b 0d 00 00 00
	00		 mov	 ecx, DWORD PTR _save_p
  00428	8b 11		 mov	 edx, DWORD PTR [ecx]
  0042a	89 50 44	 mov	 DWORD PTR [eax+68], edx
  0042d	a1 00 00 00 00	 mov	 eax, DWORD PTR _save_p
  00432	83 c0 04	 add	 eax, 4
  00435	a3 00 00 00 00	 mov	 DWORD PTR _save_p, eax
  0043a	eb 12		 jmp	 SHORT $LN35@P_NetUnArc
$LN34@P_NetUnArc:

; 2174 : 				else
; 2175 : 					mobj->height = mobj->info->height;

  0043c	8b 45 f4	 mov	 eax, DWORD PTR _mobj$[ebp]
  0043f	8b 88 80 00 00
	00		 mov	 ecx, DWORD PTR [eax+128]
  00445	8b 55 f4	 mov	 edx, DWORD PTR _mobj$[ebp]
  00448	8b 41 44	 mov	 eax, DWORD PTR [ecx+68]
  0044b	89 42 44	 mov	 DWORD PTR [edx+68], eax
$LN35@P_NetUnArc:

; 2176 : 				if (diff & MD_FLAGS)

  0044e	8b 45 f0	 mov	 eax, DWORD PTR _diff$[ebp]
  00451	83 e0 40	 and	 eax, 64			; 00000040H
  00454	74 46		 je	 SHORT $LN36@P_NetUnArc

; 2177 : 				{
; 2178 : 					mobj->flags = READINT32(save_p);

  00456	8b 45 f4	 mov	 eax, DWORD PTR _mobj$[ebp]
  00459	8b 0d 00 00 00
	00		 mov	 ecx, DWORD PTR _save_p
  0045f	8b 11		 mov	 edx, DWORD PTR [ecx]
  00461	89 50 60	 mov	 DWORD PTR [eax+96], edx
  00464	a1 00 00 00 00	 mov	 eax, DWORD PTR _save_p
  00469	83 c0 04	 add	 eax, 4
  0046c	a3 00 00 00 00	 mov	 DWORD PTR _save_p, eax

; 2179 : 					if (mobj->flags & MF_TRANSLATION)

  00471	8b 45 f4	 mov	 eax, DWORD PTR _mobj$[ebp]
  00474	8b 48 60	 mov	 ecx, DWORD PTR [eax+96]
  00477	81 e1 00 00 00
	04		 and	 ecx, 67108864		; 04000000H
  0047d	74 1b		 je	 SHORT $LN38@P_NetUnArc

; 2180 : 						mobj->color = READUINT8(save_p);

  0047f	8b 45 f4	 mov	 eax, DWORD PTR _mobj$[ebp]
  00482	8b 0d 00 00 00
	00		 mov	 ecx, DWORD PTR _save_p
  00488	8a 11		 mov	 dl, BYTE PTR [ecx]
  0048a	88 50 68	 mov	 BYTE PTR [eax+104], dl
  0048d	a1 00 00 00 00	 mov	 eax, DWORD PTR _save_p
  00492	83 c0 01	 add	 eax, 1
  00495	a3 00 00 00 00	 mov	 DWORD PTR _save_p, eax
$LN38@P_NetUnArc:

; 2181 : 				}

  0049a	eb 12		 jmp	 SHORT $LN37@P_NetUnArc
$LN36@P_NetUnArc:

; 2182 : 				else
; 2183 : 					mobj->flags = mobj->info->flags;

  0049c	8b 45 f4	 mov	 eax, DWORD PTR _mobj$[ebp]
  0049f	8b 88 80 00 00
	00		 mov	 ecx, DWORD PTR [eax+128]
  004a5	8b 55 f4	 mov	 edx, DWORD PTR _mobj$[ebp]
  004a8	8b 41 58	 mov	 eax, DWORD PTR [ecx+88]
  004ab	89 42 60	 mov	 DWORD PTR [edx+96], eax
$LN37@P_NetUnArc:

; 2184 : 				mobj->flags2 = READINT32(save_p);

  004ae	8b 45 f4	 mov	 eax, DWORD PTR _mobj$[ebp]
  004b1	8b 0d 00 00 00
	00		 mov	 ecx, DWORD PTR _save_p
  004b7	8b 11		 mov	 edx, DWORD PTR [ecx]
  004b9	89 90 88 00 00
	00		 mov	 DWORD PTR [eax+136], edx
  004bf	a1 00 00 00 00	 mov	 eax, DWORD PTR _save_p
  004c4	83 c0 04	 add	 eax, 4
  004c7	a3 00 00 00 00	 mov	 DWORD PTR _save_p, eax

; 2185 : 				if (diff & MD_HEALTH)

  004cc	8b 45 f0	 mov	 eax, DWORD PTR _diff$[ebp]
  004cf	25 80 00 00 00	 and	 eax, 128		; 00000080H
  004d4	74 20		 je	 SHORT $LN39@P_NetUnArc

; 2186 : 					mobj->health = READINT32(save_p);

  004d6	8b 45 f4	 mov	 eax, DWORD PTR _mobj$[ebp]
  004d9	8b 0d 00 00 00
	00		 mov	 ecx, DWORD PTR _save_p
  004df	8b 11		 mov	 edx, DWORD PTR [ecx]
  004e1	89 90 8c 00 00
	00		 mov	 DWORD PTR [eax+140], edx
  004e7	a1 00 00 00 00	 mov	 eax, DWORD PTR _save_p
  004ec	83 c0 04	 add	 eax, 4
  004ef	a3 00 00 00 00	 mov	 DWORD PTR _save_p, eax
  004f4	eb 15		 jmp	 SHORT $LN40@P_NetUnArc
$LN39@P_NetUnArc:

; 2187 : 				else
; 2188 : 					mobj->health = mobj->info->spawnhealth;

  004f6	8b 45 f4	 mov	 eax, DWORD PTR _mobj$[ebp]
  004f9	8b 88 80 00 00
	00		 mov	 ecx, DWORD PTR [eax+128]
  004ff	8b 55 f4	 mov	 edx, DWORD PTR _mobj$[ebp]
  00502	8b 41 08	 mov	 eax, DWORD PTR [ecx+8]
  00505	89 82 8c 00 00
	00		 mov	 DWORD PTR [edx+140], eax
$LN40@P_NetUnArc:

; 2189 : 				if (diff & MD_RTIME)

  0050b	8b 45 f0	 mov	 eax, DWORD PTR _diff$[ebp]
  0050e	25 00 01 00 00	 and	 eax, 256		; 00000100H
  00513	74 20		 je	 SHORT $LN41@P_NetUnArc

; 2190 : 					mobj->reactiontime = READINT32(save_p);

  00515	8b 45 f4	 mov	 eax, DWORD PTR _mobj$[ebp]
  00518	8b 0d 00 00 00
	00		 mov	 ecx, DWORD PTR _save_p
  0051e	8b 11		 mov	 edx, DWORD PTR [ecx]
  00520	89 90 9c 00 00
	00		 mov	 DWORD PTR [eax+156], edx
  00526	a1 00 00 00 00	 mov	 eax, DWORD PTR _save_p
  0052b	83 c0 04	 add	 eax, 4
  0052e	a3 00 00 00 00	 mov	 DWORD PTR _save_p, eax
  00533	eb 15		 jmp	 SHORT $LN42@P_NetUnArc
$LN41@P_NetUnArc:

; 2191 : 				else
; 2192 : 					mobj->reactiontime = mobj->info->reactiontime;

  00535	8b 45 f4	 mov	 eax, DWORD PTR _mobj$[ebp]
  00538	8b 88 80 00 00
	00		 mov	 ecx, DWORD PTR [eax+128]
  0053e	8b 55 f4	 mov	 edx, DWORD PTR _mobj$[ebp]
  00541	8b 41 14	 mov	 eax, DWORD PTR [ecx+20]
  00544	89 82 9c 00 00
	00		 mov	 DWORD PTR [edx+156], eax
$LN42@P_NetUnArc:

; 2193 : 
; 2194 : 				if (diff & MD_STATE)

  0054a	8b 45 f0	 mov	 eax, DWORD PTR _diff$[ebp]
  0054d	25 00 02 00 00	 and	 eax, 512		; 00000200H
  00552	74 28		 je	 SHORT $LN43@P_NetUnArc

; 2195 : 					mobj->state = &states[READUINT16(save_p)];

  00554	a1 00 00 00 00	 mov	 eax, DWORD PTR _save_p
  00559	0f b7 08	 movzx	 ecx, WORD PTR [eax]
  0055c	6b d1 1c	 imul	 edx, ecx, 28
  0055f	81 c2 00 00 00
	00		 add	 edx, OFFSET _states
  00565	8b 45 f4	 mov	 eax, DWORD PTR _mobj$[ebp]
  00568	89 50 5c	 mov	 DWORD PTR [eax+92], edx
  0056b	8b 0d 00 00 00
	00		 mov	 ecx, DWORD PTR _save_p
  00571	83 c1 02	 add	 ecx, 2
  00574	89 0d 00 00 00
	00		 mov	 DWORD PTR _save_p, ecx
  0057a	eb 19		 jmp	 SHORT $LN44@P_NetUnArc
$LN43@P_NetUnArc:

; 2196 : 				else
; 2197 : 					mobj->state = &states[mobj->info->spawnstate];

  0057c	8b 45 f4	 mov	 eax, DWORD PTR _mobj$[ebp]
  0057f	8b 88 80 00 00
	00		 mov	 ecx, DWORD PTR [eax+128]
  00585	6b 51 04 1c	 imul	 edx, DWORD PTR [ecx+4], 28
  00589	81 c2 00 00 00
	00		 add	 edx, OFFSET _states
  0058f	8b 45 f4	 mov	 eax, DWORD PTR _mobj$[ebp]
  00592	89 50 5c	 mov	 DWORD PTR [eax+92], edx
$LN44@P_NetUnArc:

; 2198 : 				if (diff & MD_TICS)

  00595	8b 45 f0	 mov	 eax, DWORD PTR _diff$[ebp]
  00598	25 00 04 00 00	 and	 eax, 1024		; 00000400H
  0059d	74 1d		 je	 SHORT $LN45@P_NetUnArc

; 2199 : 					mobj->tics = READINT32(save_p);

  0059f	8b 45 f4	 mov	 eax, DWORD PTR _mobj$[ebp]
  005a2	8b 0d 00 00 00
	00		 mov	 ecx, DWORD PTR _save_p
  005a8	8b 11		 mov	 edx, DWORD PTR [ecx]
  005aa	89 50 58	 mov	 DWORD PTR [eax+88], edx
  005ad	a1 00 00 00 00	 mov	 eax, DWORD PTR _save_p
  005b2	83 c0 04	 add	 eax, 4
  005b5	a3 00 00 00 00	 mov	 DWORD PTR _save_p, eax
  005ba	eb 0f		 jmp	 SHORT $LN46@P_NetUnArc
$LN45@P_NetUnArc:

; 2200 : 				else
; 2201 : 					mobj->tics = mobj->state->tics;

  005bc	8b 45 f4	 mov	 eax, DWORD PTR _mobj$[ebp]
  005bf	8b 48 5c	 mov	 ecx, DWORD PTR [eax+92]
  005c2	8b 55 f4	 mov	 edx, DWORD PTR _mobj$[ebp]
  005c5	8b 41 08	 mov	 eax, DWORD PTR [ecx+8]
  005c8	89 42 58	 mov	 DWORD PTR [edx+88], eax
$LN46@P_NetUnArc:

; 2202 : 				if (diff & MD_SPRITE)

  005cb	8b 45 f0	 mov	 eax, DWORD PTR _diff$[ebp]
  005ce	25 00 08 00 00	 and	 eax, 2048		; 00000800H
  005d3	74 1d		 je	 SHORT $LN47@P_NetUnArc

; 2203 : 					mobj->sprite = READUINT16(save_p);

  005d5	a1 00 00 00 00	 mov	 eax, DWORD PTR _save_p
  005da	0f b7 08	 movzx	 ecx, WORD PTR [eax]
  005dd	8b 55 f4	 mov	 edx, DWORD PTR _mobj$[ebp]
  005e0	89 4a 28	 mov	 DWORD PTR [edx+40], ecx
  005e3	a1 00 00 00 00	 mov	 eax, DWORD PTR _save_p
  005e8	83 c0 02	 add	 eax, 2
  005eb	a3 00 00 00 00	 mov	 DWORD PTR _save_p, eax
  005f0	eb 0e		 jmp	 SHORT $LN48@P_NetUnArc
$LN47@P_NetUnArc:

; 2204 : 				else
; 2205 : 					mobj->sprite = mobj->state->sprite;

  005f2	8b 45 f4	 mov	 eax, DWORD PTR _mobj$[ebp]
  005f5	8b 48 5c	 mov	 ecx, DWORD PTR [eax+92]
  005f8	8b 55 f4	 mov	 edx, DWORD PTR _mobj$[ebp]
  005fb	8b 01		 mov	 eax, DWORD PTR [ecx]
  005fd	89 42 28	 mov	 DWORD PTR [edx+40], eax
$LN48@P_NetUnArc:

; 2206 : 				if (diff & MD_FRAME)

  00600	8b 45 f0	 mov	 eax, DWORD PTR _diff$[ebp]
  00603	25 00 10 00 00	 and	 eax, 4096		; 00001000H
  00608	74 1d		 je	 SHORT $LN49@P_NetUnArc

; 2207 : 					mobj->frame = READUINT32(save_p);

  0060a	8b 45 f4	 mov	 eax, DWORD PTR _mobj$[ebp]
  0060d	8b 0d 00 00 00
	00		 mov	 ecx, DWORD PTR _save_p
  00613	8b 11		 mov	 edx, DWORD PTR [ecx]
  00615	89 50 2c	 mov	 DWORD PTR [eax+44], edx
  00618	a1 00 00 00 00	 mov	 eax, DWORD PTR _save_p
  0061d	83 c0 04	 add	 eax, 4
  00620	a3 00 00 00 00	 mov	 DWORD PTR _save_p, eax
  00625	eb 0f		 jmp	 SHORT $LN50@P_NetUnArc
$LN49@P_NetUnArc:

; 2208 : 				else
; 2209 : 					mobj->frame = mobj->state->frame;

  00627	8b 45 f4	 mov	 eax, DWORD PTR _mobj$[ebp]
  0062a	8b 48 5c	 mov	 ecx, DWORD PTR [eax+92]
  0062d	8b 55 f4	 mov	 edx, DWORD PTR _mobj$[ebp]
  00630	8b 41 04	 mov	 eax, DWORD PTR [ecx+4]
  00633	89 42 2c	 mov	 DWORD PTR [edx+44], eax
$LN50@P_NetUnArc:

; 2210 : 				if (diff & MD_EFLAGS)

  00636	8b 45 f0	 mov	 eax, DWORD PTR _diff$[ebp]
  00639	25 00 20 00 00	 and	 eax, 8192		; 00002000H
  0063e	74 1e		 je	 SHORT $LN51@P_NetUnArc

; 2211 : 					mobj->eflags = READUINT32(save_p);

  00640	8b 45 f4	 mov	 eax, DWORD PTR _mobj$[ebp]
  00643	8b 0d 00 00 00
	00		 mov	 ecx, DWORD PTR _save_p
  00649	8b 11		 mov	 edx, DWORD PTR [ecx]
  0064b	89 90 84 00 00
	00		 mov	 DWORD PTR [eax+132], edx
  00651	a1 00 00 00 00	 mov	 eax, DWORD PTR _save_p
  00656	83 c0 04	 add	 eax, 4
  00659	a3 00 00 00 00	 mov	 DWORD PTR _save_p, eax
$LN51@P_NetUnArc:

; 2212 : 				if (diff & MD_PLAYER)

  0065e	8b 45 f0	 mov	 eax, DWORD PTR _diff$[ebp]
  00661	25 00 40 00 00	 and	 eax, 16384		; 00004000H
  00666	74 69		 je	 SHORT $LN54@P_NetUnArc

; 2213 : 				{
; 2214 : 					i = READUINT8(save_p);

  00668	a1 00 00 00 00	 mov	 eax, DWORD PTR _save_p
  0066d	0f b6 08	 movzx	 ecx, BYTE PTR [eax]
  00670	89 4d ec	 mov	 DWORD PTR _i$[ebp], ecx
  00673	8b 15 00 00 00
	00		 mov	 edx, DWORD PTR _save_p
  00679	83 c2 01	 add	 edx, 1
  0067c	89 15 00 00 00
	00		 mov	 DWORD PTR _save_p, edx

; 2215 : 					mobj->player = &players[i];

  00682	69 45 ec fc 01
	00 00		 imul	 eax, DWORD PTR _i$[ebp], 508
  00689	05 00 00 00 00	 add	 eax, OFFSET _players
  0068e	8b 4d f4	 mov	 ecx, DWORD PTR _mobj$[ebp]
  00691	89 81 a4 00 00
	00		 mov	 DWORD PTR [ecx+164], eax

; 2216 : 					mobj->player->mo = mobj;

  00697	8b 45 f4	 mov	 eax, DWORD PTR _mobj$[ebp]
  0069a	8b 88 a4 00 00
	00		 mov	 ecx, DWORD PTR [eax+164]
  006a0	8b 55 f4	 mov	 edx, DWORD PTR _mobj$[ebp]
  006a3	89 11		 mov	 DWORD PTR [ecx], edx

; 2217 : 					// added for angle prediction
; 2218 : 					if (consoleplayer == i)

  006a5	a1 00 00 00 00	 mov	 eax, DWORD PTR _consoleplayer
  006aa	3b 45 ec	 cmp	 eax, DWORD PTR _i$[ebp]
  006ad	75 0c		 jne	 SHORT $LN53@P_NetUnArc

; 2219 : 						localangle = mobj->angle;

  006af	8b 45 f4	 mov	 eax, DWORD PTR _mobj$[ebp]
  006b2	8b 48 24	 mov	 ecx, DWORD PTR [eax+36]
  006b5	89 0d 00 00 00
	00		 mov	 DWORD PTR _localangle, ecx
$LN53@P_NetUnArc:

; 2220 : 					if (secondarydisplayplayer == i)

  006bb	a1 00 00 00 00	 mov	 eax, DWORD PTR _secondarydisplayplayer
  006c0	3b 45 ec	 cmp	 eax, DWORD PTR _i$[ebp]
  006c3	75 0c		 jne	 SHORT $LN54@P_NetUnArc

; 2221 : 						localangle2 = mobj->angle;

  006c5	8b 45 f4	 mov	 eax, DWORD PTR _mobj$[ebp]
  006c8	8b 48 24	 mov	 ecx, DWORD PTR [eax+36]
  006cb	89 0d 00 00 00
	00		 mov	 DWORD PTR _localangle2, ecx
$LN54@P_NetUnArc:

; 2222 : 				}
; 2223 : 				if (diff & MD_MOVEDIR)

  006d1	8b 45 f0	 mov	 eax, DWORD PTR _diff$[ebp]
  006d4	25 00 80 00 00	 and	 eax, 32768		; 00008000H
  006d9	74 1e		 je	 SHORT $LN55@P_NetUnArc

; 2224 : 					mobj->movedir = READANGLE(save_p);

  006db	8b 45 f4	 mov	 eax, DWORD PTR _mobj$[ebp]
  006de	8b 0d 00 00 00
	00		 mov	 ecx, DWORD PTR _save_p
  006e4	8b 11		 mov	 edx, DWORD PTR [ecx]
  006e6	89 90 90 00 00
	00		 mov	 DWORD PTR [eax+144], edx
  006ec	a1 00 00 00 00	 mov	 eax, DWORD PTR _save_p
  006f1	83 c0 04	 add	 eax, 4
  006f4	a3 00 00 00 00	 mov	 DWORD PTR _save_p, eax
$LN55@P_NetUnArc:

; 2225 : 				if (diff & MD_MOVECOUNT)

  006f9	8b 45 f0	 mov	 eax, DWORD PTR _diff$[ebp]
  006fc	25 00 00 01 00	 and	 eax, 65536		; 00010000H
  00701	74 1e		 je	 SHORT $LN56@P_NetUnArc

; 2226 : 					mobj->movecount = READINT32(save_p);

  00703	8b 45 f4	 mov	 eax, DWORD PTR _mobj$[ebp]
  00706	8b 0d 00 00 00
	00		 mov	 ecx, DWORD PTR _save_p
  0070c	8b 11		 mov	 edx, DWORD PTR [ecx]
  0070e	89 90 94 00 00
	00		 mov	 DWORD PTR [eax+148], edx
  00714	a1 00 00 00 00	 mov	 eax, DWORD PTR _save_p
  00719	83 c0 04	 add	 eax, 4
  0071c	a3 00 00 00 00	 mov	 DWORD PTR _save_p, eax
$LN56@P_NetUnArc:

; 2227 : 				if (diff & MD_THRESHOLD)

  00721	8b 45 f0	 mov	 eax, DWORD PTR _diff$[ebp]
  00724	25 00 00 02 00	 and	 eax, 131072		; 00020000H
  00729	74 1e		 je	 SHORT $LN57@P_NetUnArc

; 2228 : 					mobj->threshold = READINT32(save_p);

  0072b	8b 45 f4	 mov	 eax, DWORD PTR _mobj$[ebp]
  0072e	8b 0d 00 00 00
	00		 mov	 ecx, DWORD PTR _save_p
  00734	8b 11		 mov	 edx, DWORD PTR [ecx]
  00736	89 90 a0 00 00
	00		 mov	 DWORD PTR [eax+160], edx
  0073c	a1 00 00 00 00	 mov	 eax, DWORD PTR _save_p
  00741	83 c0 04	 add	 eax, 4
  00744	a3 00 00 00 00	 mov	 DWORD PTR _save_p, eax
$LN57@P_NetUnArc:

; 2229 : 				if (diff & MD_LASTLOOK)

  00749	8b 45 f0	 mov	 eax, DWORD PTR _diff$[ebp]
  0074c	25 00 00 04 00	 and	 eax, 262144		; 00040000H
  00751	74 20		 je	 SHORT $LN58@P_NetUnArc

; 2230 : 					mobj->lastlook = READINT32(save_p);

  00753	8b 45 f4	 mov	 eax, DWORD PTR _mobj$[ebp]
  00756	8b 0d 00 00 00
	00		 mov	 ecx, DWORD PTR _save_p
  0075c	8b 11		 mov	 edx, DWORD PTR [ecx]
  0075e	89 90 a8 00 00
	00		 mov	 DWORD PTR [eax+168], edx
  00764	a1 00 00 00 00	 mov	 eax, DWORD PTR _save_p
  00769	83 c0 04	 add	 eax, 4
  0076c	a3 00 00 00 00	 mov	 DWORD PTR _save_p, eax
  00771	eb 0d		 jmp	 SHORT $LN59@P_NetUnArc
$LN58@P_NetUnArc:

; 2231 : 				else
; 2232 : 					mobj->lastlook = -1;

  00773	8b 45 f4	 mov	 eax, DWORD PTR _mobj$[ebp]
  00776	c7 80 a8 00 00
	00 ff ff ff ff	 mov	 DWORD PTR [eax+168], -1
$LN59@P_NetUnArc:

; 2233 : 				if (diff & MD_TARGET)

  00780	8b 45 f0	 mov	 eax, DWORD PTR _diff$[ebp]
  00783	25 00 00 08 00	 and	 eax, 524288		; 00080000H
  00788	74 1e		 je	 SHORT $LN60@P_NetUnArc

; 2234 : 					mobj->target = (mobj_t *)(size_t)READUINT32(save_p);

  0078a	8b 45 f4	 mov	 eax, DWORD PTR _mobj$[ebp]
  0078d	8b 0d 00 00 00
	00		 mov	 ecx, DWORD PTR _save_p
  00793	8b 11		 mov	 edx, DWORD PTR [ecx]
  00795	89 90 98 00 00
	00		 mov	 DWORD PTR [eax+152], edx
  0079b	a1 00 00 00 00	 mov	 eax, DWORD PTR _save_p
  007a0	83 c0 04	 add	 eax, 4
  007a3	a3 00 00 00 00	 mov	 DWORD PTR _save_p, eax
$LN60@P_NetUnArc:

; 2235 : 				if (diff & MD_TRACER)

  007a8	8b 45 f0	 mov	 eax, DWORD PTR _diff$[ebp]
  007ab	25 00 00 10 00	 and	 eax, 1048576		; 00100000H
  007b0	74 1e		 je	 SHORT $LN61@P_NetUnArc

; 2236 : 					mobj->tracer = (mobj_t *)(size_t)READUINT32(save_p);

  007b2	8b 45 f4	 mov	 eax, DWORD PTR _mobj$[ebp]
  007b5	8b 0d 00 00 00
	00		 mov	 ecx, DWORD PTR _save_p
  007bb	8b 11		 mov	 edx, DWORD PTR [ecx]
  007bd	89 90 b0 00 00
	00		 mov	 DWORD PTR [eax+176], edx
  007c3	a1 00 00 00 00	 mov	 eax, DWORD PTR _save_p
  007c8	83 c0 04	 add	 eax, 4
  007cb	a3 00 00 00 00	 mov	 DWORD PTR _save_p, eax
$LN61@P_NetUnArc:

; 2237 : 				if (diff & MD_FRICTION)

  007d0	8b 45 f0	 mov	 eax, DWORD PTR _diff$[ebp]
  007d3	25 00 00 20 00	 and	 eax, 2097152		; 00200000H
  007d8	74 20		 je	 SHORT $LN62@P_NetUnArc

; 2238 : 					mobj->friction = READINT32(save_p);

  007da	8b 45 f4	 mov	 eax, DWORD PTR _mobj$[ebp]
  007dd	8b 0d 00 00 00
	00		 mov	 ecx, DWORD PTR _save_p
  007e3	8b 11		 mov	 edx, DWORD PTR [ecx]
  007e5	89 90 b4 00 00
	00		 mov	 DWORD PTR [eax+180], edx
  007eb	a1 00 00 00 00	 mov	 eax, DWORD PTR _save_p
  007f0	83 c0 04	 add	 eax, 4
  007f3	a3 00 00 00 00	 mov	 DWORD PTR _save_p, eax
  007f8	eb 0d		 jmp	 SHORT $LN63@P_NetUnArc
$LN62@P_NetUnArc:

; 2239 : 				else
; 2240 : 					mobj->friction = ORIG_FRICTION;

  007fa	8b 45 f4	 mov	 eax, DWORD PTR _mobj$[ebp]
  007fd	c7 80 b4 00 00
	00 00 e8 00 00	 mov	 DWORD PTR [eax+180], 59392 ; 0000e800H
$LN63@P_NetUnArc:

; 2241 : 				if (diff & MD_MOVEFACTOR)

  00807	8b 45 f0	 mov	 eax, DWORD PTR _diff$[ebp]
  0080a	25 00 00 40 00	 and	 eax, 4194304		; 00400000H
  0080f	74 20		 je	 SHORT $LN64@P_NetUnArc

; 2242 : 					mobj->movefactor = READINT32(save_p);

  00811	8b 45 f4	 mov	 eax, DWORD PTR _mobj$[ebp]
  00814	8b 0d 00 00 00
	00		 mov	 ecx, DWORD PTR _save_p
  0081a	8b 11		 mov	 edx, DWORD PTR [ecx]
  0081c	89 90 b8 00 00
	00		 mov	 DWORD PTR [eax+184], edx
  00822	a1 00 00 00 00	 mov	 eax, DWORD PTR _save_p
  00827	83 c0 04	 add	 eax, 4
  0082a	a3 00 00 00 00	 mov	 DWORD PTR _save_p, eax
  0082f	eb 0d		 jmp	 SHORT $LN65@P_NetUnArc
$LN64@P_NetUnArc:

; 2243 : 				else
; 2244 : 					mobj->movefactor = ORIG_FRICTION_FACTOR;

  00831	8b 45 f4	 mov	 eax, DWORD PTR _mobj$[ebp]
  00834	c7 80 b8 00 00
	00 00 08 00 00	 mov	 DWORD PTR [eax+184], 2048 ; 00000800H
$LN65@P_NetUnArc:

; 2245 : 				if (diff & MD_FUSE)

  0083e	8b 45 f0	 mov	 eax, DWORD PTR _diff$[ebp]
  00841	25 00 00 00 01	 and	 eax, 16777216		; 01000000H
  00846	74 1e		 je	 SHORT $LN66@P_NetUnArc

; 2246 : 					mobj->fuse = READINT32(save_p);

  00848	8b 45 f4	 mov	 eax, DWORD PTR _mobj$[ebp]
  0084b	8b 0d 00 00 00
	00		 mov	 ecx, DWORD PTR _save_p
  00851	8b 11		 mov	 edx, DWORD PTR [ecx]
  00853	89 90 bc 00 00
	00		 mov	 DWORD PTR [eax+188], edx
  00859	a1 00 00 00 00	 mov	 eax, DWORD PTR _save_p
  0085e	83 c0 04	 add	 eax, 4
  00861	a3 00 00 00 00	 mov	 DWORD PTR _save_p, eax
$LN66@P_NetUnArc:

; 2247 : 				if (diff & MD_WATERTOP)

  00866	8b 45 f0	 mov	 eax, DWORD PTR _diff$[ebp]
  00869	25 00 00 00 02	 and	 eax, 33554432		; 02000000H
  0086e	74 1e		 je	 SHORT $LN67@P_NetUnArc

; 2248 : 					mobj->watertop = READINT32(save_p);

  00870	8b 45 f4	 mov	 eax, DWORD PTR _mobj$[ebp]
  00873	8b 0d 00 00 00
	00		 mov	 ecx, DWORD PTR _save_p
  00879	8b 11		 mov	 edx, DWORD PTR [ecx]
  0087b	89 90 c0 00 00
	00		 mov	 DWORD PTR [eax+192], edx
  00881	a1 00 00 00 00	 mov	 eax, DWORD PTR _save_p
  00886	83 c0 04	 add	 eax, 4
  00889	a3 00 00 00 00	 mov	 DWORD PTR _save_p, eax
$LN67@P_NetUnArc:

; 2249 : 				if (diff & MD_WATERBOTTOM)

  0088e	8b 45 f0	 mov	 eax, DWORD PTR _diff$[ebp]
  00891	25 00 00 00 04	 and	 eax, 67108864		; 04000000H
  00896	74 1e		 je	 SHORT $LN68@P_NetUnArc

; 2250 : 					mobj->waterbottom = READINT32(save_p);

  00898	8b 45 f4	 mov	 eax, DWORD PTR _mobj$[ebp]
  0089b	8b 0d 00 00 00
	00		 mov	 ecx, DWORD PTR _save_p
  008a1	8b 11		 mov	 edx, DWORD PTR [ecx]
  008a3	89 90 c4 00 00
	00		 mov	 DWORD PTR [eax+196], edx
  008a9	a1 00 00 00 00	 mov	 eax, DWORD PTR _save_p
  008ae	83 c0 04	 add	 eax, 4
  008b1	a3 00 00 00 00	 mov	 DWORD PTR _save_p, eax
$LN68@P_NetUnArc:

; 2251 : 				if (diff & MD_SCALE)

  008b6	8b 45 f0	 mov	 eax, DWORD PTR _diff$[ebp]
  008b9	25 00 00 00 08	 and	 eax, 134217728		; 08000000H
  008be	74 22		 je	 SHORT $LN69@P_NetUnArc

; 2252 : 					mobj->scale = READUINT16(save_p);

  008c0	8b 45 f4	 mov	 eax, DWORD PTR _mobj$[ebp]
  008c3	8b 0d 00 00 00
	00		 mov	 ecx, DWORD PTR _save_p
  008c9	66 8b 11	 mov	 dx, WORD PTR [ecx]
  008cc	66 89 90 cc 00
	00 00		 mov	 WORD PTR [eax+204], dx
  008d3	a1 00 00 00 00	 mov	 eax, DWORD PTR _save_p
  008d8	83 c0 02	 add	 eax, 2
  008db	a3 00 00 00 00	 mov	 DWORD PTR _save_p, eax
  008e0	eb 0f		 jmp	 SHORT $LN70@P_NetUnArc
$LN69@P_NetUnArc:

; 2253 : 				else
; 2254 : 					mobj->scale = 100;

  008e2	b8 64 00 00 00	 mov	 eax, 100		; 00000064H
  008e7	8b 4d f4	 mov	 ecx, DWORD PTR _mobj$[ebp]
  008ea	66 89 81 cc 00
	00 00		 mov	 WORD PTR [ecx+204], ax
$LN70@P_NetUnArc:

; 2255 : 				if (diff & MD_DSCALE)

  008f1	8b 45 f0	 mov	 eax, DWORD PTR _diff$[ebp]
  008f4	25 00 00 00 10	 and	 eax, 268435456		; 10000000H
  008f9	74 22		 je	 SHORT $LN71@P_NetUnArc

; 2256 : 					mobj->destscale = READUINT16(save_p);

  008fb	8b 45 f4	 mov	 eax, DWORD PTR _mobj$[ebp]
  008fe	8b 0d 00 00 00
	00		 mov	 ecx, DWORD PTR _save_p
  00904	66 8b 11	 mov	 dx, WORD PTR [ecx]
  00907	66 89 90 ce 00
	00 00		 mov	 WORD PTR [eax+206], dx
  0090e	a1 00 00 00 00	 mov	 eax, DWORD PTR _save_p
  00913	83 c0 02	 add	 eax, 2
  00916	a3 00 00 00 00	 mov	 DWORD PTR _save_p, eax
  0091b	eb 14		 jmp	 SHORT $LN72@P_NetUnArc
$LN71@P_NetUnArc:

; 2257 : 				else
; 2258 : 					mobj->destscale = mobj->scale;

  0091d	8b 45 f4	 mov	 eax, DWORD PTR _mobj$[ebp]
  00920	8b 4d f4	 mov	 ecx, DWORD PTR _mobj$[ebp]
  00923	66 8b 91 cc 00
	00 00		 mov	 dx, WORD PTR [ecx+204]
  0092a	66 89 90 ce 00
	00 00		 mov	 WORD PTR [eax+206], dx
$LN72@P_NetUnArc:

; 2259 : 
; 2260 : 				if (diff & MD_REDFLAG)

  00931	8b 45 f0	 mov	 eax, DWORD PTR _diff$[ebp]
  00934	25 00 00 00 40	 and	 eax, 1073741824		; 40000000H
  00939	74 17		 je	 SHORT $LN73@P_NetUnArc

; 2261 : 				{
; 2262 : 					redflag = mobj;

  0093b	8b 45 f4	 mov	 eax, DWORD PTR _mobj$[ebp]
  0093e	a3 00 00 00 00	 mov	 DWORD PTR _redflag, eax

; 2263 : 					rflagpoint = mobj->spawnpoint;

  00943	8b 45 f4	 mov	 eax, DWORD PTR _mobj$[ebp]
  00946	8b 88 ac 00 00
	00		 mov	 ecx, DWORD PTR [eax+172]
  0094c	89 0d 00 00 00
	00		 mov	 DWORD PTR _rflagpoint, ecx
$LN73@P_NetUnArc:

; 2264 : 				}
; 2265 : 				if (diff & MD_BLUEFLAG)

  00952	8b 45 f0	 mov	 eax, DWORD PTR _diff$[ebp]
  00955	25 00 00 00 20	 and	 eax, 536870912		; 20000000H
  0095a	74 17		 je	 SHORT $LN74@P_NetUnArc

; 2266 : 				{
; 2267 : 					blueflag = mobj;

  0095c	8b 45 f4	 mov	 eax, DWORD PTR _mobj$[ebp]
  0095f	a3 00 00 00 00	 mov	 DWORD PTR _blueflag, eax

; 2268 : 					bflagpoint = mobj->spawnpoint;

  00964	8b 45 f4	 mov	 eax, DWORD PTR _mobj$[ebp]
  00967	8b 88 ac 00 00
	00		 mov	 ecx, DWORD PTR [eax+172]
  0096d	89 0d 00 00 00
	00		 mov	 DWORD PTR _bflagpoint, ecx
$LN74@P_NetUnArc:

; 2269 : 				}
; 2270 : 
; 2271 : 				mobj->scalespeed = READUINT8(save_p);

  00973	8b 45 f4	 mov	 eax, DWORD PTR _mobj$[ebp]
  00976	8b 0d 00 00 00
	00		 mov	 ecx, DWORD PTR _save_p
  0097c	8a 11		 mov	 dl, BYTE PTR [ecx]
  0097e	88 90 d0 00 00
	00		 mov	 BYTE PTR [eax+208], dl
  00984	a1 00 00 00 00	 mov	 eax, DWORD PTR _save_p
  00989	83 c0 01	 add	 eax, 1
  0098c	a3 00 00 00 00	 mov	 DWORD PTR _save_p, eax

; 2272 : 
; 2273 : 				// now set deductable field
; 2274 : 				/// \todo save this too
; 2275 : 				mobj->skin = NULL;

  00991	8b 45 f4	 mov	 eax, DWORD PTR _mobj$[ebp]
  00994	c7 40 64 00 00
	00 00		 mov	 DWORD PTR [eax+100], 0

; 2276 : 
; 2277 : 				// set sprev, snext, bprev, bnext, subsector
; 2278 : 				P_SetThingPosition(mobj);

  0099b	8b 45 f4	 mov	 eax, DWORD PTR _mobj$[ebp]
  0099e	50		 push	 eax
  0099f	e8 00 00 00 00	 call	 _P_SetThingPosition
  009a4	83 c4 04	 add	 esp, 4

; 2279 : 
; 2280 : 				mobj->mobjnum = READUINT32(save_p);

  009a7	8b 45 f4	 mov	 eax, DWORD PTR _mobj$[ebp]
  009aa	8b 0d 00 00 00
	00		 mov	 ecx, DWORD PTR _save_p
  009b0	8b 11		 mov	 edx, DWORD PTR [ecx]
  009b2	89 90 c8 00 00
	00		 mov	 DWORD PTR [eax+200], edx
  009b8	a1 00 00 00 00	 mov	 eax, DWORD PTR _save_p
  009bd	83 c0 04	 add	 eax, 4
  009c0	a3 00 00 00 00	 mov	 DWORD PTR _save_p, eax

; 2281 : 
; 2282 : 				if (mobj->player)

  009c5	8b 45 f4	 mov	 eax, DWORD PTR _mobj$[ebp]
  009c8	83 b8 a4 00 00
	00 00		 cmp	 DWORD PTR [eax+164], 0
  009cf	74 5a		 je	 SHORT $LN77@P_NetUnArc

; 2283 : 				{
; 2284 : 					if (mobj->eflags & MFE_VERTICALFLIP)

  009d1	8b 45 f4	 mov	 eax, DWORD PTR _mobj$[ebp]
  009d4	8b 88 84 00 00
	00		 mov	 ecx, DWORD PTR [eax+132]
  009da	83 e1 20	 and	 ecx, 32			; 00000020H
  009dd	74 26		 je	 SHORT $LN76@P_NetUnArc

; 2285 : 						mobj->player->viewz = mobj->z + mobj->height - mobj->player->viewheight;

  009df	8b 45 f4	 mov	 eax, DWORD PTR _mobj$[ebp]
  009e2	8b 48 18	 mov	 ecx, DWORD PTR [eax+24]
  009e5	8b 55 f4	 mov	 edx, DWORD PTR _mobj$[ebp]
  009e8	03 4a 44	 add	 ecx, DWORD PTR [edx+68]
  009eb	8b 45 f4	 mov	 eax, DWORD PTR _mobj$[ebp]
  009ee	8b 90 a4 00 00
	00		 mov	 edx, DWORD PTR [eax+164]
  009f4	2b 4a 14	 sub	 ecx, DWORD PTR [edx+20]
  009f7	8b 45 f4	 mov	 eax, DWORD PTR _mobj$[ebp]
  009fa	8b 90 a4 00 00
	00		 mov	 edx, DWORD PTR [eax+164]
  00a00	89 4a 10	 mov	 DWORD PTR [edx+16], ecx
  00a03	eb 26		 jmp	 SHORT $LN77@P_NetUnArc
$LN76@P_NetUnArc:

; 2286 : 					else
; 2287 : 						mobj->player->viewz = mobj->player->mo->z + mobj->player->viewheight;

  00a05	8b 45 f4	 mov	 eax, DWORD PTR _mobj$[ebp]
  00a08	8b 88 a4 00 00
	00		 mov	 ecx, DWORD PTR [eax+164]
  00a0e	8b 11		 mov	 edx, DWORD PTR [ecx]
  00a10	8b 45 f4	 mov	 eax, DWORD PTR _mobj$[ebp]
  00a13	8b 88 a4 00 00
	00		 mov	 ecx, DWORD PTR [eax+164]
  00a19	8b 52 18	 mov	 edx, DWORD PTR [edx+24]
  00a1c	03 51 14	 add	 edx, DWORD PTR [ecx+20]
  00a1f	8b 45 f4	 mov	 eax, DWORD PTR _mobj$[ebp]
  00a22	8b 88 a4 00 00
	00		 mov	 ecx, DWORD PTR [eax+164]
  00a28	89 51 10	 mov	 DWORD PTR [ecx+16], edx
$LN77@P_NetUnArc:

; 2288 : 				}
; 2289 : 
; 2290 : 				mobj->thinker.function.acp1 = (actionf_p1)P_MobjThinker;

  00a2b	8b 45 f4	 mov	 eax, DWORD PTR _mobj$[ebp]
  00a2e	c7 40 08 00 00
	00 00		 mov	 DWORD PTR [eax+8], OFFSET _P_MobjThinker

; 2291 : 				P_AddThinker(&mobj->thinker);

  00a35	8b 45 f4	 mov	 eax, DWORD PTR _mobj$[ebp]
  00a38	50		 push	 eax
  00a39	e8 00 00 00 00	 call	 _P_AddThinker
  00a3e	83 c4 04	 add	 esp, 4

; 2292 : 
; 2293 : 				mobj->info = (mobjinfo_t *)next; // temporarily, set when leave this function

  00a41	8b 45 f4	 mov	 eax, DWORD PTR _mobj$[ebp]
  00a44	8b 4d f8	 mov	 ecx, DWORD PTR _next$[ebp]
  00a47	89 88 80 00 00
	00		 mov	 DWORD PTR [eax+128], ecx

; 2294 : 				break;

  00a4d	e9 6a 02 00 00	 jmp	 $LN8@P_NetUnArc
$LN78@P_NetUnArc:

; 2295 : 
; 2296 : 			case tc_ceiling:
; 2297 : 				LoadCeilingThinker((actionf_p1)T_MoveCeiling);

  00a52	68 00 00 00 00	 push	 OFFSET _T_MoveCeiling
  00a57	e8 00 00 00 00	 call	 _LoadCeilingThinker
  00a5c	83 c4 04	 add	 esp, 4

; 2298 : 				break;

  00a5f	e9 58 02 00 00	 jmp	 $LN8@P_NetUnArc
$LN79@P_NetUnArc:

; 2299 : 
; 2300 : 			case tc_crushceiling:
; 2301 : 				LoadCeilingThinker((actionf_p1)T_CrushCeiling);

  00a64	68 00 00 00 00	 push	 OFFSET _T_CrushCeiling
  00a69	e8 00 00 00 00	 call	 _LoadCeilingThinker
  00a6e	83 c4 04	 add	 esp, 4

; 2302 : 				break;

  00a71	e9 46 02 00 00	 jmp	 $LN8@P_NetUnArc
$LN80@P_NetUnArc:

; 2303 : 
; 2304 : 			case tc_floor:
; 2305 : 				LoadFloormoveThinker((actionf_p1)T_MoveFloor);

  00a76	68 00 00 00 00	 push	 OFFSET _T_MoveFloor
  00a7b	e8 00 00 00 00	 call	 _LoadFloormoveThinker
  00a80	83 c4 04	 add	 esp, 4

; 2306 : 				break;

  00a83	e9 34 02 00 00	 jmp	 $LN8@P_NetUnArc
$LN81@P_NetUnArc:

; 2307 : 
; 2308 : 			case tc_flash:
; 2309 : 				LoadLightflashThinker((actionf_p1)T_LightningFlash);

  00a88	68 00 00 00 00	 push	 OFFSET _T_LightningFlash
  00a8d	e8 00 00 00 00	 call	 _LoadLightflashThinker
  00a92	83 c4 04	 add	 esp, 4

; 2310 : 				break;

  00a95	e9 22 02 00 00	 jmp	 $LN8@P_NetUnArc
$LN82@P_NetUnArc:

; 2311 : 
; 2312 : 			case tc_strobe:
; 2313 : 				LoadStrobeThinker((actionf_p1)T_StrobeFlash);

  00a9a	68 00 00 00 00	 push	 OFFSET _T_StrobeFlash
  00a9f	e8 00 00 00 00	 call	 _LoadStrobeThinker
  00aa4	83 c4 04	 add	 esp, 4

; 2314 : 				break;

  00aa7	e9 10 02 00 00	 jmp	 $LN8@P_NetUnArc
$LN83@P_NetUnArc:

; 2315 : 
; 2316 : 			case tc_glow:
; 2317 : 				LoadGlowThinker((actionf_p1)T_Glow);

  00aac	68 00 00 00 00	 push	 OFFSET _T_Glow
  00ab1	e8 00 00 00 00	 call	 _LoadGlowThinker
  00ab6	83 c4 04	 add	 esp, 4

; 2318 : 				break;

  00ab9	e9 fe 01 00 00	 jmp	 $LN8@P_NetUnArc
$LN84@P_NetUnArc:

; 2319 : 
; 2320 : 			case tc_fireflicker:
; 2321 : 				LoadFireflickerThinker((actionf_p1)T_FireFlicker);

  00abe	68 00 00 00 00	 push	 OFFSET _T_FireFlicker
  00ac3	e8 00 00 00 00	 call	 _LoadFireflickerThinker
  00ac8	83 c4 04	 add	 esp, 4

; 2322 : 				break;

  00acb	e9 ec 01 00 00	 jmp	 $LN8@P_NetUnArc
$LN85@P_NetUnArc:

; 2323 : 
; 2324 : 			case tc_elevator:
; 2325 : 				LoadElevatorThinker((actionf_p1)T_MoveElevator, 3);

  00ad0	6a 03		 push	 3
  00ad2	68 00 00 00 00	 push	 OFFSET _T_MoveElevator
  00ad7	e8 00 00 00 00	 call	 _LoadElevatorThinker
  00adc	83 c4 08	 add	 esp, 8

; 2326 : 				break;

  00adf	e9 d8 01 00 00	 jmp	 $LN8@P_NetUnArc
$LN86@P_NetUnArc:

; 2327 : 
; 2328 : 			case tc_continuousfalling:
; 2329 : 				LoadSpecialLevelThinker((actionf_p1)T_ContinuousFalling, 3);

  00ae4	6a 03		 push	 3
  00ae6	68 00 00 00 00	 push	 OFFSET _T_ContinuousFalling
  00aeb	e8 00 00 00 00	 call	 _LoadSpecialLevelThinker
  00af0	83 c4 08	 add	 esp, 8

; 2330 : 				break;

  00af3	e9 c4 01 00 00	 jmp	 $LN8@P_NetUnArc
$LN87@P_NetUnArc:

; 2331 : 
; 2332 : 			case tc_thwomp:
; 2333 : 				LoadSpecialLevelThinker((actionf_p1)T_ThwompSector, 3);

  00af8	6a 03		 push	 3
  00afa	68 00 00 00 00	 push	 OFFSET _T_ThwompSector
  00aff	e8 00 00 00 00	 call	 _LoadSpecialLevelThinker
  00b04	83 c4 08	 add	 esp, 8

; 2334 : 				break;

  00b07	e9 b0 01 00 00	 jmp	 $LN8@P_NetUnArc
$LN88@P_NetUnArc:

; 2335 : 
; 2336 : 			case tc_noenemies:
; 2337 : 				LoadSpecialLevelThinker((actionf_p1)T_NoEnemiesSector, 0);

  00b0c	6a 00		 push	 0
  00b0e	68 00 00 00 00	 push	 OFFSET _T_NoEnemiesSector
  00b13	e8 00 00 00 00	 call	 _LoadSpecialLevelThinker
  00b18	83 c4 08	 add	 esp, 8

; 2338 : 				break;

  00b1b	e9 9c 01 00 00	 jmp	 $LN8@P_NetUnArc
$LN89@P_NetUnArc:

; 2339 : 
; 2340 : 			case tc_eachtime:
; 2341 : 				LoadSpecialLevelThinker((actionf_p1)T_EachTimeThinker, 0);

  00b20	6a 00		 push	 0
  00b22	68 00 00 00 00	 push	 OFFSET _T_EachTimeThinker
  00b27	e8 00 00 00 00	 call	 _LoadSpecialLevelThinker
  00b2c	83 c4 08	 add	 esp, 8

; 2342 : 				break;

  00b2f	e9 88 01 00 00	 jmp	 $LN8@P_NetUnArc
$LN90@P_NetUnArc:

; 2343 : 
; 2344 : 			case tc_raisesector:
; 2345 : 				LoadSpecialLevelThinker((actionf_p1)T_RaiseSector, 0);

  00b34	6a 00		 push	 0
  00b36	68 00 00 00 00	 push	 OFFSET _T_RaiseSector
  00b3b	e8 00 00 00 00	 call	 _LoadSpecialLevelThinker
  00b40	83 c4 08	 add	 esp, 8

; 2346 : 				break;

  00b43	e9 74 01 00 00	 jmp	 $LN8@P_NetUnArc
$LN91@P_NetUnArc:

; 2347 : 
; 2348 : 			/// \todo rewrite all the shit that uses an elevator_t but isn't an elevator
; 2349 : 			/// \note working on it!
; 2350 : 			case tc_camerascanner:
; 2351 : 				LoadElevatorThinker((actionf_p1)T_CameraScanner, 0);

  00b48	6a 00		 push	 0
  00b4a	68 00 00 00 00	 push	 OFFSET _T_CameraScanner
  00b4f	e8 00 00 00 00	 call	 _LoadElevatorThinker
  00b54	83 c4 08	 add	 esp, 8

; 2352 : 				break;

  00b57	e9 60 01 00 00	 jmp	 $LN8@P_NetUnArc
$LN92@P_NetUnArc:

; 2353 : 
; 2354 : 			case tc_bouncecheese:
; 2355 : 				LoadSpecialLevelThinker((actionf_p1)T_BounceCheese, 2);

  00b5c	6a 02		 push	 2
  00b5e	68 00 00 00 00	 push	 OFFSET _T_BounceCheese
  00b63	e8 00 00 00 00	 call	 _LoadSpecialLevelThinker
  00b68	83 c4 08	 add	 esp, 8

; 2356 : 				break;

  00b6b	e9 4c 01 00 00	 jmp	 $LN8@P_NetUnArc
$LN93@P_NetUnArc:

; 2357 : 
; 2358 : 			case tc_startcrumble:
; 2359 : 				LoadElevatorThinker((actionf_p1)T_StartCrumble, 1);

  00b70	6a 01		 push	 1
  00b72	68 00 00 00 00	 push	 OFFSET _T_StartCrumble
  00b77	e8 00 00 00 00	 call	 _LoadElevatorThinker
  00b7c	83 c4 08	 add	 esp, 8

; 2360 : 				break;

  00b7f	e9 38 01 00 00	 jmp	 $LN8@P_NetUnArc
$LN94@P_NetUnArc:

; 2361 : 
; 2362 : 			case tc_marioblock:
; 2363 : 				LoadSpecialLevelThinker((actionf_p1)T_MarioBlock, 3);

  00b84	6a 03		 push	 3
  00b86	68 00 00 00 00	 push	 OFFSET _T_MarioBlock
  00b8b	e8 00 00 00 00	 call	 _LoadSpecialLevelThinker
  00b90	83 c4 08	 add	 esp, 8

; 2364 : 				break;

  00b93	e9 24 01 00 00	 jmp	 $LN8@P_NetUnArc
$LN95@P_NetUnArc:

; 2365 : 
; 2366 : 			case tc_spikesector:
; 2367 : 				LoadSpecialLevelThinker((actionf_p1)T_SpikeSector, 0);

  00b98	6a 00		 push	 0
  00b9a	68 00 00 00 00	 push	 OFFSET _T_SpikeSector
  00b9f	e8 00 00 00 00	 call	 _LoadSpecialLevelThinker
  00ba4	83 c4 08	 add	 esp, 8

; 2368 : 				break;

  00ba7	e9 10 01 00 00	 jmp	 $LN8@P_NetUnArc
$LN96@P_NetUnArc:

; 2369 : 
; 2370 : 			case tc_floatsector:
; 2371 : 				LoadSpecialLevelThinker((actionf_p1)T_FloatSector, 0);

  00bac	6a 00		 push	 0
  00bae	68 00 00 00 00	 push	 OFFSET _T_FloatSector
  00bb3	e8 00 00 00 00	 call	 _LoadSpecialLevelThinker
  00bb8	83 c4 08	 add	 esp, 8

; 2372 : 				break;

  00bbb	e9 fc 00 00 00	 jmp	 $LN8@P_NetUnArc
$LN97@P_NetUnArc:

; 2373 : 
; 2374 : 			case tc_bridgethinker:
; 2375 : 				LoadSpecialLevelThinker((actionf_p1)T_BridgeThinker, 3);

  00bc0	6a 03		 push	 3
  00bc2	68 00 00 00 00	 push	 OFFSET _T_BridgeThinker
  00bc7	e8 00 00 00 00	 call	 _LoadSpecialLevelThinker
  00bcc	83 c4 08	 add	 esp, 8

; 2376 : 				break;

  00bcf	e9 e8 00 00 00	 jmp	 $LN8@P_NetUnArc
$LN98@P_NetUnArc:

; 2377 : 
; 2378 : 			case tc_laserflash:
; 2379 : 				LoadLaserThinker((actionf_p1)T_LaserFlash);

  00bd4	68 00 00 00 00	 push	 OFFSET _T_LaserFlash
  00bd9	e8 00 00 00 00	 call	 _LoadLaserThinker
  00bde	83 c4 04	 add	 esp, 4

; 2380 : 				break;

  00be1	e9 d6 00 00 00	 jmp	 $LN8@P_NetUnArc
$LN99@P_NetUnArc:

; 2381 : 
; 2382 : 			case tc_lightfade:
; 2383 : 				LoadLightlevelThinker((actionf_p1)T_LightFade);

  00be6	68 00 00 00 00	 push	 OFFSET _T_LightFade
  00beb	e8 00 00 00 00	 call	 _LoadLightlevelThinker
  00bf0	83 c4 04	 add	 esp, 4

; 2384 : 				break;

  00bf3	e9 c4 00 00 00	 jmp	 $LN8@P_NetUnArc
$LN100@P_NetUnArc:

; 2385 : 
; 2386 : 			case tc_executor:
; 2387 : 				LoadExecutorThinker((actionf_p1)T_ExecutorDelay);

  00bf8	68 00 00 00 00	 push	 OFFSET _T_ExecutorDelay
  00bfd	e8 00 00 00 00	 call	 _LoadExecutorThinker
  00c02	83 c4 04	 add	 esp, 4

; 2388 : 				restoreNum = true;

  00c05	c6 45 ea 01	 mov	 BYTE PTR _restoreNum$[ebp], 1

; 2389 : 				break;

  00c09	e9 ae 00 00 00	 jmp	 $LN8@P_NetUnArc
$LN101@P_NetUnArc:

; 2390 : 
; 2391 : 			case tc_disappear:
; 2392 : 				LoadDisappearThinker((actionf_p1)T_Disappear);

  00c0e	68 00 00 00 00	 push	 OFFSET _T_Disappear
  00c13	e8 00 00 00 00	 call	 _LoadDisappearThinker
  00c18	83 c4 04	 add	 esp, 4

; 2393 : 				break;

  00c1b	e9 9c 00 00 00	 jmp	 $LN8@P_NetUnArc
$LN102@P_NetUnArc:

; 2394 : #ifdef POLYOBJECTS
; 2395 : 			case tc_polyrotate:
; 2396 : 				LoadPolyrotatetThinker((actionf_p1)T_PolyObjRotate);

  00c20	68 00 00 00 00	 push	 OFFSET _T_PolyObjRotate
  00c25	e8 00 00 00 00	 call	 _LoadPolyrotatetThinker
  00c2a	83 c4 04	 add	 esp, 4

; 2397 : 				break;

  00c2d	e9 8a 00 00 00	 jmp	 $LN8@P_NetUnArc
$LN103@P_NetUnArc:

; 2398 : 
; 2399 : 			case tc_polymove:
; 2400 : 				LoadPolymoveThinker((actionf_p1)T_PolyObjMove);

  00c32	68 00 00 00 00	 push	 OFFSET _T_PolyObjMove
  00c37	e8 00 00 00 00	 call	 _LoadPolymoveThinker
  00c3c	83 c4 04	 add	 esp, 4

; 2401 : 				break;

  00c3f	eb 7b		 jmp	 SHORT $LN8@P_NetUnArc
$LN104@P_NetUnArc:

; 2402 : 
; 2403 : 			case tc_polywaypoint:
; 2404 : 				LoadPolywaypointThinker((actionf_p1)T_PolyObjWaypoint);

  00c41	68 00 00 00 00	 push	 OFFSET _T_PolyObjWaypoint
  00c46	e8 00 00 00 00	 call	 _LoadPolywaypointThinker
  00c4b	83 c4 04	 add	 esp, 4

; 2405 : 				break;

  00c4e	eb 6c		 jmp	 SHORT $LN8@P_NetUnArc
$LN105@P_NetUnArc:

; 2406 : 
; 2407 : 			case tc_polyslidedoor:
; 2408 : 				LoadPolyslidedoorThinker((actionf_p1)T_PolyDoorSlide);

  00c50	68 00 00 00 00	 push	 OFFSET _T_PolyDoorSlide
  00c55	e8 00 00 00 00	 call	 _LoadPolyslidedoorThinker
  00c5a	83 c4 04	 add	 esp, 4

; 2409 : 				break;

  00c5d	eb 5d		 jmp	 SHORT $LN8@P_NetUnArc
$LN106@P_NetUnArc:

; 2410 : 
; 2411 : 			case tc_polyswingdoor:
; 2412 : 				LoadPolyswingdoorThinker((actionf_p1)T_PolyDoorSwing);

  00c5f	68 00 00 00 00	 push	 OFFSET _T_PolyDoorSwing
  00c64	e8 00 00 00 00	 call	 _LoadPolyswingdoorThinker
  00c69	83 c4 04	 add	 esp, 4

; 2413 : 				break;

  00c6c	eb 4e		 jmp	 SHORT $LN8@P_NetUnArc
$LN107@P_NetUnArc:

; 2414 : 			case tc_polyflag:
; 2415 : 				LoadPolymoveThinker((actionf_p1)T_PolyObjFlag);

  00c6e	68 00 00 00 00	 push	 OFFSET _T_PolyObjFlag
  00c73	e8 00 00 00 00	 call	 _LoadPolymoveThinker
  00c78	83 c4 04	 add	 esp, 4

; 2416 : 				break;

  00c7b	eb 3f		 jmp	 SHORT $LN8@P_NetUnArc
$LN108@P_NetUnArc:

; 2417 : #endif
; 2418 : 			case tc_scroll:
; 2419 : 				LoadScrollThinker((actionf_p1)T_Scroll);

  00c7d	68 00 00 00 00	 push	 OFFSET _T_Scroll
  00c82	e8 00 00 00 00	 call	 _LoadScrollThinker
  00c87	83 c4 04	 add	 esp, 4

; 2420 : 				break;

  00c8a	eb 30		 jmp	 SHORT $LN8@P_NetUnArc
$LN109@P_NetUnArc:

; 2421 : 
; 2422 : 			case tc_friction:
; 2423 : 				LoadFrictionThinker((actionf_p1)T_Friction);

  00c8c	68 00 00 00 00	 push	 OFFSET _T_Friction
  00c91	e8 00 00 00 00	 call	 _LoadFrictionThinker
  00c96	83 c4 04	 add	 esp, 4

; 2424 : 				break;

  00c99	eb 21		 jmp	 SHORT $LN8@P_NetUnArc
$LN110@P_NetUnArc:

; 2425 : 
; 2426 : 			case tc_pusher:
; 2427 : 				LoadPusherThinker((actionf_p1)T_Pusher);

  00c9b	68 00 00 00 00	 push	 OFFSET _T_Pusher
  00ca0	e8 00 00 00 00	 call	 _LoadPusherThinker
  00ca5	83 c4 04	 add	 esp, 4

; 2428 : 				break;

  00ca8	eb 12		 jmp	 SHORT $LN8@P_NetUnArc
$LN111@P_NetUnArc:

; 2429 : 
; 2430 : 			default:
; 2431 : 				I_Error("P_UnarchiveSpecials: Unknown tclass %d in savegame", tclass);

  00caa	0f b6 45 eb	 movzx	 eax, BYTE PTR _tclass$[ebp]
  00cae	50		 push	 eax
  00caf	68 00 00 00 00	 push	 OFFSET ??_C@_0DD@GPDFCACP@P_UnarchiveSpecials?3?5Unknown?5tc@
  00cb4	e8 00 00 00 00	 call	 _I_Error
  00cb9	83 c4 08	 add	 esp, 8
$LN8@P_NetUnArc:

; 2432 : 		}
; 2433 : 	}

  00cbc	e9 be f3 ff ff	 jmp	 $LN5@P_NetUnArc
$LN6@P_NetUnArc:

; 2434 : 
; 2435 : 	if (restoreNum)

  00cc1	0f b6 45 ea	 movzx	 eax, BYTE PTR _restoreNum$[ebp]
  00cc5	85 c0		 test	 eax, eax
  00cc7	74 58		 je	 SHORT $LN14@P_NetUnArc

; 2436 : 	{
; 2437 : 		executor_t *delay = NULL;

  00cc9	c7 45 d4 00 00
	00 00		 mov	 DWORD PTR _delay$2[ebp], 0

; 2438 : 		UINT32 mobjnum;
; 2439 : 		for (currentthinker = thinkercap.next; currentthinker != &thinkercap;

  00cd0	a1 04 00 00 00	 mov	 eax, DWORD PTR _thinkercap+4
  00cd5	89 45 fc	 mov	 DWORD PTR _currentthinker$[ebp], eax
  00cd8	eb 09		 jmp	 SHORT $LN15@P_NetUnArc
$LN13@P_NetUnArc:

; 2440 : 			currentthinker = currentthinker->next)

  00cda	8b 45 fc	 mov	 eax, DWORD PTR _currentthinker$[ebp]
  00cdd	8b 48 04	 mov	 ecx, DWORD PTR [eax+4]
  00ce0	89 4d fc	 mov	 DWORD PTR _currentthinker$[ebp], ecx
$LN15@P_NetUnArc:

; 2438 : 		UINT32 mobjnum;
; 2439 : 		for (currentthinker = thinkercap.next; currentthinker != &thinkercap;

  00ce3	81 7d fc 00 00
	00 00		 cmp	 DWORD PTR _currentthinker$[ebp], OFFSET _thinkercap
  00cea	74 35		 je	 SHORT $LN14@P_NetUnArc

; 2441 : 		{
; 2442 : 			if (currentthinker->function.acp1 == (actionf_p1)T_ExecutorDelay)

  00cec	8b 45 fc	 mov	 eax, DWORD PTR _currentthinker$[ebp]
  00cef	81 78 08 00 00
	00 00		 cmp	 DWORD PTR [eax+8], OFFSET _T_ExecutorDelay
  00cf6	75 27		 jne	 SHORT $LN114@P_NetUnArc

; 2443 : 			{
; 2444 : 				delay = (void *)currentthinker;

  00cf8	8b 45 fc	 mov	 eax, DWORD PTR _currentthinker$[ebp]
  00cfb	89 45 d4	 mov	 DWORD PTR _delay$2[ebp], eax

; 2445 : 				if ((mobjnum = (UINT32)(size_t)delay->caller))

  00cfe	8b 45 d4	 mov	 eax, DWORD PTR _delay$2[ebp]
  00d01	8b 48 14	 mov	 ecx, DWORD PTR [eax+20]
  00d04	89 4d d0	 mov	 DWORD PTR _mobjnum$1[ebp], ecx
  00d07	83 7d d0 00	 cmp	 DWORD PTR _mobjnum$1[ebp], 0
  00d0b	74 12		 je	 SHORT $LN114@P_NetUnArc

; 2446 : 					delay->caller = FindNewPosition(mobjnum);

  00d0d	8b 45 d0	 mov	 eax, DWORD PTR _mobjnum$1[ebp]
  00d10	50		 push	 eax
  00d11	e8 00 00 00 00	 call	 _FindNewPosition
  00d16	83 c4 04	 add	 esp, 4
  00d19	8b 4d d4	 mov	 ecx, DWORD PTR _delay$2[ebp]
  00d1c	89 41 14	 mov	 DWORD PTR [ecx+20], eax
$LN114@P_NetUnArc:

; 2447 : 			}
; 2448 : 		}

  00d1f	eb b9		 jmp	 SHORT $LN13@P_NetUnArc
$LN14@P_NetUnArc:

; 2449 : 	}
; 2450 : }

  00d21	5f		 pop	 edi
  00d22	5e		 pop	 esi
  00d23	5b		 pop	 ebx
  00d24	8b e5		 mov	 esp, ebp
  00d26	5d		 pop	 ebp
  00d27	c3		 ret	 0
$LN116@P_NetUnArc:
  00d28	00 00 00 00	 DD	 $LN19@P_NetUnArc
  00d2c	00 00 00 00	 DD	 $LN78@P_NetUnArc
  00d30	00 00 00 00	 DD	 $LN80@P_NetUnArc
  00d34	00 00 00 00	 DD	 $LN81@P_NetUnArc
  00d38	00 00 00 00	 DD	 $LN82@P_NetUnArc
  00d3c	00 00 00 00	 DD	 $LN83@P_NetUnArc
  00d40	00 00 00 00	 DD	 $LN84@P_NetUnArc
  00d44	00 00 00 00	 DD	 $LN87@P_NetUnArc
  00d48	00 00 00 00	 DD	 $LN91@P_NetUnArc
  00d4c	00 00 00 00	 DD	 $LN85@P_NetUnArc
  00d50	00 00 00 00	 DD	 $LN86@P_NetUnArc
  00d54	00 00 00 00	 DD	 $LN92@P_NetUnArc
  00d58	00 00 00 00	 DD	 $LN93@P_NetUnArc
  00d5c	00 00 00 00	 DD	 $LN94@P_NetUnArc
  00d60	00 00 00 00	 DD	 $LN95@P_NetUnArc
  00d64	00 00 00 00	 DD	 $LN96@P_NetUnArc
  00d68	00 00 00 00	 DD	 $LN97@P_NetUnArc
  00d6c	00 00 00 00	 DD	 $LN79@P_NetUnArc
  00d70	00 00 00 00	 DD	 $LN108@P_NetUnArc
  00d74	00 00 00 00	 DD	 $LN109@P_NetUnArc
  00d78	00 00 00 00	 DD	 $LN110@P_NetUnArc
  00d7c	00 00 00 00	 DD	 $LN98@P_NetUnArc
  00d80	00 00 00 00	 DD	 $LN99@P_NetUnArc
  00d84	00 00 00 00	 DD	 $LN100@P_NetUnArc
  00d88	00 00 00 00	 DD	 $LN90@P_NetUnArc
  00d8c	00 00 00 00	 DD	 $LN88@P_NetUnArc
  00d90	00 00 00 00	 DD	 $LN89@P_NetUnArc
  00d94	00 00 00 00	 DD	 $LN101@P_NetUnArc
  00d98	00 00 00 00	 DD	 $LN102@P_NetUnArc
  00d9c	00 00 00 00	 DD	 $LN103@P_NetUnArc
  00da0	00 00 00 00	 DD	 $LN104@P_NetUnArc
  00da4	00 00 00 00	 DD	 $LN105@P_NetUnArc
  00da8	00 00 00 00	 DD	 $LN106@P_NetUnArc
  00dac	00 00 00 00	 DD	 $LN107@P_NetUnArc
_P_NetUnArchiveThinkers ENDP
_TEXT	ENDS
; Function compile flags: /Odtp /ZI
; File C:\Users\RafaTheFox\Downloads\SRB2-Public-master\src\p_saveg.c
;	COMDAT _LoadPolyswingdoorThinker
_TEXT	SEGMENT
_ht$ = -4						; size = 4
_thinker$ = 8						; size = 4
_LoadPolyswingdoorThinker PROC				; COMDAT

; 2030 : {

  00000	55		 push	 ebp
  00001	8b ec		 mov	 ebp, esp
  00003	83 ec 44	 sub	 esp, 68			; 00000044H
  00006	53		 push	 ebx
  00007	56		 push	 esi
  00008	57		 push	 edi

; 2031 : 	polyswingdoor_t *ht = Z_Malloc(sizeof (*ht), PU_LEVSPEC, NULL);

  00009	6a 00		 push	 0
  0000b	6a 00		 push	 0
  0000d	6a 33		 push	 51			; 00000033H
  0000f	6a 30		 push	 48			; 00000030H
  00011	e8 00 00 00 00	 call	 _Z_MallocAlign
  00016	83 c4 10	 add	 esp, 16			; 00000010H
  00019	89 45 fc	 mov	 DWORD PTR _ht$[ebp], eax

; 2032 : 	ht->thinker.function.acp1 = thinker;

  0001c	8b 45 fc	 mov	 eax, DWORD PTR _ht$[ebp]
  0001f	8b 4d 08	 mov	 ecx, DWORD PTR _thinker$[ebp]
  00022	89 48 08	 mov	 DWORD PTR [eax+8], ecx

; 2033 : 	ht->polyObjNum = READINT32(save_p);

  00025	8b 45 fc	 mov	 eax, DWORD PTR _ht$[ebp]
  00028	8b 0d 00 00 00
	00		 mov	 ecx, DWORD PTR _save_p
  0002e	8b 11		 mov	 edx, DWORD PTR [ecx]
  00030	89 50 10	 mov	 DWORD PTR [eax+16], edx
  00033	a1 00 00 00 00	 mov	 eax, DWORD PTR _save_p
  00038	83 c0 04	 add	 eax, 4
  0003b	a3 00 00 00 00	 mov	 DWORD PTR _save_p, eax

; 2034 : 	ht->delay = READINT32(save_p);

  00040	8b 45 fc	 mov	 eax, DWORD PTR _ht$[ebp]
  00043	8b 0d 00 00 00
	00		 mov	 ecx, DWORD PTR _save_p
  00049	8b 11		 mov	 edx, DWORD PTR [ecx]
  0004b	89 50 14	 mov	 DWORD PTR [eax+20], edx
  0004e	a1 00 00 00 00	 mov	 eax, DWORD PTR _save_p
  00053	83 c0 04	 add	 eax, 4
  00056	a3 00 00 00 00	 mov	 DWORD PTR _save_p, eax

; 2035 : 	ht->delayCount = READINT32(save_p);

  0005b	8b 45 fc	 mov	 eax, DWORD PTR _ht$[ebp]
  0005e	8b 0d 00 00 00
	00		 mov	 ecx, DWORD PTR _save_p
  00064	8b 11		 mov	 edx, DWORD PTR [ecx]
  00066	89 50 18	 mov	 DWORD PTR [eax+24], edx
  00069	a1 00 00 00 00	 mov	 eax, DWORD PTR _save_p
  0006e	83 c0 04	 add	 eax, 4
  00071	a3 00 00 00 00	 mov	 DWORD PTR _save_p, eax

; 2036 : 	ht->initSpeed = READINT32(save_p);

  00076	8b 45 fc	 mov	 eax, DWORD PTR _ht$[ebp]
  00079	8b 0d 00 00 00
	00		 mov	 ecx, DWORD PTR _save_p
  0007f	8b 11		 mov	 edx, DWORD PTR [ecx]
  00081	89 50 1c	 mov	 DWORD PTR [eax+28], edx
  00084	a1 00 00 00 00	 mov	 eax, DWORD PTR _save_p
  00089	83 c0 04	 add	 eax, 4
  0008c	a3 00 00 00 00	 mov	 DWORD PTR _save_p, eax

; 2037 : 	ht->speed = READINT32(save_p);

  00091	8b 45 fc	 mov	 eax, DWORD PTR _ht$[ebp]
  00094	8b 0d 00 00 00
	00		 mov	 ecx, DWORD PTR _save_p
  0009a	8b 11		 mov	 edx, DWORD PTR [ecx]
  0009c	89 50 20	 mov	 DWORD PTR [eax+32], edx
  0009f	a1 00 00 00 00	 mov	 eax, DWORD PTR _save_p
  000a4	83 c0 04	 add	 eax, 4
  000a7	a3 00 00 00 00	 mov	 DWORD PTR _save_p, eax

; 2038 : 	ht->initDistance = READINT32(save_p);

  000ac	8b 45 fc	 mov	 eax, DWORD PTR _ht$[ebp]
  000af	8b 0d 00 00 00
	00		 mov	 ecx, DWORD PTR _save_p
  000b5	8b 11		 mov	 edx, DWORD PTR [ecx]
  000b7	89 50 24	 mov	 DWORD PTR [eax+36], edx
  000ba	a1 00 00 00 00	 mov	 eax, DWORD PTR _save_p
  000bf	83 c0 04	 add	 eax, 4
  000c2	a3 00 00 00 00	 mov	 DWORD PTR _save_p, eax

; 2039 : 	ht->distance = READINT32(save_p);

  000c7	8b 45 fc	 mov	 eax, DWORD PTR _ht$[ebp]
  000ca	8b 0d 00 00 00
	00		 mov	 ecx, DWORD PTR _save_p
  000d0	8b 11		 mov	 edx, DWORD PTR [ecx]
  000d2	89 50 28	 mov	 DWORD PTR [eax+40], edx
  000d5	a1 00 00 00 00	 mov	 eax, DWORD PTR _save_p
  000da	83 c0 04	 add	 eax, 4
  000dd	a3 00 00 00 00	 mov	 DWORD PTR _save_p, eax

; 2040 : 	ht->closing = READUINT8(save_p);

  000e2	8b 45 fc	 mov	 eax, DWORD PTR _ht$[ebp]
  000e5	8b 0d 00 00 00
	00		 mov	 ecx, DWORD PTR _save_p
  000eb	8a 11		 mov	 dl, BYTE PTR [ecx]
  000ed	88 50 2c	 mov	 BYTE PTR [eax+44], dl
  000f0	a1 00 00 00 00	 mov	 eax, DWORD PTR _save_p
  000f5	83 c0 01	 add	 eax, 1
  000f8	a3 00 00 00 00	 mov	 DWORD PTR _save_p, eax

; 2041 : 	P_AddThinker(&ht->thinker);

  000fd	8b 45 fc	 mov	 eax, DWORD PTR _ht$[ebp]
  00100	50		 push	 eax
  00101	e8 00 00 00 00	 call	 _P_AddThinker
  00106	83 c4 04	 add	 esp, 4

; 2042 : }

  00109	5f		 pop	 edi
  0010a	5e		 pop	 esi
  0010b	5b		 pop	 ebx
  0010c	8b e5		 mov	 esp, ebp
  0010e	5d		 pop	 ebp
  0010f	c3		 ret	 0
_LoadPolyswingdoorThinker ENDP
_TEXT	ENDS
; Function compile flags: /Odtp /ZI
; File C:\Users\RafaTheFox\Downloads\SRB2-Public-master\src\p_saveg.c
;	COMDAT _LoadPolyslidedoorThinker
_TEXT	SEGMENT
_ht$ = -4						; size = 4
_thinker$ = 8						; size = 4
_LoadPolyslidedoorThinker PROC				; COMDAT

; 2005 : {

  00000	55		 push	 ebp
  00001	8b ec		 mov	 ebp, esp
  00003	83 ec 44	 sub	 esp, 68			; 00000044H
  00006	53		 push	 ebx
  00007	56		 push	 esi
  00008	57		 push	 edi

; 2006 : 	polyslidedoor_t *ht = Z_Malloc(sizeof (*ht), PU_LEVSPEC, NULL);

  00009	6a 00		 push	 0
  0000b	6a 00		 push	 0
  0000d	6a 33		 push	 51			; 00000033H
  0000f	6a 44		 push	 68			; 00000044H
  00011	e8 00 00 00 00	 call	 _Z_MallocAlign
  00016	83 c4 10	 add	 esp, 16			; 00000010H
  00019	89 45 fc	 mov	 DWORD PTR _ht$[ebp], eax

; 2007 : 	ht->thinker.function.acp1 = thinker;

  0001c	8b 45 fc	 mov	 eax, DWORD PTR _ht$[ebp]
  0001f	8b 4d 08	 mov	 ecx, DWORD PTR _thinker$[ebp]
  00022	89 48 08	 mov	 DWORD PTR [eax+8], ecx

; 2008 : 	ht->polyObjNum = READINT32(save_p);

  00025	8b 45 fc	 mov	 eax, DWORD PTR _ht$[ebp]
  00028	8b 0d 00 00 00
	00		 mov	 ecx, DWORD PTR _save_p
  0002e	8b 11		 mov	 edx, DWORD PTR [ecx]
  00030	89 50 10	 mov	 DWORD PTR [eax+16], edx
  00033	a1 00 00 00 00	 mov	 eax, DWORD PTR _save_p
  00038	83 c0 04	 add	 eax, 4
  0003b	a3 00 00 00 00	 mov	 DWORD PTR _save_p, eax

; 2009 : 	ht->delay = READINT32(save_p);

  00040	8b 45 fc	 mov	 eax, DWORD PTR _ht$[ebp]
  00043	8b 0d 00 00 00
	00		 mov	 ecx, DWORD PTR _save_p
  00049	8b 11		 mov	 edx, DWORD PTR [ecx]
  0004b	89 50 14	 mov	 DWORD PTR [eax+20], edx
  0004e	a1 00 00 00 00	 mov	 eax, DWORD PTR _save_p
  00053	83 c0 04	 add	 eax, 4
  00056	a3 00 00 00 00	 mov	 DWORD PTR _save_p, eax

; 2010 : 	ht->delayCount = READINT32(save_p);

  0005b	8b 45 fc	 mov	 eax, DWORD PTR _ht$[ebp]
  0005e	8b 0d 00 00 00
	00		 mov	 ecx, DWORD PTR _save_p
  00064	8b 11		 mov	 edx, DWORD PTR [ecx]
  00066	89 50 18	 mov	 DWORD PTR [eax+24], edx
  00069	a1 00 00 00 00	 mov	 eax, DWORD PTR _save_p
  0006e	83 c0 04	 add	 eax, 4
  00071	a3 00 00 00 00	 mov	 DWORD PTR _save_p, eax

; 2011 : 	ht->initSpeed = READINT32(save_p);

  00076	8b 45 fc	 mov	 eax, DWORD PTR _ht$[ebp]
  00079	8b 0d 00 00 00
	00		 mov	 ecx, DWORD PTR _save_p
  0007f	8b 11		 mov	 edx, DWORD PTR [ecx]
  00081	89 50 1c	 mov	 DWORD PTR [eax+28], edx
  00084	a1 00 00 00 00	 mov	 eax, DWORD PTR _save_p
  00089	83 c0 04	 add	 eax, 4
  0008c	a3 00 00 00 00	 mov	 DWORD PTR _save_p, eax

; 2012 : 	ht->speed = READINT32(save_p);

  00091	8b 45 fc	 mov	 eax, DWORD PTR _ht$[ebp]
  00094	8b 0d 00 00 00
	00		 mov	 ecx, DWORD PTR _save_p
  0009a	8b 11		 mov	 edx, DWORD PTR [ecx]
  0009c	89 50 20	 mov	 DWORD PTR [eax+32], edx
  0009f	a1 00 00 00 00	 mov	 eax, DWORD PTR _save_p
  000a4	83 c0 04	 add	 eax, 4
  000a7	a3 00 00 00 00	 mov	 DWORD PTR _save_p, eax

; 2013 : 	ht->initDistance = READINT32(save_p);

  000ac	8b 45 fc	 mov	 eax, DWORD PTR _ht$[ebp]
  000af	8b 0d 00 00 00
	00		 mov	 ecx, DWORD PTR _save_p
  000b5	8b 11		 mov	 edx, DWORD PTR [ecx]
  000b7	89 50 24	 mov	 DWORD PTR [eax+36], edx
  000ba	a1 00 00 00 00	 mov	 eax, DWORD PTR _save_p
  000bf	83 c0 04	 add	 eax, 4
  000c2	a3 00 00 00 00	 mov	 DWORD PTR _save_p, eax

; 2014 : 	ht->distance = READINT32(save_p);

  000c7	8b 45 fc	 mov	 eax, DWORD PTR _ht$[ebp]
  000ca	8b 0d 00 00 00
	00		 mov	 ecx, DWORD PTR _save_p
  000d0	8b 11		 mov	 edx, DWORD PTR [ecx]
  000d2	89 50 28	 mov	 DWORD PTR [eax+40], edx
  000d5	a1 00 00 00 00	 mov	 eax, DWORD PTR _save_p
  000da	83 c0 04	 add	 eax, 4
  000dd	a3 00 00 00 00	 mov	 DWORD PTR _save_p, eax

; 2015 : 	ht->initAngle = READUINT32(save_p);

  000e2	8b 45 fc	 mov	 eax, DWORD PTR _ht$[ebp]
  000e5	8b 0d 00 00 00
	00		 mov	 ecx, DWORD PTR _save_p
  000eb	8b 11		 mov	 edx, DWORD PTR [ecx]
  000ed	89 50 2c	 mov	 DWORD PTR [eax+44], edx
  000f0	a1 00 00 00 00	 mov	 eax, DWORD PTR _save_p
  000f5	83 c0 04	 add	 eax, 4
  000f8	a3 00 00 00 00	 mov	 DWORD PTR _save_p, eax

; 2016 : 	ht->angle = READUINT32(save_p);

  000fd	8b 45 fc	 mov	 eax, DWORD PTR _ht$[ebp]
  00100	8b 0d 00 00 00
	00		 mov	 ecx, DWORD PTR _save_p
  00106	8b 11		 mov	 edx, DWORD PTR [ecx]
  00108	89 50 30	 mov	 DWORD PTR [eax+48], edx
  0010b	a1 00 00 00 00	 mov	 eax, DWORD PTR _save_p
  00110	83 c0 04	 add	 eax, 4
  00113	a3 00 00 00 00	 mov	 DWORD PTR _save_p, eax

; 2017 : 	ht->revAngle = READUINT32(save_p);

  00118	8b 45 fc	 mov	 eax, DWORD PTR _ht$[ebp]
  0011b	8b 0d 00 00 00
	00		 mov	 ecx, DWORD PTR _save_p
  00121	8b 11		 mov	 edx, DWORD PTR [ecx]
  00123	89 50 34	 mov	 DWORD PTR [eax+52], edx
  00126	a1 00 00 00 00	 mov	 eax, DWORD PTR _save_p
  0012b	83 c0 04	 add	 eax, 4
  0012e	a3 00 00 00 00	 mov	 DWORD PTR _save_p, eax

; 2018 : 	ht->momx = READFIXED(save_p);

  00133	8b 45 fc	 mov	 eax, DWORD PTR _ht$[ebp]
  00136	8b 0d 00 00 00
	00		 mov	 ecx, DWORD PTR _save_p
  0013c	8b 11		 mov	 edx, DWORD PTR [ecx]
  0013e	89 50 38	 mov	 DWORD PTR [eax+56], edx
  00141	a1 00 00 00 00	 mov	 eax, DWORD PTR _save_p
  00146	83 c0 04	 add	 eax, 4
  00149	a3 00 00 00 00	 mov	 DWORD PTR _save_p, eax

; 2019 : 	ht->momy = READFIXED(save_p);

  0014e	8b 45 fc	 mov	 eax, DWORD PTR _ht$[ebp]
  00151	8b 0d 00 00 00
	00		 mov	 ecx, DWORD PTR _save_p
  00157	8b 11		 mov	 edx, DWORD PTR [ecx]
  00159	89 50 3c	 mov	 DWORD PTR [eax+60], edx
  0015c	a1 00 00 00 00	 mov	 eax, DWORD PTR _save_p
  00161	83 c0 04	 add	 eax, 4
  00164	a3 00 00 00 00	 mov	 DWORD PTR _save_p, eax

; 2020 : 	ht->closing = READUINT8(save_p);

  00169	8b 45 fc	 mov	 eax, DWORD PTR _ht$[ebp]
  0016c	8b 0d 00 00 00
	00		 mov	 ecx, DWORD PTR _save_p
  00172	8a 11		 mov	 dl, BYTE PTR [ecx]
  00174	88 50 40	 mov	 BYTE PTR [eax+64], dl
  00177	a1 00 00 00 00	 mov	 eax, DWORD PTR _save_p
  0017c	83 c0 01	 add	 eax, 1
  0017f	a3 00 00 00 00	 mov	 DWORD PTR _save_p, eax

; 2021 : 	P_AddThinker(&ht->thinker);

  00184	8b 45 fc	 mov	 eax, DWORD PTR _ht$[ebp]
  00187	50		 push	 eax
  00188	e8 00 00 00 00	 call	 _P_AddThinker
  0018d	83 c4 04	 add	 esp, 4

; 2022 : }

  00190	5f		 pop	 edi
  00191	5e		 pop	 esi
  00192	5b		 pop	 ebx
  00193	8b e5		 mov	 esp, ebp
  00195	5d		 pop	 ebp
  00196	c3		 ret	 0
_LoadPolyslidedoorThinker ENDP
_TEXT	ENDS
; Function compile flags: /Odtp /ZI
; File C:\Users\RafaTheFox\Downloads\SRB2-Public-master\src\p_saveg.c
;	COMDAT _LoadPolywaypointThinker
_TEXT	SEGMENT
_ht$ = -4						; size = 4
_thinker$ = 8						; size = 4
_LoadPolywaypointThinker PROC				; COMDAT

; 1981 : {

  00000	55		 push	 ebp
  00001	8b ec		 mov	 ebp, esp
  00003	83 ec 44	 sub	 esp, 68			; 00000044H
  00006	53		 push	 ebx
  00007	56		 push	 esi
  00008	57		 push	 edi

; 1982 : 	polywaypoint_t *ht = Z_Malloc(sizeof (*ht), PU_LEVSPEC, NULL);

  00009	6a 00		 push	 0
  0000b	6a 00		 push	 0
  0000d	6a 33		 push	 51			; 00000033H
  0000f	6a 34		 push	 52			; 00000034H
  00011	e8 00 00 00 00	 call	 _Z_MallocAlign
  00016	83 c4 10	 add	 esp, 16			; 00000010H
  00019	89 45 fc	 mov	 DWORD PTR _ht$[ebp], eax

; 1983 : 	ht->thinker.function.acp1 = thinker;

  0001c	8b 45 fc	 mov	 eax, DWORD PTR _ht$[ebp]
  0001f	8b 4d 08	 mov	 ecx, DWORD PTR _thinker$[ebp]
  00022	89 48 08	 mov	 DWORD PTR [eax+8], ecx

; 1984 : 	ht->polyObjNum = READINT32(save_p);

  00025	8b 45 fc	 mov	 eax, DWORD PTR _ht$[ebp]
  00028	8b 0d 00 00 00
	00		 mov	 ecx, DWORD PTR _save_p
  0002e	8b 11		 mov	 edx, DWORD PTR [ecx]
  00030	89 50 10	 mov	 DWORD PTR [eax+16], edx
  00033	a1 00 00 00 00	 mov	 eax, DWORD PTR _save_p
  00038	83 c0 04	 add	 eax, 4
  0003b	a3 00 00 00 00	 mov	 DWORD PTR _save_p, eax

; 1985 : 	ht->speed = READINT32(save_p);

  00040	8b 45 fc	 mov	 eax, DWORD PTR _ht$[ebp]
  00043	8b 0d 00 00 00
	00		 mov	 ecx, DWORD PTR _save_p
  00049	8b 11		 mov	 edx, DWORD PTR [ecx]
  0004b	89 50 14	 mov	 DWORD PTR [eax+20], edx
  0004e	a1 00 00 00 00	 mov	 eax, DWORD PTR _save_p
  00053	83 c0 04	 add	 eax, 4
  00056	a3 00 00 00 00	 mov	 DWORD PTR _save_p, eax

; 1986 : 	ht->sequence = READINT32(save_p);

  0005b	8b 45 fc	 mov	 eax, DWORD PTR _ht$[ebp]
  0005e	8b 0d 00 00 00
	00		 mov	 ecx, DWORD PTR _save_p
  00064	8b 11		 mov	 edx, DWORD PTR [ecx]
  00066	89 50 18	 mov	 DWORD PTR [eax+24], edx
  00069	a1 00 00 00 00	 mov	 eax, DWORD PTR _save_p
  0006e	83 c0 04	 add	 eax, 4
  00071	a3 00 00 00 00	 mov	 DWORD PTR _save_p, eax

; 1987 : 	ht->pointnum = READINT32(save_p);

  00076	8b 45 fc	 mov	 eax, DWORD PTR _ht$[ebp]
  00079	8b 0d 00 00 00
	00		 mov	 ecx, DWORD PTR _save_p
  0007f	8b 11		 mov	 edx, DWORD PTR [ecx]
  00081	89 50 1c	 mov	 DWORD PTR [eax+28], edx
  00084	a1 00 00 00 00	 mov	 eax, DWORD PTR _save_p
  00089	83 c0 04	 add	 eax, 4
  0008c	a3 00 00 00 00	 mov	 DWORD PTR _save_p, eax

; 1988 : 	ht->direction = READINT32(save_p);

  00091	8b 45 fc	 mov	 eax, DWORD PTR _ht$[ebp]
  00094	8b 0d 00 00 00
	00		 mov	 ecx, DWORD PTR _save_p
  0009a	8b 11		 mov	 edx, DWORD PTR [ecx]
  0009c	89 50 20	 mov	 DWORD PTR [eax+32], edx
  0009f	a1 00 00 00 00	 mov	 eax, DWORD PTR _save_p
  000a4	83 c0 04	 add	 eax, 4
  000a7	a3 00 00 00 00	 mov	 DWORD PTR _save_p, eax

; 1989 : 	ht->comeback = READUINT8(save_p);

  000ac	8b 45 fc	 mov	 eax, DWORD PTR _ht$[ebp]
  000af	8b 0d 00 00 00
	00		 mov	 ecx, DWORD PTR _save_p
  000b5	8a 11		 mov	 dl, BYTE PTR [ecx]
  000b7	88 50 24	 mov	 BYTE PTR [eax+36], dl
  000ba	a1 00 00 00 00	 mov	 eax, DWORD PTR _save_p
  000bf	83 c0 01	 add	 eax, 1
  000c2	a3 00 00 00 00	 mov	 DWORD PTR _save_p, eax

; 1990 : 	ht->wrap = READUINT8(save_p);

  000c7	8b 45 fc	 mov	 eax, DWORD PTR _ht$[ebp]
  000ca	8b 0d 00 00 00
	00		 mov	 ecx, DWORD PTR _save_p
  000d0	8a 11		 mov	 dl, BYTE PTR [ecx]
  000d2	88 50 25	 mov	 BYTE PTR [eax+37], dl
  000d5	a1 00 00 00 00	 mov	 eax, DWORD PTR _save_p
  000da	83 c0 01	 add	 eax, 1
  000dd	a3 00 00 00 00	 mov	 DWORD PTR _save_p, eax

; 1991 : 	ht->continuous = READUINT8(save_p);

  000e2	8b 45 fc	 mov	 eax, DWORD PTR _ht$[ebp]
  000e5	8b 0d 00 00 00
	00		 mov	 ecx, DWORD PTR _save_p
  000eb	8a 11		 mov	 dl, BYTE PTR [ecx]
  000ed	88 50 26	 mov	 BYTE PTR [eax+38], dl
  000f0	a1 00 00 00 00	 mov	 eax, DWORD PTR _save_p
  000f5	83 c0 01	 add	 eax, 1
  000f8	a3 00 00 00 00	 mov	 DWORD PTR _save_p, eax

; 1992 : 	ht->stophere = READUINT8(save_p);

  000fd	8b 45 fc	 mov	 eax, DWORD PTR _ht$[ebp]
  00100	8b 0d 00 00 00
	00		 mov	 ecx, DWORD PTR _save_p
  00106	8a 11		 mov	 dl, BYTE PTR [ecx]
  00108	88 50 27	 mov	 BYTE PTR [eax+39], dl
  0010b	a1 00 00 00 00	 mov	 eax, DWORD PTR _save_p
  00110	83 c0 01	 add	 eax, 1
  00113	a3 00 00 00 00	 mov	 DWORD PTR _save_p, eax

; 1993 : 	ht->diffx = READFIXED(save_p);

  00118	8b 45 fc	 mov	 eax, DWORD PTR _ht$[ebp]
  0011b	8b 0d 00 00 00
	00		 mov	 ecx, DWORD PTR _save_p
  00121	8b 11		 mov	 edx, DWORD PTR [ecx]
  00123	89 50 28	 mov	 DWORD PTR [eax+40], edx
  00126	a1 00 00 00 00	 mov	 eax, DWORD PTR _save_p
  0012b	83 c0 04	 add	 eax, 4
  0012e	a3 00 00 00 00	 mov	 DWORD PTR _save_p, eax

; 1994 : 	ht->diffy = READFIXED(save_p);

  00133	8b 45 fc	 mov	 eax, DWORD PTR _ht$[ebp]
  00136	8b 0d 00 00 00
	00		 mov	 ecx, DWORD PTR _save_p
  0013c	8b 11		 mov	 edx, DWORD PTR [ecx]
  0013e	89 50 2c	 mov	 DWORD PTR [eax+44], edx
  00141	a1 00 00 00 00	 mov	 eax, DWORD PTR _save_p
  00146	83 c0 04	 add	 eax, 4
  00149	a3 00 00 00 00	 mov	 DWORD PTR _save_p, eax

; 1995 : 	ht->diffz = READFIXED(save_p);

  0014e	8b 45 fc	 mov	 eax, DWORD PTR _ht$[ebp]
  00151	8b 0d 00 00 00
	00		 mov	 ecx, DWORD PTR _save_p
  00157	8b 11		 mov	 edx, DWORD PTR [ecx]
  00159	89 50 30	 mov	 DWORD PTR [eax+48], edx
  0015c	a1 00 00 00 00	 mov	 eax, DWORD PTR _save_p
  00161	83 c0 04	 add	 eax, 4
  00164	a3 00 00 00 00	 mov	 DWORD PTR _save_p, eax

; 1996 : 	P_AddThinker(&ht->thinker);

  00169	8b 45 fc	 mov	 eax, DWORD PTR _ht$[ebp]
  0016c	50		 push	 eax
  0016d	e8 00 00 00 00	 call	 _P_AddThinker
  00172	83 c4 04	 add	 esp, 4

; 1997 : }

  00175	5f		 pop	 edi
  00176	5e		 pop	 esi
  00177	5b		 pop	 ebx
  00178	8b e5		 mov	 esp, ebp
  0017a	5d		 pop	 ebp
  0017b	c3		 ret	 0
_LoadPolywaypointThinker ENDP
_TEXT	ENDS
; Function compile flags: /Odtp /ZI
; File C:\Users\RafaTheFox\Downloads\SRB2-Public-master\src\p_saveg.c
;	COMDAT _LoadPolymoveThinker
_TEXT	SEGMENT
_ht$ = -4						; size = 4
_thinker$ = 8						; size = 4
_LoadPolymoveThinker PROC				; COMDAT

; 1963 : {

  00000	55		 push	 ebp
  00001	8b ec		 mov	 ebp, esp
  00003	83 ec 44	 sub	 esp, 68			; 00000044H
  00006	53		 push	 ebx
  00007	56		 push	 esi
  00008	57		 push	 edi

; 1964 : 	polymove_t *ht = Z_Malloc(sizeof (*ht), PU_LEVSPEC, NULL);

  00009	6a 00		 push	 0
  0000b	6a 00		 push	 0
  0000d	6a 33		 push	 51			; 00000033H
  0000f	6a 28		 push	 40			; 00000028H
  00011	e8 00 00 00 00	 call	 _Z_MallocAlign
  00016	83 c4 10	 add	 esp, 16			; 00000010H
  00019	89 45 fc	 mov	 DWORD PTR _ht$[ebp], eax

; 1965 : 	ht->thinker.function.acp1 = thinker;

  0001c	8b 45 fc	 mov	 eax, DWORD PTR _ht$[ebp]
  0001f	8b 4d 08	 mov	 ecx, DWORD PTR _thinker$[ebp]
  00022	89 48 08	 mov	 DWORD PTR [eax+8], ecx

; 1966 : 	ht->polyObjNum = READINT32(save_p);

  00025	8b 45 fc	 mov	 eax, DWORD PTR _ht$[ebp]
  00028	8b 0d 00 00 00
	00		 mov	 ecx, DWORD PTR _save_p
  0002e	8b 11		 mov	 edx, DWORD PTR [ecx]
  00030	89 50 10	 mov	 DWORD PTR [eax+16], edx
  00033	a1 00 00 00 00	 mov	 eax, DWORD PTR _save_p
  00038	83 c0 04	 add	 eax, 4
  0003b	a3 00 00 00 00	 mov	 DWORD PTR _save_p, eax

; 1967 : 	ht->speed = READINT32(save_p);

  00040	8b 45 fc	 mov	 eax, DWORD PTR _ht$[ebp]
  00043	8b 0d 00 00 00
	00		 mov	 ecx, DWORD PTR _save_p
  00049	8b 11		 mov	 edx, DWORD PTR [ecx]
  0004b	89 50 14	 mov	 DWORD PTR [eax+20], edx
  0004e	a1 00 00 00 00	 mov	 eax, DWORD PTR _save_p
  00053	83 c0 04	 add	 eax, 4
  00056	a3 00 00 00 00	 mov	 DWORD PTR _save_p, eax

; 1968 : 	ht->momx = READFIXED(save_p);

  0005b	8b 45 fc	 mov	 eax, DWORD PTR _ht$[ebp]
  0005e	8b 0d 00 00 00
	00		 mov	 ecx, DWORD PTR _save_p
  00064	8b 11		 mov	 edx, DWORD PTR [ecx]
  00066	89 50 18	 mov	 DWORD PTR [eax+24], edx
  00069	a1 00 00 00 00	 mov	 eax, DWORD PTR _save_p
  0006e	83 c0 04	 add	 eax, 4
  00071	a3 00 00 00 00	 mov	 DWORD PTR _save_p, eax

; 1969 : 	ht->momy = READFIXED(save_p);

  00076	8b 45 fc	 mov	 eax, DWORD PTR _ht$[ebp]
  00079	8b 0d 00 00 00
	00		 mov	 ecx, DWORD PTR _save_p
  0007f	8b 11		 mov	 edx, DWORD PTR [ecx]
  00081	89 50 1c	 mov	 DWORD PTR [eax+28], edx
  00084	a1 00 00 00 00	 mov	 eax, DWORD PTR _save_p
  00089	83 c0 04	 add	 eax, 4
  0008c	a3 00 00 00 00	 mov	 DWORD PTR _save_p, eax

; 1970 : 	ht->distance = READINT32(save_p);

  00091	8b 45 fc	 mov	 eax, DWORD PTR _ht$[ebp]
  00094	8b 0d 00 00 00
	00		 mov	 ecx, DWORD PTR _save_p
  0009a	8b 11		 mov	 edx, DWORD PTR [ecx]
  0009c	89 50 20	 mov	 DWORD PTR [eax+32], edx
  0009f	a1 00 00 00 00	 mov	 eax, DWORD PTR _save_p
  000a4	83 c0 04	 add	 eax, 4
  000a7	a3 00 00 00 00	 mov	 DWORD PTR _save_p, eax

; 1971 : 	ht->angle = READANGLE(save_p);

  000ac	8b 45 fc	 mov	 eax, DWORD PTR _ht$[ebp]
  000af	8b 0d 00 00 00
	00		 mov	 ecx, DWORD PTR _save_p
  000b5	8b 11		 mov	 edx, DWORD PTR [ecx]
  000b7	89 50 24	 mov	 DWORD PTR [eax+36], edx
  000ba	a1 00 00 00 00	 mov	 eax, DWORD PTR _save_p
  000bf	83 c0 04	 add	 eax, 4
  000c2	a3 00 00 00 00	 mov	 DWORD PTR _save_p, eax

; 1972 : 	P_AddThinker(&ht->thinker);

  000c7	8b 45 fc	 mov	 eax, DWORD PTR _ht$[ebp]
  000ca	50		 push	 eax
  000cb	e8 00 00 00 00	 call	 _P_AddThinker
  000d0	83 c4 04	 add	 esp, 4

; 1973 : }

  000d3	5f		 pop	 edi
  000d4	5e		 pop	 esi
  000d5	5b		 pop	 ebx
  000d6	8b e5		 mov	 esp, ebp
  000d8	5d		 pop	 ebp
  000d9	c3		 ret	 0
_LoadPolymoveThinker ENDP
_TEXT	ENDS
; Function compile flags: /Odtp /ZI
; File C:\Users\RafaTheFox\Downloads\SRB2-Public-master\src\p_saveg.c
;	COMDAT _LoadPolyrotatetThinker
_TEXT	SEGMENT
_ht$ = -4						; size = 4
_thinker$ = 8						; size = 4
_LoadPolyrotatetThinker PROC				; COMDAT

; 1948 : {

  00000	55		 push	 ebp
  00001	8b ec		 mov	 ebp, esp
  00003	83 ec 44	 sub	 esp, 68			; 00000044H
  00006	53		 push	 ebx
  00007	56		 push	 esi
  00008	57		 push	 edi

; 1949 : 	polyrotate_t *ht = Z_Malloc(sizeof (*ht), PU_LEVSPEC, NULL);

  00009	6a 00		 push	 0
  0000b	6a 00		 push	 0
  0000d	6a 33		 push	 51			; 00000033H
  0000f	6a 1c		 push	 28			; 0000001cH
  00011	e8 00 00 00 00	 call	 _Z_MallocAlign
  00016	83 c4 10	 add	 esp, 16			; 00000010H
  00019	89 45 fc	 mov	 DWORD PTR _ht$[ebp], eax

; 1950 : 	ht->thinker.function.acp1 = thinker;

  0001c	8b 45 fc	 mov	 eax, DWORD PTR _ht$[ebp]
  0001f	8b 4d 08	 mov	 ecx, DWORD PTR _thinker$[ebp]
  00022	89 48 08	 mov	 DWORD PTR [eax+8], ecx

; 1951 : 	ht->polyObjNum = READINT32(save_p);

  00025	8b 45 fc	 mov	 eax, DWORD PTR _ht$[ebp]
  00028	8b 0d 00 00 00
	00		 mov	 ecx, DWORD PTR _save_p
  0002e	8b 11		 mov	 edx, DWORD PTR [ecx]
  00030	89 50 10	 mov	 DWORD PTR [eax+16], edx
  00033	a1 00 00 00 00	 mov	 eax, DWORD PTR _save_p
  00038	83 c0 04	 add	 eax, 4
  0003b	a3 00 00 00 00	 mov	 DWORD PTR _save_p, eax

; 1952 : 	ht->speed = READINT32(save_p);

  00040	8b 45 fc	 mov	 eax, DWORD PTR _ht$[ebp]
  00043	8b 0d 00 00 00
	00		 mov	 ecx, DWORD PTR _save_p
  00049	8b 11		 mov	 edx, DWORD PTR [ecx]
  0004b	89 50 14	 mov	 DWORD PTR [eax+20], edx
  0004e	a1 00 00 00 00	 mov	 eax, DWORD PTR _save_p
  00053	83 c0 04	 add	 eax, 4
  00056	a3 00 00 00 00	 mov	 DWORD PTR _save_p, eax

; 1953 : 	ht->distance = READINT32(save_p);

  0005b	8b 45 fc	 mov	 eax, DWORD PTR _ht$[ebp]
  0005e	8b 0d 00 00 00
	00		 mov	 ecx, DWORD PTR _save_p
  00064	8b 11		 mov	 edx, DWORD PTR [ecx]
  00066	89 50 18	 mov	 DWORD PTR [eax+24], edx
  00069	a1 00 00 00 00	 mov	 eax, DWORD PTR _save_p
  0006e	83 c0 04	 add	 eax, 4
  00071	a3 00 00 00 00	 mov	 DWORD PTR _save_p, eax

; 1954 : 	P_AddThinker(&ht->thinker);

  00076	8b 45 fc	 mov	 eax, DWORD PTR _ht$[ebp]
  00079	50		 push	 eax
  0007a	e8 00 00 00 00	 call	 _P_AddThinker
  0007f	83 c4 04	 add	 esp, 4

; 1955 : }

  00082	5f		 pop	 edi
  00083	5e		 pop	 esi
  00084	5b		 pop	 ebx
  00085	8b e5		 mov	 esp, ebp
  00087	5d		 pop	 ebp
  00088	c3		 ret	 0
_LoadPolyrotatetThinker ENDP
_TEXT	ENDS
; Function compile flags: /Odtp /ZI
; File C:\Users\RafaTheFox\Downloads\SRB2-Public-master\src\p_saveg.c
;	COMDAT _LoadDisappearThinker
_TEXT	SEGMENT
_ht$ = -4						; size = 4
_thinker$ = 8						; size = 4
_LoadDisappearThinker PROC				; COMDAT

; 1927 : {

  00000	55		 push	 ebp
  00001	8b ec		 mov	 ebp, esp
  00003	83 ec 44	 sub	 esp, 68			; 00000044H
  00006	53		 push	 ebx
  00007	56		 push	 esi
  00008	57		 push	 edi

; 1928 : 	disappear_t *ht = Z_Malloc(sizeof (*ht), PU_LEVSPEC, NULL);

  00009	6a 00		 push	 0
  0000b	6a 00		 push	 0
  0000d	6a 33		 push	 51			; 00000033H
  0000f	6a 2c		 push	 44			; 0000002cH
  00011	e8 00 00 00 00	 call	 _Z_MallocAlign
  00016	83 c4 10	 add	 esp, 16			; 00000010H
  00019	89 45 fc	 mov	 DWORD PTR _ht$[ebp], eax

; 1929 : 	ht->thinker.function.acp1 = thinker;

  0001c	8b 45 fc	 mov	 eax, DWORD PTR _ht$[ebp]
  0001f	8b 4d 08	 mov	 ecx, DWORD PTR _thinker$[ebp]
  00022	89 48 08	 mov	 DWORD PTR [eax+8], ecx

; 1930 : 	ht->appeartime = READUINT32(save_p);

  00025	8b 45 fc	 mov	 eax, DWORD PTR _ht$[ebp]
  00028	8b 0d 00 00 00
	00		 mov	 ecx, DWORD PTR _save_p
  0002e	8b 11		 mov	 edx, DWORD PTR [ecx]
  00030	89 50 10	 mov	 DWORD PTR [eax+16], edx
  00033	a1 00 00 00 00	 mov	 eax, DWORD PTR _save_p
  00038	83 c0 04	 add	 eax, 4
  0003b	a3 00 00 00 00	 mov	 DWORD PTR _save_p, eax

; 1931 : 	ht->disappeartime = READUINT32(save_p);

  00040	8b 45 fc	 mov	 eax, DWORD PTR _ht$[ebp]
  00043	8b 0d 00 00 00
	00		 mov	 ecx, DWORD PTR _save_p
  00049	8b 11		 mov	 edx, DWORD PTR [ecx]
  0004b	89 50 14	 mov	 DWORD PTR [eax+20], edx
  0004e	a1 00 00 00 00	 mov	 eax, DWORD PTR _save_p
  00053	83 c0 04	 add	 eax, 4
  00056	a3 00 00 00 00	 mov	 DWORD PTR _save_p, eax

; 1932 : 	ht->offset = READUINT32(save_p);

  0005b	8b 45 fc	 mov	 eax, DWORD PTR _ht$[ebp]
  0005e	8b 0d 00 00 00
	00		 mov	 ecx, DWORD PTR _save_p
  00064	8b 11		 mov	 edx, DWORD PTR [ecx]
  00066	89 50 18	 mov	 DWORD PTR [eax+24], edx
  00069	a1 00 00 00 00	 mov	 eax, DWORD PTR _save_p
  0006e	83 c0 04	 add	 eax, 4
  00071	a3 00 00 00 00	 mov	 DWORD PTR _save_p, eax

; 1933 : 	ht->timer = READUINT32(save_p);

  00076	8b 45 fc	 mov	 eax, DWORD PTR _ht$[ebp]
  00079	8b 0d 00 00 00
	00		 mov	 ecx, DWORD PTR _save_p
  0007f	8b 11		 mov	 edx, DWORD PTR [ecx]
  00081	89 50 1c	 mov	 DWORD PTR [eax+28], edx
  00084	a1 00 00 00 00	 mov	 eax, DWORD PTR _save_p
  00089	83 c0 04	 add	 eax, 4
  0008c	a3 00 00 00 00	 mov	 DWORD PTR _save_p, eax

; 1934 : 	ht->affectee = READINT32(save_p);

  00091	8b 45 fc	 mov	 eax, DWORD PTR _ht$[ebp]
  00094	8b 0d 00 00 00
	00		 mov	 ecx, DWORD PTR _save_p
  0009a	8b 11		 mov	 edx, DWORD PTR [ecx]
  0009c	89 50 20	 mov	 DWORD PTR [eax+32], edx
  0009f	a1 00 00 00 00	 mov	 eax, DWORD PTR _save_p
  000a4	83 c0 04	 add	 eax, 4
  000a7	a3 00 00 00 00	 mov	 DWORD PTR _save_p, eax

; 1935 : 	ht->sourceline = READINT32(save_p);

  000ac	8b 45 fc	 mov	 eax, DWORD PTR _ht$[ebp]
  000af	8b 0d 00 00 00
	00		 mov	 ecx, DWORD PTR _save_p
  000b5	8b 11		 mov	 edx, DWORD PTR [ecx]
  000b7	89 50 24	 mov	 DWORD PTR [eax+36], edx
  000ba	a1 00 00 00 00	 mov	 eax, DWORD PTR _save_p
  000bf	83 c0 04	 add	 eax, 4
  000c2	a3 00 00 00 00	 mov	 DWORD PTR _save_p, eax

; 1936 : 	ht->exists = READINT32(save_p);

  000c7	8b 45 fc	 mov	 eax, DWORD PTR _ht$[ebp]
  000ca	8b 0d 00 00 00
	00		 mov	 ecx, DWORD PTR _save_p
  000d0	8b 11		 mov	 edx, DWORD PTR [ecx]
  000d2	89 50 28	 mov	 DWORD PTR [eax+40], edx
  000d5	a1 00 00 00 00	 mov	 eax, DWORD PTR _save_p
  000da	83 c0 04	 add	 eax, 4
  000dd	a3 00 00 00 00	 mov	 DWORD PTR _save_p, eax

; 1937 : 	P_AddThinker(&ht->thinker);

  000e2	8b 45 fc	 mov	 eax, DWORD PTR _ht$[ebp]
  000e5	50		 push	 eax
  000e6	e8 00 00 00 00	 call	 _P_AddThinker
  000eb	83 c4 04	 add	 esp, 4

; 1938 : }

  000ee	5f		 pop	 edi
  000ef	5e		 pop	 esi
  000f0	5b		 pop	 ebx
  000f1	8b e5		 mov	 esp, ebp
  000f3	5d		 pop	 ebp
  000f4	c3		 ret	 0
_LoadDisappearThinker ENDP
_TEXT	ENDS
; Function compile flags: /Odtp /ZI
; File C:\Users\RafaTheFox\Downloads\SRB2-Public-master\src\p_saveg.c
;	COMDAT _LoadExecutorThinker
_TEXT	SEGMENT
tv73 = -72						; size = 4
tv78 = -72						; size = 4
_ht$ = -4						; size = 4
_thinker$ = 8						; size = 4
_LoadExecutorThinker PROC				; COMDAT

; 1912 : {

  00000	55		 push	 ebp
  00001	8b ec		 mov	 ebp, esp
  00003	83 ec 48	 sub	 esp, 72			; 00000048H
  00006	53		 push	 ebx
  00007	56		 push	 esi
  00008	57		 push	 edi

; 1913 : 	executor_t *ht = Z_Malloc(sizeof (*ht), PU_LEVSPEC, NULL);

  00009	6a 00		 push	 0
  0000b	6a 00		 push	 0
  0000d	6a 33		 push	 51			; 00000033H
  0000f	6a 1c		 push	 28			; 0000001cH
  00011	e8 00 00 00 00	 call	 _Z_MallocAlign
  00016	83 c4 10	 add	 esp, 16			; 00000010H
  00019	89 45 fc	 mov	 DWORD PTR _ht$[ebp], eax

; 1914 : 	ht->thinker.function.acp1 = thinker;

  0001c	8b 45 fc	 mov	 eax, DWORD PTR _ht$[ebp]
  0001f	8b 4d 08	 mov	 ecx, DWORD PTR _thinker$[ebp]
  00022	89 48 08	 mov	 DWORD PTR [eax+8], ecx

; 1915 : 	ht->line = LoadLine(READUINT32(save_p));

  00025	a1 00 00 00 00	 mov	 eax, DWORD PTR _save_p
  0002a	8b 08		 mov	 ecx, DWORD PTR [eax]
  0002c	89 4d b8	 mov	 DWORD PTR tv73[ebp], ecx
  0002f	8b 15 00 00 00
	00		 mov	 edx, DWORD PTR _save_p
  00035	83 c2 04	 add	 edx, 4
  00038	89 15 00 00 00
	00		 mov	 DWORD PTR _save_p, edx
  0003e	8b 45 b8	 mov	 eax, DWORD PTR tv73[ebp]
  00041	50		 push	 eax
  00042	e8 00 00 00 00	 call	 _LoadLine
  00047	83 c4 04	 add	 esp, 4
  0004a	8b 4d fc	 mov	 ecx, DWORD PTR _ht$[ebp]
  0004d	89 41 10	 mov	 DWORD PTR [ecx+16], eax

; 1916 : 	ht->caller = LoadMobj(READUINT32(save_p));

  00050	a1 00 00 00 00	 mov	 eax, DWORD PTR _save_p
  00055	8b 08		 mov	 ecx, DWORD PTR [eax]
  00057	89 4d b8	 mov	 DWORD PTR tv78[ebp], ecx
  0005a	8b 15 00 00 00
	00		 mov	 edx, DWORD PTR _save_p
  00060	83 c2 04	 add	 edx, 4
  00063	89 15 00 00 00
	00		 mov	 DWORD PTR _save_p, edx
  00069	8b 45 b8	 mov	 eax, DWORD PTR tv78[ebp]
  0006c	50		 push	 eax
  0006d	e8 00 00 00 00	 call	 _LoadMobj
  00072	83 c4 04	 add	 esp, 4
  00075	8b 4d fc	 mov	 ecx, DWORD PTR _ht$[ebp]
  00078	89 41 14	 mov	 DWORD PTR [ecx+20], eax

; 1917 : 	ht->timer = READINT32(save_p);

  0007b	8b 45 fc	 mov	 eax, DWORD PTR _ht$[ebp]
  0007e	8b 0d 00 00 00
	00		 mov	 ecx, DWORD PTR _save_p
  00084	8b 11		 mov	 edx, DWORD PTR [ecx]
  00086	89 50 18	 mov	 DWORD PTR [eax+24], edx
  00089	a1 00 00 00 00	 mov	 eax, DWORD PTR _save_p
  0008e	83 c0 04	 add	 eax, 4
  00091	a3 00 00 00 00	 mov	 DWORD PTR _save_p, eax

; 1918 : 	P_AddThinker(&ht->thinker);

  00096	8b 45 fc	 mov	 eax, DWORD PTR _ht$[ebp]
  00099	50		 push	 eax
  0009a	e8 00 00 00 00	 call	 _P_AddThinker
  0009f	83 c4 04	 add	 esp, 4

; 1919 : }

  000a2	5f		 pop	 edi
  000a3	5e		 pop	 esi
  000a4	5b		 pop	 ebx
  000a5	8b e5		 mov	 esp, ebp
  000a7	5d		 pop	 ebp
  000a8	c3		 ret	 0
_LoadExecutorThinker ENDP
_TEXT	ENDS
; Function compile flags: /Odtp /ZI
; File C:\Users\RafaTheFox\Downloads\SRB2-Public-master\src\p_saveg.c
;	COMDAT _LoadLightlevelThinker
_TEXT	SEGMENT
tv73 = -72						; size = 4
_ht$ = -4						; size = 4
_thinker$ = 8						; size = 4
_LoadLightlevelThinker PROC				; COMDAT

; 1895 : {

  00000	55		 push	 ebp
  00001	8b ec		 mov	 ebp, esp
  00003	83 ec 48	 sub	 esp, 72			; 00000048H
  00006	53		 push	 ebx
  00007	56		 push	 esi
  00008	57		 push	 edi

; 1896 : 	lightlevel_t *ht = Z_Malloc(sizeof (*ht), PU_LEVSPEC, NULL);

  00009	6a 00		 push	 0
  0000b	6a 00		 push	 0
  0000d	6a 33		 push	 51			; 00000033H
  0000f	6a 1c		 push	 28			; 0000001cH
  00011	e8 00 00 00 00	 call	 _Z_MallocAlign
  00016	83 c4 10	 add	 esp, 16			; 00000010H
  00019	89 45 fc	 mov	 DWORD PTR _ht$[ebp], eax

; 1897 : 	ht->thinker.function.acp1 = thinker;

  0001c	8b 45 fc	 mov	 eax, DWORD PTR _ht$[ebp]
  0001f	8b 4d 08	 mov	 ecx, DWORD PTR _thinker$[ebp]
  00022	89 48 08	 mov	 DWORD PTR [eax+8], ecx

; 1898 : 	ht->sector = LoadSector(READUINT32(save_p));

  00025	a1 00 00 00 00	 mov	 eax, DWORD PTR _save_p
  0002a	8b 08		 mov	 ecx, DWORD PTR [eax]
  0002c	89 4d b8	 mov	 DWORD PTR tv73[ebp], ecx
  0002f	8b 15 00 00 00
	00		 mov	 edx, DWORD PTR _save_p
  00035	83 c2 04	 add	 edx, 4
  00038	89 15 00 00 00
	00		 mov	 DWORD PTR _save_p, edx
  0003e	8b 45 b8	 mov	 eax, DWORD PTR tv73[ebp]
  00041	50		 push	 eax
  00042	e8 00 00 00 00	 call	 _LoadSector
  00047	83 c4 04	 add	 esp, 4
  0004a	8b 4d fc	 mov	 ecx, DWORD PTR _ht$[ebp]
  0004d	89 41 10	 mov	 DWORD PTR [ecx+16], eax

; 1899 : 	ht->destlevel = READINT32(save_p);

  00050	8b 45 fc	 mov	 eax, DWORD PTR _ht$[ebp]
  00053	8b 0d 00 00 00
	00		 mov	 ecx, DWORD PTR _save_p
  00059	8b 11		 mov	 edx, DWORD PTR [ecx]
  0005b	89 50 14	 mov	 DWORD PTR [eax+20], edx
  0005e	a1 00 00 00 00	 mov	 eax, DWORD PTR _save_p
  00063	83 c0 04	 add	 eax, 4
  00066	a3 00 00 00 00	 mov	 DWORD PTR _save_p, eax

; 1900 : 	ht->speed = READINT32(save_p);

  0006b	8b 45 fc	 mov	 eax, DWORD PTR _ht$[ebp]
  0006e	8b 0d 00 00 00
	00		 mov	 ecx, DWORD PTR _save_p
  00074	8b 11		 mov	 edx, DWORD PTR [ecx]
  00076	89 50 18	 mov	 DWORD PTR [eax+24], edx
  00079	a1 00 00 00 00	 mov	 eax, DWORD PTR _save_p
  0007e	83 c0 04	 add	 eax, 4
  00081	a3 00 00 00 00	 mov	 DWORD PTR _save_p, eax

; 1901 : 	if (ht->sector)

  00086	8b 45 fc	 mov	 eax, DWORD PTR _ht$[ebp]
  00089	83 78 10 00	 cmp	 DWORD PTR [eax+16], 0
  0008d	74 0c		 je	 SHORT $LN2@LoadLightl

; 1902 : 		ht->sector->lightingdata = ht;

  0008f	8b 45 fc	 mov	 eax, DWORD PTR _ht$[ebp]
  00092	8b 48 10	 mov	 ecx, DWORD PTR [eax+16]
  00095	8b 55 fc	 mov	 edx, DWORD PTR _ht$[ebp]
  00098	89 51 4c	 mov	 DWORD PTR [ecx+76], edx
$LN2@LoadLightl:

; 1903 : 	P_AddThinker(&ht->thinker);

  0009b	8b 45 fc	 mov	 eax, DWORD PTR _ht$[ebp]
  0009e	50		 push	 eax
  0009f	e8 00 00 00 00	 call	 _P_AddThinker
  000a4	83 c4 04	 add	 esp, 4

; 1904 : }

  000a7	5f		 pop	 edi
  000a8	5e		 pop	 esi
  000a9	5b		 pop	 ebx
  000aa	8b e5		 mov	 esp, ebp
  000ac	5d		 pop	 ebp
  000ad	c3		 ret	 0
_LoadLightlevelThinker ENDP
_TEXT	ENDS
; Function compile flags: /Odtp /ZI
; File C:\Users\RafaTheFox\Downloads\SRB2-Public-master\src\p_saveg.c
;	COMDAT _LoadLaserThinker
_TEXT	SEGMENT
tv73 = -72						; size = 4
tv79 = -72						; size = 4
tv84 = -72						; size = 4
_ht$ = -4						; size = 4
_thinker$ = 8						; size = 4
_LoadLaserThinker PROC					; COMDAT

; 1879 : {

  00000	55		 push	 ebp
  00001	8b ec		 mov	 ebp, esp
  00003	83 ec 48	 sub	 esp, 72			; 00000048H
  00006	53		 push	 ebx
  00007	56		 push	 esi
  00008	57		 push	 edi

; 1880 : 	laserthink_t *ht = Z_Malloc(sizeof (*ht), PU_LEVSPEC, NULL);

  00009	6a 00		 push	 0
  0000b	6a 00		 push	 0
  0000d	6a 33		 push	 51			; 00000033H
  0000f	6a 20		 push	 32			; 00000020H
  00011	e8 00 00 00 00	 call	 _Z_MallocAlign
  00016	83 c4 10	 add	 esp, 16			; 00000010H
  00019	89 45 fc	 mov	 DWORD PTR _ht$[ebp], eax

; 1881 : 	ht->thinker.function.acp1 = thinker;

  0001c	8b 45 fc	 mov	 eax, DWORD PTR _ht$[ebp]
  0001f	8b 4d 08	 mov	 ecx, DWORD PTR _thinker$[ebp]
  00022	89 48 08	 mov	 DWORD PTR [eax+8], ecx

; 1882 : 	ht->sector = LoadSector(READUINT32(save_p));

  00025	a1 00 00 00 00	 mov	 eax, DWORD PTR _save_p
  0002a	8b 08		 mov	 ecx, DWORD PTR [eax]
  0002c	89 4d b8	 mov	 DWORD PTR tv73[ebp], ecx
  0002f	8b 15 00 00 00
	00		 mov	 edx, DWORD PTR _save_p
  00035	83 c2 04	 add	 edx, 4
  00038	89 15 00 00 00
	00		 mov	 DWORD PTR _save_p, edx
  0003e	8b 45 b8	 mov	 eax, DWORD PTR tv73[ebp]
  00041	50		 push	 eax
  00042	e8 00 00 00 00	 call	 _LoadSector
  00047	83 c4 04	 add	 esp, 4
  0004a	8b 4d fc	 mov	 ecx, DWORD PTR _ht$[ebp]
  0004d	89 41 14	 mov	 DWORD PTR [ecx+20], eax

; 1883 : 	ht->ffloor = NULL;

  00050	8b 45 fc	 mov	 eax, DWORD PTR _ht$[ebp]
  00053	c7 40 10 00 00
	00 00		 mov	 DWORD PTR [eax+16], 0

; 1884 : 	ht->sec = LoadSector(READUINT32(save_p));

  0005a	a1 00 00 00 00	 mov	 eax, DWORD PTR _save_p
  0005f	8b 08		 mov	 ecx, DWORD PTR [eax]
  00061	89 4d b8	 mov	 DWORD PTR tv79[ebp], ecx
  00064	8b 15 00 00 00
	00		 mov	 edx, DWORD PTR _save_p
  0006a	83 c2 04	 add	 edx, 4
  0006d	89 15 00 00 00
	00		 mov	 DWORD PTR _save_p, edx
  00073	8b 45 b8	 mov	 eax, DWORD PTR tv79[ebp]
  00076	50		 push	 eax
  00077	e8 00 00 00 00	 call	 _LoadSector
  0007c	83 c4 04	 add	 esp, 4
  0007f	8b 4d fc	 mov	 ecx, DWORD PTR _ht$[ebp]
  00082	89 41 18	 mov	 DWORD PTR [ecx+24], eax

; 1885 : 	ht->sourceline = LoadLine(READUINT32(save_p));

  00085	a1 00 00 00 00	 mov	 eax, DWORD PTR _save_p
  0008a	8b 08		 mov	 ecx, DWORD PTR [eax]
  0008c	89 4d b8	 mov	 DWORD PTR tv84[ebp], ecx
  0008f	8b 15 00 00 00
	00		 mov	 edx, DWORD PTR _save_p
  00095	83 c2 04	 add	 edx, 4
  00098	89 15 00 00 00
	00		 mov	 DWORD PTR _save_p, edx
  0009e	8b 45 b8	 mov	 eax, DWORD PTR tv84[ebp]
  000a1	50		 push	 eax
  000a2	e8 00 00 00 00	 call	 _LoadLine
  000a7	83 c4 04	 add	 esp, 4
  000aa	8b 4d fc	 mov	 ecx, DWORD PTR _ht$[ebp]
  000ad	89 41 1c	 mov	 DWORD PTR [ecx+28], eax

; 1886 : 	P_AddThinker(&ht->thinker);

  000b0	8b 45 fc	 mov	 eax, DWORD PTR _ht$[ebp]
  000b3	50		 push	 eax
  000b4	e8 00 00 00 00	 call	 _P_AddThinker
  000b9	83 c4 04	 add	 esp, 4

; 1887 : }

  000bc	5f		 pop	 edi
  000bd	5e		 pop	 esi
  000be	5b		 pop	 ebx
  000bf	8b e5		 mov	 esp, ebp
  000c1	5d		 pop	 ebp
  000c2	c3		 ret	 0
_LoadLaserThinker ENDP
_TEXT	ENDS
; Function compile flags: /Odtp /ZI
; File C:\Users\RafaTheFox\Downloads\SRB2-Public-master\src\p_saveg.c
;	COMDAT _LoadPusherThinker
_TEXT	SEGMENT
_ht$ = -4						; size = 4
_thinker$ = 8						; size = 4
_LoadPusherThinker PROC					; COMDAT

; 1853 : {

  00000	55		 push	 ebp
  00001	8b ec		 mov	 ebp, esp
  00003	83 ec 44	 sub	 esp, 68			; 00000044H
  00006	53		 push	 ebx
  00007	56		 push	 esi
  00008	57		 push	 edi

; 1854 : 	pusher_t *ht = Z_Malloc(sizeof (*ht), PU_LEVSPEC, NULL);

  00009	6a 00		 push	 0
  0000b	6a 00		 push	 0
  0000d	6a 33		 push	 51			; 00000033H
  0000f	6a 48		 push	 72			; 00000048H
  00011	e8 00 00 00 00	 call	 _Z_MallocAlign
  00016	83 c4 10	 add	 esp, 16			; 00000010H
  00019	89 45 fc	 mov	 DWORD PTR _ht$[ebp], eax

; 1855 : 	ht->thinker.function.acp1 = thinker;

  0001c	8b 45 fc	 mov	 eax, DWORD PTR _ht$[ebp]
  0001f	8b 4d 08	 mov	 ecx, DWORD PTR _thinker$[ebp]
  00022	89 48 08	 mov	 DWORD PTR [eax+8], ecx

; 1856 : 	ht->type = READUINT8(save_p);

  00025	a1 00 00 00 00	 mov	 eax, DWORD PTR _save_p
  0002a	0f b6 08	 movzx	 ecx, BYTE PTR [eax]
  0002d	8b 55 fc	 mov	 edx, DWORD PTR _ht$[ebp]
  00030	89 4a 10	 mov	 DWORD PTR [edx+16], ecx
  00033	a1 00 00 00 00	 mov	 eax, DWORD PTR _save_p
  00038	83 c0 01	 add	 eax, 1
  0003b	a3 00 00 00 00	 mov	 DWORD PTR _save_p, eax

; 1857 : 	ht->x_mag = READINT32(save_p);

  00040	8b 45 fc	 mov	 eax, DWORD PTR _ht$[ebp]
  00043	8b 0d 00 00 00
	00		 mov	 ecx, DWORD PTR _save_p
  00049	8b 11		 mov	 edx, DWORD PTR [ecx]
  0004b	89 50 18	 mov	 DWORD PTR [eax+24], edx
  0004e	a1 00 00 00 00	 mov	 eax, DWORD PTR _save_p
  00053	83 c0 04	 add	 eax, 4
  00056	a3 00 00 00 00	 mov	 DWORD PTR _save_p, eax

; 1858 : 	ht->y_mag = READINT32(save_p);

  0005b	8b 45 fc	 mov	 eax, DWORD PTR _ht$[ebp]
  0005e	8b 0d 00 00 00
	00		 mov	 ecx, DWORD PTR _save_p
  00064	8b 11		 mov	 edx, DWORD PTR [ecx]
  00066	89 50 1c	 mov	 DWORD PTR [eax+28], edx
  00069	a1 00 00 00 00	 mov	 eax, DWORD PTR _save_p
  0006e	83 c0 04	 add	 eax, 4
  00071	a3 00 00 00 00	 mov	 DWORD PTR _save_p, eax

; 1859 : 	ht->magnitude = READINT32(save_p);

  00076	8b 45 fc	 mov	 eax, DWORD PTR _ht$[ebp]
  00079	8b 0d 00 00 00
	00		 mov	 ecx, DWORD PTR _save_p
  0007f	8b 11		 mov	 edx, DWORD PTR [ecx]
  00081	89 50 20	 mov	 DWORD PTR [eax+32], edx
  00084	a1 00 00 00 00	 mov	 eax, DWORD PTR _save_p
  00089	83 c0 04	 add	 eax, 4
  0008c	a3 00 00 00 00	 mov	 DWORD PTR _save_p, eax

; 1860 : 	ht->radius = READINT32(save_p);

  00091	8b 45 fc	 mov	 eax, DWORD PTR _ht$[ebp]
  00094	8b 0d 00 00 00
	00		 mov	 ecx, DWORD PTR _save_p
  0009a	8b 11		 mov	 edx, DWORD PTR [ecx]
  0009c	89 50 24	 mov	 DWORD PTR [eax+36], edx
  0009f	a1 00 00 00 00	 mov	 eax, DWORD PTR _save_p
  000a4	83 c0 04	 add	 eax, 4
  000a7	a3 00 00 00 00	 mov	 DWORD PTR _save_p, eax

; 1861 : 	ht->x = READINT32(save_p);

  000ac	8b 45 fc	 mov	 eax, DWORD PTR _ht$[ebp]
  000af	8b 0d 00 00 00
	00		 mov	 ecx, DWORD PTR _save_p
  000b5	8b 11		 mov	 edx, DWORD PTR [ecx]
  000b7	89 50 28	 mov	 DWORD PTR [eax+40], edx
  000ba	a1 00 00 00 00	 mov	 eax, DWORD PTR _save_p
  000bf	83 c0 04	 add	 eax, 4
  000c2	a3 00 00 00 00	 mov	 DWORD PTR _save_p, eax

; 1862 : 	ht->y = READINT32(save_p);

  000c7	8b 45 fc	 mov	 eax, DWORD PTR _ht$[ebp]
  000ca	8b 0d 00 00 00
	00		 mov	 ecx, DWORD PTR _save_p
  000d0	8b 11		 mov	 edx, DWORD PTR [ecx]
  000d2	89 50 2c	 mov	 DWORD PTR [eax+44], edx
  000d5	a1 00 00 00 00	 mov	 eax, DWORD PTR _save_p
  000da	83 c0 04	 add	 eax, 4
  000dd	a3 00 00 00 00	 mov	 DWORD PTR _save_p, eax

; 1863 : 	ht->z = READINT32(save_p);

  000e2	8b 45 fc	 mov	 eax, DWORD PTR _ht$[ebp]
  000e5	8b 0d 00 00 00
	00		 mov	 ecx, DWORD PTR _save_p
  000eb	8b 11		 mov	 edx, DWORD PTR [ecx]
  000ed	89 50 30	 mov	 DWORD PTR [eax+48], edx
  000f0	a1 00 00 00 00	 mov	 eax, DWORD PTR _save_p
  000f5	83 c0 04	 add	 eax, 4
  000f8	a3 00 00 00 00	 mov	 DWORD PTR _save_p, eax

; 1864 : 	ht->affectee = READINT32(save_p);

  000fd	8b 45 fc	 mov	 eax, DWORD PTR _ht$[ebp]
  00100	8b 0d 00 00 00
	00		 mov	 ecx, DWORD PTR _save_p
  00106	8b 11		 mov	 edx, DWORD PTR [ecx]
  00108	89 50 34	 mov	 DWORD PTR [eax+52], edx
  0010b	a1 00 00 00 00	 mov	 eax, DWORD PTR _save_p
  00110	83 c0 04	 add	 eax, 4
  00113	a3 00 00 00 00	 mov	 DWORD PTR _save_p, eax

; 1865 : 	ht->roverpusher = READUINT8(save_p);

  00118	8b 45 fc	 mov	 eax, DWORD PTR _ht$[ebp]
  0011b	8b 0d 00 00 00
	00		 mov	 ecx, DWORD PTR _save_p
  00121	8a 11		 mov	 dl, BYTE PTR [ecx]
  00123	88 50 38	 mov	 BYTE PTR [eax+56], dl
  00126	a1 00 00 00 00	 mov	 eax, DWORD PTR _save_p
  0012b	83 c0 01	 add	 eax, 1
  0012e	a3 00 00 00 00	 mov	 DWORD PTR _save_p, eax

; 1866 : 	ht->referrer = READINT32(save_p);

  00133	8b 45 fc	 mov	 eax, DWORD PTR _ht$[ebp]
  00136	8b 0d 00 00 00
	00		 mov	 ecx, DWORD PTR _save_p
  0013c	8b 11		 mov	 edx, DWORD PTR [ecx]
  0013e	89 50 3c	 mov	 DWORD PTR [eax+60], edx
  00141	a1 00 00 00 00	 mov	 eax, DWORD PTR _save_p
  00146	83 c0 04	 add	 eax, 4
  00149	a3 00 00 00 00	 mov	 DWORD PTR _save_p, eax

; 1867 : 	ht->exclusive = READINT32(save_p);

  0014e	8b 45 fc	 mov	 eax, DWORD PTR _ht$[ebp]
  00151	8b 0d 00 00 00
	00		 mov	 ecx, DWORD PTR _save_p
  00157	8b 11		 mov	 edx, DWORD PTR [ecx]
  00159	89 50 40	 mov	 DWORD PTR [eax+64], edx
  0015c	a1 00 00 00 00	 mov	 eax, DWORD PTR _save_p
  00161	83 c0 04	 add	 eax, 4
  00164	a3 00 00 00 00	 mov	 DWORD PTR _save_p, eax

; 1868 : 	ht->slider = READINT32(save_p);

  00169	8b 45 fc	 mov	 eax, DWORD PTR _ht$[ebp]
  0016c	8b 0d 00 00 00
	00		 mov	 ecx, DWORD PTR _save_p
  00172	8b 11		 mov	 edx, DWORD PTR [ecx]
  00174	89 50 44	 mov	 DWORD PTR [eax+68], edx
  00177	a1 00 00 00 00	 mov	 eax, DWORD PTR _save_p
  0017c	83 c0 04	 add	 eax, 4
  0017f	a3 00 00 00 00	 mov	 DWORD PTR _save_p, eax

; 1869 : 	ht->source = P_GetPushThing(ht->affectee);

  00184	8b 45 fc	 mov	 eax, DWORD PTR _ht$[ebp]
  00187	8b 48 34	 mov	 ecx, DWORD PTR [eax+52]
  0018a	51		 push	 ecx
  0018b	e8 00 00 00 00	 call	 _P_GetPushThing
  00190	83 c4 04	 add	 esp, 4
  00193	8b 55 fc	 mov	 edx, DWORD PTR _ht$[ebp]
  00196	89 42 14	 mov	 DWORD PTR [edx+20], eax

; 1870 : 	P_AddThinker(&ht->thinker);

  00199	8b 45 fc	 mov	 eax, DWORD PTR _ht$[ebp]
  0019c	50		 push	 eax
  0019d	e8 00 00 00 00	 call	 _P_AddThinker
  001a2	83 c4 04	 add	 esp, 4

; 1871 : }

  001a5	5f		 pop	 edi
  001a6	5e		 pop	 esi
  001a7	5b		 pop	 ebx
  001a8	8b e5		 mov	 esp, ebp
  001aa	5d		 pop	 ebp
  001ab	c3		 ret	 0
_LoadPusherThinker ENDP
_TEXT	ENDS
; Function compile flags: /Odtp /ZI
; File C:\Users\RafaTheFox\Downloads\SRB2-Public-master\src\p_saveg.c
;	COMDAT _LoadFrictionThinker
_TEXT	SEGMENT
_ht$ = -4						; size = 4
_thinker$ = 8						; size = 4
_LoadFrictionThinker PROC				; COMDAT

; 1836 : {

  00000	55		 push	 ebp
  00001	8b ec		 mov	 ebp, esp
  00003	83 ec 44	 sub	 esp, 68			; 00000044H
  00006	53		 push	 ebx
  00007	56		 push	 esi
  00008	57		 push	 edi

; 1837 : 	friction_t *ht = Z_Malloc(sizeof (*ht), PU_LEVSPEC, NULL);

  00009	6a 00		 push	 0
  0000b	6a 00		 push	 0
  0000d	6a 33		 push	 51			; 00000033H
  0000f	6a 24		 push	 36			; 00000024H
  00011	e8 00 00 00 00	 call	 _Z_MallocAlign
  00016	83 c4 10	 add	 esp, 16			; 00000010H
  00019	89 45 fc	 mov	 DWORD PTR _ht$[ebp], eax

; 1838 : 	ht->thinker.function.acp1 = thinker;

  0001c	8b 45 fc	 mov	 eax, DWORD PTR _ht$[ebp]
  0001f	8b 4d 08	 mov	 ecx, DWORD PTR _thinker$[ebp]
  00022	89 48 08	 mov	 DWORD PTR [eax+8], ecx

; 1839 : 	ht->friction = READINT32(save_p);

  00025	8b 45 fc	 mov	 eax, DWORD PTR _ht$[ebp]
  00028	8b 0d 00 00 00
	00		 mov	 ecx, DWORD PTR _save_p
  0002e	8b 11		 mov	 edx, DWORD PTR [ecx]
  00030	89 50 10	 mov	 DWORD PTR [eax+16], edx
  00033	a1 00 00 00 00	 mov	 eax, DWORD PTR _save_p
  00038	83 c0 04	 add	 eax, 4
  0003b	a3 00 00 00 00	 mov	 DWORD PTR _save_p, eax

; 1840 : 	ht->movefactor = READINT32(save_p);

  00040	8b 45 fc	 mov	 eax, DWORD PTR _ht$[ebp]
  00043	8b 0d 00 00 00
	00		 mov	 ecx, DWORD PTR _save_p
  00049	8b 11		 mov	 edx, DWORD PTR [ecx]
  0004b	89 50 14	 mov	 DWORD PTR [eax+20], edx
  0004e	a1 00 00 00 00	 mov	 eax, DWORD PTR _save_p
  00053	83 c0 04	 add	 eax, 4
  00056	a3 00 00 00 00	 mov	 DWORD PTR _save_p, eax

; 1841 : 	ht->affectee = READINT32(save_p);

  0005b	8b 45 fc	 mov	 eax, DWORD PTR _ht$[ebp]
  0005e	8b 0d 00 00 00
	00		 mov	 ecx, DWORD PTR _save_p
  00064	8b 11		 mov	 edx, DWORD PTR [ecx]
  00066	89 50 18	 mov	 DWORD PTR [eax+24], edx
  00069	a1 00 00 00 00	 mov	 eax, DWORD PTR _save_p
  0006e	83 c0 04	 add	 eax, 4
  00071	a3 00 00 00 00	 mov	 DWORD PTR _save_p, eax

; 1842 : 	ht->referrer = READINT32(save_p);

  00076	8b 45 fc	 mov	 eax, DWORD PTR _ht$[ebp]
  00079	8b 0d 00 00 00
	00		 mov	 ecx, DWORD PTR _save_p
  0007f	8b 11		 mov	 edx, DWORD PTR [ecx]
  00081	89 50 1c	 mov	 DWORD PTR [eax+28], edx
  00084	a1 00 00 00 00	 mov	 eax, DWORD PTR _save_p
  00089	83 c0 04	 add	 eax, 4
  0008c	a3 00 00 00 00	 mov	 DWORD PTR _save_p, eax

; 1843 : 	ht->roverfriction = READUINT8(save_p);

  00091	8b 45 fc	 mov	 eax, DWORD PTR _ht$[ebp]
  00094	8b 0d 00 00 00
	00		 mov	 ecx, DWORD PTR _save_p
  0009a	8a 11		 mov	 dl, BYTE PTR [ecx]
  0009c	88 50 20	 mov	 BYTE PTR [eax+32], dl
  0009f	a1 00 00 00 00	 mov	 eax, DWORD PTR _save_p
  000a4	83 c0 01	 add	 eax, 1
  000a7	a3 00 00 00 00	 mov	 DWORD PTR _save_p, eax

; 1844 : 	P_AddThinker(&ht->thinker);

  000ac	8b 45 fc	 mov	 eax, DWORD PTR _ht$[ebp]
  000af	50		 push	 eax
  000b0	e8 00 00 00 00	 call	 _P_AddThinker
  000b5	83 c4 04	 add	 esp, 4

; 1845 : }

  000b8	5f		 pop	 edi
  000b9	5e		 pop	 esi
  000ba	5b		 pop	 ebx
  000bb	8b e5		 mov	 esp, ebp
  000bd	5d		 pop	 ebp
  000be	c3		 ret	 0
_LoadFrictionThinker ENDP
_TEXT	ENDS
; Function compile flags: /Odtp /ZI
; File C:\Users\RafaTheFox\Downloads\SRB2-Public-master\src\p_saveg.c
;	COMDAT _LoadScrollThinker
_TEXT	SEGMENT
_ht$ = -4						; size = 4
_thinker$ = 8						; size = 4
_LoadScrollThinker PROC					; COMDAT

; 1814 : {

  00000	55		 push	 ebp
  00001	8b ec		 mov	 ebp, esp
  00003	83 ec 44	 sub	 esp, 68			; 00000044H
  00006	53		 push	 ebx
  00007	56		 push	 esi
  00008	57		 push	 edi

; 1815 : 	scroll_t *ht = Z_Malloc(sizeof (*ht), PU_LEVSPEC, NULL);

  00009	6a 00		 push	 0
  0000b	6a 00		 push	 0
  0000d	6a 33		 push	 51			; 00000033H
  0000f	6a 38		 push	 56			; 00000038H
  00011	e8 00 00 00 00	 call	 _Z_MallocAlign
  00016	83 c4 10	 add	 esp, 16			; 00000010H
  00019	89 45 fc	 mov	 DWORD PTR _ht$[ebp], eax

; 1816 : 	ht->thinker.function.acp1 = thinker;

  0001c	8b 45 fc	 mov	 eax, DWORD PTR _ht$[ebp]
  0001f	8b 4d 08	 mov	 ecx, DWORD PTR _thinker$[ebp]
  00022	89 48 08	 mov	 DWORD PTR [eax+8], ecx

; 1817 : 	ht->dx = READFIXED(save_p);

  00025	8b 45 fc	 mov	 eax, DWORD PTR _ht$[ebp]
  00028	8b 0d 00 00 00
	00		 mov	 ecx, DWORD PTR _save_p
  0002e	8b 11		 mov	 edx, DWORD PTR [ecx]
  00030	89 50 10	 mov	 DWORD PTR [eax+16], edx
  00033	a1 00 00 00 00	 mov	 eax, DWORD PTR _save_p
  00038	83 c0 04	 add	 eax, 4
  0003b	a3 00 00 00 00	 mov	 DWORD PTR _save_p, eax

; 1818 : 	ht->dy = READFIXED(save_p);

  00040	8b 45 fc	 mov	 eax, DWORD PTR _ht$[ebp]
  00043	8b 0d 00 00 00
	00		 mov	 ecx, DWORD PTR _save_p
  00049	8b 11		 mov	 edx, DWORD PTR [ecx]
  0004b	89 50 14	 mov	 DWORD PTR [eax+20], edx
  0004e	a1 00 00 00 00	 mov	 eax, DWORD PTR _save_p
  00053	83 c0 04	 add	 eax, 4
  00056	a3 00 00 00 00	 mov	 DWORD PTR _save_p, eax

; 1819 : 	ht->affectee = READINT32(save_p);

  0005b	8b 45 fc	 mov	 eax, DWORD PTR _ht$[ebp]
  0005e	8b 0d 00 00 00
	00		 mov	 ecx, DWORD PTR _save_p
  00064	8b 11		 mov	 edx, DWORD PTR [ecx]
  00066	89 50 18	 mov	 DWORD PTR [eax+24], edx
  00069	a1 00 00 00 00	 mov	 eax, DWORD PTR _save_p
  0006e	83 c0 04	 add	 eax, 4
  00071	a3 00 00 00 00	 mov	 DWORD PTR _save_p, eax

; 1820 : 	ht->control = READINT32(save_p);

  00076	8b 45 fc	 mov	 eax, DWORD PTR _ht$[ebp]
  00079	8b 0d 00 00 00
	00		 mov	 ecx, DWORD PTR _save_p
  0007f	8b 11		 mov	 edx, DWORD PTR [ecx]
  00081	89 50 1c	 mov	 DWORD PTR [eax+28], edx
  00084	a1 00 00 00 00	 mov	 eax, DWORD PTR _save_p
  00089	83 c0 04	 add	 eax, 4
  0008c	a3 00 00 00 00	 mov	 DWORD PTR _save_p, eax

; 1821 : 	ht->last_height = READFIXED(save_p);

  00091	8b 45 fc	 mov	 eax, DWORD PTR _ht$[ebp]
  00094	8b 0d 00 00 00
	00		 mov	 ecx, DWORD PTR _save_p
  0009a	8b 11		 mov	 edx, DWORD PTR [ecx]
  0009c	89 50 20	 mov	 DWORD PTR [eax+32], edx
  0009f	a1 00 00 00 00	 mov	 eax, DWORD PTR _save_p
  000a4	83 c0 04	 add	 eax, 4
  000a7	a3 00 00 00 00	 mov	 DWORD PTR _save_p, eax

; 1822 : 	ht->vdx = READFIXED(save_p);

  000ac	8b 45 fc	 mov	 eax, DWORD PTR _ht$[ebp]
  000af	8b 0d 00 00 00
	00		 mov	 ecx, DWORD PTR _save_p
  000b5	8b 11		 mov	 edx, DWORD PTR [ecx]
  000b7	89 50 24	 mov	 DWORD PTR [eax+36], edx
  000ba	a1 00 00 00 00	 mov	 eax, DWORD PTR _save_p
  000bf	83 c0 04	 add	 eax, 4
  000c2	a3 00 00 00 00	 mov	 DWORD PTR _save_p, eax

; 1823 : 	ht->vdy = READFIXED(save_p);

  000c7	8b 45 fc	 mov	 eax, DWORD PTR _ht$[ebp]
  000ca	8b 0d 00 00 00
	00		 mov	 ecx, DWORD PTR _save_p
  000d0	8b 11		 mov	 edx, DWORD PTR [ecx]
  000d2	89 50 28	 mov	 DWORD PTR [eax+40], edx
  000d5	a1 00 00 00 00	 mov	 eax, DWORD PTR _save_p
  000da	83 c0 04	 add	 eax, 4
  000dd	a3 00 00 00 00	 mov	 DWORD PTR _save_p, eax

; 1824 : 	ht->accel = READINT32(save_p);

  000e2	8b 45 fc	 mov	 eax, DWORD PTR _ht$[ebp]
  000e5	8b 0d 00 00 00
	00		 mov	 ecx, DWORD PTR _save_p
  000eb	8b 11		 mov	 edx, DWORD PTR [ecx]
  000ed	89 50 2c	 mov	 DWORD PTR [eax+44], edx
  000f0	a1 00 00 00 00	 mov	 eax, DWORD PTR _save_p
  000f5	83 c0 04	 add	 eax, 4
  000f8	a3 00 00 00 00	 mov	 DWORD PTR _save_p, eax

; 1825 : 	ht->exclusive = READINT32(save_p);

  000fd	8b 45 fc	 mov	 eax, DWORD PTR _ht$[ebp]
  00100	8b 0d 00 00 00
	00		 mov	 ecx, DWORD PTR _save_p
  00106	8b 11		 mov	 edx, DWORD PTR [ecx]
  00108	89 50 30	 mov	 DWORD PTR [eax+48], edx
  0010b	a1 00 00 00 00	 mov	 eax, DWORD PTR _save_p
  00110	83 c0 04	 add	 eax, 4
  00113	a3 00 00 00 00	 mov	 DWORD PTR _save_p, eax

; 1826 : 	ht->type = READUINT8(save_p);

  00118	a1 00 00 00 00	 mov	 eax, DWORD PTR _save_p
  0011d	0f b6 08	 movzx	 ecx, BYTE PTR [eax]
  00120	8b 55 fc	 mov	 edx, DWORD PTR _ht$[ebp]
  00123	89 4a 34	 mov	 DWORD PTR [edx+52], ecx
  00126	a1 00 00 00 00	 mov	 eax, DWORD PTR _save_p
  0012b	83 c0 01	 add	 eax, 1
  0012e	a3 00 00 00 00	 mov	 DWORD PTR _save_p, eax

; 1827 : 	P_AddThinker(&ht->thinker);

  00133	8b 45 fc	 mov	 eax, DWORD PTR _ht$[ebp]
  00136	50		 push	 eax
  00137	e8 00 00 00 00	 call	 _P_AddThinker
  0013c	83 c4 04	 add	 esp, 4

; 1828 : }

  0013f	5f		 pop	 edi
  00140	5e		 pop	 esi
  00141	5b		 pop	 ebx
  00142	8b e5		 mov	 esp, ebp
  00144	5d		 pop	 ebp
  00145	c3		 ret	 0
_LoadScrollThinker ENDP
_TEXT	ENDS
; Function compile flags: /Odtp /ZI
; File C:\Users\RafaTheFox\Downloads\SRB2-Public-master\src\p_saveg.c
;	COMDAT _LoadElevatorThinker
_TEXT	SEGMENT
tv76 = -72						; size = 4
tv81 = -72						; size = 4
tv142 = -72						; size = 4
tv147 = -72						; size = 4
_ht$ = -4						; size = 4
_thinker$ = 8						; size = 4
_floorOrCeiling$ = 12					; size = 1
_LoadElevatorThinker PROC				; COMDAT

; 1776 : {

  00000	55		 push	 ebp
  00001	8b ec		 mov	 ebp, esp
  00003	83 ec 48	 sub	 esp, 72			; 00000048H
  00006	53		 push	 ebx
  00007	56		 push	 esi
  00008	57		 push	 edi

; 1777 : 	elevator_t *ht = Z_Malloc(sizeof (*ht), PU_LEVSPEC, NULL);

  00009	6a 00		 push	 0
  0000b	6a 00		 push	 0
  0000d	6a 33		 push	 51			; 00000033H
  0000f	6a 54		 push	 84			; 00000054H
  00011	e8 00 00 00 00	 call	 _Z_MallocAlign
  00016	83 c4 10	 add	 esp, 16			; 00000010H
  00019	89 45 fc	 mov	 DWORD PTR _ht$[ebp], eax

; 1778 : 	ht->thinker.function.acp1 = thinker;

  0001c	8b 45 fc	 mov	 eax, DWORD PTR _ht$[ebp]
  0001f	8b 4d 08	 mov	 ecx, DWORD PTR _thinker$[ebp]
  00022	89 48 08	 mov	 DWORD PTR [eax+8], ecx

; 1779 : 	ht->type = READUINT8(save_p);

  00025	a1 00 00 00 00	 mov	 eax, DWORD PTR _save_p
  0002a	0f b6 08	 movzx	 ecx, BYTE PTR [eax]
  0002d	8b 55 fc	 mov	 edx, DWORD PTR _ht$[ebp]
  00030	89 4a 10	 mov	 DWORD PTR [edx+16], ecx
  00033	a1 00 00 00 00	 mov	 eax, DWORD PTR _save_p
  00038	83 c0 01	 add	 eax, 1
  0003b	a3 00 00 00 00	 mov	 DWORD PTR _save_p, eax

; 1780 : 	ht->sector = LoadSector(READUINT32(save_p));

  00040	a1 00 00 00 00	 mov	 eax, DWORD PTR _save_p
  00045	8b 08		 mov	 ecx, DWORD PTR [eax]
  00047	89 4d b8	 mov	 DWORD PTR tv76[ebp], ecx
  0004a	8b 15 00 00 00
	00		 mov	 edx, DWORD PTR _save_p
  00050	83 c2 04	 add	 edx, 4
  00053	89 15 00 00 00
	00		 mov	 DWORD PTR _save_p, edx
  00059	8b 45 b8	 mov	 eax, DWORD PTR tv76[ebp]
  0005c	50		 push	 eax
  0005d	e8 00 00 00 00	 call	 _LoadSector
  00062	83 c4 04	 add	 esp, 4
  00065	8b 4d fc	 mov	 ecx, DWORD PTR _ht$[ebp]
  00068	89 41 14	 mov	 DWORD PTR [ecx+20], eax

; 1781 : 	ht->actionsector = LoadSector(READUINT32(save_p));

  0006b	a1 00 00 00 00	 mov	 eax, DWORD PTR _save_p
  00070	8b 08		 mov	 ecx, DWORD PTR [eax]
  00072	89 4d b8	 mov	 DWORD PTR tv81[ebp], ecx
  00075	8b 15 00 00 00
	00		 mov	 edx, DWORD PTR _save_p
  0007b	83 c2 04	 add	 edx, 4
  0007e	89 15 00 00 00
	00		 mov	 DWORD PTR _save_p, edx
  00084	8b 45 b8	 mov	 eax, DWORD PTR tv81[ebp]
  00087	50		 push	 eax
  00088	e8 00 00 00 00	 call	 _LoadSector
  0008d	83 c4 04	 add	 esp, 4
  00090	8b 4d fc	 mov	 ecx, DWORD PTR _ht$[ebp]
  00093	89 41 18	 mov	 DWORD PTR [ecx+24], eax

; 1782 : 	ht->direction = READINT32(save_p);

  00096	8b 45 fc	 mov	 eax, DWORD PTR _ht$[ebp]
  00099	8b 0d 00 00 00
	00		 mov	 ecx, DWORD PTR _save_p
  0009f	8b 11		 mov	 edx, DWORD PTR [ecx]
  000a1	89 50 1c	 mov	 DWORD PTR [eax+28], edx
  000a4	a1 00 00 00 00	 mov	 eax, DWORD PTR _save_p
  000a9	83 c0 04	 add	 eax, 4
  000ac	a3 00 00 00 00	 mov	 DWORD PTR _save_p, eax

; 1783 : 	ht->floordestheight = READFIXED(save_p);

  000b1	8b 45 fc	 mov	 eax, DWORD PTR _ht$[ebp]
  000b4	8b 0d 00 00 00
	00		 mov	 ecx, DWORD PTR _save_p
  000ba	8b 11		 mov	 edx, DWORD PTR [ecx]
  000bc	89 50 20	 mov	 DWORD PTR [eax+32], edx
  000bf	a1 00 00 00 00	 mov	 eax, DWORD PTR _save_p
  000c4	83 c0 04	 add	 eax, 4
  000c7	a3 00 00 00 00	 mov	 DWORD PTR _save_p, eax

; 1784 : 	ht->ceilingdestheight = READFIXED(save_p);

  000cc	8b 45 fc	 mov	 eax, DWORD PTR _ht$[ebp]
  000cf	8b 0d 00 00 00
	00		 mov	 ecx, DWORD PTR _save_p
  000d5	8b 11		 mov	 edx, DWORD PTR [ecx]
  000d7	89 50 24	 mov	 DWORD PTR [eax+36], edx
  000da	a1 00 00 00 00	 mov	 eax, DWORD PTR _save_p
  000df	83 c0 04	 add	 eax, 4
  000e2	a3 00 00 00 00	 mov	 DWORD PTR _save_p, eax

; 1785 : 	ht->speed = READFIXED(save_p);

  000e7	8b 45 fc	 mov	 eax, DWORD PTR _ht$[ebp]
  000ea	8b 0d 00 00 00
	00		 mov	 ecx, DWORD PTR _save_p
  000f0	8b 11		 mov	 edx, DWORD PTR [ecx]
  000f2	89 50 28	 mov	 DWORD PTR [eax+40], edx
  000f5	a1 00 00 00 00	 mov	 eax, DWORD PTR _save_p
  000fa	83 c0 04	 add	 eax, 4
  000fd	a3 00 00 00 00	 mov	 DWORD PTR _save_p, eax

; 1786 : 	ht->origspeed = READFIXED(save_p);

  00102	8b 45 fc	 mov	 eax, DWORD PTR _ht$[ebp]
  00105	8b 0d 00 00 00
	00		 mov	 ecx, DWORD PTR _save_p
  0010b	8b 11		 mov	 edx, DWORD PTR [ecx]
  0010d	89 50 2c	 mov	 DWORD PTR [eax+44], edx
  00110	a1 00 00 00 00	 mov	 eax, DWORD PTR _save_p
  00115	83 c0 04	 add	 eax, 4
  00118	a3 00 00 00 00	 mov	 DWORD PTR _save_p, eax

; 1787 : 	ht->low = READFIXED(save_p);

  0011d	8b 45 fc	 mov	 eax, DWORD PTR _ht$[ebp]
  00120	8b 0d 00 00 00
	00		 mov	 ecx, DWORD PTR _save_p
  00126	8b 11		 mov	 edx, DWORD PTR [ecx]
  00128	89 50 30	 mov	 DWORD PTR [eax+48], edx
  0012b	a1 00 00 00 00	 mov	 eax, DWORD PTR _save_p
  00130	83 c0 04	 add	 eax, 4
  00133	a3 00 00 00 00	 mov	 DWORD PTR _save_p, eax

; 1788 : 	ht->high = READFIXED(save_p);

  00138	8b 45 fc	 mov	 eax, DWORD PTR _ht$[ebp]
  0013b	8b 0d 00 00 00
	00		 mov	 ecx, DWORD PTR _save_p
  00141	8b 11		 mov	 edx, DWORD PTR [ecx]
  00143	89 50 34	 mov	 DWORD PTR [eax+52], edx
  00146	a1 00 00 00 00	 mov	 eax, DWORD PTR _save_p
  0014b	83 c0 04	 add	 eax, 4
  0014e	a3 00 00 00 00	 mov	 DWORD PTR _save_p, eax

; 1789 : 	ht->distance = READFIXED(save_p);

  00153	8b 45 fc	 mov	 eax, DWORD PTR _ht$[ebp]
  00156	8b 0d 00 00 00
	00		 mov	 ecx, DWORD PTR _save_p
  0015c	8b 11		 mov	 edx, DWORD PTR [ecx]
  0015e	89 50 38	 mov	 DWORD PTR [eax+56], edx
  00161	a1 00 00 00 00	 mov	 eax, DWORD PTR _save_p
  00166	83 c0 04	 add	 eax, 4
  00169	a3 00 00 00 00	 mov	 DWORD PTR _save_p, eax

; 1790 : 	ht->delay = READFIXED(save_p);

  0016e	8b 45 fc	 mov	 eax, DWORD PTR _ht$[ebp]
  00171	8b 0d 00 00 00
	00		 mov	 ecx, DWORD PTR _save_p
  00177	8b 11		 mov	 edx, DWORD PTR [ecx]
  00179	89 50 3c	 mov	 DWORD PTR [eax+60], edx
  0017c	a1 00 00 00 00	 mov	 eax, DWORD PTR _save_p
  00181	83 c0 04	 add	 eax, 4
  00184	a3 00 00 00 00	 mov	 DWORD PTR _save_p, eax

; 1791 : 	ht->delaytimer = READFIXED(save_p);

  00189	8b 45 fc	 mov	 eax, DWORD PTR _ht$[ebp]
  0018c	8b 0d 00 00 00
	00		 mov	 ecx, DWORD PTR _save_p
  00192	8b 11		 mov	 edx, DWORD PTR [ecx]
  00194	89 50 40	 mov	 DWORD PTR [eax+64], edx
  00197	a1 00 00 00 00	 mov	 eax, DWORD PTR _save_p
  0019c	83 c0 04	 add	 eax, 4
  0019f	a3 00 00 00 00	 mov	 DWORD PTR _save_p, eax

; 1792 : 	ht->floorwasheight = READFIXED(save_p);

  001a4	8b 45 fc	 mov	 eax, DWORD PTR _ht$[ebp]
  001a7	8b 0d 00 00 00
	00		 mov	 ecx, DWORD PTR _save_p
  001ad	8b 11		 mov	 edx, DWORD PTR [ecx]
  001af	89 50 44	 mov	 DWORD PTR [eax+68], edx
  001b2	a1 00 00 00 00	 mov	 eax, DWORD PTR _save_p
  001b7	83 c0 04	 add	 eax, 4
  001ba	a3 00 00 00 00	 mov	 DWORD PTR _save_p, eax

; 1793 : 	ht->ceilingwasheight = READFIXED(save_p);

  001bf	8b 45 fc	 mov	 eax, DWORD PTR _ht$[ebp]
  001c2	8b 0d 00 00 00
	00		 mov	 ecx, DWORD PTR _save_p
  001c8	8b 11		 mov	 edx, DWORD PTR [ecx]
  001ca	89 50 48	 mov	 DWORD PTR [eax+72], edx
  001cd	a1 00 00 00 00	 mov	 eax, DWORD PTR _save_p
  001d2	83 c0 04	 add	 eax, 4
  001d5	a3 00 00 00 00	 mov	 DWORD PTR _save_p, eax

; 1794 : 	ht->player = LoadPlayer(READUINT32(save_p)); // was dummy

  001da	a1 00 00 00 00	 mov	 eax, DWORD PTR _save_p
  001df	8b 08		 mov	 ecx, DWORD PTR [eax]
  001e1	89 4d b8	 mov	 DWORD PTR tv142[ebp], ecx
  001e4	8b 15 00 00 00
	00		 mov	 edx, DWORD PTR _save_p
  001ea	83 c2 04	 add	 edx, 4
  001ed	89 15 00 00 00
	00		 mov	 DWORD PTR _save_p, edx
  001f3	8b 45 b8	 mov	 eax, DWORD PTR tv142[ebp]
  001f6	50		 push	 eax
  001f7	e8 00 00 00 00	 call	 _LoadPlayer
  001fc	83 c4 04	 add	 esp, 4
  001ff	8b 4d fc	 mov	 ecx, DWORD PTR _ht$[ebp]
  00202	89 41 4c	 mov	 DWORD PTR [ecx+76], eax

; 1795 : 	ht->sourceline = LoadLine(READUINT32(save_p));

  00205	a1 00 00 00 00	 mov	 eax, DWORD PTR _save_p
  0020a	8b 08		 mov	 ecx, DWORD PTR [eax]
  0020c	89 4d b8	 mov	 DWORD PTR tv147[ebp], ecx
  0020f	8b 15 00 00 00
	00		 mov	 edx, DWORD PTR _save_p
  00215	83 c2 04	 add	 edx, 4
  00218	89 15 00 00 00
	00		 mov	 DWORD PTR _save_p, edx
  0021e	8b 45 b8	 mov	 eax, DWORD PTR tv147[ebp]
  00221	50		 push	 eax
  00222	e8 00 00 00 00	 call	 _LoadLine
  00227	83 c4 04	 add	 esp, 4
  0022a	8b 4d fc	 mov	 ecx, DWORD PTR _ht$[ebp]
  0022d	89 41 50	 mov	 DWORD PTR [ecx+80], eax

; 1796 : 
; 1797 : 	if (ht->sector)

  00230	8b 45 fc	 mov	 eax, DWORD PTR _ht$[ebp]
  00233	83 78 14 00	 cmp	 DWORD PTR [eax+20], 0
  00237	74 2a		 je	 SHORT $LN4@LoadElevat

; 1798 : 	{
; 1799 : 		if (floorOrCeiling & 2)

  00239	0f b6 45 0c	 movzx	 eax, BYTE PTR _floorOrCeiling$[ebp]
  0023d	83 e0 02	 and	 eax, 2
  00240	74 0c		 je	 SHORT $LN3@LoadElevat

; 1800 : 			ht->sector->ceilingdata = ht;

  00242	8b 45 fc	 mov	 eax, DWORD PTR _ht$[ebp]
  00245	8b 48 14	 mov	 ecx, DWORD PTR [eax+20]
  00248	8b 55 fc	 mov	 edx, DWORD PTR _ht$[ebp]
  0024b	89 51 48	 mov	 DWORD PTR [ecx+72], edx
$LN3@LoadElevat:

; 1801 : 		if (floorOrCeiling & 1)

  0024e	0f b6 45 0c	 movzx	 eax, BYTE PTR _floorOrCeiling$[ebp]
  00252	83 e0 01	 and	 eax, 1
  00255	74 0c		 je	 SHORT $LN4@LoadElevat

; 1802 : 			ht->sector->floordata = ht;

  00257	8b 45 fc	 mov	 eax, DWORD PTR _ht$[ebp]
  0025a	8b 48 14	 mov	 ecx, DWORD PTR [eax+20]
  0025d	8b 55 fc	 mov	 edx, DWORD PTR _ht$[ebp]
  00260	89 51 44	 mov	 DWORD PTR [ecx+68], edx
$LN4@LoadElevat:

; 1803 : 	}
; 1804 : 
; 1805 : 	P_AddThinker(&ht->thinker);

  00263	8b 45 fc	 mov	 eax, DWORD PTR _ht$[ebp]
  00266	50		 push	 eax
  00267	e8 00 00 00 00	 call	 _P_AddThinker
  0026c	83 c4 04	 add	 esp, 4

; 1806 : }

  0026f	5f		 pop	 edi
  00270	5e		 pop	 esi
  00271	5b		 pop	 ebx
  00272	8b e5		 mov	 esp, ebp
  00274	5d		 pop	 ebp
  00275	c3		 ret	 0
_LoadElevatorThinker ENDP
_TEXT	ENDS
; Function compile flags: /Odtp /ZI
; File C:\Users\RafaTheFox\Downloads\SRB2-Public-master\src\p_saveg.c
;	COMDAT _LoadFireflickerThinker
_TEXT	SEGMENT
tv73 = -72						; size = 4
_ht$ = -4						; size = 4
_thinker$ = 8						; size = 4
_LoadFireflickerThinker PROC				; COMDAT

; 1758 : {

  00000	55		 push	 ebp
  00001	8b ec		 mov	 ebp, esp
  00003	83 ec 48	 sub	 esp, 72			; 00000048H
  00006	53		 push	 ebx
  00007	56		 push	 esi
  00008	57		 push	 edi

; 1759 : 	fireflicker_t *ht = Z_Malloc(sizeof (*ht), PU_LEVSPEC, NULL);

  00009	6a 00		 push	 0
  0000b	6a 00		 push	 0
  0000d	6a 33		 push	 51			; 00000033H
  0000f	6a 24		 push	 36			; 00000024H
  00011	e8 00 00 00 00	 call	 _Z_MallocAlign
  00016	83 c4 10	 add	 esp, 16			; 00000010H
  00019	89 45 fc	 mov	 DWORD PTR _ht$[ebp], eax

; 1760 : 	ht->thinker.function.acp1 = thinker;

  0001c	8b 45 fc	 mov	 eax, DWORD PTR _ht$[ebp]
  0001f	8b 4d 08	 mov	 ecx, DWORD PTR _thinker$[ebp]
  00022	89 48 08	 mov	 DWORD PTR [eax+8], ecx

; 1761 : 	ht->sector = LoadSector(READUINT32(save_p));

  00025	a1 00 00 00 00	 mov	 eax, DWORD PTR _save_p
  0002a	8b 08		 mov	 ecx, DWORD PTR [eax]
  0002c	89 4d b8	 mov	 DWORD PTR tv73[ebp], ecx
  0002f	8b 15 00 00 00
	00		 mov	 edx, DWORD PTR _save_p
  00035	83 c2 04	 add	 edx, 4
  00038	89 15 00 00 00
	00		 mov	 DWORD PTR _save_p, edx
  0003e	8b 45 b8	 mov	 eax, DWORD PTR tv73[ebp]
  00041	50		 push	 eax
  00042	e8 00 00 00 00	 call	 _LoadSector
  00047	83 c4 04	 add	 esp, 4
  0004a	8b 4d fc	 mov	 ecx, DWORD PTR _ht$[ebp]
  0004d	89 41 10	 mov	 DWORD PTR [ecx+16], eax

; 1762 : 	ht->count = READINT32(save_p);

  00050	8b 45 fc	 mov	 eax, DWORD PTR _ht$[ebp]
  00053	8b 0d 00 00 00
	00		 mov	 ecx, DWORD PTR _save_p
  00059	8b 11		 mov	 edx, DWORD PTR [ecx]
  0005b	89 50 14	 mov	 DWORD PTR [eax+20], edx
  0005e	a1 00 00 00 00	 mov	 eax, DWORD PTR _save_p
  00063	83 c0 04	 add	 eax, 4
  00066	a3 00 00 00 00	 mov	 DWORD PTR _save_p, eax

; 1763 : 	ht->resetcount = READINT32(save_p);

  0006b	8b 45 fc	 mov	 eax, DWORD PTR _ht$[ebp]
  0006e	8b 0d 00 00 00
	00		 mov	 ecx, DWORD PTR _save_p
  00074	8b 11		 mov	 edx, DWORD PTR [ecx]
  00076	89 50 18	 mov	 DWORD PTR [eax+24], edx
  00079	a1 00 00 00 00	 mov	 eax, DWORD PTR _save_p
  0007e	83 c0 04	 add	 eax, 4
  00081	a3 00 00 00 00	 mov	 DWORD PTR _save_p, eax

; 1764 : 	ht->maxlight = READINT32(save_p);

  00086	8b 45 fc	 mov	 eax, DWORD PTR _ht$[ebp]
  00089	8b 0d 00 00 00
	00		 mov	 ecx, DWORD PTR _save_p
  0008f	8b 11		 mov	 edx, DWORD PTR [ecx]
  00091	89 50 1c	 mov	 DWORD PTR [eax+28], edx
  00094	a1 00 00 00 00	 mov	 eax, DWORD PTR _save_p
  00099	83 c0 04	 add	 eax, 4
  0009c	a3 00 00 00 00	 mov	 DWORD PTR _save_p, eax

; 1765 : 	ht->minlight = READINT32(save_p);

  000a1	8b 45 fc	 mov	 eax, DWORD PTR _ht$[ebp]
  000a4	8b 0d 00 00 00
	00		 mov	 ecx, DWORD PTR _save_p
  000aa	8b 11		 mov	 edx, DWORD PTR [ecx]
  000ac	89 50 20	 mov	 DWORD PTR [eax+32], edx
  000af	a1 00 00 00 00	 mov	 eax, DWORD PTR _save_p
  000b4	83 c0 04	 add	 eax, 4
  000b7	a3 00 00 00 00	 mov	 DWORD PTR _save_p, eax

; 1766 : 	if (ht->sector)

  000bc	8b 45 fc	 mov	 eax, DWORD PTR _ht$[ebp]
  000bf	83 78 10 00	 cmp	 DWORD PTR [eax+16], 0
  000c3	74 0c		 je	 SHORT $LN2@LoadFirefl

; 1767 : 		ht->sector->lightingdata = ht;

  000c5	8b 45 fc	 mov	 eax, DWORD PTR _ht$[ebp]
  000c8	8b 48 10	 mov	 ecx, DWORD PTR [eax+16]
  000cb	8b 55 fc	 mov	 edx, DWORD PTR _ht$[ebp]
  000ce	89 51 4c	 mov	 DWORD PTR [ecx+76], edx
$LN2@LoadFirefl:

; 1768 : 	P_AddThinker(&ht->thinker);

  000d1	8b 45 fc	 mov	 eax, DWORD PTR _ht$[ebp]
  000d4	50		 push	 eax
  000d5	e8 00 00 00 00	 call	 _P_AddThinker
  000da	83 c4 04	 add	 esp, 4

; 1769 : }

  000dd	5f		 pop	 edi
  000de	5e		 pop	 esi
  000df	5b		 pop	 ebx
  000e0	8b e5		 mov	 esp, ebp
  000e2	5d		 pop	 ebp
  000e3	c3		 ret	 0
_LoadFireflickerThinker ENDP
_TEXT	ENDS
; Function compile flags: /Odtp /ZI
; File C:\Users\RafaTheFox\Downloads\SRB2-Public-master\src\p_saveg.c
;	COMDAT _LoadGlowThinker
_TEXT	SEGMENT
tv73 = -72						; size = 4
_ht$ = -4						; size = 4
_thinker$ = 8						; size = 4
_LoadGlowThinker PROC					; COMDAT

; 1740 : {

  00000	55		 push	 ebp
  00001	8b ec		 mov	 ebp, esp
  00003	83 ec 48	 sub	 esp, 72			; 00000048H
  00006	53		 push	 ebx
  00007	56		 push	 esi
  00008	57		 push	 edi

; 1741 : 	glow_t *ht = Z_Malloc(sizeof (*ht), PU_LEVSPEC, NULL);

  00009	6a 00		 push	 0
  0000b	6a 00		 push	 0
  0000d	6a 33		 push	 51			; 00000033H
  0000f	6a 24		 push	 36			; 00000024H
  00011	e8 00 00 00 00	 call	 _Z_MallocAlign
  00016	83 c4 10	 add	 esp, 16			; 00000010H
  00019	89 45 fc	 mov	 DWORD PTR _ht$[ebp], eax

; 1742 : 	ht->thinker.function.acp1 = thinker;

  0001c	8b 45 fc	 mov	 eax, DWORD PTR _ht$[ebp]
  0001f	8b 4d 08	 mov	 ecx, DWORD PTR _thinker$[ebp]
  00022	89 48 08	 mov	 DWORD PTR [eax+8], ecx

; 1743 : 	ht->sector = LoadSector(READUINT32(save_p));

  00025	a1 00 00 00 00	 mov	 eax, DWORD PTR _save_p
  0002a	8b 08		 mov	 ecx, DWORD PTR [eax]
  0002c	89 4d b8	 mov	 DWORD PTR tv73[ebp], ecx
  0002f	8b 15 00 00 00
	00		 mov	 edx, DWORD PTR _save_p
  00035	83 c2 04	 add	 edx, 4
  00038	89 15 00 00 00
	00		 mov	 DWORD PTR _save_p, edx
  0003e	8b 45 b8	 mov	 eax, DWORD PTR tv73[ebp]
  00041	50		 push	 eax
  00042	e8 00 00 00 00	 call	 _LoadSector
  00047	83 c4 04	 add	 esp, 4
  0004a	8b 4d fc	 mov	 ecx, DWORD PTR _ht$[ebp]
  0004d	89 41 10	 mov	 DWORD PTR [ecx+16], eax

; 1744 : 	ht->minlight = READINT32(save_p);

  00050	8b 45 fc	 mov	 eax, DWORD PTR _ht$[ebp]
  00053	8b 0d 00 00 00
	00		 mov	 ecx, DWORD PTR _save_p
  00059	8b 11		 mov	 edx, DWORD PTR [ecx]
  0005b	89 50 14	 mov	 DWORD PTR [eax+20], edx
  0005e	a1 00 00 00 00	 mov	 eax, DWORD PTR _save_p
  00063	83 c0 04	 add	 eax, 4
  00066	a3 00 00 00 00	 mov	 DWORD PTR _save_p, eax

; 1745 : 	ht->maxlight = READINT32(save_p);

  0006b	8b 45 fc	 mov	 eax, DWORD PTR _ht$[ebp]
  0006e	8b 0d 00 00 00
	00		 mov	 ecx, DWORD PTR _save_p
  00074	8b 11		 mov	 edx, DWORD PTR [ecx]
  00076	89 50 18	 mov	 DWORD PTR [eax+24], edx
  00079	a1 00 00 00 00	 mov	 eax, DWORD PTR _save_p
  0007e	83 c0 04	 add	 eax, 4
  00081	a3 00 00 00 00	 mov	 DWORD PTR _save_p, eax

; 1746 : 	ht->direction = READINT32(save_p);

  00086	8b 45 fc	 mov	 eax, DWORD PTR _ht$[ebp]
  00089	8b 0d 00 00 00
	00		 mov	 ecx, DWORD PTR _save_p
  0008f	8b 11		 mov	 edx, DWORD PTR [ecx]
  00091	89 50 1c	 mov	 DWORD PTR [eax+28], edx
  00094	a1 00 00 00 00	 mov	 eax, DWORD PTR _save_p
  00099	83 c0 04	 add	 eax, 4
  0009c	a3 00 00 00 00	 mov	 DWORD PTR _save_p, eax

; 1747 : 	ht->speed = READINT32(save_p);

  000a1	8b 45 fc	 mov	 eax, DWORD PTR _ht$[ebp]
  000a4	8b 0d 00 00 00
	00		 mov	 ecx, DWORD PTR _save_p
  000aa	8b 11		 mov	 edx, DWORD PTR [ecx]
  000ac	89 50 20	 mov	 DWORD PTR [eax+32], edx
  000af	a1 00 00 00 00	 mov	 eax, DWORD PTR _save_p
  000b4	83 c0 04	 add	 eax, 4
  000b7	a3 00 00 00 00	 mov	 DWORD PTR _save_p, eax

; 1748 : 	if (ht->sector)

  000bc	8b 45 fc	 mov	 eax, DWORD PTR _ht$[ebp]
  000bf	83 78 10 00	 cmp	 DWORD PTR [eax+16], 0
  000c3	74 0c		 je	 SHORT $LN2@LoadGlowTh

; 1749 : 		ht->sector->lightingdata = ht;

  000c5	8b 45 fc	 mov	 eax, DWORD PTR _ht$[ebp]
  000c8	8b 48 10	 mov	 ecx, DWORD PTR [eax+16]
  000cb	8b 55 fc	 mov	 edx, DWORD PTR _ht$[ebp]
  000ce	89 51 4c	 mov	 DWORD PTR [ecx+76], edx
$LN2@LoadGlowTh:

; 1750 : 	P_AddThinker(&ht->thinker);

  000d1	8b 45 fc	 mov	 eax, DWORD PTR _ht$[ebp]
  000d4	50		 push	 eax
  000d5	e8 00 00 00 00	 call	 _P_AddThinker
  000da	83 c4 04	 add	 esp, 4

; 1751 : }

  000dd	5f		 pop	 edi
  000de	5e		 pop	 esi
  000df	5b		 pop	 ebx
  000e0	8b e5		 mov	 esp, ebp
  000e2	5d		 pop	 ebp
  000e3	c3		 ret	 0
_LoadGlowThinker ENDP
_TEXT	ENDS
; Function compile flags: /Odtp /ZI
; File C:\Users\RafaTheFox\Downloads\SRB2-Public-master\src\p_saveg.c
;	COMDAT _LoadStrobeThinker
_TEXT	SEGMENT
tv73 = -72						; size = 4
_ht$ = -4						; size = 4
_thinker$ = 8						; size = 4
_LoadStrobeThinker PROC					; COMDAT

; 1720 : {

  00000	55		 push	 ebp
  00001	8b ec		 mov	 ebp, esp
  00003	83 ec 48	 sub	 esp, 72			; 00000048H
  00006	53		 push	 ebx
  00007	56		 push	 esi
  00008	57		 push	 edi

; 1721 : 	strobe_t *ht = Z_Malloc(sizeof (*ht), PU_LEVSPEC, NULL);

  00009	6a 00		 push	 0
  0000b	6a 00		 push	 0
  0000d	6a 33		 push	 51			; 00000033H
  0000f	6a 28		 push	 40			; 00000028H
  00011	e8 00 00 00 00	 call	 _Z_MallocAlign
  00016	83 c4 10	 add	 esp, 16			; 00000010H
  00019	89 45 fc	 mov	 DWORD PTR _ht$[ebp], eax

; 1722 : 	ht->thinker.function.acp1 = thinker;

  0001c	8b 45 fc	 mov	 eax, DWORD PTR _ht$[ebp]
  0001f	8b 4d 08	 mov	 ecx, DWORD PTR _thinker$[ebp]
  00022	89 48 08	 mov	 DWORD PTR [eax+8], ecx

; 1723 : 	ht->sector = LoadSector(READUINT32(save_p));

  00025	a1 00 00 00 00	 mov	 eax, DWORD PTR _save_p
  0002a	8b 08		 mov	 ecx, DWORD PTR [eax]
  0002c	89 4d b8	 mov	 DWORD PTR tv73[ebp], ecx
  0002f	8b 15 00 00 00
	00		 mov	 edx, DWORD PTR _save_p
  00035	83 c2 04	 add	 edx, 4
  00038	89 15 00 00 00
	00		 mov	 DWORD PTR _save_p, edx
  0003e	8b 45 b8	 mov	 eax, DWORD PTR tv73[ebp]
  00041	50		 push	 eax
  00042	e8 00 00 00 00	 call	 _LoadSector
  00047	83 c4 04	 add	 esp, 4
  0004a	8b 4d fc	 mov	 ecx, DWORD PTR _ht$[ebp]
  0004d	89 41 10	 mov	 DWORD PTR [ecx+16], eax

; 1724 : 	ht->count = READINT32(save_p);

  00050	8b 45 fc	 mov	 eax, DWORD PTR _ht$[ebp]
  00053	8b 0d 00 00 00
	00		 mov	 ecx, DWORD PTR _save_p
  00059	8b 11		 mov	 edx, DWORD PTR [ecx]
  0005b	89 50 14	 mov	 DWORD PTR [eax+20], edx
  0005e	a1 00 00 00 00	 mov	 eax, DWORD PTR _save_p
  00063	83 c0 04	 add	 eax, 4
  00066	a3 00 00 00 00	 mov	 DWORD PTR _save_p, eax

; 1725 : 	ht->minlight = READINT32(save_p);

  0006b	8b 45 fc	 mov	 eax, DWORD PTR _ht$[ebp]
  0006e	8b 0d 00 00 00
	00		 mov	 ecx, DWORD PTR _save_p
  00074	8b 11		 mov	 edx, DWORD PTR [ecx]
  00076	89 50 18	 mov	 DWORD PTR [eax+24], edx
  00079	a1 00 00 00 00	 mov	 eax, DWORD PTR _save_p
  0007e	83 c0 04	 add	 eax, 4
  00081	a3 00 00 00 00	 mov	 DWORD PTR _save_p, eax

; 1726 : 	ht->maxlight = READINT32(save_p);

  00086	8b 45 fc	 mov	 eax, DWORD PTR _ht$[ebp]
  00089	8b 0d 00 00 00
	00		 mov	 ecx, DWORD PTR _save_p
  0008f	8b 11		 mov	 edx, DWORD PTR [ecx]
  00091	89 50 1c	 mov	 DWORD PTR [eax+28], edx
  00094	a1 00 00 00 00	 mov	 eax, DWORD PTR _save_p
  00099	83 c0 04	 add	 eax, 4
  0009c	a3 00 00 00 00	 mov	 DWORD PTR _save_p, eax

; 1727 : 	ht->darktime = READINT32(save_p);

  000a1	8b 45 fc	 mov	 eax, DWORD PTR _ht$[ebp]
  000a4	8b 0d 00 00 00
	00		 mov	 ecx, DWORD PTR _save_p
  000aa	8b 11		 mov	 edx, DWORD PTR [ecx]
  000ac	89 50 20	 mov	 DWORD PTR [eax+32], edx
  000af	a1 00 00 00 00	 mov	 eax, DWORD PTR _save_p
  000b4	83 c0 04	 add	 eax, 4
  000b7	a3 00 00 00 00	 mov	 DWORD PTR _save_p, eax

; 1728 : 	ht->brighttime = READINT32(save_p);

  000bc	8b 45 fc	 mov	 eax, DWORD PTR _ht$[ebp]
  000bf	8b 0d 00 00 00
	00		 mov	 ecx, DWORD PTR _save_p
  000c5	8b 11		 mov	 edx, DWORD PTR [ecx]
  000c7	89 50 24	 mov	 DWORD PTR [eax+36], edx
  000ca	a1 00 00 00 00	 mov	 eax, DWORD PTR _save_p
  000cf	83 c0 04	 add	 eax, 4
  000d2	a3 00 00 00 00	 mov	 DWORD PTR _save_p, eax

; 1729 : 	if (ht->sector)

  000d7	8b 45 fc	 mov	 eax, DWORD PTR _ht$[ebp]
  000da	83 78 10 00	 cmp	 DWORD PTR [eax+16], 0
  000de	74 0c		 je	 SHORT $LN2@LoadStrobe

; 1730 : 		ht->sector->lightingdata = ht;

  000e0	8b 45 fc	 mov	 eax, DWORD PTR _ht$[ebp]
  000e3	8b 48 10	 mov	 ecx, DWORD PTR [eax+16]
  000e6	8b 55 fc	 mov	 edx, DWORD PTR _ht$[ebp]
  000e9	89 51 4c	 mov	 DWORD PTR [ecx+76], edx
$LN2@LoadStrobe:

; 1731 : 	P_AddThinker(&ht->thinker);

  000ec	8b 45 fc	 mov	 eax, DWORD PTR _ht$[ebp]
  000ef	50		 push	 eax
  000f0	e8 00 00 00 00	 call	 _P_AddThinker
  000f5	83 c4 04	 add	 esp, 4

; 1732 : }

  000f8	5f		 pop	 edi
  000f9	5e		 pop	 esi
  000fa	5b		 pop	 ebx
  000fb	8b e5		 mov	 esp, ebp
  000fd	5d		 pop	 ebp
  000fe	c3		 ret	 0
_LoadStrobeThinker ENDP
_TEXT	ENDS
; Function compile flags: /Odtp /ZI
; File C:\Users\RafaTheFox\Downloads\SRB2-Public-master\src\p_saveg.c
;	COMDAT _LoadLightflashThinker
_TEXT	SEGMENT
tv73 = -72						; size = 4
_ht$ = -4						; size = 4
_thinker$ = 8						; size = 4
_LoadLightflashThinker PROC				; COMDAT

; 1703 : {

  00000	55		 push	 ebp
  00001	8b ec		 mov	 ebp, esp
  00003	83 ec 48	 sub	 esp, 72			; 00000048H
  00006	53		 push	 ebx
  00007	56		 push	 esi
  00008	57		 push	 edi

; 1704 : 	lightflash_t *ht = Z_Malloc(sizeof (*ht), PU_LEVSPEC, NULL);

  00009	6a 00		 push	 0
  0000b	6a 00		 push	 0
  0000d	6a 33		 push	 51			; 00000033H
  0000f	6a 1c		 push	 28			; 0000001cH
  00011	e8 00 00 00 00	 call	 _Z_MallocAlign
  00016	83 c4 10	 add	 esp, 16			; 00000010H
  00019	89 45 fc	 mov	 DWORD PTR _ht$[ebp], eax

; 1705 : 	ht->thinker.function.acp1 = thinker;

  0001c	8b 45 fc	 mov	 eax, DWORD PTR _ht$[ebp]
  0001f	8b 4d 08	 mov	 ecx, DWORD PTR _thinker$[ebp]
  00022	89 48 08	 mov	 DWORD PTR [eax+8], ecx

; 1706 : 	ht->sector = LoadSector(READUINT32(save_p));

  00025	a1 00 00 00 00	 mov	 eax, DWORD PTR _save_p
  0002a	8b 08		 mov	 ecx, DWORD PTR [eax]
  0002c	89 4d b8	 mov	 DWORD PTR tv73[ebp], ecx
  0002f	8b 15 00 00 00
	00		 mov	 edx, DWORD PTR _save_p
  00035	83 c2 04	 add	 edx, 4
  00038	89 15 00 00 00
	00		 mov	 DWORD PTR _save_p, edx
  0003e	8b 45 b8	 mov	 eax, DWORD PTR tv73[ebp]
  00041	50		 push	 eax
  00042	e8 00 00 00 00	 call	 _LoadSector
  00047	83 c4 04	 add	 esp, 4
  0004a	8b 4d fc	 mov	 ecx, DWORD PTR _ht$[ebp]
  0004d	89 41 10	 mov	 DWORD PTR [ecx+16], eax

; 1707 : 	ht->maxlight = READINT32(save_p);

  00050	8b 45 fc	 mov	 eax, DWORD PTR _ht$[ebp]
  00053	8b 0d 00 00 00
	00		 mov	 ecx, DWORD PTR _save_p
  00059	8b 11		 mov	 edx, DWORD PTR [ecx]
  0005b	89 50 14	 mov	 DWORD PTR [eax+20], edx
  0005e	a1 00 00 00 00	 mov	 eax, DWORD PTR _save_p
  00063	83 c0 04	 add	 eax, 4
  00066	a3 00 00 00 00	 mov	 DWORD PTR _save_p, eax

; 1708 : 	ht->minlight = READINT32(save_p);

  0006b	8b 45 fc	 mov	 eax, DWORD PTR _ht$[ebp]
  0006e	8b 0d 00 00 00
	00		 mov	 ecx, DWORD PTR _save_p
  00074	8b 11		 mov	 edx, DWORD PTR [ecx]
  00076	89 50 18	 mov	 DWORD PTR [eax+24], edx
  00079	a1 00 00 00 00	 mov	 eax, DWORD PTR _save_p
  0007e	83 c0 04	 add	 eax, 4
  00081	a3 00 00 00 00	 mov	 DWORD PTR _save_p, eax

; 1709 : 	if (ht->sector)

  00086	8b 45 fc	 mov	 eax, DWORD PTR _ht$[ebp]
  00089	83 78 10 00	 cmp	 DWORD PTR [eax+16], 0
  0008d	74 0c		 je	 SHORT $LN2@LoadLightf

; 1710 : 		ht->sector->lightingdata = ht;

  0008f	8b 45 fc	 mov	 eax, DWORD PTR _ht$[ebp]
  00092	8b 48 10	 mov	 ecx, DWORD PTR [eax+16]
  00095	8b 55 fc	 mov	 edx, DWORD PTR _ht$[ebp]
  00098	89 51 4c	 mov	 DWORD PTR [ecx+76], edx
$LN2@LoadLightf:

; 1711 : 	P_AddThinker(&ht->thinker);

  0009b	8b 45 fc	 mov	 eax, DWORD PTR _ht$[ebp]
  0009e	50		 push	 eax
  0009f	e8 00 00 00 00	 call	 _P_AddThinker
  000a4	83 c4 04	 add	 esp, 4

; 1712 : }

  000a7	5f		 pop	 edi
  000a8	5e		 pop	 esi
  000a9	5b		 pop	 ebx
  000aa	8b e5		 mov	 esp, ebp
  000ac	5d		 pop	 ebp
  000ad	c3		 ret	 0
_LoadLightflashThinker ENDP
_TEXT	ENDS
; Function compile flags: /Odtp /ZI
; File C:\Users\RafaTheFox\Downloads\SRB2-Public-master\src\p_saveg.c
;	COMDAT _LoadFloormoveThinker
_TEXT	SEGMENT
tv78 = -72						; size = 4
_ht$ = -4						; size = 4
_thinker$ = 8						; size = 4
_LoadFloormoveThinker PROC				; COMDAT

; 1679 : {

  00000	55		 push	 ebp
  00001	8b ec		 mov	 ebp, esp
  00003	83 ec 48	 sub	 esp, 72			; 00000048H
  00006	53		 push	 ebx
  00007	56		 push	 esi
  00008	57		 push	 edi

; 1680 : 	floormove_t *ht = Z_Malloc(sizeof (*ht), PU_LEVSPEC, NULL);

  00009	6a 00		 push	 0
  0000b	6a 00		 push	 0
  0000d	6a 33		 push	 51			; 00000033H
  0000f	6a 38		 push	 56			; 00000038H
  00011	e8 00 00 00 00	 call	 _Z_MallocAlign
  00016	83 c4 10	 add	 esp, 16			; 00000010H
  00019	89 45 fc	 mov	 DWORD PTR _ht$[ebp], eax

; 1681 : 	ht->thinker.function.acp1 = thinker;

  0001c	8b 45 fc	 mov	 eax, DWORD PTR _ht$[ebp]
  0001f	8b 4d 08	 mov	 ecx, DWORD PTR _thinker$[ebp]
  00022	89 48 08	 mov	 DWORD PTR [eax+8], ecx

; 1682 : 	ht->type = READUINT8(save_p);

  00025	a1 00 00 00 00	 mov	 eax, DWORD PTR _save_p
  0002a	0f b6 08	 movzx	 ecx, BYTE PTR [eax]
  0002d	8b 55 fc	 mov	 edx, DWORD PTR _ht$[ebp]
  00030	89 4a 10	 mov	 DWORD PTR [edx+16], ecx
  00033	a1 00 00 00 00	 mov	 eax, DWORD PTR _save_p
  00038	83 c0 01	 add	 eax, 1
  0003b	a3 00 00 00 00	 mov	 DWORD PTR _save_p, eax

; 1683 : 	ht->crush = READUINT8(save_p);

  00040	8b 45 fc	 mov	 eax, DWORD PTR _ht$[ebp]
  00043	8b 0d 00 00 00
	00		 mov	 ecx, DWORD PTR _save_p
  00049	8a 11		 mov	 dl, BYTE PTR [ecx]
  0004b	88 50 14	 mov	 BYTE PTR [eax+20], dl
  0004e	a1 00 00 00 00	 mov	 eax, DWORD PTR _save_p
  00053	83 c0 01	 add	 eax, 1
  00056	a3 00 00 00 00	 mov	 DWORD PTR _save_p, eax

; 1684 : 	ht->sector = LoadSector(READUINT32(save_p));

  0005b	a1 00 00 00 00	 mov	 eax, DWORD PTR _save_p
  00060	8b 08		 mov	 ecx, DWORD PTR [eax]
  00062	89 4d b8	 mov	 DWORD PTR tv78[ebp], ecx
  00065	8b 15 00 00 00
	00		 mov	 edx, DWORD PTR _save_p
  0006b	83 c2 04	 add	 edx, 4
  0006e	89 15 00 00 00
	00		 mov	 DWORD PTR _save_p, edx
  00074	8b 45 b8	 mov	 eax, DWORD PTR tv78[ebp]
  00077	50		 push	 eax
  00078	e8 00 00 00 00	 call	 _LoadSector
  0007d	83 c4 04	 add	 esp, 4
  00080	8b 4d fc	 mov	 ecx, DWORD PTR _ht$[ebp]
  00083	89 41 18	 mov	 DWORD PTR [ecx+24], eax

; 1685 : 	ht->direction = READINT32(save_p);

  00086	8b 45 fc	 mov	 eax, DWORD PTR _ht$[ebp]
  00089	8b 0d 00 00 00
	00		 mov	 ecx, DWORD PTR _save_p
  0008f	8b 11		 mov	 edx, DWORD PTR [ecx]
  00091	89 50 1c	 mov	 DWORD PTR [eax+28], edx
  00094	a1 00 00 00 00	 mov	 eax, DWORD PTR _save_p
  00099	83 c0 04	 add	 eax, 4
  0009c	a3 00 00 00 00	 mov	 DWORD PTR _save_p, eax

; 1686 : 	ht->texture = READINT32(save_p);

  000a1	8b 45 fc	 mov	 eax, DWORD PTR _ht$[ebp]
  000a4	8b 0d 00 00 00
	00		 mov	 ecx, DWORD PTR _save_p
  000aa	8b 11		 mov	 edx, DWORD PTR [ecx]
  000ac	89 50 20	 mov	 DWORD PTR [eax+32], edx
  000af	a1 00 00 00 00	 mov	 eax, DWORD PTR _save_p
  000b4	83 c0 04	 add	 eax, 4
  000b7	a3 00 00 00 00	 mov	 DWORD PTR _save_p, eax

; 1687 : 	ht->floordestheight = READFIXED(save_p);

  000bc	8b 45 fc	 mov	 eax, DWORD PTR _ht$[ebp]
  000bf	8b 0d 00 00 00
	00		 mov	 ecx, DWORD PTR _save_p
  000c5	8b 11		 mov	 edx, DWORD PTR [ecx]
  000c7	89 50 24	 mov	 DWORD PTR [eax+36], edx
  000ca	a1 00 00 00 00	 mov	 eax, DWORD PTR _save_p
  000cf	83 c0 04	 add	 eax, 4
  000d2	a3 00 00 00 00	 mov	 DWORD PTR _save_p, eax

; 1688 : 	ht->speed = READFIXED(save_p);

  000d7	8b 45 fc	 mov	 eax, DWORD PTR _ht$[ebp]
  000da	8b 0d 00 00 00
	00		 mov	 ecx, DWORD PTR _save_p
  000e0	8b 11		 mov	 edx, DWORD PTR [ecx]
  000e2	89 50 28	 mov	 DWORD PTR [eax+40], edx
  000e5	a1 00 00 00 00	 mov	 eax, DWORD PTR _save_p
  000ea	83 c0 04	 add	 eax, 4
  000ed	a3 00 00 00 00	 mov	 DWORD PTR _save_p, eax

; 1689 : 	ht->origspeed = READFIXED(save_p);

  000f2	8b 45 fc	 mov	 eax, DWORD PTR _ht$[ebp]
  000f5	8b 0d 00 00 00
	00		 mov	 ecx, DWORD PTR _save_p
  000fb	8b 11		 mov	 edx, DWORD PTR [ecx]
  000fd	89 50 2c	 mov	 DWORD PTR [eax+44], edx
  00100	a1 00 00 00 00	 mov	 eax, DWORD PTR _save_p
  00105	83 c0 04	 add	 eax, 4
  00108	a3 00 00 00 00	 mov	 DWORD PTR _save_p, eax

; 1690 : 	ht->delay = READFIXED(save_p);

  0010d	8b 45 fc	 mov	 eax, DWORD PTR _ht$[ebp]
  00110	8b 0d 00 00 00
	00		 mov	 ecx, DWORD PTR _save_p
  00116	8b 11		 mov	 edx, DWORD PTR [ecx]
  00118	89 50 30	 mov	 DWORD PTR [eax+48], edx
  0011b	a1 00 00 00 00	 mov	 eax, DWORD PTR _save_p
  00120	83 c0 04	 add	 eax, 4
  00123	a3 00 00 00 00	 mov	 DWORD PTR _save_p, eax

; 1691 : 	ht->delaytimer = READFIXED(save_p);

  00128	8b 45 fc	 mov	 eax, DWORD PTR _ht$[ebp]
  0012b	8b 0d 00 00 00
	00		 mov	 ecx, DWORD PTR _save_p
  00131	8b 11		 mov	 edx, DWORD PTR [ecx]
  00133	89 50 34	 mov	 DWORD PTR [eax+52], edx
  00136	a1 00 00 00 00	 mov	 eax, DWORD PTR _save_p
  0013b	83 c0 04	 add	 eax, 4
  0013e	a3 00 00 00 00	 mov	 DWORD PTR _save_p, eax

; 1692 : 	if (ht->sector)

  00143	8b 45 fc	 mov	 eax, DWORD PTR _ht$[ebp]
  00146	83 78 18 00	 cmp	 DWORD PTR [eax+24], 0
  0014a	74 0c		 je	 SHORT $LN2@LoadFloorm

; 1693 : 		ht->sector->floordata = ht;

  0014c	8b 45 fc	 mov	 eax, DWORD PTR _ht$[ebp]
  0014f	8b 48 18	 mov	 ecx, DWORD PTR [eax+24]
  00152	8b 55 fc	 mov	 edx, DWORD PTR _ht$[ebp]
  00155	89 51 44	 mov	 DWORD PTR [ecx+68], edx
$LN2@LoadFloorm:

; 1694 : 	P_AddThinker(&ht->thinker);

  00158	8b 45 fc	 mov	 eax, DWORD PTR _ht$[ebp]
  0015b	50		 push	 eax
  0015c	e8 00 00 00 00	 call	 _P_AddThinker
  00161	83 c4 04	 add	 esp, 4

; 1695 : }

  00164	5f		 pop	 edi
  00165	5e		 pop	 esi
  00166	5b		 pop	 ebx
  00167	8b e5		 mov	 esp, ebp
  00169	5d		 pop	 ebp
  0016a	c3		 ret	 0
_LoadFloormoveThinker ENDP
_TEXT	ENDS
; Function compile flags: /Odtp /ZI
; File C:\Users\RafaTheFox\Downloads\SRB2-Public-master\src\p_saveg.c
;	COMDAT _LoadCeilingThinker
_TEXT	SEGMENT
tv76 = -72						; size = 4
_ht$ = -4						; size = 4
_thinker$ = 8						; size = 4
_LoadCeilingThinker PROC				; COMDAT

; 1650 : {

  00000	55		 push	 ebp
  00001	8b ec		 mov	 ebp, esp
  00003	83 ec 48	 sub	 esp, 72			; 00000048H
  00006	53		 push	 ebx
  00007	56		 push	 esi
  00008	57		 push	 edi

; 1651 : 	ceiling_t *ht = Z_Malloc(sizeof (*ht), PU_LEVSPEC, NULL);

  00009	6a 00		 push	 0
  0000b	6a 00		 push	 0
  0000d	6a 33		 push	 51			; 00000033H
  0000f	6a 4c		 push	 76			; 0000004cH
  00011	e8 00 00 00 00	 call	 _Z_MallocAlign
  00016	83 c4 10	 add	 esp, 16			; 00000010H
  00019	89 45 fc	 mov	 DWORD PTR _ht$[ebp], eax

; 1652 : 	ht->thinker.function.acp1 = thinker;

  0001c	8b 45 fc	 mov	 eax, DWORD PTR _ht$[ebp]
  0001f	8b 4d 08	 mov	 ecx, DWORD PTR _thinker$[ebp]
  00022	89 48 08	 mov	 DWORD PTR [eax+8], ecx

; 1653 : 	ht->type = READUINT8(save_p);

  00025	a1 00 00 00 00	 mov	 eax, DWORD PTR _save_p
  0002a	0f b6 08	 movzx	 ecx, BYTE PTR [eax]
  0002d	8b 55 fc	 mov	 edx, DWORD PTR _ht$[ebp]
  00030	89 4a 10	 mov	 DWORD PTR [edx+16], ecx
  00033	a1 00 00 00 00	 mov	 eax, DWORD PTR _save_p
  00038	83 c0 01	 add	 eax, 1
  0003b	a3 00 00 00 00	 mov	 DWORD PTR _save_p, eax

; 1654 : 	ht->sector = LoadSector(READUINT32(save_p));

  00040	a1 00 00 00 00	 mov	 eax, DWORD PTR _save_p
  00045	8b 08		 mov	 ecx, DWORD PTR [eax]
  00047	89 4d b8	 mov	 DWORD PTR tv76[ebp], ecx
  0004a	8b 15 00 00 00
	00		 mov	 edx, DWORD PTR _save_p
  00050	83 c2 04	 add	 edx, 4
  00053	89 15 00 00 00
	00		 mov	 DWORD PTR _save_p, edx
  00059	8b 45 b8	 mov	 eax, DWORD PTR tv76[ebp]
  0005c	50		 push	 eax
  0005d	e8 00 00 00 00	 call	 _LoadSector
  00062	83 c4 04	 add	 esp, 4
  00065	8b 4d fc	 mov	 ecx, DWORD PTR _ht$[ebp]
  00068	89 41 14	 mov	 DWORD PTR [ecx+20], eax

; 1655 : 	ht->bottomheight = READFIXED(save_p);

  0006b	8b 45 fc	 mov	 eax, DWORD PTR _ht$[ebp]
  0006e	8b 0d 00 00 00
	00		 mov	 ecx, DWORD PTR _save_p
  00074	8b 11		 mov	 edx, DWORD PTR [ecx]
  00076	89 50 18	 mov	 DWORD PTR [eax+24], edx
  00079	a1 00 00 00 00	 mov	 eax, DWORD PTR _save_p
  0007e	83 c0 04	 add	 eax, 4
  00081	a3 00 00 00 00	 mov	 DWORD PTR _save_p, eax

; 1656 : 	ht->topheight = READFIXED(save_p);

  00086	8b 45 fc	 mov	 eax, DWORD PTR _ht$[ebp]
  00089	8b 0d 00 00 00
	00		 mov	 ecx, DWORD PTR _save_p
  0008f	8b 11		 mov	 edx, DWORD PTR [ecx]
  00091	89 50 1c	 mov	 DWORD PTR [eax+28], edx
  00094	a1 00 00 00 00	 mov	 eax, DWORD PTR _save_p
  00099	83 c0 04	 add	 eax, 4
  0009c	a3 00 00 00 00	 mov	 DWORD PTR _save_p, eax

; 1657 : 	ht->speed = READFIXED(save_p);

  000a1	8b 45 fc	 mov	 eax, DWORD PTR _ht$[ebp]
  000a4	8b 0d 00 00 00
	00		 mov	 ecx, DWORD PTR _save_p
  000aa	8b 11		 mov	 edx, DWORD PTR [ecx]
  000ac	89 50 20	 mov	 DWORD PTR [eax+32], edx
  000af	a1 00 00 00 00	 mov	 eax, DWORD PTR _save_p
  000b4	83 c0 04	 add	 eax, 4
  000b7	a3 00 00 00 00	 mov	 DWORD PTR _save_p, eax

; 1658 : 	ht->oldspeed = READFIXED(save_p);

  000bc	8b 45 fc	 mov	 eax, DWORD PTR _ht$[ebp]
  000bf	8b 0d 00 00 00
	00		 mov	 ecx, DWORD PTR _save_p
  000c5	8b 11		 mov	 edx, DWORD PTR [ecx]
  000c7	89 50 24	 mov	 DWORD PTR [eax+36], edx
  000ca	a1 00 00 00 00	 mov	 eax, DWORD PTR _save_p
  000cf	83 c0 04	 add	 eax, 4
  000d2	a3 00 00 00 00	 mov	 DWORD PTR _save_p, eax

; 1659 : 	ht->delay = READFIXED(save_p);

  000d7	8b 45 fc	 mov	 eax, DWORD PTR _ht$[ebp]
  000da	8b 0d 00 00 00
	00		 mov	 ecx, DWORD PTR _save_p
  000e0	8b 11		 mov	 edx, DWORD PTR [ecx]
  000e2	89 50 28	 mov	 DWORD PTR [eax+40], edx
  000e5	a1 00 00 00 00	 mov	 eax, DWORD PTR _save_p
  000ea	83 c0 04	 add	 eax, 4
  000ed	a3 00 00 00 00	 mov	 DWORD PTR _save_p, eax

; 1660 : 	ht->delaytimer = READFIXED(save_p);

  000f2	8b 45 fc	 mov	 eax, DWORD PTR _ht$[ebp]
  000f5	8b 0d 00 00 00
	00		 mov	 ecx, DWORD PTR _save_p
  000fb	8b 11		 mov	 edx, DWORD PTR [ecx]
  000fd	89 50 2c	 mov	 DWORD PTR [eax+44], edx
  00100	a1 00 00 00 00	 mov	 eax, DWORD PTR _save_p
  00105	83 c0 04	 add	 eax, 4
  00108	a3 00 00 00 00	 mov	 DWORD PTR _save_p, eax

; 1661 : 	ht->crush = READUINT8(save_p);

  0010d	8b 45 fc	 mov	 eax, DWORD PTR _ht$[ebp]
  00110	8b 0d 00 00 00
	00		 mov	 ecx, DWORD PTR _save_p
  00116	8a 11		 mov	 dl, BYTE PTR [ecx]
  00118	88 50 30	 mov	 BYTE PTR [eax+48], dl
  0011b	a1 00 00 00 00	 mov	 eax, DWORD PTR _save_p
  00120	83 c0 01	 add	 eax, 1
  00123	a3 00 00 00 00	 mov	 DWORD PTR _save_p, eax

; 1662 : 	ht->texture = READINT32(save_p);

  00128	8b 45 fc	 mov	 eax, DWORD PTR _ht$[ebp]
  0012b	8b 0d 00 00 00
	00		 mov	 ecx, DWORD PTR _save_p
  00131	8b 11		 mov	 edx, DWORD PTR [ecx]
  00133	89 50 34	 mov	 DWORD PTR [eax+52], edx
  00136	a1 00 00 00 00	 mov	 eax, DWORD PTR _save_p
  0013b	83 c0 04	 add	 eax, 4
  0013e	a3 00 00 00 00	 mov	 DWORD PTR _save_p, eax

; 1663 : 	ht->direction = READINT32(save_p);

  00143	8b 45 fc	 mov	 eax, DWORD PTR _ht$[ebp]
  00146	8b 0d 00 00 00
	00		 mov	 ecx, DWORD PTR _save_p
  0014c	8b 11		 mov	 edx, DWORD PTR [ecx]
  0014e	89 50 38	 mov	 DWORD PTR [eax+56], edx
  00151	a1 00 00 00 00	 mov	 eax, DWORD PTR _save_p
  00156	83 c0 04	 add	 eax, 4
  00159	a3 00 00 00 00	 mov	 DWORD PTR _save_p, eax

; 1664 : 	ht->tag = READINT32(save_p);

  0015e	8b 45 fc	 mov	 eax, DWORD PTR _ht$[ebp]
  00161	8b 0d 00 00 00
	00		 mov	 ecx, DWORD PTR _save_p
  00167	8b 11		 mov	 edx, DWORD PTR [ecx]
  00169	89 50 3c	 mov	 DWORD PTR [eax+60], edx
  0016c	a1 00 00 00 00	 mov	 eax, DWORD PTR _save_p
  00171	83 c0 04	 add	 eax, 4
  00174	a3 00 00 00 00	 mov	 DWORD PTR _save_p, eax

; 1665 : 	ht->olddirection = READINT32(save_p);

  00179	8b 45 fc	 mov	 eax, DWORD PTR _ht$[ebp]
  0017c	8b 0d 00 00 00
	00		 mov	 ecx, DWORD PTR _save_p
  00182	8b 11		 mov	 edx, DWORD PTR [ecx]
  00184	89 50 40	 mov	 DWORD PTR [eax+64], edx
  00187	a1 00 00 00 00	 mov	 eax, DWORD PTR _save_p
  0018c	83 c0 04	 add	 eax, 4
  0018f	a3 00 00 00 00	 mov	 DWORD PTR _save_p, eax

; 1666 : 	ht->origspeed = READFIXED(save_p);

  00194	8b 45 fc	 mov	 eax, DWORD PTR _ht$[ebp]
  00197	8b 0d 00 00 00
	00		 mov	 ecx, DWORD PTR _save_p
  0019d	8b 11		 mov	 edx, DWORD PTR [ecx]
  0019f	89 50 44	 mov	 DWORD PTR [eax+68], edx
  001a2	a1 00 00 00 00	 mov	 eax, DWORD PTR _save_p
  001a7	83 c0 04	 add	 eax, 4
  001aa	a3 00 00 00 00	 mov	 DWORD PTR _save_p, eax

; 1667 : 	ht->sourceline = READFIXED(save_p);

  001af	8b 45 fc	 mov	 eax, DWORD PTR _ht$[ebp]
  001b2	8b 0d 00 00 00
	00		 mov	 ecx, DWORD PTR _save_p
  001b8	8b 11		 mov	 edx, DWORD PTR [ecx]
  001ba	89 50 48	 mov	 DWORD PTR [eax+72], edx
  001bd	a1 00 00 00 00	 mov	 eax, DWORD PTR _save_p
  001c2	83 c0 04	 add	 eax, 4
  001c5	a3 00 00 00 00	 mov	 DWORD PTR _save_p, eax

; 1668 : 	if (ht->sector)

  001ca	8b 45 fc	 mov	 eax, DWORD PTR _ht$[ebp]
  001cd	83 78 14 00	 cmp	 DWORD PTR [eax+20], 0
  001d1	74 0c		 je	 SHORT $LN2@LoadCeilin

; 1669 : 		ht->sector->ceilingdata = ht;

  001d3	8b 45 fc	 mov	 eax, DWORD PTR _ht$[ebp]
  001d6	8b 48 14	 mov	 ecx, DWORD PTR [eax+20]
  001d9	8b 55 fc	 mov	 edx, DWORD PTR _ht$[ebp]
  001dc	89 51 48	 mov	 DWORD PTR [ecx+72], edx
$LN2@LoadCeilin:

; 1670 : 	P_AddThinker(&ht->thinker);

  001df	8b 45 fc	 mov	 eax, DWORD PTR _ht$[ebp]
  001e2	50		 push	 eax
  001e3	e8 00 00 00 00	 call	 _P_AddThinker
  001e8	83 c4 04	 add	 esp, 4

; 1671 : }

  001eb	5f		 pop	 edi
  001ec	5e		 pop	 esi
  001ed	5b		 pop	 ebx
  001ee	8b e5		 mov	 esp, ebp
  001f0	5d		 pop	 ebp
  001f1	c3		 ret	 0
_LoadCeilingThinker ENDP
_TEXT	ENDS
; Function compile flags: /Odtp /ZI
; File C:\Users\RafaTheFox\Downloads\SRB2-Public-master\src\p_saveg.c
;	COMDAT _LoadSpecialLevelThinker
_TEXT	SEGMENT
tv79 = -76						; size = 4
tv84 = -76						; size = 4
_i$ = -8						; size = 4
_ht$ = -4						; size = 4
_thinker$ = 8						; size = 4
_floorOrCeiling$ = 12					; size = 1
_LoadSpecialLevelThinker PROC				; COMDAT

; 1624 : {

  00000	55		 push	 ebp
  00001	8b ec		 mov	 ebp, esp
  00003	83 ec 4c	 sub	 esp, 76			; 0000004cH
  00006	53		 push	 ebx
  00007	56		 push	 esi
  00008	57		 push	 edi

; 1625 : 	levelspecthink_t *ht = Z_Malloc(sizeof (*ht), PU_LEVSPEC, NULL);

  00009	6a 00		 push	 0
  0000b	6a 00		 push	 0
  0000d	6a 33		 push	 51			; 00000033H
  0000f	6a 58		 push	 88			; 00000058H
  00011	e8 00 00 00 00	 call	 _Z_MallocAlign
  00016	83 c4 10	 add	 esp, 16			; 00000010H
  00019	89 45 fc	 mov	 DWORD PTR _ht$[ebp], eax

; 1626 : 	size_t i;
; 1627 : 	ht->thinker.function.acp1 = thinker;

  0001c	8b 45 fc	 mov	 eax, DWORD PTR _ht$[ebp]
  0001f	8b 4d 08	 mov	 ecx, DWORD PTR _thinker$[ebp]
  00022	89 48 08	 mov	 DWORD PTR [eax+8], ecx

; 1628 : 	for (i = 0; i < 16; i++)

  00025	c7 45 f8 00 00
	00 00		 mov	 DWORD PTR _i$[ebp], 0
  0002c	eb 09		 jmp	 SHORT $LN4@LoadSpecia
$LN2@LoadSpecia:
  0002e	8b 45 f8	 mov	 eax, DWORD PTR _i$[ebp]
  00031	83 c0 01	 add	 eax, 1
  00034	89 45 f8	 mov	 DWORD PTR _i$[ebp], eax
$LN4@LoadSpecia:
  00037	83 7d f8 10	 cmp	 DWORD PTR _i$[ebp], 16	; 00000010H
  0003b	73 21		 jae	 SHORT $LN3@LoadSpecia

; 1629 : 		ht->vars[i] = READFIXED(save_p); //var[16]

  0003d	8b 45 f8	 mov	 eax, DWORD PTR _i$[ebp]
  00040	8b 4d fc	 mov	 ecx, DWORD PTR _ht$[ebp]
  00043	8b 15 00 00 00
	00		 mov	 edx, DWORD PTR _save_p
  00049	8b 12		 mov	 edx, DWORD PTR [edx]
  0004b	89 54 81 10	 mov	 DWORD PTR [ecx+eax*4+16], edx
  0004f	a1 00 00 00 00	 mov	 eax, DWORD PTR _save_p
  00054	83 c0 04	 add	 eax, 4
  00057	a3 00 00 00 00	 mov	 DWORD PTR _save_p, eax
  0005c	eb d0		 jmp	 SHORT $LN2@LoadSpecia
$LN3@LoadSpecia:

; 1630 : 	ht->sourceline = LoadLine(READUINT32(save_p));

  0005e	a1 00 00 00 00	 mov	 eax, DWORD PTR _save_p
  00063	8b 08		 mov	 ecx, DWORD PTR [eax]
  00065	89 4d b4	 mov	 DWORD PTR tv79[ebp], ecx
  00068	8b 15 00 00 00
	00		 mov	 edx, DWORD PTR _save_p
  0006e	83 c2 04	 add	 edx, 4
  00071	89 15 00 00 00
	00		 mov	 DWORD PTR _save_p, edx
  00077	8b 45 b4	 mov	 eax, DWORD PTR tv79[ebp]
  0007a	50		 push	 eax
