; Listing generated by Microsoft (R) Optimizing Compiler Version 19.41.34123.0 

	TITLE	C:\Users\RafaTheFox\Desktop\SRB2-Public-master (1)\SRB2-Public-master\objs\VC10\Win32\Debug\p_user.obj
	.686P
	.XMM
	include listing.inc
	.model	flat

INCLUDELIB LIBCMTD
INCLUDELIB OLDNAMES

PUBLIC	_cv_cam_dist
PUBLIC	_cv_cam_still
PUBLIC	_cv_cam_height
PUBLIC	_cv_cam_speed
PUBLIC	_cv_cam_rotate
PUBLIC	_cv_cam_rotspeed
PUBLIC	_cv_cam2_dist
PUBLIC	_cv_cam2_still
PUBLIC	_cv_cam2_height
PUBLIC	_cv_cam2_speed
PUBLIC	_cv_cam2_rotate
PUBLIC	_cv_cam2_rotspeed
PUBLIC	_t_cam_dist
PUBLIC	_t_cam_height
PUBLIC	_t_cam_rotate
PUBLIC	_t_cam2_dist
PUBLIC	_t_cam2_height
PUBLIC	_t_cam2_rotate
PUBLIC	??_C@_03KGHEHEMH@MIN@				; `string'
PUBLIC	??_C@_03LEPPJAKI@MAX@				; `string'
PUBLIC	??_C@_08EAJIGCON@cam_dist@			; `string'
PUBLIC	??_C@_03KGFMDCCC@128@				; `string'
PUBLIC	??_C@_0L@JNGFDGHK@cam_height@			; `string'
PUBLIC	??_C@_02PIBHCBOA@20@				; `string'
PUBLIC	??_C@_09LMIBAGCP@cam_still@			; `string'
PUBLIC	??_C@_03GCDBBDDL@Off@				; `string'
PUBLIC	??_C@_09MENPKONA@cam_speed@			; `string'
PUBLIC	??_C@_04FNMPJLCB@0?425@				; `string'
PUBLIC	??_C@_0L@EKOKDHH@cam_rotate@			; `string'
PUBLIC	??_C@_01GBGANLPD@0@				; `string'
PUBLIC	??_C@_0N@NLLCLLPF@cam_rotspeed@			; `string'
PUBLIC	??_C@_02PKFBJPLJ@10@				; `string'
PUBLIC	??_C@_09NDAPAFNB@cam2_dist@			; `string'
PUBLIC	??_C@_0M@DNEACIOJ@cam2_height@			; `string'
PUBLIC	??_C@_0L@JDHNONMP@cam2_still@			; `string'
PUBLIC	??_C@_0L@OLCDEFDA@cam2_speed@			; `string'
PUBLIC	??_C@_0M@KEILLNOE@cam2_rotate@			; `string'
PUBLIC	??_C@_0O@HLNBPPGK@cam2_rotspeed@		; `string'
EXTRN	_CV_OnOff:BYTE
EXTRN	_CV_Unsigned:BYTE
_DATA	SEGMENT
COMM	_ATTRPACK:DWORD
COMM	_camera:BYTE:044H
COMM	_camera2:BYTE:044H
COMM	_playerdeadview:DWORD
_DATA	ENDS
;	COMDAT ??_C@_0O@HLNBPPGK@cam2_rotspeed@
CONST	SEGMENT
??_C@_0O@HLNBPPGK@cam2_rotspeed@ DB 'cam2_rotspeed', 00H ; `string'
CONST	ENDS
;	COMDAT ??_C@_0M@KEILLNOE@cam2_rotate@
CONST	SEGMENT
??_C@_0M@KEILLNOE@cam2_rotate@ DB 'cam2_rotate', 00H	; `string'
CONST	ENDS
;	COMDAT ??_C@_0L@OLCDEFDA@cam2_speed@
CONST	SEGMENT
??_C@_0L@OLCDEFDA@cam2_speed@ DB 'cam2_speed', 00H	; `string'
CONST	ENDS
;	COMDAT ??_C@_0L@JDHNONMP@cam2_still@
CONST	SEGMENT
??_C@_0L@JDHNONMP@cam2_still@ DB 'cam2_still', 00H	; `string'
CONST	ENDS
;	COMDAT ??_C@_0M@DNEACIOJ@cam2_height@
CONST	SEGMENT
??_C@_0M@DNEACIOJ@cam2_height@ DB 'cam2_height', 00H	; `string'
CONST	ENDS
;	COMDAT ??_C@_09NDAPAFNB@cam2_dist@
CONST	SEGMENT
??_C@_09NDAPAFNB@cam2_dist@ DB 'cam2_dist', 00H		; `string'
CONST	ENDS
;	COMDAT ??_C@_02PKFBJPLJ@10@
CONST	SEGMENT
??_C@_02PKFBJPLJ@10@ DB '10', 00H			; `string'
CONST	ENDS
;	COMDAT ??_C@_0N@NLLCLLPF@cam_rotspeed@
CONST	SEGMENT
??_C@_0N@NLLCLLPF@cam_rotspeed@ DB 'cam_rotspeed', 00H	; `string'
CONST	ENDS
;	COMDAT ??_C@_01GBGANLPD@0@
CONST	SEGMENT
??_C@_01GBGANLPD@0@ DB '0', 00H				; `string'
CONST	ENDS
;	COMDAT ??_C@_0L@EKOKDHH@cam_rotate@
CONST	SEGMENT
??_C@_0L@EKOKDHH@cam_rotate@ DB 'cam_rotate', 00H	; `string'
CONST	ENDS
;	COMDAT ??_C@_04FNMPJLCB@0?425@
CONST	SEGMENT
??_C@_04FNMPJLCB@0?425@ DB '0.25', 00H			; `string'
CONST	ENDS
;	COMDAT ??_C@_09MENPKONA@cam_speed@
CONST	SEGMENT
??_C@_09MENPKONA@cam_speed@ DB 'cam_speed', 00H		; `string'
CONST	ENDS
;	COMDAT ??_C@_03GCDBBDDL@Off@
CONST	SEGMENT
??_C@_03GCDBBDDL@Off@ DB 'Off', 00H			; `string'
CONST	ENDS
;	COMDAT ??_C@_09LMIBAGCP@cam_still@
CONST	SEGMENT
??_C@_09LMIBAGCP@cam_still@ DB 'cam_still', 00H		; `string'
CONST	ENDS
;	COMDAT ??_C@_02PIBHCBOA@20@
CONST	SEGMENT
??_C@_02PIBHCBOA@20@ DB '20', 00H			; `string'
CONST	ENDS
;	COMDAT ??_C@_0L@JNGFDGHK@cam_height@
CONST	SEGMENT
??_C@_0L@JNGFDGHK@cam_height@ DB 'cam_height', 00H	; `string'
CONST	ENDS
;	COMDAT ??_C@_03KGFMDCCC@128@
CONST	SEGMENT
??_C@_03KGFMDCCC@128@ DB '128', 00H			; `string'
CONST	ENDS
;	COMDAT ??_C@_08EAJIGCON@cam_dist@
CONST	SEGMENT
??_C@_08EAJIGCON@cam_dist@ DB 'cam_dist', 00H		; `string'
CONST	ENDS
;	COMDAT ??_C@_03LEPPJAKI@MAX@
CONST	SEGMENT
??_C@_03LEPPJAKI@MAX@ DB 'MAX', 00H			; `string'
CONST	ENDS
;	COMDAT ??_C@_03KGHEHEMH@MIN@
CONST	SEGMENT
??_C@_03KGHEHEMH@MIN@ DB 'MIN', 00H			; `string'
CONST	ENDS
_DATA	SEGMENT
_cv_cam_dist DD	FLAT:??_C@_08EAJIGCON@cam_dist@
	DD	FLAT:??_C@_03KGFMDCCC@128@
	DD	010H
	DD	00H
	DD	00H
	DD	00H
	DD	00H
	DD	00H
	DW	00H
	DB	00H
	ORG $+1
	DD	00H
_cv_cam_still DD FLAT:??_C@_09LMIBAGCP@cam_still@
	DD	FLAT:??_C@_03GCDBBDDL@Off@
	DD	00H
	DD	FLAT:_CV_OnOff
	DD	00H
	DD	00H
	DD	00H
	DD	00H
	DW	00H
	DB	00H
	ORG $+1
	DD	00H
_cv_cam_height DD FLAT:??_C@_0L@JNGFDGHK@cam_height@
	DD	FLAT:??_C@_02PIBHCBOA@20@
	DD	010H
	DD	00H
	DD	00H
	DD	00H
	DD	00H
	DD	00H
	DW	00H
	DB	00H
	ORG $+1
	DD	00H
_cv_cam_speed DD FLAT:??_C@_09MENPKONA@cam_speed@
	DD	FLAT:??_C@_04FNMPJLCB@0?425@
	DD	010H
	DD	00H
	DD	00H
	DD	00H
	DD	00H
	DD	00H
	DW	00H
	DB	00H
	ORG $+1
	DD	00H
_cv_cam_rotate DD FLAT:??_C@_0L@EKOKDHH@cam_rotate@
	DD	FLAT:??_C@_01GBGANLPD@0@
	DD	0aH
	DD	FLAT:_CV_Unsigned
	DD	FLAT:_CV_CamRotate_OnChange
	DD	00H
	DD	00H
	DD	00H
	DW	00H
	DB	00H
	ORG $+1
	DD	00H
_cv_cam_rotspeed DD FLAT:??_C@_0N@NLLCLLPF@cam_rotspeed@
	DD	FLAT:??_C@_02PKFBJPLJ@10@
	DD	00H
	DD	FLAT:_rotation_cons_t
	DD	00H
	DD	00H
	DD	00H
	DD	00H
	DW	00H
	DB	00H
	ORG $+1
	DD	00H
_cv_cam2_dist DD FLAT:??_C@_09NDAPAFNB@cam2_dist@
	DD	FLAT:??_C@_03KGFMDCCC@128@
	DD	010H
	DD	00H
	DD	00H
	DD	00H
	DD	00H
	DD	00H
	DW	00H
	DB	00H
	ORG $+1
	DD	00H
_cv_cam2_still DD FLAT:??_C@_0L@JDHNONMP@cam2_still@
	DD	FLAT:??_C@_03GCDBBDDL@Off@
	DD	00H
	DD	FLAT:_CV_OnOff
	DD	00H
	DD	00H
	DD	00H
	DD	00H
	DW	00H
	DB	00H
	ORG $+1
	DD	00H
_cv_cam2_height DD FLAT:??_C@_0M@DNEACIOJ@cam2_height@
	DD	FLAT:??_C@_02PIBHCBOA@20@
	DD	010H
	DD	00H
	DD	00H
	DD	00H
	DD	00H
	DD	00H
	DW	00H
	DB	00H
	ORG $+1
	DD	00H
_cv_cam2_speed DD FLAT:??_C@_0L@OLCDEFDA@cam2_speed@
	DD	FLAT:??_C@_04FNMPJLCB@0?425@
	DD	010H
	DD	00H
	DD	00H
	DD	00H
	DD	00H
	DD	00H
	DW	00H
	DB	00H
	ORG $+1
	DD	00H
_cv_cam2_rotate DD FLAT:??_C@_0M@KEILLNOE@cam2_rotate@
	DD	FLAT:??_C@_01GBGANLPD@0@
	DD	0aH
	DD	FLAT:_CV_Unsigned
	DD	FLAT:_CV_CamRotate2_OnChange
	DD	00H
	DD	00H
	DD	00H
	DW	00H
	DB	00H
	ORG $+1
	DD	00H
_cv_cam2_rotspeed DD FLAT:??_C@_0O@HLNBPPGK@cam2_rotspeed@
	DD	FLAT:??_C@_02PKFBJPLJ@10@
	DD	00H
	DD	FLAT:_rotation_cons_t
	DD	00H
	DD	00H
	DD	00H
	DD	00H
	DW	00H
	DB	00H
	ORG $+1
	DD	00H
_t_cam_dist DD	0ffffffd6H
_t_cam_height DD 0ffffffd6H
_t_cam_rotate DD 0ffffffd6H
_t_cam2_dist DD	0ffffffd6H
_t_cam2_height DD 0ffffffd6H
_t_cam2_rotate DD 0ffffffd6H
_rotation_cons_t DD 01H
	DD	FLAT:??_C@_03KGHEHEMH@MIN@
	DD	02dH
	DD	FLAT:??_C@_03LEPPJAKI@MAX@
	DD	00H
	DD	00H
_DATA	ENDS
PUBLIC	_P_GetPlayerHeight
PUBLIC	_P_GetPlayerSpinHeight
PUBLIC	_P_GetPlayerControlDirection
PUBLIC	_P_AddPlayerScore
PUBLIC	_P_ResetCamera
PUBLIC	_P_MoveChaseCamera
PUBLIC	_P_DoPlayerPain
PUBLIC	_P_ResetPlayer
PUBLIC	_P_IsLocalPlayer
PUBLIC	_P_IsObjectOnGround
PUBLIC	_P_SetObjectMomZ
PUBLIC	_P_RestoreMusic
PUBLIC	_P_SpawnShieldOrb
PUBLIC	_P_SpawnGhostMobj
PUBLIC	_P_GivePlayerRings
PUBLIC	_P_GivePlayerLives
PUBLIC	_P_GiveEmerald
PUBLIC	_P_ResetScore
PUBLIC	_P_FreezeObjectplace
PUBLIC	_P_PlayerThink
PUBLIC	_P_PlayerAfterThink
PUBLIC	_P_DoPlayerExit
PUBLIC	_P_NightserizePlayer
PUBLIC	_P_InstaThrust
PUBLIC	_P_ReturnThrustX
PUBLIC	_P_ReturnThrustY
PUBLIC	_P_InstaThrustEvenIn2D
PUBLIC	_P_LookForEnemies
PUBLIC	_P_NukeEnemies
PUBLIC	_P_HomingAttack
PUBLIC	_P_DoJump
PUBLIC	_P_TransferToNextMare
PUBLIC	_P_FindLowestMare
PUBLIC	_P_FindEmerald
PUBLIC	_P_TransferToAxis
PUBLIC	_P_PlayerMoving
PUBLIC	_P_CalcHeight
PUBLIC	_P_Thrust
PUBLIC	_P_DoSuperTransformation
PUBLIC	??_C@_0BH@HBJKBHJA@Lowest?5mare?5found?3?5?$CFd?6@ ; `string'
PUBLIC	??_C@_0M@NGAGLIEJ@Mare?5is?5?$CFd?6@		; `string'
PUBLIC	??_C@_0CK@MOPFLCEE@Transferring?5to?5axis?5?$CFd?6Levelti@ ; `string'
PUBLIC	??_C@_0DK@GBBHHOAI@ERROR?3?5Specified?5axis?5point?5to?5@ ; `string'
PUBLIC	??_C@_0CB@PKJLBCLC@Transferred?5to?5axis?5?$CFd?0?5mare?5?$CFd@ ; `string'
PUBLIC	??_C@_0BF@LJFKFFFI@?$CFs?2is?5now?5super?4?2?2?2?2@ ; `string'
PUBLIC	??_C@_0BC@ELCLDONG@?$CFs?5is?5now?5super?4?6@	; `string'
PUBLIC	??_C@_0BL@NFFMIKMN@?$CFs?2is?5no?5longer?5super?4?2?2?2?2@ ; `string'
PUBLIC	??_C@_0BI@JKFKFBCG@?$CFs?5is?5no?5longer?5super?4?6@ ; `string'
PUBLIC	??_C@_0CI@GEOBGIFJ@Mare?5does?5not?5form?5a?5complete?5c@ ; `string'
PUBLIC	??_C@_0BA@IGDIHNBH@Transfer1?5?3?5?$CFd?6@	; `string'
PUBLIC	??_C@_0BA@ILHHKPE@Transfer2?5?3?5?$CFd?6@	; `string'
PUBLIC	??_C@_0CI@DMPCCDBO@Unable?5to?5find?5an?5axis?5?9?5error?5@ ; `string'
PUBLIC	??_C@_09LGJMJNML@transfer?$CB@			; `string'
PUBLIC	??_C@_0CI@DOLEJNEH@Unable?5to?5find?5an?5axis?5?9?5error?5@ ; `string'
PUBLIC	??_C@_0CI@DPHGPHHA@Unable?5to?5find?5an?5axis?5?9?5error?5@ ; `string'
PUBLIC	??_C@_0CI@DKDJOBPF@Unable?5to?5find?5an?5axis?5?9?5error?5@ ; `string'
PUBLIC	??_C@_0BH@EMGHEBGJ@No?5axis?5points?5found?$CB?6@ ; `string'
PUBLIC	??_C@_02DKCKIIND@?$CFs@				; `string'
PUBLIC	??_C@_08HHHIMPMI@Z?5is?5?$CFd?6@		; `string'
PUBLIC	??_C@_0P@ENOLJJLK@Spawned?5at?5?$CFd?6@		; `string'
PUBLIC	??_C@_0BI@IBBIFLJG@Current?5mapthing?5is?5?$CFd?6@ ; `string'
PUBLIC	??_C@_0BC@DGJNOOL@below?5top?5ceiling@		; `string'
PUBLIC	??_C@_0BD@MDNKOOPK@above?5bottom?5floor@	; `string'
PUBLIC	??_C@_03IMLOALHE@low@				; `string'
PUBLIC	??_C@_04DGANLAON@high@				; `string'
PUBLIC	??_C@_0DJ@BIDHEMBC@Sorry?0?5you?8re?5too?5?$CFs?5to?5place?5t@ ; `string'
PUBLIC	??_C@_0DB@KDINGLJB@Placed?5object?5mapthingum?5?$CFd?0?5no@ ; `string'
PUBLIC	??_C@_0CJ@HJNKDBMH@Placed?5object?5type?5?$CFd?5at?5?$CFd?0?5?$CFd@ ; `string'
PUBLIC	??_C@_0N@KPNHJII@Deleting?4?4?4?6@		; `string'
PUBLIC	??_C@_09HOADHGNA@Deleted?4?6@			; `string'
PUBLIC	??_C@_0EB@FIHLLDFH@You?5cannot?5delete?5this?5item?5bec@ ; `string'
PUBLIC	??_C@_0L@FKKLEDAE@?$CFs?5is?5it?$CB?6@		; `string'
PUBLIC	??_C@_0DD@DEDIIPMB@You?5must?5wait?5until?5next?5round?5@ ; `string'
PUBLIC	??_C@_0CE@GFKDEHPF@Server?5does?5not?5allow?5team?5chan@ ; `string'
PUBLIC	??_C@_0P@HLFJDFHH@changeteam?5red@		; `string'
PUBLIC	??_C@_0BA@PEKCJCD@changeteam2?5red@		; `string'
PUBLIC	??_C@_0BA@NGJMDDAH@changeteam?5blue@		; `string'
PUBLIC	??_C@_0BB@LKOOLFPG@changeteam2?5blue@		; `string'
PUBLIC	??_C@_0BO@OPDLNCEP@Looking?5for?5next?5waypoint?4?4?4?6@ ; `string'
PUBLIC	??_C@_0CK@OOJOEGDC@Found?5waypoint?5?$CIsequence?5?$CFd?0?5nu@ ; `string'
PUBLIC	??_C@_0DC@HMALHLBL@Next?5waypoint?5not?5found?0?5releas@ ; `string'
PUBLIC	??_C@_0CP@DPKEPCAD@Next?5waypoint?5not?5found?0?5wrappi@ ; `string'
PUBLIC	??_C@_0BK@JEFHHCNP@Next?5waypoint?5not?5found?$CB?6@ ; `string'
PUBLIC	??_C@_0BI@IBDAHDKJ@?$CFs?5became?5a?5spectator?4?6@ ; `string'
PUBLIC	??_C@_0DK@LPFOPMHP@Note?3?5Player?5?$CFIu?5in?5PST_LIVE?5wi@ ; `string'
PUBLIC	__real@3f800000
PUBLIC	__real@3fb33333
EXTRN	_abs:PROC
EXTRN	_atoi:PROC
EXTRN	_I_Error:PROC
EXTRN	_CONS_Printf:PROC
EXTRN	_va:PROC
EXTRN	_FixedMul:PROC
EXTRN	_FixedDiv2:PROC
EXTRN	_FixedHypot:PROC
EXTRN	_I_OutputMsg:PROC
EXTRN	_AngleFixed:PROC
EXTRN	_FixedAngle:PROC
EXTRN	_FixedAngleC:PROC
EXTRN	_A_ChangeColorAbsolute:PROC
EXTRN	_P_MobjCheckWater:PROC
EXTRN	_P_SpawnMapThing:PROC
EXTRN	_P_SpawnHoopsAndRings:PROC
EXTRN	_P_SetScale:PROC
EXTRN	_P_XYMovement:PROC
EXTRN	_COM_ImmedExecute:PROC
EXTRN	_CV_SetValue:PROC
EXTRN	_SendNetXCmd:PROC
EXTRN	_G_ClipAimingPitch:PROC
EXTRN	_G_IsSpecialStage:PROC
EXTRN	_P_SetTarget:PROC
EXTRN	_P_PointInsidePolyobj:PROC
EXTRN	_P_MobjInsidePolyobj:PROC
EXTRN	_P_AproxDistance:PROC
EXTRN	_P_PointOnLineSide:PROC
EXTRN	_P_SpawnMobj:PROC
EXTRN	_P_RemoveMobj:PROC
EXTRN	_P_SetPlayerMobjState:PROC
EXTRN	_P_SetMobjState:PROC
EXTRN	_P_MobjThinker:PROC
EXTRN	_P_RailThinker:PROC
EXTRN	_P_InsideANonSolidFFloor:PROC
EXTRN	_P_SpawnXYZMissile:PROC
EXTRN	_P_SPMAngle:PROC
EXTRN	_P_ColorTeamMissile:PROC
EXTRN	_P_CameraThinker:PROC
EXTRN	_P_UnsetThingPosition:PROC
EXTRN	_P_SetThingPosition:PROC
EXTRN	_P_TryMove:PROC
EXTRN	_P_TeleportMove:PROC
EXTRN	_P_CheckSight:PROC
EXTRN	_P_DamageMobj:PROC
EXTRN	_P_PlayerEmeraldBurst:PROC
EXTRN	_P_PlayerFlagBurst:PROC
EXTRN	_P_CheckSurvivors:PROC
EXTRN	_P_CheckRacers:PROC
EXTRN	_P_PlayTauntSound:PROC
EXTRN	_P_PlayerInSpecialSector:PROC
EXTRN	_P_FindSpecialLineFromTag:PROC
EXTRN	_P_LinedefExecute:PROC
EXTRN	_EV_CrumbleChain:PROC
EXTRN	_EV_StartCrumble:PROC
EXTRN	_T_Scroll:PROC
EXTRN	_P_SetMobjStateNF:PROC
EXTRN	_R_PointToAngle2:PROC
EXTRN	_R_PointToDist2:PROC
EXTRN	_R_PointInSubsector:PROC
EXTRN	_R_IsPointInSubsector:PROC
EXTRN	_S_StartSound:PROC
EXTRN	_S_ChangeMusic:PROC
EXTRN	_S_SpeedMusic:PROC
EXTRN	_S_StopMusic:PROC
EXTRN	_P_Random:PROC
EXTRN	_P_SignedRandom:PROC
EXTRN	_Z_Free:PROC
EXTRN	_Z_CallocAlign:PROC
EXTRN	_Z_ReallocAlign:PROC
EXTRN	_HU_SetCEchoDuration:PROC
EXTRN	_HU_SetCEchoFlags:PROC
EXTRN	_HU_DoCEcho:PROC
EXTRN	_S_StartScreamSound:PROC
EXTRN	@__security_check_cookie@4:PROC
EXTRN	_gamestate:DWORD
EXTRN	_ultimatemode:BYTE
EXTRN	_ticruned:DWORD
EXTRN	_ticmiss:DWORD
EXTRN	_finesine:BYTE
EXTRN	_finecosine:DWORD
EXTRN	_S_music:BYTE
EXTRN	_states:BYTE
EXTRN	_mobjinfo:BYTE
EXTRN	_playerstatetics:BYTE
EXTRN	_gamemap:WORD
EXTRN	_mapmusic:DWORD
EXTRN	_maptol:WORD
EXTRN	_disableSpeedAdjust:DWORD
EXTRN	_netgame:DWORD
EXTRN	_multiplayer:DWORD
EXTRN	_gametype:WORD
EXTRN	_splitscreen:DWORD
EXTRN	_circuitmap:DWORD
EXTRN	_cv_debug:DWORD
EXTRN	_postimgtype:DWORD
EXTRN	_consoleplayer:DWORD
EXTRN	_displayplayer:DWORD
EXTRN	_secondarydisplayplayer:DWORD
EXTRN	_spstage_start:WORD
EXTRN	_racestage_start:WORD
EXTRN	_countdowntimeup:BYTE
EXTRN	_nextmapoverride:WORD
EXTRN	_skipstats:DWORD
EXTRN	_mapheaderinfo:BYTE
EXTRN	_emeralds:WORD
EXTRN	_token:DWORD
EXTRN	_tokenlist:DWORD
EXTRN	_tokenbits:DWORD
EXTRN	_bluescore:DWORD
EXTRN	_redscore:DWORD
EXTRN	_CheckForBustableBlocks:DWORD
EXTRN	_CheckForBouncySector:DWORD
EXTRN	_CheckForQuicksand:DWORD
EXTRN	_flashingtics:DWORD
EXTRN	_tailsflytics:DWORD
EXTRN	_extralifetics:DWORD
EXTRN	_hunt1:DWORD
EXTRN	_hunt2:DWORD
EXTRN	_hunt3:DWORD
EXTRN	_countdown:DWORD
EXTRN	_countdown2:DWORD
EXTRN	_gravity:DWORD
EXTRN	_hidetime:DWORD
EXTRN	_text:BYTE
EXTRN	_cv_seenames:BYTE
EXTRN	_cv_allowseenames:BYTE
EXTRN	_cv_tagtype:BYTE
EXTRN	_cv_matchtype:BYTE
EXTRN	_cv_allowexitlevel:BYTE
EXTRN	_cv_analog:BYTE
EXTRN	_cv_analog2:BYTE
EXTRN	_cv_countdowntime:BYTE
EXTRN	_cv_allowteamchange:BYTE
EXTRN	_cv_objectplace:BYTE
EXTRN	_cv_objflags:BYTE
EXTRN	_cv_mapthingnum:BYTE
EXTRN	_cv_speed:BYTE
EXTRN	_cv_snapto:BYTE
EXTRN	_cv_grid:BYTE
EXTRN	_cv_playersforexit:BYTE
EXTRN	_cv_resetmusic:BYTE
EXTRN	_cv_ringslinger:BYTE
EXTRN	_server:DWORD
EXTRN	_seenplayer:DWORD
EXTRN	_player_names:BYTE
EXTRN	_players:BYTE
EXTRN	_playeringame:BYTE
EXTRN	_demoplayback:DWORD
EXTRN	_gameovertics:DWORD
EXTRN	_timeinmap:DWORD
EXTRN	_localangle:DWORD
EXTRN	_localangle2:DWORD
EXTRN	_localaiming:DWORD
EXTRN	_localaiming2:DWORD
EXTRN	_leveltime:DWORD
EXTRN	_polyblocklinks:DWORD
EXTRN	_tmbbox:BYTE
EXTRN	_thinkercap:BYTE
EXTRN	_cv_viewheight:BYTE
EXTRN	_var1:DWORD
EXTRN	_var2:DWORD
EXTRN	_tmfloorz:DWORD
EXTRN	_tmceilingz:DWORD
EXTRN	_bmapwidth:DWORD
EXTRN	_bmapheight:DWORD
EXTRN	_bmaporgx:DWORD
EXTRN	_bmaporgy:DWORD
EXTRN	_sectors:DWORD
EXTRN	_lines:DWORD
EXTRN	_validcount:DWORD
EXTRN	_cv_chasecam:BYTE
EXTRN	_cv_chasecam2:BYTE
EXTRN	_mus_playing:DWORD
EXTRN	_skins:BYTE
EXTRN	_skyflatnum:DWORD
EXTRN	_nummapthings:DWORD
EXTRN	_mapthings:DWORD
EXTRN	_rendermode:DWORD
EXTRN	_cv_grfovchange:BYTE
EXTRN	___security_cookie:DWORD
EXTRN	__fltused:DWORD
_BSS	SEGMENT
_onground DD	01H DUP (?)
_BSS	ENDS
;	COMDAT __real@3fb33333
CONST	SEGMENT
__real@3fb33333 DD 03fb33333r			; 1.4
CONST	ENDS
;	COMDAT __real@3f800000
CONST	SEGMENT
__real@3f800000 DD 03f800000r			; 1
CONST	ENDS
;	COMDAT ??_C@_0DK@LPFOPMHP@Note?3?5Player?5?$CFIu?5in?5PST_LIVE?5wi@
CONST	SEGMENT
??_C@_0DK@LPFOPMHP@Note?3?5Player?5?$CFIu?5in?5PST_LIVE?5wi@ DB 'Note: Pl'
	DB	'ayer %Iu in PST_LIVE with 0 health. (Zombie bug)', 0aH, 00H ; `string'
CONST	ENDS
;	COMDAT ??_C@_0BI@IBDAHDKJ@?$CFs?5became?5a?5spectator?4?6@
CONST	SEGMENT
??_C@_0BI@IBDAHDKJ@?$CFs?5became?5a?5spectator?4?6@ DB '%s became a spect'
	DB	'ator.', 0aH, 00H				; `string'
CONST	ENDS
;	COMDAT ??_C@_0BK@JEFHHCNP@Next?5waypoint?5not?5found?$CB?6@
CONST	SEGMENT
??_C@_0BK@JEFHHCNP@Next?5waypoint?5not?5found?$CB?6@ DB 'Next waypoint no'
	DB	't found!', 0aH, 00H				; `string'
CONST	ENDS
;	COMDAT ??_C@_0CP@DPKEPCAD@Next?5waypoint?5not?5found?0?5wrappi@
CONST	SEGMENT
??_C@_0CP@DPKEPCAD@Next?5waypoint?5not?5found?0?5wrappi@ DB 'Next waypoin'
	DB	't not found, wrapping to start...', 0aH, 00H ; `string'
CONST	ENDS
;	COMDAT ??_C@_0DC@HMALHLBL@Next?5waypoint?5not?5found?0?5releas@
CONST	SEGMENT
??_C@_0DC@HMALHLBL@Next?5waypoint?5not?5found?0?5releas@ DB 'Next waypoin'
	DB	't not found, releasing from track...', 0aH, 00H ; `string'
CONST	ENDS
;	COMDAT ??_C@_0CK@OOJOEGDC@Found?5waypoint?5?$CIsequence?5?$CFd?0?5nu@
CONST	SEGMENT
??_C@_0CK@OOJOEGDC@Found?5waypoint?5?$CIsequence?5?$CFd?0?5nu@ DB 'Found '
	DB	'waypoint (sequence %d, number %d).', 0aH, 00H ; `string'
CONST	ENDS
;	COMDAT ??_C@_0BO@OPDLNCEP@Looking?5for?5next?5waypoint?4?4?4?6@
CONST	SEGMENT
??_C@_0BO@OPDLNCEP@Looking?5for?5next?5waypoint?4?4?4?6@ DB 'Looking for '
	DB	'next waypoint...', 0aH, 00H			; `string'
CONST	ENDS
;	COMDAT ??_C@_0BB@LKOOLFPG@changeteam2?5blue@
CONST	SEGMENT
??_C@_0BB@LKOOLFPG@changeteam2?5blue@ DB 'changeteam2 blue', 00H ; `string'
CONST	ENDS
;	COMDAT ??_C@_0BA@NGJMDDAH@changeteam?5blue@
CONST	SEGMENT
??_C@_0BA@NGJMDDAH@changeteam?5blue@ DB 'changeteam blue', 00H ; `string'
CONST	ENDS
;	COMDAT ??_C@_0BA@PEKCJCD@changeteam2?5red@
CONST	SEGMENT
??_C@_0BA@PEKCJCD@changeteam2?5red@ DB 'changeteam2 red', 00H ; `string'
CONST	ENDS
;	COMDAT ??_C@_0P@HLFJDFHH@changeteam?5red@
CONST	SEGMENT
??_C@_0P@HLFJDFHH@changeteam?5red@ DB 'changeteam red', 00H ; `string'
CONST	ENDS
;	COMDAT ??_C@_0CE@GFKDEHPF@Server?5does?5not?5allow?5team?5chan@
CONST	SEGMENT
??_C@_0CE@GFKDEHPF@Server?5does?5not?5allow?5team?5chan@ DB 'Server does '
	DB	'not allow team change.', 0aH, 00H		; `string'
CONST	ENDS
;	COMDAT ??_C@_0DD@DEDIIPMB@You?5must?5wait?5until?5next?5round?5@
CONST	SEGMENT
??_C@_0DD@DEDIIPMB@You?5must?5wait?5until?5next?5round?5@ DB 'You must wa'
	DB	'it until next round to enter the game.', 0aH, 00H ; `string'
CONST	ENDS
;	COMDAT ??_C@_0L@FKKLEDAE@?$CFs?5is?5it?$CB?6@
CONST	SEGMENT
??_C@_0L@FKKLEDAE@?$CFs?5is?5it?$CB?6@ DB '%s is it!', 0aH, 00H ; `string'
CONST	ENDS
;	COMDAT ??_C@_0EB@FIHLLDFH@You?5cannot?5delete?5this?5item?5bec@
CONST	SEGMENT
??_C@_0EB@FIHLLDFH@You?5cannot?5delete?5this?5item?5bec@ DB 'You cannot d'
	DB	'elete this item because it doesn''t have a mapthing!', 0aH, 00H ; `string'
CONST	ENDS
;	COMDAT ??_C@_09HOADHGNA@Deleted?4?6@
CONST	SEGMENT
??_C@_09HOADHGNA@Deleted?4?6@ DB 'Deleted.', 0aH, 00H	; `string'
CONST	ENDS
;	COMDAT ??_C@_0N@KPNHJII@Deleting?4?4?4?6@
CONST	SEGMENT
??_C@_0N@KPNHJII@Deleting?4?4?4?6@ DB 'Deleting...', 0aH, 00H ; `string'
CONST	ENDS
;	COMDAT ??_C@_0CJ@HJNKDBMH@Placed?5object?5type?5?$CFd?5at?5?$CFd?0?5?$CFd@
CONST	SEGMENT
??_C@_0CJ@HJNKDBMH@Placed?5object?5type?5?$CFd?5at?5?$CFd?0?5?$CFd@ DB 'P'
	DB	'laced object type %d at %d, %d, %d, %d', 0aH, 00H ; `string'
CONST	ENDS
;	COMDAT ??_C@_0DB@KDINGLJB@Placed?5object?5mapthingum?5?$CFd?0?5no@
CONST	SEGMENT
??_C@_0DB@KDINGLJB@Placed?5object?5mapthingum?5?$CFd?0?5no@ DB 'Placed ob'
	DB	'ject mapthingum %d, not the one below.', 0aH, 00H ; `string'
CONST	ENDS
;	COMDAT ??_C@_0DJ@BIDHEMBC@Sorry?0?5you?8re?5too?5?$CFs?5to?5place?5t@
CONST	SEGMENT
??_C@_0DJ@BIDHEMBC@Sorry?0?5you?8re?5too?5?$CFs?5to?5place?5t@ DB 'Sorry,'
	DB	' you''re too %s to place this object (max: %d %s).', 0aH, 00H ; `string'
CONST	ENDS
;	COMDAT ??_C@_04DGANLAON@high@
CONST	SEGMENT
??_C@_04DGANLAON@high@ DB 'high', 00H			; `string'
CONST	ENDS
;	COMDAT ??_C@_03IMLOALHE@low@
CONST	SEGMENT
??_C@_03IMLOALHE@low@ DB 'low', 00H			; `string'
CONST	ENDS
;	COMDAT ??_C@_0BD@MDNKOOPK@above?5bottom?5floor@
CONST	SEGMENT
??_C@_0BD@MDNKOOPK@above?5bottom?5floor@ DB 'above bottom floor', 00H ; `string'
CONST	ENDS
;	COMDAT ??_C@_0BC@DGJNOOL@below?5top?5ceiling@
CONST	SEGMENT
??_C@_0BC@DGJNOOL@below?5top?5ceiling@ DB 'below top ceiling', 00H ; `string'
CONST	ENDS
;	COMDAT ??_C@_0BI@IBBIFLJG@Current?5mapthing?5is?5?$CFd?6@
CONST	SEGMENT
??_C@_0BI@IBBIFLJG@Current?5mapthing?5is?5?$CFd?6@ DB 'Current mapthing i'
	DB	's %d', 0aH, 00H				; `string'
CONST	ENDS
;	COMDAT ??_C@_0P@ENOLJJLK@Spawned?5at?5?$CFd?6@
CONST	SEGMENT
??_C@_0P@ENOLJJLK@Spawned?5at?5?$CFd?6@ DB 'Spawned at %d', 0aH, 00H ; `string'
CONST	ENDS
;	COMDAT ??_C@_08HHHIMPMI@Z?5is?5?$CFd?6@
CONST	SEGMENT
??_C@_08HHHIMPMI@Z?5is?5?$CFd?6@ DB 'Z is %d', 0aH, 00H	; `string'
CONST	ENDS
;	COMDAT ??_C@_02DKCKIIND@?$CFs@
CONST	SEGMENT
??_C@_02DKCKIIND@?$CFs@ DB '%s', 00H			; `string'
CONST	ENDS
;	COMDAT ??_C@_0BH@EMGHEBGJ@No?5axis?5points?5found?$CB?6@
CONST	SEGMENT
??_C@_0BH@EMGHEBGJ@No?5axis?5points?5found?$CB?6@ DB 'No axis points foun'
	DB	'd!', 0aH, 00H				; `string'
CONST	ENDS
;	COMDAT ??_C@_0CI@DKDJOBPF@Unable?5to?5find?5an?5axis?5?9?5error?5@
CONST	SEGMENT
??_C@_0CI@DKDJOBPF@Unable?5to?5find?5an?5axis?5?9?5error?5@ DB 'Unable to'
	DB	' find an axis - error code #4', 0aH, 00H	; `string'
CONST	ENDS
;	COMDAT ??_C@_0CI@DPHGPHHA@Unable?5to?5find?5an?5axis?5?9?5error?5@
CONST	SEGMENT
??_C@_0CI@DPHGPHHA@Unable?5to?5find?5an?5axis?5?9?5error?5@ DB 'Unable to'
	DB	' find an axis - error code #3', 0aH, 00H	; `string'
CONST	ENDS
;	COMDAT ??_C@_0CI@DOLEJNEH@Unable?5to?5find?5an?5axis?5?9?5error?5@
CONST	SEGMENT
??_C@_0CI@DOLEJNEH@Unable?5to?5find?5an?5axis?5?9?5error?5@ DB 'Unable to'
	DB	' find an axis - error code #2', 0aH, 00H	; `string'
CONST	ENDS
;	COMDAT ??_C@_09LGJMJNML@transfer?$CB@
CONST	SEGMENT
??_C@_09LGJMJNML@transfer?$CB@ DB 'transfer!', 00H	; `string'
CONST	ENDS
;	COMDAT ??_C@_0CI@DMPCCDBO@Unable?5to?5find?5an?5axis?5?9?5error?5@
CONST	SEGMENT
??_C@_0CI@DMPCCDBO@Unable?5to?5find?5an?5axis?5?9?5error?5@ DB 'Unable to'
	DB	' find an axis - error code #1', 0aH, 00H	; `string'
CONST	ENDS
;	COMDAT ??_C@_0BA@ILHHKPE@Transfer2?5?3?5?$CFd?6@
CONST	SEGMENT
??_C@_0BA@ILHHKPE@Transfer2?5?3?5?$CFd?6@ DB 'Transfer2 : %d', 0aH, 00H ; `string'
CONST	ENDS
;	COMDAT ??_C@_0BA@IGDIHNBH@Transfer1?5?3?5?$CFd?6@
CONST	SEGMENT
??_C@_0BA@IGDIHNBH@Transfer1?5?3?5?$CFd?6@ DB 'Transfer1 : %d', 0aH, 00H ; `string'
CONST	ENDS
;	COMDAT ??_C@_0CI@GEOBGIFJ@Mare?5does?5not?5form?5a?5complete?5c@
CONST	SEGMENT
??_C@_0CI@GEOBGIFJ@Mare?5does?5not?5form?5a?5complete?5c@ DB 'Mare does n'
	DB	'ot form a complete circuit!', 0aH, 00H	; `string'
CONST	ENDS
;	COMDAT ??_C@_0BI@JKFKFBCG@?$CFs?5is?5no?5longer?5super?4?6@
CONST	SEGMENT
??_C@_0BI@JKFKFBCG@?$CFs?5is?5no?5longer?5super?4?6@ DB '%s is no longer '
	DB	'super.', 0aH, 00H				; `string'
CONST	ENDS
;	COMDAT ??_C@_0BL@NFFMIKMN@?$CFs?2is?5no?5longer?5super?4?2?2?2?2@
CONST	SEGMENT
??_C@_0BL@NFFMIKMN@?$CFs?2is?5no?5longer?5super?4?2?2?2?2@ DB '%s\is no l'
	DB	'onger super.\\\\', 00H			; `string'
CONST	ENDS
;	COMDAT ??_C@_0BC@ELCLDONG@?$CFs?5is?5now?5super?4?6@
CONST	SEGMENT
??_C@_0BC@ELCLDONG@?$CFs?5is?5now?5super?4?6@ DB '%s is now super.', 0aH, 00H ; `string'
CONST	ENDS
;	COMDAT ??_C@_0BF@LJFKFFFI@?$CFs?2is?5now?5super?4?2?2?2?2@
CONST	SEGMENT
??_C@_0BF@LJFKFFFI@?$CFs?2is?5now?5super?4?2?2?2?2@ DB '%s\is now super.\'
	DB	'\\\', 00H					; `string'
CONST	ENDS
;	COMDAT ??_C@_0CB@PKJLBCLC@Transferred?5to?5axis?5?$CFd?0?5mare?5?$CFd@
CONST	SEGMENT
??_C@_0CB@PKJLBCLC@Transferred?5to?5axis?5?$CFd?0?5mare?5?$CFd@ DB 'Trans'
	DB	'ferred to axis %d, mare %d', 0aH, 00H	; `string'
CONST	ENDS
;	COMDAT ??_C@_0DK@GBBHHOAI@ERROR?3?5Specified?5axis?5point?5to?5@
CONST	SEGMENT
??_C@_0DK@GBBHHOAI@ERROR?3?5Specified?5axis?5point?5to?5@ DB 'ERROR: Spec'
	DB	'ified axis point to transfer to not found!', 0aH, '%d', 0aH, 00H ; `string'
CONST	ENDS
;	COMDAT ??_C@_0CK@MOPFLCEE@Transferring?5to?5axis?5?$CFd?6Levelti@
CONST	SEGMENT
??_C@_0CK@MOPFLCEE@Transferring?5to?5axis?5?$CFd?6Levelti@ DB 'Transferri'
	DB	'ng to axis %d', 0aH, 'Leveltime: %u...', 0aH, 00H ; `string'
CONST	ENDS
;	COMDAT ??_C@_0M@NGAGLIEJ@Mare?5is?5?$CFd?6@
CONST	SEGMENT
??_C@_0M@NGAGLIEJ@Mare?5is?5?$CFd?6@ DB 'Mare is %d', 0aH, 00H ; `string'
CONST	ENDS
;	COMDAT ??_C@_0BH@HBJKBHJA@Lowest?5mare?5found?3?5?$CFd?6@
CONST	SEGMENT
??_C@_0BH@HBJKBHJA@Lowest?5mare?5found?3?5?$CFd?6@ DB 'Lowest mare found:'
	DB	' %d', 0aH, 00H				; `string'
CONST	ENDS
;	COMDAT voltbl
voltbl	SEGMENT
_volmd	DW	010H
	DW	087a8H
voltbl	ENDS
;	COMDAT voltbl
voltbl	SEGMENT
_volmd	DW	010H
	DW	0e44H
voltbl	ENDS
; Function compile flags: /Odtp /ZI
; File C:\Users\RafaTheFox\Desktop\SRB2-Public-master (1)\SRB2-Public-master\src\p_user.c
;	COMDAT _CV_CamRotate2_OnChange
_TEXT	SEGMENT
_CV_CamRotate2_OnChange PROC				; COMDAT

; 9095 : {

  00000	55		 push	 ebp
  00001	8b ec		 mov	 ebp, esp
  00003	83 ec 40	 sub	 esp, 64			; 00000040H
  00006	53		 push	 ebx
  00007	56		 push	 esi
  00008	57		 push	 edi

; 9096 : 	if (cv_cam2_rotate.value > 359)

  00009	81 3d 14 00 00
	00 67 01 00 00	 cmp	 DWORD PTR _cv_cam2_rotate+20, 359 ; 00000167H
  00013	7e 0f		 jle	 SHORT $LN2@CV_CamRota

; 9097 : 		CV_SetValue(&cv_cam2_rotate, 0);

  00015	6a 00		 push	 0
  00017	68 00 00 00 00	 push	 OFFSET _cv_cam2_rotate
  0001c	e8 00 00 00 00	 call	 _CV_SetValue
  00021	83 c4 08	 add	 esp, 8
$LN2@CV_CamRota:

; 9098 : }

  00024	5f		 pop	 edi
  00025	5e		 pop	 esi
  00026	5b		 pop	 ebx
  00027	8b e5		 mov	 esp, ebp
  00029	5d		 pop	 ebp
  0002a	c3		 ret	 0
_CV_CamRotate2_OnChange ENDP
_TEXT	ENDS
; Function compile flags: /Odtp /ZI
; File C:\Users\RafaTheFox\Desktop\SRB2-Public-master (1)\SRB2-Public-master\src\p_user.c
;	COMDAT _CV_CamRotate_OnChange
_TEXT	SEGMENT
_CV_CamRotate_OnChange PROC				; COMDAT

; 9089 : {

  00000	55		 push	 ebp
  00001	8b ec		 mov	 ebp, esp
  00003	83 ec 40	 sub	 esp, 64			; 00000040H
  00006	53		 push	 ebx
  00007	56		 push	 esi
  00008	57		 push	 edi

; 9090 : 	if (cv_cam_rotate.value > 359)

  00009	81 3d 14 00 00
	00 67 01 00 00	 cmp	 DWORD PTR _cv_cam_rotate+20, 359 ; 00000167H
  00013	7e 0f		 jle	 SHORT $LN2@CV_CamRota

; 9091 : 		CV_SetValue(&cv_cam_rotate, 0);

  00015	6a 00		 push	 0
  00017	68 00 00 00 00	 push	 OFFSET _cv_cam_rotate
  0001c	e8 00 00 00 00	 call	 _CV_SetValue
  00021	83 c4 08	 add	 esp, 8
$LN2@CV_CamRota:

; 9092 : }

  00024	5f		 pop	 edi
  00025	5e		 pop	 esi
  00026	5b		 pop	 ebx
  00027	8b e5		 mov	 esp, ebp
  00029	5d		 pop	 ebp
  0002a	c3		 ret	 0
_CV_CamRotate_OnChange ENDP
_TEXT	ENDS
; Function compile flags: /Odtp /ZI
; File C:\Users\RafaTheFox\Desktop\SRB2-Public-master (1)\SRB2-Public-master\src\p_user.c
;	COMDAT _P_DeathThink
_TEXT	SEGMENT
_i$1 = -12						; size = 4
_i$2 = -8						; size = 4
_cmd$ = -4						; size = 4
_player$ = 8						; size = 4
_P_DeathThink PROC					; COMDAT

; 8910 : {

  00000	55		 push	 ebp
  00001	8b ec		 mov	 ebp, esp
  00003	83 ec 4c	 sub	 esp, 76			; 0000004cH
  00006	53		 push	 ebx
  00007	56		 push	 esi
  00008	57		 push	 edi

; 8911 : 	ticcmd_t *cmd;
; 8912 : 
; 8913 : 	cmd = &player->cmd;

  00009	8b 45 08	 mov	 eax, DWORD PTR _player$[ebp]
  0000c	83 c0 08	 add	 eax, 8
  0000f	89 45 fc	 mov	 DWORD PTR _cmd$[ebp], eax

; 8914 : 
; 8915 : 	// fall to the ground
; 8916 : 	if (player->viewheight > 6*FRACUNIT)

  00012	8b 45 08	 mov	 eax, DWORD PTR _player$[ebp]
  00015	81 78 14 00 00
	06 00		 cmp	 DWORD PTR [eax+20], 393216 ; 00060000H
  0001c	7e 12		 jle	 SHORT $LN11@P_DeathThi

; 8917 : 		player->viewheight -= FRACUNIT;

  0001e	8b 45 08	 mov	 eax, DWORD PTR _player$[ebp]
  00021	8b 48 14	 mov	 ecx, DWORD PTR [eax+20]
  00024	81 e9 00 00 01
	00		 sub	 ecx, 65536		; 00010000H
  0002a	8b 55 08	 mov	 edx, DWORD PTR _player$[ebp]
  0002d	89 4a 14	 mov	 DWORD PTR [edx+20], ecx
$LN11@P_DeathThi:

; 8918 : 
; 8919 : 	if (player->viewheight < 6*FRACUNIT)

  00030	8b 45 08	 mov	 eax, DWORD PTR _player$[ebp]
  00033	81 78 14 00 00
	06 00		 cmp	 DWORD PTR [eax+20], 393216 ; 00060000H
  0003a	7d 0a		 jge	 SHORT $LN12@P_DeathThi

; 8920 : 		player->viewheight = 6*FRACUNIT;

  0003c	8b 45 08	 mov	 eax, DWORD PTR _player$[ebp]
  0003f	c7 40 14 00 00
	06 00		 mov	 DWORD PTR [eax+20], 393216 ; 00060000H
$LN12@P_DeathThi:

; 8921 : 
; 8922 : 	player->deltaviewheight = 0;

  00046	8b 45 08	 mov	 eax, DWORD PTR _player$[ebp]
  00049	c7 40 18 00 00
	00 00		 mov	 DWORD PTR [eax+24], 0

; 8923 : 	onground = P_IsObjectOnGround(player->mo);

  00050	8b 45 08	 mov	 eax, DWORD PTR _player$[ebp]
  00053	8b 08		 mov	 ecx, DWORD PTR [eax]
  00055	51		 push	 ecx
  00056	e8 00 00 00 00	 call	 _P_IsObjectOnGround
  0005b	83 c4 04	 add	 esp, 4
  0005e	a3 00 00 00 00	 mov	 DWORD PTR _onground, eax

; 8924 : 
; 8925 : 	P_CalcHeight(player);

  00063	8b 45 08	 mov	 eax, DWORD PTR _player$[ebp]
  00066	50		 push	 eax
  00067	e8 00 00 00 00	 call	 _P_CalcHeight
  0006c	83 c4 04	 add	 esp, 4

; 8926 : 
; 8927 : 	if (!player->deadtimer)

  0006f	8b 45 08	 mov	 eax, DWORD PTR _player$[ebp]
  00072	83 b8 28 01 00
	00 00		 cmp	 DWORD PTR [eax+296], 0
  00079	75 0d		 jne	 SHORT $LN13@P_DeathThi

; 8928 : 		player->deadtimer = 60*TICRATE;

  0007b	8b 45 08	 mov	 eax, DWORD PTR _player$[ebp]
  0007e	c7 80 28 01 00
	00 34 08 00 00	 mov	 DWORD PTR [eax+296], 2100 ; 00000834H
$LN13@P_DeathThi:

; 8929 : 
; 8930 : 	player->deadtimer--;

  00088	8b 45 08	 mov	 eax, DWORD PTR _player$[ebp]
  0008b	8b 88 28 01 00
	00		 mov	 ecx, DWORD PTR [eax+296]
  00091	83 e9 01	 sub	 ecx, 1
  00094	8b 55 08	 mov	 edx, DWORD PTR _player$[ebp]
  00097	89 8a 28 01 00
	00		 mov	 DWORD PTR [edx+296], ecx

; 8931 : 	player->pflags &= ~PF_SLIDING;

  0009d	8b 45 08	 mov	 eax, DWORD PTR _player$[ebp]
  000a0	8b 88 ac 00 00
	00		 mov	 ecx, DWORD PTR [eax+172]
  000a6	81 e1 ff ff fb
	ff		 and	 ecx, -262145		; fffbffffH
  000ac	8b 55 08	 mov	 edx, DWORD PTR _player$[ebp]
  000af	89 8a ac 00 00
	00		 mov	 DWORD PTR [edx+172], ecx

; 8932 : 
; 8933 : 	if (!(multiplayer || netgame) && (cmd->buttons & BT_USE || cmd->buttons & BT_JUMP) && (player->lives <= 0) && (player->deadtimer > gameovertics+2) && (player->continues > 0))

  000b5	83 3d 00 00 00
	00 00		 cmp	 DWORD PTR _multiplayer, 0
  000bc	75 63		 jne	 SHORT $LN14@P_DeathThi
  000be	83 3d 00 00 00
	00 00		 cmp	 DWORD PTR _netgame, 0
  000c5	75 5a		 jne	 SHORT $LN14@P_DeathThi
  000c7	8b 45 fc	 mov	 eax, DWORD PTR _cmd$[ebp]
  000ca	0f b7 48 06	 movzx	 ecx, WORD PTR [eax+6]
  000ce	81 e1 00 02 00
	00		 and	 ecx, 512		; 00000200H
  000d4	75 0f		 jne	 SHORT $LN15@P_DeathThi
  000d6	8b 45 fc	 mov	 eax, DWORD PTR _cmd$[ebp]
  000d9	0f b7 48 06	 movzx	 ecx, WORD PTR [eax+6]
  000dd	81 e1 00 40 00
	00		 and	 ecx, 16384		; 00004000H
  000e3	74 3c		 je	 SHORT $LN14@P_DeathThi
$LN15@P_DeathThi:
  000e5	8b 45 08	 mov	 eax, DWORD PTR _player$[ebp]
  000e8	83 b8 00 01 00
	00 00		 cmp	 DWORD PTR [eax+256], 0
  000ef	7f 30		 jg	 SHORT $LN14@P_DeathThi
  000f1	a1 00 00 00 00	 mov	 eax, DWORD PTR _gameovertics
  000f6	83 c0 02	 add	 eax, 2
  000f9	8b 4d 08	 mov	 ecx, DWORD PTR _player$[ebp]
  000fc	39 81 28 01 00
	00		 cmp	 DWORD PTR [ecx+296], eax
  00102	7e 1d		 jle	 SHORT $LN14@P_DeathThi
  00104	8b 45 08	 mov	 eax, DWORD PTR _player$[ebp]
  00107	83 b8 04 01 00
	00 00		 cmp	 DWORD PTR [eax+260], 0
  0010e	7e 11		 jle	 SHORT $LN14@P_DeathThi

; 8934 : 		player->deadtimer = gameovertics+2;

  00110	a1 00 00 00 00	 mov	 eax, DWORD PTR _gameovertics
  00115	83 c0 02	 add	 eax, 2
  00118	8b 4d 08	 mov	 ecx, DWORD PTR _player$[ebp]
  0011b	89 81 28 01 00
	00		 mov	 DWORD PTR [ecx+296], eax
$LN14@P_DeathThi:

; 8935 : 
; 8936 : 	// Respawn as spectator?
; 8937 : 	if ((splitscreen || netgame) && (cmd->buttons & BT_TOSSFLAG) && (!player->spectator))

  00121	83 3d 00 00 00
	00 00		 cmp	 DWORD PTR _splitscreen, 0
  00128	75 0d		 jne	 SHORT $LN17@P_DeathThi
  0012a	83 3d 00 00 00
	00 00		 cmp	 DWORD PTR _netgame, 0
  00131	0f 84 cd 00 00
	00		 je	 $LN21@P_DeathThi
$LN17@P_DeathThi:
  00137	8b 45 fc	 mov	 eax, DWORD PTR _cmd$[ebp]
  0013a	0f b7 48 06	 movzx	 ecx, WORD PTR [eax+6]
  0013e	81 e1 00 20 00
	00		 and	 ecx, 8192		; 00002000H
  00144	0f 84 ba 00 00
	00		 je	 $LN21@P_DeathThi
  0014a	8b 45 08	 mov	 eax, DWORD PTR _player$[ebp]
  0014d	0f b6 88 f0 01
	00 00		 movzx	 ecx, BYTE PTR [eax+496]
  00154	85 c9		 test	 ecx, ecx
  00156	0f 85 a8 00 00
	00		 jne	 $LN21@P_DeathThi

; 8938 : 	{
; 8939 : 		if ((gametype == GT_MATCH && !cv_matchtype.value) || gametype == GT_TAG)

  0015c	0f bf 05 00 00
	00 00		 movsx	 eax, WORD PTR _gametype
  00163	83 f8 01	 cmp	 eax, 1
  00166	75 09		 jne	 SHORT $LN20@P_DeathThi
  00168	83 3d 14 00 00
	00 00		 cmp	 DWORD PTR _cv_matchtype+20, 0
  0016f	74 10		 je	 SHORT $LN19@P_DeathThi
$LN20@P_DeathThi:
  00171	0f bf 05 00 00
	00 00		 movsx	 eax, WORD PTR _gametype
  00178	83 f8 03	 cmp	 eax, 3
  0017b	0f 85 83 00 00
	00		 jne	 $LN21@P_DeathThi
$LN19@P_DeathThi:

; 8940 : 		{
; 8941 : 			player->spectator = true;

  00181	8b 45 08	 mov	 eax, DWORD PTR _player$[ebp]
  00184	c6 80 f0 01 00
	00 01		 mov	 BYTE PTR [eax+496], 1

; 8942 : 			player->score = 0;

  0018b	8b 45 08	 mov	 eax, DWORD PTR _player$[ebp]
  0018e	c7 80 bc 00 00
	00 00 00 00 00	 mov	 DWORD PTR [eax+188], 0

; 8943 : 			player->playerstate = PST_REBORN;

  00198	8b 45 08	 mov	 eax, DWORD PTR _player$[ebp]
  0019b	c7 40 04 02 00
	00 00		 mov	 DWORD PTR [eax+4], 2

; 8944 : 			CONS_Printf("%s became a spectator.\n", player_names[player-players]);

  001a2	8b 45 08	 mov	 eax, DWORD PTR _player$[ebp]
  001a5	2d 00 00 00 00	 sub	 eax, OFFSET _players
  001aa	99		 cdq
  001ab	b9 fc 01 00 00	 mov	 ecx, 508		; 000001fcH
  001b0	f7 f9		 idiv	 ecx
  001b2	6b d0 16	 imul	 edx, eax, 22
  001b5	81 c2 00 00 00
	00		 add	 edx, OFFSET _player_names
  001bb	52		 push	 edx
  001bc	68 00 00 00 00	 push	 OFFSET ??_C@_0BI@IBDAHDKJ@?$CFs?5became?5a?5spectator?4?6@
  001c1	e8 00 00 00 00	 call	 _CONS_Printf
  001c6	83 c4 08	 add	 esp, 8

; 8945 : 
; 8946 : 			if (gametype == GT_TAG)

  001c9	0f bf 05 00 00
	00 00		 movsx	 eax, WORD PTR _gametype
  001d0	83 f8 03	 cmp	 eax, 3
  001d3	75 2f		 jne	 SHORT $LN21@P_DeathThi

; 8947 : 			{
; 8948 : 				if (player->pflags & PF_TAGIT)

  001d5	8b 45 08	 mov	 eax, DWORD PTR _player$[ebp]
  001d8	8b 88 ac 00 00
	00		 mov	 ecx, DWORD PTR [eax+172]
  001de	81 e1 00 00 00
	10		 and	 ecx, 268435456		; 10000000H
  001e4	74 18		 je	 SHORT $LN22@P_DeathThi

; 8949 : 					player->pflags &= ~PF_TAGIT;

  001e6	8b 45 08	 mov	 eax, DWORD PTR _player$[ebp]
  001e9	8b 88 ac 00 00
	00		 mov	 ecx, DWORD PTR [eax+172]
  001ef	81 e1 ff ff ff
	ef		 and	 ecx, -268435457		; efffffffH
  001f5	8b 55 08	 mov	 edx, DWORD PTR _player$[ebp]
  001f8	89 8a ac 00 00
	00		 mov	 DWORD PTR [edx+172], ecx
$LN22@P_DeathThi:

; 8950 : 
; 8951 : 				P_CheckSurvivors(); //see if you still have a game.

  001fe	e8 00 00 00 00	 call	 _P_CheckSurvivors
  00203	90		 npad	 1
$LN21@P_DeathThi:

; 8952 : 			}
; 8953 : 		}
; 8954 : 	}
; 8955 : 
; 8956 : 	if ((cmd->buttons & BT_JUMP) && (gametype == GT_MATCH

  00204	8b 45 fc	 mov	 eax, DWORD PTR _cmd$[ebp]
  00207	0f b7 48 06	 movzx	 ecx, WORD PTR [eax+6]
  0020b	81 e1 00 40 00
	00		 and	 ecx, 16384		; 00004000H
  00211	74 33		 je	 SHORT $LN23@P_DeathThi
  00213	0f bf 05 00 00
	00 00		 movsx	 eax, WORD PTR _gametype
  0021a	83 f8 01	 cmp	 eax, 1
  0021d	74 18		 je	 SHORT $LN25@P_DeathThi
  0021f	0f bf 05 00 00
	00 00		 movsx	 eax, WORD PTR _gametype
  00226	83 f8 03	 cmp	 eax, 3
  00229	74 0c		 je	 SHORT $LN25@P_DeathThi
  0022b	0f bf 05 00 00
	00 00		 movsx	 eax, WORD PTR _gametype
  00232	83 f8 04	 cmp	 eax, 4
  00235	75 0f		 jne	 SHORT $LN23@P_DeathThi
$LN25@P_DeathThi:

; 8957 : #ifdef CHAOSISNOTDEADYET
; 8958 : 		|| gametype == GT_CHAOS
; 8959 : #endif
; 8960 : 		|| gametype == GT_TAG || gametype == GT_CTF))
; 8961 : 	{
; 8962 : 		player->playerstate = PST_REBORN;

  00237	8b 45 08	 mov	 eax, DWORD PTR _player$[ebp]
  0023a	c7 40 04 02 00
	00 00		 mov	 DWORD PTR [eax+4], 2

; 8963 : 	}

  00241	e9 b9 02 00 00	 jmp	 $LN45@P_DeathThi
$LN23@P_DeathThi:

; 8964 : 	else if (player->deadtimer < 30*TICRATE && (gametype != GT_COOP && gametype != GT_RACE))

  00246	8b 45 08	 mov	 eax, DWORD PTR _player$[ebp]
  00249	81 b8 28 01 00
	00 1a 04 00 00	 cmp	 DWORD PTR [eax+296], 1050 ; 0000041aH
  00253	7d 26		 jge	 SHORT $LN26@P_DeathThi
  00255	0f bf 05 00 00
	00 00		 movsx	 eax, WORD PTR _gametype
  0025c	85 c0		 test	 eax, eax
  0025e	74 1b		 je	 SHORT $LN26@P_DeathThi
  00260	0f bf 05 00 00
	00 00		 movsx	 eax, WORD PTR _gametype
  00267	83 f8 02	 cmp	 eax, 2
  0026a	74 0f		 je	 SHORT $LN26@P_DeathThi

; 8965 : 	{
; 8966 : 		player->playerstate = PST_REBORN;

  0026c	8b 45 08	 mov	 eax, DWORD PTR _player$[ebp]
  0026f	c7 40 04 02 00
	00 00		 mov	 DWORD PTR [eax+4], 2

; 8967 : 	}

  00276	e9 84 02 00 00	 jmp	 $LN45@P_DeathThi
$LN26@P_DeathThi:

; 8968 : 	else if (player->lives > 0 && !G_IsSpecialStage(gamemap)) // Don't allow "click to respawn" in special stages!

  0027b	8b 45 08	 mov	 eax, DWORD PTR _player$[ebp]
  0027e	83 b8 00 01 00
	00 00		 cmp	 DWORD PTR [eax+256], 0
  00285	0f 8e d2 00 00
	00		 jle	 $LN28@P_DeathThi
  0028b	0f bf 05 00 00
	00 00		 movsx	 eax, WORD PTR _gamemap
  00292	50		 push	 eax
  00293	e8 00 00 00 00	 call	 _G_IsSpecialStage
  00298	83 c4 04	 add	 esp, 4
  0029b	85 c0		 test	 eax, eax
  0029d	0f 85 ba 00 00
	00		 jne	 $LN28@P_DeathThi

; 8969 : 	{
; 8970 : 		// Respawn with jump button
; 8971 : 		if ((cmd->buttons & BT_JUMP) && player->deadtimer < 59*TICRATE && gametype != GT_RACE)

  002a3	8b 45 fc	 mov	 eax, DWORD PTR _cmd$[ebp]
  002a6	0f b7 48 06	 movzx	 ecx, WORD PTR [eax+6]
  002aa	81 e1 00 40 00
	00		 and	 ecx, 16384		; 00004000H
  002b0	74 25		 je	 SHORT $LN30@P_DeathThi
  002b2	8b 45 08	 mov	 eax, DWORD PTR _player$[ebp]
  002b5	81 b8 28 01 00
	00 11 08 00 00	 cmp	 DWORD PTR [eax+296], 2065 ; 00000811H
  002bf	7d 16		 jge	 SHORT $LN30@P_DeathThi
  002c1	0f bf 05 00 00
	00 00		 movsx	 eax, WORD PTR _gametype
  002c8	83 f8 02	 cmp	 eax, 2
  002cb	74 0a		 je	 SHORT $LN30@P_DeathThi

; 8972 : 			player->playerstate = PST_REBORN;

  002cd	8b 45 08	 mov	 eax, DWORD PTR _player$[ebp]
  002d0	c7 40 04 02 00
	00 00		 mov	 DWORD PTR [eax+4], 2
$LN30@P_DeathThi:

; 8973 : 
; 8974 : 		if ((cmd->buttons & BT_JUMP) && gametype == GT_RACE)

  002d7	8b 45 fc	 mov	 eax, DWORD PTR _cmd$[ebp]
  002da	0f b7 48 06	 movzx	 ecx, WORD PTR [eax+6]
  002de	81 e1 00 40 00
	00		 and	 ecx, 16384		; 00004000H
  002e4	74 16		 je	 SHORT $LN31@P_DeathThi
  002e6	0f bf 05 00 00
	00 00		 movsx	 eax, WORD PTR _gametype
  002ed	83 f8 02	 cmp	 eax, 2
  002f0	75 0a		 jne	 SHORT $LN31@P_DeathThi

; 8975 : 			player->playerstate = PST_REBORN;

  002f2	8b 45 08	 mov	 eax, DWORD PTR _player$[ebp]
  002f5	c7 40 04 02 00
	00 00		 mov	 DWORD PTR [eax+4], 2
$LN31@P_DeathThi:

; 8976 : 
; 8977 : 		if (player->deadtimer < 56*TICRATE && gametype == GT_COOP)

  002fc	8b 45 08	 mov	 eax, DWORD PTR _player$[ebp]
  002ff	81 b8 28 01 00
	00 a8 07 00 00	 cmp	 DWORD PTR [eax+296], 1960 ; 000007a8H
  00309	7d 15		 jge	 SHORT $LN32@P_DeathThi
  0030b	0f bf 05 00 00
	00 00		 movsx	 eax, WORD PTR _gametype
  00312	85 c0		 test	 eax, eax
  00314	75 0a		 jne	 SHORT $LN32@P_DeathThi

; 8978 : 			player->playerstate = PST_REBORN;

  00316	8b 45 08	 mov	 eax, DWORD PTR _player$[ebp]
  00319	c7 40 04 02 00
	00 00		 mov	 DWORD PTR [eax+4], 2
$LN32@P_DeathThi:

; 8979 : 
; 8980 : 		if (player->mo->z < R_PointInSubsector(player->mo->x, player->mo->y)->sector->floorheight

  00320	8b 45 08	 mov	 eax, DWORD PTR _player$[ebp]
  00323	8b 30		 mov	 esi, DWORD PTR [eax]
  00325	8b 4d 08	 mov	 ecx, DWORD PTR _player$[ebp]
  00328	8b 11		 mov	 edx, DWORD PTR [ecx]
  0032a	8b 42 14	 mov	 eax, DWORD PTR [edx+20]
  0032d	50		 push	 eax
  0032e	8b 4d 08	 mov	 ecx, DWORD PTR _player$[ebp]
  00331	8b 11		 mov	 edx, DWORD PTR [ecx]
  00333	8b 42 10	 mov	 eax, DWORD PTR [edx+16]
  00336	50		 push	 eax
  00337	e8 00 00 00 00	 call	 _R_PointInSubsector
  0033c	83 c4 08	 add	 esp, 8
  0033f	8b 08		 mov	 ecx, DWORD PTR [eax]
  00341	8b 11		 mov	 edx, DWORD PTR [ecx]
  00343	81 ea 00 00 10
	27		 sub	 edx, 655360000		; 27100000H
  00349	39 56 18	 cmp	 DWORD PTR [esi+24], edx
  0034c	7d 0a		 jge	 SHORT $LN33@P_DeathThi

; 8981 : 			- 10000*FRACUNIT)
; 8982 : 		{
; 8983 : 			player->playerstate = PST_REBORN;

  0034e	8b 45 08	 mov	 eax, DWORD PTR _player$[ebp]
  00351	c7 40 04 02 00
	00 00		 mov	 DWORD PTR [eax+4], 2
$LN33@P_DeathThi:

; 8984 : 		}
; 8985 : 	}

  00358	e9 a2 01 00 00	 jmp	 $LN45@P_DeathThi
$LN28@P_DeathThi:

; 8986 : 	else if ((netgame || multiplayer) && player->deadtimer == 48*TICRATE)

  0035d	83 3d 00 00 00
	00 00		 cmp	 DWORD PTR _netgame, 0
  00364	75 0d		 jne	 SHORT $LN35@P_DeathThi
  00366	83 3d 00 00 00
	00 00		 cmp	 DWORD PTR _multiplayer, 0
  0036d	0f 84 8c 01 00
	00		 je	 $LN45@P_DeathThi
$LN35@P_DeathThi:
  00373	8b 45 08	 mov	 eax, DWORD PTR _player$[ebp]
  00376	81 b8 28 01 00
	00 90 06 00 00	 cmp	 DWORD PTR [eax+296], 1680 ; 00000690H
  00380	0f 85 79 01 00
	00		 jne	 $LN45@P_DeathThi

; 8987 : 	{
; 8988 : 		// In a net/multiplayer game, and out of lives
; 8989 : 		if (gametype == GT_RACE)

  00386	0f bf 05 00 00
	00 00		 movsx	 eax, WORD PTR _gametype
  0038d	83 f8 02	 cmp	 eax, 2
  00390	0f 85 8d 00 00
	00		 jne	 $LN41@P_DeathThi

; 8990 : 		{
; 8991 : 			INT32 i;
; 8992 : 
; 8993 : 			for (i = 0; i < MAXPLAYERS; i++)

  00396	c7 45 f8 00 00
	00 00		 mov	 DWORD PTR _i$2[ebp], 0
  0039d	eb 09		 jmp	 SHORT $LN4@P_DeathThi
$LN2@P_DeathThi:
  0039f	8b 45 f8	 mov	 eax, DWORD PTR _i$2[ebp]
  003a2	83 c0 01	 add	 eax, 1
  003a5	89 45 f8	 mov	 DWORD PTR _i$2[ebp], eax
$LN4@P_DeathThi:
  003a8	83 7d f8 20	 cmp	 DWORD PTR _i$2[ebp], 32	; 00000020H
  003ac	7d 31		 jge	 SHORT $LN3@P_DeathThi

; 8994 : 				if (playeringame[i] && !players[i].exiting && players[i].lives > 0)

  003ae	8b 45 f8	 mov	 eax, DWORD PTR _i$2[ebp]
  003b1	83 3c 85 00 00
	00 00 00	 cmp	 DWORD PTR _playeringame[eax*4], 0
  003b9	74 22		 je	 SHORT $LN37@P_DeathThi
  003bb	69 45 f8 fc 01
	00 00		 imul	 eax, DWORD PTR _i$2[ebp], 508
  003c2	83 b8 30 01 00
	00 00		 cmp	 DWORD PTR _players[eax+304], 0
  003c9	75 12		 jne	 SHORT $LN37@P_DeathThi
  003cb	69 45 f8 fc 01
	00 00		 imul	 eax, DWORD PTR _i$2[ebp], 508
  003d2	83 b8 00 01 00
	00 00		 cmp	 DWORD PTR _players[eax+256], 0
  003d9	7e 02		 jle	 SHORT $LN37@P_DeathThi

; 8995 : 					break;

  003db	eb 02		 jmp	 SHORT $LN3@P_DeathThi
$LN37@P_DeathThi:
  003dd	eb c0		 jmp	 SHORT $LN2@P_DeathThi
$LN3@P_DeathThi:

; 8996 : 
; 8997 : 			if (i == MAXPLAYERS)

  003df	83 7d f8 20	 cmp	 DWORD PTR _i$2[ebp], 32	; 00000020H
  003e3	75 3e		 jne	 SHORT $LN41@P_DeathThi

; 8998 : 			{
; 8999 : 				// Everyone's either done with the race, or dead.
; 9000 : 				if (!countdown2)

  003e5	83 3d 00 00 00
	00 00		 cmp	 DWORD PTR _countdown2, 0
  003ec	75 22		 jne	 SHORT $LN39@P_DeathThi

; 9001 : 				{
; 9002 : 					// Everyone just.. died. XD
; 9003 : 					nextmapoverride = racestage_start;

  003ee	66 a1 00 00 00
	00		 mov	 ax, WORD PTR _racestage_start
  003f4	66 a3 00 00 00
	00		 mov	 WORD PTR _nextmapoverride, ax

; 9004 : 					countdown2 = 1*TICRATE;

  003fa	c7 05 00 00 00
	00 23 00 00 00	 mov	 DWORD PTR _countdown2, 35 ; 00000023H

; 9005 : 					skipstats = true;

  00404	c7 05 00 00 00
	00 01 00 00 00	 mov	 DWORD PTR _skipstats, 1

; 9006 : 				}

  0040e	eb 13		 jmp	 SHORT $LN41@P_DeathThi
$LN39@P_DeathThi:

; 9007 : 				else if (countdown2 > 1*TICRATE)

  00410	83 3d 00 00 00
	00 23		 cmp	 DWORD PTR _countdown2, 35 ; 00000023H
  00417	76 0a		 jbe	 SHORT $LN41@P_DeathThi

; 9008 : 					countdown2 = 1*TICRATE;

  00419	c7 05 00 00 00
	00 23 00 00 00	 mov	 DWORD PTR _countdown2, 35 ; 00000023H
$LN41@P_DeathThi:

; 9009 : 			}
; 9010 : 		}
; 9011 : 
; 9012 : 		// In a coop game, and out of lives
; 9013 : 		if (gametype == GT_COOP)

  00423	0f bf 05 00 00
	00 00		 movsx	 eax, WORD PTR _gametype
  0042a	85 c0		 test	 eax, eax
  0042c	0f 85 cd 00 00
	00		 jne	 $LN45@P_DeathThi

; 9014 : 		{
; 9015 : 			INT32 i;
; 9016 : 
; 9017 : 			for (i = 0; i < MAXPLAYERS; i++)

  00432	c7 45 f4 00 00
	00 00		 mov	 DWORD PTR _i$1[ebp], 0
  00439	eb 09		 jmp	 SHORT $LN7@P_DeathThi
$LN5@P_DeathThi:
  0043b	8b 45 f4	 mov	 eax, DWORD PTR _i$1[ebp]
  0043e	83 c0 01	 add	 eax, 1
  00441	89 45 f4	 mov	 DWORD PTR _i$1[ebp], eax
$LN7@P_DeathThi:
  00444	83 7d f4 20	 cmp	 DWORD PTR _i$1[ebp], 32	; 00000020H
  00448	7d 31		 jge	 SHORT $LN6@P_DeathThi

; 9018 : 				if (playeringame[i] && (players[i].exiting || players[i].lives > 0))

  0044a	8b 45 f4	 mov	 eax, DWORD PTR _i$1[ebp]
  0044d	83 3c 85 00 00
	00 00 00	 cmp	 DWORD PTR _playeringame[eax*4], 0
  00455	74 22		 je	 SHORT $LN43@P_DeathThi
  00457	69 45 f4 fc 01
	00 00		 imul	 eax, DWORD PTR _i$1[ebp], 508
  0045e	83 b8 30 01 00
	00 00		 cmp	 DWORD PTR _players[eax+304], 0
  00465	75 10		 jne	 SHORT $LN44@P_DeathThi
  00467	69 45 f4 fc 01
	00 00		 imul	 eax, DWORD PTR _i$1[ebp], 508
  0046e	83 b8 00 01 00
	00 00		 cmp	 DWORD PTR _players[eax+256], 0
  00475	7e 02		 jle	 SHORT $LN43@P_DeathThi
$LN44@P_DeathThi:

; 9019 : 					break;

  00477	eb 02		 jmp	 SHORT $LN6@P_DeathThi
$LN43@P_DeathThi:
  00479	eb c0		 jmp	 SHORT $LN5@P_DeathThi
$LN6@P_DeathThi:

; 9020 : 
; 9021 : 			if (i == MAXPLAYERS)

  0047b	83 7d f4 20	 cmp	 DWORD PTR _i$1[ebp], 32	; 00000020H
  0047f	75 7e		 jne	 SHORT $LN45@P_DeathThi

; 9022 : 			{
; 9023 : 				// They're dead, Jim.
; 9024 : 				nextmapoverride = spstage_start;

  00481	66 a1 00 00 00
	00		 mov	 ax, WORD PTR _spstage_start
  00487	66 a3 00 00 00
	00		 mov	 WORD PTR _nextmapoverride, ax

; 9025 : 				countdown2 = 1*TICRATE;

  0048d	c7 05 00 00 00
	00 23 00 00 00	 mov	 DWORD PTR _countdown2, 35 ; 00000023H

; 9026 : 				skipstats = true;

  00497	c7 05 00 00 00
	00 01 00 00 00	 mov	 DWORD PTR _skipstats, 1

; 9027 : 
; 9028 : 				for (i = 0; i < MAXPLAYERS; i++)

  004a1	c7 45 f4 00 00
	00 00		 mov	 DWORD PTR _i$1[ebp], 0
  004a8	eb 09		 jmp	 SHORT $LN10@P_DeathThi
$LN8@P_DeathThi:
  004aa	8b 45 f4	 mov	 eax, DWORD PTR _i$1[ebp]
  004ad	83 c0 01	 add	 eax, 1
  004b0	89 45 f4	 mov	 DWORD PTR _i$1[ebp], eax
$LN10@P_DeathThi:
  004b3	83 7d f4 20	 cmp	 DWORD PTR _i$1[ebp], 32	; 00000020H
  004b7	7d 20		 jge	 SHORT $LN9@P_DeathThi

; 9029 : 				{
; 9030 : 					if (playeringame[i])

  004b9	8b 45 f4	 mov	 eax, DWORD PTR _i$1[ebp]
  004bc	83 3c 85 00 00
	00 00 00	 cmp	 DWORD PTR _playeringame[eax*4], 0
  004c4	74 11		 je	 SHORT $LN46@P_DeathThi

; 9031 : 						players[i].score = 0;

  004c6	69 45 f4 fc 01
	00 00		 imul	 eax, DWORD PTR _i$1[ebp], 508
  004cd	c7 80 bc 00 00
	00 00 00 00 00	 mov	 DWORD PTR _players[eax+188], 0
$LN46@P_DeathThi:

; 9032 : 				}

  004d7	eb d1		 jmp	 SHORT $LN8@P_DeathThi
$LN9@P_DeathThi:

; 9033 : 
; 9034 : 				emeralds = 0;

  004d9	33 c0		 xor	 eax, eax
  004db	66 a3 00 00 00
	00		 mov	 WORD PTR _emeralds, ax

; 9035 : 				tokenbits = 0;

  004e1	c7 05 00 00 00
	00 00 00 00 00	 mov	 DWORD PTR _tokenbits, 0

; 9036 : 				tokenlist = 0;

  004eb	c7 05 00 00 00
	00 00 00 00 00	 mov	 DWORD PTR _tokenlist, 0

; 9037 : 				token = 0;

  004f5	c7 05 00 00 00
	00 00 00 00 00	 mov	 DWORD PTR _token, 0
$LN45@P_DeathThi:

; 9038 : 			}
; 9039 : 		}
; 9040 : 	}
; 9041 : 
; 9042 : 	// Stop music when respawning in single player
; 9043 : 	if (cv_resetmusic.value && player->playerstate == PST_REBORN)

  004ff	83 3d 14 00 00
	00 00		 cmp	 DWORD PTR _cv_resetmusic+20, 0
  00506	74 39		 je	 SHORT $LN49@P_DeathThi
  00508	8b 45 08	 mov	 eax, DWORD PTR _player$[ebp]
  0050b	83 78 04 02	 cmp	 DWORD PTR [eax+4], 2
  0050f	75 30		 jne	 SHORT $LN49@P_DeathThi

; 9044 : 	{
; 9045 : 		if (!(netgame || multiplayer))

  00511	83 3d 00 00 00
	00 00		 cmp	 DWORD PTR _netgame, 0
  00518	75 11		 jne	 SHORT $LN48@P_DeathThi
  0051a	83 3d 00 00 00
	00 00		 cmp	 DWORD PTR _multiplayer, 0
  00521	75 08		 jne	 SHORT $LN48@P_DeathThi

; 9046 : 			S_StopMusic();

  00523	e8 00 00 00 00	 call	 _S_StopMusic
  00528	90		 npad	 1
  00529	eb 16		 jmp	 SHORT $LN49@P_DeathThi
$LN48@P_DeathThi:

; 9047 : 		else
; 9048 : 			S_SpeedMusic(1.0f);

  0052b	51		 push	 ecx
  0052c	f3 0f 10 05 00
	00 00 00	 movss	 xmm0, DWORD PTR __real@3f800000
  00534	f3 0f 11 04 24	 movss	 DWORD PTR [esp], xmm0
  00539	e8 00 00 00 00	 call	 _S_SpeedMusic
  0053e	83 c4 04	 add	 esp, 4
$LN49@P_DeathThi:

; 9049 : 	}
; 9050 : 
; 9051 : 	if (player->mo->momz < -30*FRACUNIT)

  00541	8b 45 08	 mov	 eax, DWORD PTR _player$[ebp]
  00544	8b 08		 mov	 ecx, DWORD PTR [eax]
  00546	81 79 50 00 00
	e2 ff		 cmp	 DWORD PTR [ecx+80], -1966080 ; ffe20000H
  0054d	7d 0c		 jge	 SHORT $LN50@P_DeathThi

; 9052 : 		player->mo->momz = -30*FRACUNIT;

  0054f	8b 45 08	 mov	 eax, DWORD PTR _player$[ebp]
  00552	8b 08		 mov	 ecx, DWORD PTR [eax]
  00554	c7 41 50 00 00
	e2 ff		 mov	 DWORD PTR [ecx+80], -1966080 ; ffe20000H
$LN50@P_DeathThi:

; 9053 : 
; 9054 : 	if (player->mo->z + player->mo->momz < player->mo->subsector->sector->floorheight - 5120*FRACUNIT)

  0055b	8b 45 08	 mov	 eax, DWORD PTR _player$[ebp]
  0055e	8b 08		 mov	 ecx, DWORD PTR [eax]
  00560	8b 55 08	 mov	 edx, DWORD PTR _player$[ebp]
  00563	8b 02		 mov	 eax, DWORD PTR [edx]
  00565	8b 49 18	 mov	 ecx, DWORD PTR [ecx+24]
  00568	03 48 50	 add	 ecx, DWORD PTR [eax+80]
  0056b	8b 55 08	 mov	 edx, DWORD PTR _player$[ebp]
  0056e	8b 02		 mov	 eax, DWORD PTR [edx]
  00570	8b 50 34	 mov	 edx, DWORD PTR [eax+52]
  00573	8b 02		 mov	 eax, DWORD PTR [edx]
  00575	8b 10		 mov	 edx, DWORD PTR [eax]
  00577	81 ea 00 00 00
	14		 sub	 edx, 335544320		; 14000000H
  0057d	3b ca		 cmp	 ecx, edx
  0057f	7d 26		 jge	 SHORT $LN51@P_DeathThi

; 9055 : 	{
; 9056 : 		player->mo->momz = 0;

  00581	8b 45 08	 mov	 eax, DWORD PTR _player$[ebp]
  00584	8b 08		 mov	 ecx, DWORD PTR [eax]
  00586	c7 41 50 00 00
	00 00		 mov	 DWORD PTR [ecx+80], 0

; 9057 : 		player->mo->z = player->mo->subsector->sector->floorheight - 5120*FRACUNIT;

  0058d	8b 45 08	 mov	 eax, DWORD PTR _player$[ebp]
  00590	8b 08		 mov	 ecx, DWORD PTR [eax]
  00592	8b 51 34	 mov	 edx, DWORD PTR [ecx+52]
  00595	8b 02		 mov	 eax, DWORD PTR [edx]
  00597	8b 08		 mov	 ecx, DWORD PTR [eax]
  00599	81 e9 00 00 00
	14		 sub	 ecx, 335544320		; 14000000H
  0059f	8b 55 08	 mov	 edx, DWORD PTR _player$[ebp]
  005a2	8b 02		 mov	 eax, DWORD PTR [edx]
  005a4	89 48 18	 mov	 DWORD PTR [eax+24], ecx
$LN51@P_DeathThi:

; 9058 : 	}
; 9059 : 
; 9060 : 	if (gametype == GT_RACE || (gametype == GT_COOP && (multiplayer || netgame)))

  005a7	0f bf 05 00 00
	00 00		 movsx	 eax, WORD PTR _gametype
  005ae	83 f8 02	 cmp	 eax, 2
  005b1	74 25		 je	 SHORT $LN54@P_DeathThi
  005b3	0f bf 05 00 00
	00 00		 movsx	 eax, WORD PTR _gametype
  005ba	85 c0		 test	 eax, eax
  005bc	0f 85 cf 00 00
	00		 jne	 $LN61@P_DeathThi
  005c2	83 3d 00 00 00
	00 00		 cmp	 DWORD PTR _multiplayer, 0
  005c9	75 0d		 jne	 SHORT $LN54@P_DeathThi
  005cb	83 3d 00 00 00
	00 00		 cmp	 DWORD PTR _netgame, 0
  005d2	0f 84 b9 00 00
	00		 je	 $LN61@P_DeathThi
$LN54@P_DeathThi:

; 9061 : 	{
; 9062 : 		// Keep time rolling in race mode
; 9063 : 		if (!(countdown2 && !countdown) && !player->exiting && !(player->pflags & PF_TIMEOVER))

  005d8	83 3d 00 00 00
	00 00		 cmp	 DWORD PTR _countdown2, 0
  005df	74 09		 je	 SHORT $LN56@P_DeathThi
  005e1	83 3d 00 00 00
	00 00		 cmp	 DWORD PTR _countdown, 0
  005e8	74 68		 je	 SHORT $LN58@P_DeathThi
$LN56@P_DeathThi:
  005ea	8b 45 08	 mov	 eax, DWORD PTR _player$[ebp]
  005ed	83 b8 30 01 00
	00 00		 cmp	 DWORD PTR [eax+304], 0
  005f4	75 5c		 jne	 SHORT $LN58@P_DeathThi
  005f6	8b 45 08	 mov	 eax, DWORD PTR _player$[ebp]
  005f9	8b 88 ac 00 00
	00		 mov	 ecx, DWORD PTR [eax+172]
  005ff	81 e1 80 00 00
	00		 and	 ecx, 128		; 00000080H
  00605	75 4b		 jne	 SHORT $LN58@P_DeathThi

; 9064 : 		{
; 9065 : 			if (gametype == GT_RACE)

  00607	0f bf 05 00 00
	00 00		 movsx	 eax, WORD PTR _gametype
  0060e	83 f8 02	 cmp	 eax, 2
  00611	75 30		 jne	 SHORT $LN57@P_DeathThi

; 9066 : 			{
; 9067 : 				if (leveltime >= 4*TICRATE)

  00613	81 3d 00 00 00
	00 8c 00 00 00	 cmp	 DWORD PTR _leveltime, 140 ; 0000008cH
  0061d	72 15		 jb	 SHORT $LN59@P_DeathThi

; 9068 : 					player->realtime = leveltime - 4*TICRATE;

  0061f	a1 00 00 00 00	 mov	 eax, DWORD PTR _leveltime
  00624	2d 8c 00 00 00	 sub	 eax, 140		; 0000008cH
  00629	8b 4d 08	 mov	 ecx, DWORD PTR _player$[ebp]
  0062c	89 81 54 01 00
	00		 mov	 DWORD PTR [ecx+340], eax
  00632	eb 0d		 jmp	 SHORT $LN60@P_DeathThi
$LN59@P_DeathThi:

; 9069 : 				else
; 9070 : 					player->realtime = 0;

  00634	8b 45 08	 mov	 eax, DWORD PTR _player$[ebp]
  00637	c7 80 54 01 00
	00 00 00 00 00	 mov	 DWORD PTR [eax+340], 0
$LN60@P_DeathThi:

; 9071 : 			}

  00641	eb 0f		 jmp	 SHORT $LN58@P_DeathThi
$LN57@P_DeathThi:

; 9072 : 			else
; 9073 : 				player->realtime = leveltime;

  00643	8b 45 08	 mov	 eax, DWORD PTR _player$[ebp]
  00646	8b 0d 00 00 00
	00		 mov	 ecx, DWORD PTR _leveltime
  0064c	89 88 54 01 00
	00		 mov	 DWORD PTR [eax+340], ecx
$LN58@P_DeathThi:

; 9074 : 		}
; 9075 : 
; 9076 : 		// Return to level music
; 9077 : 		if (netgame && player->deadtimer == gameovertics && P_IsLocalPlayer(player))

  00652	83 3d 00 00 00
	00 00		 cmp	 DWORD PTR _netgame, 0
  00659	74 36		 je	 SHORT $LN61@P_DeathThi
  0065b	8b 45 08	 mov	 eax, DWORD PTR _player$[ebp]
  0065e	8b 88 28 01 00
	00		 mov	 ecx, DWORD PTR [eax+296]
  00664	3b 0d 00 00 00
	00		 cmp	 ecx, DWORD PTR _gameovertics
  0066a	75 25		 jne	 SHORT $LN61@P_DeathThi
  0066c	8b 45 08	 mov	 eax, DWORD PTR _player$[ebp]
  0066f	50		 push	 eax
  00670	e8 00 00 00 00	 call	 _P_IsLocalPlayer
  00675	83 c4 04	 add	 esp, 4
  00678	85 c0		 test	 eax, eax
  0067a	74 15		 je	 SHORT $LN61@P_DeathThi

; 9078 : 			S_ChangeMusic(mapmusic & 2047, true);

  0067c	6a 01		 push	 1
  0067e	a1 00 00 00 00	 mov	 eax, DWORD PTR _mapmusic
  00683	25 ff 07 00 00	 and	 eax, 2047		; 000007ffH
  00688	50		 push	 eax
  00689	e8 00 00 00 00	 call	 _S_ChangeMusic
  0068e	83 c4 08	 add	 esp, 8
$LN61@P_DeathThi:

; 9079 : 	}
; 9080 : }

  00691	5f		 pop	 edi
  00692	5e		 pop	 esi
  00693	5b		 pop	 ebx
  00694	8b e5		 mov	 esp, ebp
  00696	5d		 pop	 ebp
  00697	c3		 ret	 0
_P_DeathThink ENDP
_TEXT	ENDS
; Function compile flags: /Odtp /ZI
; File C:\Users\RafaTheFox\Desktop\SRB2-Public-master (1)\SRB2-Public-master\src\p_user.c
;	COMDAT _P_DoRopeHang
_TEXT	SEGMENT
_playerz$ = -40						; size = 4
_speedz$ = -36						; size = 4
_speedy$ = -32						; size = 4
_speedx$ = -28						; size = 4
_dist$ = -24						; size = 4
_waypoint$ = -20					; size = 4
_mo2$ = -16						; size = 4
_th$ = -12						; size = 4
_speed$ = -8						; size = 4
_sequence$ = -4						; size = 4
_player$ = 8						; size = 4
_minecart$ = 12						; size = 4
_P_DoRopeHang PROC					; COMDAT

; 8477 : {

  00000	55		 push	 ebp
  00001	8b ec		 mov	 ebp, esp
  00003	83 ec 68	 sub	 esp, 104		; 00000068H
  00006	53		 push	 ebx
  00007	56		 push	 esi
  00008	57		 push	 edi

; 8478 : 	INT32 sequence;
; 8479 : 	fixed_t speed;
; 8480 : 	thinker_t *th;
; 8481 : 	mobj_t *mo2;
; 8482 : 	mobj_t *waypoint = NULL;

  00009	c7 45 ec 00 00
	00 00		 mov	 DWORD PTR _waypoint$[ebp], 0

; 8483 : 	fixed_t dist;
; 8484 : 	fixed_t speedx,speedy,speedz;
; 8485 : 	fixed_t playerz;
; 8486 : 
; 8487 : 	if(!minecart)

  00010	83 7d 0c 00	 cmp	 DWORD PTR _minecart$[ebp], 0
  00014	0f 85 5f 01 00
	00		 jne	 $LN8@P_DoRopeHa

; 8488 : 	{
; 8489 : 		player->mo->height = P_GetPlayerHeight(player);

  0001a	8b 45 08	 mov	 eax, DWORD PTR _player$[ebp]
  0001d	50		 push	 eax
  0001e	e8 00 00 00 00	 call	 _P_GetPlayerHeight
  00023	83 c4 04	 add	 esp, 4
  00026	8b 4d 08	 mov	 ecx, DWORD PTR _player$[ebp]
  00029	8b 11		 mov	 edx, DWORD PTR [ecx]
  0002b	89 42 44	 mov	 DWORD PTR [edx+68], eax

; 8490 : 
; 8491 : 		if (player->cmd.buttons & BT_USE && !(player->pflags & PF_STASIS || player->powers[pw_nocontrol])) // Drop off of the rope

  0002e	8b 45 08	 mov	 eax, DWORD PTR _player$[ebp]
  00031	0f b7 48 0e	 movzx	 ecx, WORD PTR [eax+14]
  00035	81 e1 00 02 00
	00		 and	 ecx, 512		; 00000200H
  0003b	0f 84 fa 00 00
	00		 je	 $LN10@P_DoRopeHa
  00041	8b 45 08	 mov	 eax, DWORD PTR _player$[ebp]
  00044	8b 88 ac 00 00
	00		 mov	 ecx, DWORD PTR [eax+172]
  0004a	81 e1 00 00 00
	08		 and	 ecx, 134217728		; 08000000H
  00050	0f 85 e5 00 00
	00		 jne	 $LN10@P_DoRopeHa
  00056	b8 04 00 00 00	 mov	 eax, 4
  0005b	6b c8 1b	 imul	 ecx, eax, 27
  0005e	8b 55 08	 mov	 edx, DWORD PTR _player$[ebp]
  00061	83 7c 0a 38 00	 cmp	 DWORD PTR [edx+ecx+56], 0
  00066	0f 85 cf 00 00
	00		 jne	 $LN10@P_DoRopeHa

; 8492 : 		{
; 8493 : 			P_SetTarget(&player->mo->tracer, NULL);

  0006c	6a 00		 push	 0
  0006e	8b 45 08	 mov	 eax, DWORD PTR _player$[ebp]
  00071	8b 08		 mov	 ecx, DWORD PTR [eax]
  00073	81 c1 b0 00 00
	00		 add	 ecx, 176		; 000000b0H
  00079	51		 push	 ecx
  0007a	e8 00 00 00 00	 call	 _P_SetTarget
  0007f	83 c4 08	 add	 esp, 8

; 8494 : 
; 8495 : 			player->pflags |= PF_JUMPED;

  00082	8b 45 08	 mov	 eax, DWORD PTR _player$[ebp]
  00085	8b 88 ac 00 00
	00		 mov	 ecx, DWORD PTR [eax+172]
  0008b	81 c9 00 10 00
	00		 or	 ecx, 4096		; 00001000H
  00091	8b 55 08	 mov	 edx, DWORD PTR _player$[ebp]
  00094	89 8a ac 00 00
	00		 mov	 DWORD PTR [edx+172], ecx

; 8496 : 			player->pflags &= ~PF_ROPEHANG;

  0009a	8b 45 08	 mov	 eax, DWORD PTR _player$[ebp]
  0009d	8b 88 ac 00 00
	00		 mov	 ecx, DWORD PTR [eax+172]
  000a3	81 e1 ff ff ff
	df		 and	 ecx, -536870913		; dfffffffH
  000a9	8b 55 08	 mov	 edx, DWORD PTR _player$[ebp]
  000ac	89 8a ac 00 00
	00		 mov	 DWORD PTR [edx+172], ecx

; 8497 : 
; 8498 : 			if (!(player->pflags & PF_SLIDING) && (player->pflags & PF_JUMPED) && !player->powers[pw_super]
; 8499 : 			&& (player->mo->state - states < S_PLAY_ATK1
; 8500 : 			|| player->mo->state - states > S_PLAY_ATK4) && player->charability2 == CA2_SPINDASH)

  000b2	8b 45 08	 mov	 eax, DWORD PTR _player$[ebp]
  000b5	8b 88 ac 00 00
	00		 mov	 ecx, DWORD PTR [eax+172]
  000bb	81 e1 00 00 04
	00		 and	 ecx, 262144		; 00040000H
  000c1	75 73		 jne	 SHORT $LN11@P_DoRopeHa
  000c3	8b 45 08	 mov	 eax, DWORD PTR _player$[ebp]
  000c6	8b 88 ac 00 00
	00		 mov	 ecx, DWORD PTR [eax+172]
  000cc	81 e1 00 10 00
	00		 and	 ecx, 4096		; 00001000H
  000d2	74 62		 je	 SHORT $LN11@P_DoRopeHa
  000d4	b8 04 00 00 00	 mov	 eax, 4
  000d9	6b c8 0f	 imul	 ecx, eax, 15
  000dc	8b 55 08	 mov	 edx, DWORD PTR _player$[ebp]
  000df	83 7c 0a 38 00	 cmp	 DWORD PTR [edx+ecx+56], 0
  000e4	75 50		 jne	 SHORT $LN11@P_DoRopeHa
  000e6	8b 45 08	 mov	 eax, DWORD PTR _player$[ebp]
  000e9	8b 08		 mov	 ecx, DWORD PTR [eax]
  000eb	8b 41 5c	 mov	 eax, DWORD PTR [ecx+92]
  000ee	2d 00 00 00 00	 sub	 eax, OFFSET _states
  000f3	99		 cdq
  000f4	b9 1c 00 00 00	 mov	 ecx, 28			; 0000001cH
  000f9	f7 f9		 idiv	 ecx
  000fb	83 f8 0c	 cmp	 eax, 12			; 0000000cH
  000fe	7c 1a		 jl	 SHORT $LN12@P_DoRopeHa
  00100	8b 45 08	 mov	 eax, DWORD PTR _player$[ebp]
  00103	8b 08		 mov	 ecx, DWORD PTR [eax]
  00105	8b 41 5c	 mov	 eax, DWORD PTR [ecx+92]
  00108	2d 00 00 00 00	 sub	 eax, OFFSET _states
  0010d	99		 cdq
  0010e	b9 1c 00 00 00	 mov	 ecx, 28			; 0000001cH
  00113	f7 f9		 idiv	 ecx
  00115	83 f8 0f	 cmp	 eax, 15			; 0000000fH
  00118	7e 1c		 jle	 SHORT $LN11@P_DoRopeHa
$LN12@P_DoRopeHa:
  0011a	8b 45 08	 mov	 eax, DWORD PTR _player$[ebp]
  0011d	83 b8 dc 00 00
	00 00		 cmp	 DWORD PTR [eax+220], 0
  00124	75 10		 jne	 SHORT $LN11@P_DoRopeHa

; 8501 : 			{
; 8502 : 				P_SetPlayerMobjState(player->mo, S_PLAY_ATK1);

  00126	6a 0c		 push	 12			; 0000000cH
  00128	8b 45 08	 mov	 eax, DWORD PTR _player$[ebp]
  0012b	8b 08		 mov	 ecx, DWORD PTR [eax]
  0012d	51		 push	 ecx
  0012e	e8 00 00 00 00	 call	 _P_SetPlayerMobjState
  00133	83 c4 08	 add	 esp, 8
$LN11@P_DoRopeHa:

; 8503 : 			}
; 8504 : 
; 8505 : 			return;

  00136	e9 f0 05 00 00	 jmp	 $LN17@P_DoRopeHa
$LN10@P_DoRopeHa:

; 8506 : 		}
; 8507 : 
; 8508 : 		// Play the 'clink' sound only if the player is moving.
; 8509 : 		if (!(leveltime & 7) && player->speed)

  0013b	a1 00 00 00 00	 mov	 eax, DWORD PTR _leveltime
  00140	83 e0 07	 and	 eax, 7
  00143	75 1f		 jne	 SHORT $LN13@P_DoRopeHa
  00145	8b 45 08	 mov	 eax, DWORD PTR _player$[ebp]
  00148	83 b8 0c 01 00
	00 00		 cmp	 DWORD PTR [eax+268], 0
  0014f	74 13		 je	 SHORT $LN13@P_DoRopeHa

; 8510 : 			S_StartSound(player->mo, sfx_s3k_36);

  00151	68 98 00 00 00	 push	 152			; 00000098H
  00156	8b 45 08	 mov	 eax, DWORD PTR _player$[ebp]
  00159	8b 08		 mov	 ecx, DWORD PTR [eax]
  0015b	51		 push	 ecx
  0015c	e8 00 00 00 00	 call	 _S_StartSound
  00161	83 c4 08	 add	 esp, 8
$LN13@P_DoRopeHa:

; 8511 : 
; 8512 : 		playerz = player->mo->z + player->mo->height;

  00164	8b 45 08	 mov	 eax, DWORD PTR _player$[ebp]
  00167	8b 08		 mov	 ecx, DWORD PTR [eax]
  00169	8b 55 08	 mov	 edx, DWORD PTR _player$[ebp]
  0016c	8b 02		 mov	 eax, DWORD PTR [edx]
  0016e	8b 49 18	 mov	 ecx, DWORD PTR [ecx+24]
  00171	03 48 44	 add	 ecx, DWORD PTR [eax+68]
  00174	89 4d d8	 mov	 DWORD PTR _playerz$[ebp], ecx

; 8513 : 	}

  00177	eb 0b		 jmp	 SHORT $LN9@P_DoRopeHa
$LN8@P_DoRopeHa:

; 8514 : 	else
; 8515 : 		playerz = player->mo->z;

  00179	8b 45 08	 mov	 eax, DWORD PTR _player$[ebp]
  0017c	8b 08		 mov	 ecx, DWORD PTR [eax]
  0017e	8b 51 18	 mov	 edx, DWORD PTR [ecx+24]
  00181	89 55 d8	 mov	 DWORD PTR _playerz$[ebp], edx
$LN9@P_DoRopeHa:

; 8516 : 
; 8517 : //	player->powers[pw_flashing] = 1;
; 8518 : 
; 8519 : 	speed = abs(player->speed);

  00184	8b 45 08	 mov	 eax, DWORD PTR _player$[ebp]
  00187	8b 88 0c 01 00
	00		 mov	 ecx, DWORD PTR [eax+268]
  0018d	51		 push	 ecx
  0018e	e8 00 00 00 00	 call	 _abs
  00193	83 c4 04	 add	 esp, 4
  00196	89 45 f8	 mov	 DWORD PTR _speed$[ebp], eax

; 8520 : 
; 8521 : 	sequence = player->mo->tracer->threshold;

  00199	8b 45 08	 mov	 eax, DWORD PTR _player$[ebp]
  0019c	8b 08		 mov	 ecx, DWORD PTR [eax]
  0019e	8b 91 b0 00 00
	00		 mov	 edx, DWORD PTR [ecx+176]
  001a4	8b 82 a0 00 00
	00		 mov	 eax, DWORD PTR [edx+160]
  001aa	89 45 fc	 mov	 DWORD PTR _sequence$[ebp], eax

; 8522 : 
; 8523 : 	// change slope
; 8524 : 	dist = P_AproxDistance(P_AproxDistance(player->mo->tracer->x - player->mo->x, player->mo->tracer->y - player->mo->y), player->mo->tracer->z - playerz);

  001ad	8b 45 08	 mov	 eax, DWORD PTR _player$[ebp]
  001b0	8b 08		 mov	 ecx, DWORD PTR [eax]
  001b2	8b 91 b0 00 00
	00		 mov	 edx, DWORD PTR [ecx+176]
  001b8	8b 42 18	 mov	 eax, DWORD PTR [edx+24]
  001bb	2b 45 d8	 sub	 eax, DWORD PTR _playerz$[ebp]
  001be	50		 push	 eax
  001bf	8b 4d 08	 mov	 ecx, DWORD PTR _player$[ebp]
  001c2	8b 11		 mov	 edx, DWORD PTR [ecx]
  001c4	8b 82 b0 00 00
	00		 mov	 eax, DWORD PTR [edx+176]
  001ca	8b 4d 08	 mov	 ecx, DWORD PTR _player$[ebp]
  001cd	8b 11		 mov	 edx, DWORD PTR [ecx]
  001cf	8b 40 14	 mov	 eax, DWORD PTR [eax+20]
  001d2	2b 42 14	 sub	 eax, DWORD PTR [edx+20]
  001d5	50		 push	 eax
  001d6	8b 4d 08	 mov	 ecx, DWORD PTR _player$[ebp]
  001d9	8b 11		 mov	 edx, DWORD PTR [ecx]
  001db	8b 82 b0 00 00
	00		 mov	 eax, DWORD PTR [edx+176]
  001e1	8b 4d 08	 mov	 ecx, DWORD PTR _player$[ebp]
  001e4	8b 11		 mov	 edx, DWORD PTR [ecx]
  001e6	8b 40 10	 mov	 eax, DWORD PTR [eax+16]
  001e9	2b 42 10	 sub	 eax, DWORD PTR [edx+16]
  001ec	50		 push	 eax
  001ed	e8 00 00 00 00	 call	 _P_AproxDistance
  001f2	83 c4 08	 add	 esp, 8
  001f5	50		 push	 eax
  001f6	e8 00 00 00 00	 call	 _P_AproxDistance
  001fb	83 c4 08	 add	 esp, 8
  001fe	89 45 e8	 mov	 DWORD PTR _dist$[ebp], eax

; 8525 : 
; 8526 : 	if (dist < 1)

  00201	83 7d e8 01	 cmp	 DWORD PTR _dist$[ebp], 1
  00205	7d 07		 jge	 SHORT $LN14@P_DoRopeHa

; 8527 : 		dist = 1;

  00207	c7 45 e8 01 00
	00 00		 mov	 DWORD PTR _dist$[ebp], 1
$LN14@P_DoRopeHa:

; 8528 : 
; 8529 : 	speedx = FixedMul(FixedDiv(player->mo->tracer->x - player->mo->x, dist), (speed));

  0020e	8b 45 f8	 mov	 eax, DWORD PTR _speed$[ebp]
  00211	50		 push	 eax
  00212	8b 4d e8	 mov	 ecx, DWORD PTR _dist$[ebp]
  00215	51		 push	 ecx
  00216	8b 55 08	 mov	 edx, DWORD PTR _player$[ebp]
  00219	8b 02		 mov	 eax, DWORD PTR [edx]
  0021b	8b 88 b0 00 00
	00		 mov	 ecx, DWORD PTR [eax+176]
  00221	8b 55 08	 mov	 edx, DWORD PTR _player$[ebp]
  00224	8b 02		 mov	 eax, DWORD PTR [edx]
  00226	8b 49 10	 mov	 ecx, DWORD PTR [ecx+16]
  00229	2b 48 10	 sub	 ecx, DWORD PTR [eax+16]
  0022c	51		 push	 ecx
  0022d	e8 00 00 00 00	 call	 _FixedDiv
  00232	83 c4 08	 add	 esp, 8
  00235	50		 push	 eax
  00236	e8 00 00 00 00	 call	 _FixedMul
  0023b	83 c4 08	 add	 esp, 8
  0023e	89 45 e4	 mov	 DWORD PTR _speedx$[ebp], eax

; 8530 : 	speedy = FixedMul(FixedDiv(player->mo->tracer->y - player->mo->y, dist), (speed));

  00241	8b 45 f8	 mov	 eax, DWORD PTR _speed$[ebp]
  00244	50		 push	 eax
  00245	8b 4d e8	 mov	 ecx, DWORD PTR _dist$[ebp]
  00248	51		 push	 ecx
  00249	8b 55 08	 mov	 edx, DWORD PTR _player$[ebp]
  0024c	8b 02		 mov	 eax, DWORD PTR [edx]
  0024e	8b 88 b0 00 00
	00		 mov	 ecx, DWORD PTR [eax+176]
  00254	8b 55 08	 mov	 edx, DWORD PTR _player$[ebp]
  00257	8b 02		 mov	 eax, DWORD PTR [edx]
  00259	8b 49 14	 mov	 ecx, DWORD PTR [ecx+20]
  0025c	2b 48 14	 sub	 ecx, DWORD PTR [eax+20]
  0025f	51		 push	 ecx
  00260	e8 00 00 00 00	 call	 _FixedDiv
  00265	83 c4 08	 add	 esp, 8
  00268	50		 push	 eax
  00269	e8 00 00 00 00	 call	 _FixedMul
  0026e	83 c4 08	 add	 esp, 8
  00271	89 45 e0	 mov	 DWORD PTR _speedy$[ebp], eax

; 8531 : 	speedz = FixedMul(FixedDiv(player->mo->tracer->z - playerz, dist), (speed));

  00274	8b 45 f8	 mov	 eax, DWORD PTR _speed$[ebp]
  00277	50		 push	 eax
  00278	8b 4d e8	 mov	 ecx, DWORD PTR _dist$[ebp]
  0027b	51		 push	 ecx
  0027c	8b 55 08	 mov	 edx, DWORD PTR _player$[ebp]
  0027f	8b 02		 mov	 eax, DWORD PTR [edx]
  00281	8b 88 b0 00 00
	00		 mov	 ecx, DWORD PTR [eax+176]
  00287	8b 51 18	 mov	 edx, DWORD PTR [ecx+24]
  0028a	2b 55 d8	 sub	 edx, DWORD PTR _playerz$[ebp]
  0028d	52		 push	 edx
  0028e	e8 00 00 00 00	 call	 _FixedDiv
  00293	83 c4 08	 add	 esp, 8
  00296	50		 push	 eax
  00297	e8 00 00 00 00	 call	 _FixedMul
  0029c	83 c4 08	 add	 esp, 8
  0029f	89 45 dc	 mov	 DWORD PTR _speedz$[ebp], eax

; 8532 : 
; 8533 : 	// If not allowed to move, we're done here.
; 8534 : 	if (!speed)

  002a2	83 7d f8 00	 cmp	 DWORD PTR _speed$[ebp], 0
  002a6	75 05		 jne	 SHORT $LN15@P_DoRopeHa

; 8535 : 		return;

  002a8	e9 7e 04 00 00	 jmp	 $LN17@P_DoRopeHa
$LN15@P_DoRopeHa:

; 8536 : 
; 8537 : 	// Calculate the distance between the player and the waypoint
; 8538 : 	// 'dist' already equals this.
; 8539 : 
; 8540 : 	// Will the player be FURTHER away if the momx/momy/momz is added to
; 8541 : 	// his current coordinates, or closer? (shift down to fracunits to avoid approximation errors)
; 8542 : 	if (dist>>FRACBITS <= P_AproxDistance(P_AproxDistance(player->mo->tracer->x - player->mo->x - speedx, player->mo->tracer->y - player->mo->y - speedy), player->mo->tracer->z - playerz - speedz)>>FRACBITS)

  002ad	8b 75 e8	 mov	 esi, DWORD PTR _dist$[ebp]
  002b0	c1 fe 10	 sar	 esi, 16			; 00000010H
  002b3	8b 45 08	 mov	 eax, DWORD PTR _player$[ebp]
  002b6	8b 08		 mov	 ecx, DWORD PTR [eax]
  002b8	8b 91 b0 00 00
	00		 mov	 edx, DWORD PTR [ecx+176]
  002be	8b 42 18	 mov	 eax, DWORD PTR [edx+24]
  002c1	2b 45 d8	 sub	 eax, DWORD PTR _playerz$[ebp]
  002c4	2b 45 dc	 sub	 eax, DWORD PTR _speedz$[ebp]
  002c7	50		 push	 eax
  002c8	8b 4d 08	 mov	 ecx, DWORD PTR _player$[ebp]
  002cb	8b 11		 mov	 edx, DWORD PTR [ecx]
  002cd	8b 82 b0 00 00
	00		 mov	 eax, DWORD PTR [edx+176]
  002d3	8b 4d 08	 mov	 ecx, DWORD PTR _player$[ebp]
  002d6	8b 11		 mov	 edx, DWORD PTR [ecx]
  002d8	8b 40 14	 mov	 eax, DWORD PTR [eax+20]
  002db	2b 42 14	 sub	 eax, DWORD PTR [edx+20]
  002de	2b 45 e0	 sub	 eax, DWORD PTR _speedy$[ebp]
  002e1	50		 push	 eax
  002e2	8b 4d 08	 mov	 ecx, DWORD PTR _player$[ebp]
  002e5	8b 11		 mov	 edx, DWORD PTR [ecx]
  002e7	8b 82 b0 00 00
	00		 mov	 eax, DWORD PTR [edx+176]
  002ed	8b 4d 08	 mov	 ecx, DWORD PTR _player$[ebp]
  002f0	8b 11		 mov	 edx, DWORD PTR [ecx]
  002f2	8b 40 10	 mov	 eax, DWORD PTR [eax+16]
  002f5	2b 42 10	 sub	 eax, DWORD PTR [edx+16]
  002f8	2b 45 e4	 sub	 eax, DWORD PTR _speedx$[ebp]
  002fb	50		 push	 eax
  002fc	e8 00 00 00 00	 call	 _P_AproxDistance
  00301	83 c4 08	 add	 esp, 8
  00304	50		 push	 eax
  00305	e8 00 00 00 00	 call	 _P_AproxDistance
  0030a	83 c4 08	 add	 esp, 8
  0030d	c1 f8 10	 sar	 eax, 16			; 00000010H
  00310	3b f0		 cmp	 esi, eax
  00312	0f 8f f2 03 00
	00		 jg	 $LN16@P_DoRopeHa

; 8543 : 	{
; 8544 : 		// If further away, set XYZ of player to waypoint location
; 8545 : 		P_UnsetThingPosition(player->mo);

  00318	8b 45 08	 mov	 eax, DWORD PTR _player$[ebp]
  0031b	8b 08		 mov	 ecx, DWORD PTR [eax]
  0031d	51		 push	 ecx
  0031e	e8 00 00 00 00	 call	 _P_UnsetThingPosition
  00323	83 c4 04	 add	 esp, 4

; 8546 : 		player->mo->x = player->mo->tracer->x;

  00326	8b 45 08	 mov	 eax, DWORD PTR _player$[ebp]
  00329	8b 08		 mov	 ecx, DWORD PTR [eax]
  0032b	8b 91 b0 00 00
	00		 mov	 edx, DWORD PTR [ecx+176]
  00331	8b 45 08	 mov	 eax, DWORD PTR _player$[ebp]
  00334	8b 08		 mov	 ecx, DWORD PTR [eax]
  00336	8b 52 10	 mov	 edx, DWORD PTR [edx+16]
  00339	89 51 10	 mov	 DWORD PTR [ecx+16], edx

; 8547 : 		player->mo->y = player->mo->tracer->y;

  0033c	8b 45 08	 mov	 eax, DWORD PTR _player$[ebp]
  0033f	8b 08		 mov	 ecx, DWORD PTR [eax]
  00341	8b 91 b0 00 00
	00		 mov	 edx, DWORD PTR [ecx+176]
  00347	8b 45 08	 mov	 eax, DWORD PTR _player$[ebp]
  0034a	8b 08		 mov	 ecx, DWORD PTR [eax]
  0034c	8b 52 14	 mov	 edx, DWORD PTR [edx+20]
  0034f	89 51 14	 mov	 DWORD PTR [ecx+20], edx

; 8548 : 
; 8549 : 		if (minecart)

  00352	83 7d 0c 00	 cmp	 DWORD PTR _minecart$[ebp], 0
  00356	74 18		 je	 SHORT $LN18@P_DoRopeHa

; 8550 : 			player->mo->z = player->mo->tracer->z;

  00358	8b 45 08	 mov	 eax, DWORD PTR _player$[ebp]
  0035b	8b 08		 mov	 ecx, DWORD PTR [eax]
  0035d	8b 91 b0 00 00
	00		 mov	 edx, DWORD PTR [ecx+176]
  00363	8b 45 08	 mov	 eax, DWORD PTR _player$[ebp]
  00366	8b 08		 mov	 ecx, DWORD PTR [eax]
  00368	8b 52 18	 mov	 edx, DWORD PTR [edx+24]
  0036b	89 51 18	 mov	 DWORD PTR [ecx+24], edx
  0036e	eb 1e		 jmp	 SHORT $LN19@P_DoRopeHa
$LN18@P_DoRopeHa:

; 8551 : 		else
; 8552 : 			player->mo->z = player->mo->tracer->z - player->mo->height;

  00370	8b 45 08	 mov	 eax, DWORD PTR _player$[ebp]
  00373	8b 08		 mov	 ecx, DWORD PTR [eax]
  00375	8b 91 b0 00 00
	00		 mov	 edx, DWORD PTR [ecx+176]
  0037b	8b 45 08	 mov	 eax, DWORD PTR _player$[ebp]
  0037e	8b 08		 mov	 ecx, DWORD PTR [eax]
  00380	8b 52 18	 mov	 edx, DWORD PTR [edx+24]
  00383	2b 51 44	 sub	 edx, DWORD PTR [ecx+68]
  00386	8b 45 08	 mov	 eax, DWORD PTR _player$[ebp]
  00389	8b 08		 mov	 ecx, DWORD PTR [eax]
  0038b	89 51 18	 mov	 DWORD PTR [ecx+24], edx
$LN19@P_DoRopeHa:

; 8553 : 
; 8554 : 		P_SetThingPosition(player->mo);

  0038e	8b 45 08	 mov	 eax, DWORD PTR _player$[ebp]
  00391	8b 08		 mov	 ecx, DWORD PTR [eax]
  00393	51		 push	 ecx
  00394	e8 00 00 00 00	 call	 _P_SetThingPosition
  00399	83 c4 04	 add	 esp, 4

; 8555 : 
; 8556 : 		if (cv_debug)

  0039c	83 3d 00 00 00
	00 00		 cmp	 DWORD PTR _cv_debug, 0
  003a3	74 0d		 je	 SHORT $LN20@P_DoRopeHa

; 8557 : 			CONS_Printf("Looking for next waypoint...\n");

  003a5	68 00 00 00 00	 push	 OFFSET ??_C@_0BO@OPDLNCEP@Looking?5for?5next?5waypoint?4?4?4?6@
  003aa	e8 00 00 00 00	 call	 _CONS_Printf
  003af	83 c4 04	 add	 esp, 4
$LN20@P_DoRopeHa:

; 8558 : 
; 8559 : 		// Find next waypoint
; 8560 : 		for (th = thinkercap.next; th != &thinkercap; th = th->next)

  003b2	a1 04 00 00 00	 mov	 eax, DWORD PTR _thinkercap+4
  003b7	89 45 f4	 mov	 DWORD PTR _th$[ebp], eax
  003ba	eb 09		 jmp	 SHORT $LN4@P_DoRopeHa
$LN2@P_DoRopeHa:
  003bc	8b 45 f4	 mov	 eax, DWORD PTR _th$[ebp]
  003bf	8b 48 04	 mov	 ecx, DWORD PTR [eax+4]
  003c2	89 4d f4	 mov	 DWORD PTR _th$[ebp], ecx
$LN4@P_DoRopeHa:
  003c5	81 7d f4 00 00
	00 00		 cmp	 DWORD PTR _th$[ebp], OFFSET _thinkercap
  003cc	74 59		 je	 SHORT $LN3@P_DoRopeHa

; 8561 : 		{
; 8562 : 			if (th->function.acp1 != (actionf_p1)P_MobjThinker) // Not a mobj thinker

  003ce	8b 45 f4	 mov	 eax, DWORD PTR _th$[ebp]
  003d1	81 78 08 00 00
	00 00		 cmp	 DWORD PTR [eax+8], OFFSET _P_MobjThinker
  003d8	74 02		 je	 SHORT $LN21@P_DoRopeHa

; 8563 : 				continue;

  003da	eb e0		 jmp	 SHORT $LN2@P_DoRopeHa
$LN21@P_DoRopeHa:

; 8564 : 
; 8565 : 			mo2 = (mobj_t *)th;

  003dc	8b 45 f4	 mov	 eax, DWORD PTR _th$[ebp]
  003df	89 45 f0	 mov	 DWORD PTR _mo2$[ebp], eax

; 8566 : 
; 8567 : 			if (mo2->type != MT_TUBEWAYPOINT)

  003e2	8b 45 f0	 mov	 eax, DWORD PTR _mo2$[ebp]
  003e5	81 78 7c 06 01
	00 00		 cmp	 DWORD PTR [eax+124], 262 ; 00000106H
  003ec	74 02		 je	 SHORT $LN22@P_DoRopeHa

; 8568 : 				continue;

  003ee	eb cc		 jmp	 SHORT $LN2@P_DoRopeHa
$LN22@P_DoRopeHa:

; 8569 : 
; 8570 : 			if (mo2->threshold == sequence)

  003f0	8b 45 f0	 mov	 eax, DWORD PTR _mo2$[ebp]
  003f3	8b 88 a0 00 00
	00		 mov	 ecx, DWORD PTR [eax+160]
  003f9	3b 4d fc	 cmp	 ecx, DWORD PTR _sequence$[ebp]
  003fc	75 27		 jne	 SHORT $LN24@P_DoRopeHa

; 8571 : 			{
; 8572 : 				if (mo2->health == player->mo->tracer->health + 1)

  003fe	8b 45 08	 mov	 eax, DWORD PTR _player$[ebp]
  00401	8b 08		 mov	 ecx, DWORD PTR [eax]
  00403	8b 91 b0 00 00
	00		 mov	 edx, DWORD PTR [ecx+176]
  00409	8b 82 8c 00 00
	00		 mov	 eax, DWORD PTR [edx+140]
  0040f	83 c0 01	 add	 eax, 1
  00412	8b 4d f0	 mov	 ecx, DWORD PTR _mo2$[ebp]
  00415	39 81 8c 00 00
	00		 cmp	 DWORD PTR [ecx+140], eax
  0041b	75 08		 jne	 SHORT $LN24@P_DoRopeHa

; 8573 : 				{
; 8574 : 					waypoint = mo2;

  0041d	8b 45 f0	 mov	 eax, DWORD PTR _mo2$[ebp]
  00420	89 45 ec	 mov	 DWORD PTR _waypoint$[ebp], eax

; 8575 : 					break;

  00423	eb 02		 jmp	 SHORT $LN3@P_DoRopeHa
$LN24@P_DoRopeHa:

; 8576 : 				}
; 8577 : 			}
; 8578 : 		}

  00425	eb 95		 jmp	 SHORT $LN2@P_DoRopeHa
$LN3@P_DoRopeHa:

; 8579 : 
; 8580 : 		if (!(player->mo->tracer->flags & MF_SLIDEME) && !waypoint)

  00427	8b 45 08	 mov	 eax, DWORD PTR _player$[ebp]
  0042a	8b 08		 mov	 ecx, DWORD PTR [eax]
  0042c	8b 91 b0 00 00
	00		 mov	 edx, DWORD PTR [ecx+176]
  00432	8b 42 60	 mov	 eax, DWORD PTR [edx+96]
  00435	25 00 08 00 00	 and	 eax, 2048		; 00000800H
  0043a	75 7e		 jne	 SHORT $LN6@P_DoRopeHa
  0043c	83 7d ec 00	 cmp	 DWORD PTR _waypoint$[ebp], 0
  00440	75 78		 jne	 SHORT $LN6@P_DoRopeHa

; 8581 : 		{
; 8582 : 			if (cv_debug)

  00442	83 3d 00 00 00
	00 00		 cmp	 DWORD PTR _cv_debug, 0
  00449	74 0d		 je	 SHORT $LN26@P_DoRopeHa

; 8583 : 				CONS_Printf("Next waypoint not found, wrapping to start...\n");

  0044b	68 00 00 00 00	 push	 OFFSET ??_C@_0CP@DPKEPCAD@Next?5waypoint?5not?5found?0?5wrappi@
  00450	e8 00 00 00 00	 call	 _CONS_Printf
  00455	83 c4 04	 add	 esp, 4
$LN26@P_DoRopeHa:

; 8584 : 
; 8585 : 			// Wrap around back to first waypoint
; 8586 : 			for (th = thinkercap.next; th != &thinkercap; th = th->next)

  00458	a1 04 00 00 00	 mov	 eax, DWORD PTR _thinkercap+4
  0045d	89 45 f4	 mov	 DWORD PTR _th$[ebp], eax
  00460	eb 09		 jmp	 SHORT $LN7@P_DoRopeHa
$LN5@P_DoRopeHa:
  00462	8b 45 f4	 mov	 eax, DWORD PTR _th$[ebp]
  00465	8b 48 04	 mov	 ecx, DWORD PTR [eax+4]
  00468	89 4d f4	 mov	 DWORD PTR _th$[ebp], ecx
$LN7@P_DoRopeHa:
  0046b	81 7d f4 00 00
	00 00		 cmp	 DWORD PTR _th$[ebp], OFFSET _thinkercap
  00472	74 46		 je	 SHORT $LN6@P_DoRopeHa

; 8587 : 			{
; 8588 : 				if (th->function.acp1 != (actionf_p1)P_MobjThinker) // Not a mobj thinker

  00474	8b 45 f4	 mov	 eax, DWORD PTR _th$[ebp]
  00477	81 78 08 00 00
	00 00		 cmp	 DWORD PTR [eax+8], OFFSET _P_MobjThinker
  0047e	74 02		 je	 SHORT $LN27@P_DoRopeHa

; 8589 : 					continue;

  00480	eb e0		 jmp	 SHORT $LN5@P_DoRopeHa
$LN27@P_DoRopeHa:

; 8590 : 
; 8591 : 				mo2 = (mobj_t *)th;

  00482	8b 45 f4	 mov	 eax, DWORD PTR _th$[ebp]
  00485	89 45 f0	 mov	 DWORD PTR _mo2$[ebp], eax

; 8592 : 
; 8593 : 				if (mo2->type != MT_TUBEWAYPOINT)

  00488	8b 45 f0	 mov	 eax, DWORD PTR _mo2$[ebp]
  0048b	81 78 7c 06 01
	00 00		 cmp	 DWORD PTR [eax+124], 262 ; 00000106H
  00492	74 02		 je	 SHORT $LN28@P_DoRopeHa

; 8594 : 					continue;

  00494	eb cc		 jmp	 SHORT $LN5@P_DoRopeHa
$LN28@P_DoRopeHa:

; 8595 : 
; 8596 : 				if (mo2->threshold == sequence)

  00496	8b 45 f0	 mov	 eax, DWORD PTR _mo2$[ebp]
  00499	8b 88 a0 00 00
	00		 mov	 ecx, DWORD PTR [eax+160]
  0049f	3b 4d fc	 cmp	 ecx, DWORD PTR _sequence$[ebp]
  004a2	75 14		 jne	 SHORT $LN30@P_DoRopeHa

; 8597 : 				{
; 8598 : 					if (mo2->health == 0)

  004a4	8b 45 f0	 mov	 eax, DWORD PTR _mo2$[ebp]
  004a7	83 b8 8c 00 00
	00 00		 cmp	 DWORD PTR [eax+140], 0
  004ae	75 08		 jne	 SHORT $LN30@P_DoRopeHa

; 8599 : 					{
; 8600 : 						waypoint = mo2;

  004b0	8b 45 f0	 mov	 eax, DWORD PTR _mo2$[ebp]
  004b3	89 45 ec	 mov	 DWORD PTR _waypoint$[ebp], eax

; 8601 : 						break;

  004b6	eb 02		 jmp	 SHORT $LN6@P_DoRopeHa
$LN30@P_DoRopeHa:

; 8602 : 					}
; 8603 : 				}
; 8604 : 			}

  004b8	eb a8		 jmp	 SHORT $LN5@P_DoRopeHa
$LN6@P_DoRopeHa:

; 8605 : 		}
; 8606 : 
; 8607 : 		if (waypoint)

  004ba	83 7d ec 00	 cmp	 DWORD PTR _waypoint$[ebp], 0
  004be	0f 84 4b 01 00
	00		 je	 $LN31@P_DoRopeHa

; 8608 : 		{
; 8609 : 			if (cv_debug)

  004c4	83 3d 00 00 00
	00 00		 cmp	 DWORD PTR _cv_debug, 0
  004cb	74 21		 je	 SHORT $LN33@P_DoRopeHa

; 8610 : 				CONS_Printf("Found waypoint (sequence %d, number %d).\n", waypoint->threshold, waypoint->health);

  004cd	8b 45 ec	 mov	 eax, DWORD PTR _waypoint$[ebp]
  004d0	8b 88 8c 00 00
	00		 mov	 ecx, DWORD PTR [eax+140]
  004d6	51		 push	 ecx
  004d7	8b 55 ec	 mov	 edx, DWORD PTR _waypoint$[ebp]
  004da	8b 82 a0 00 00
	00		 mov	 eax, DWORD PTR [edx+160]
  004e0	50		 push	 eax
  004e1	68 00 00 00 00	 push	 OFFSET ??_C@_0CK@OOJOEGDC@Found?5waypoint?5?$CIsequence?5?$CFd?0?5nu@
  004e6	e8 00 00 00 00	 call	 _CONS_Printf
  004eb	83 c4 0c	 add	 esp, 12			; 0000000cH
$LN33@P_DoRopeHa:

; 8611 : 
; 8612 : 			// calculate MOMX/MOMY/MOMZ for next waypoint
; 8613 : 			// change slope
; 8614 : 			dist = P_AproxDistance(P_AproxDistance(player->mo->tracer->x - player->mo->x, player->mo->tracer->y - player->mo->y), player->mo->tracer->z - playerz);

  004ee	8b 45 08	 mov	 eax, DWORD PTR _player$[ebp]
  004f1	8b 08		 mov	 ecx, DWORD PTR [eax]
  004f3	8b 91 b0 00 00
	00		 mov	 edx, DWORD PTR [ecx+176]
  004f9	8b 42 18	 mov	 eax, DWORD PTR [edx+24]
  004fc	2b 45 d8	 sub	 eax, DWORD PTR _playerz$[ebp]
  004ff	50		 push	 eax
  00500	8b 4d 08	 mov	 ecx, DWORD PTR _player$[ebp]
  00503	8b 11		 mov	 edx, DWORD PTR [ecx]
  00505	8b 82 b0 00 00
	00		 mov	 eax, DWORD PTR [edx+176]
  0050b	8b 4d 08	 mov	 ecx, DWORD PTR _player$[ebp]
  0050e	8b 11		 mov	 edx, DWORD PTR [ecx]
  00510	8b 40 14	 mov	 eax, DWORD PTR [eax+20]
  00513	2b 42 14	 sub	 eax, DWORD PTR [edx+20]
  00516	50		 push	 eax
  00517	8b 4d 08	 mov	 ecx, DWORD PTR _player$[ebp]
  0051a	8b 11		 mov	 edx, DWORD PTR [ecx]
  0051c	8b 82 b0 00 00
	00		 mov	 eax, DWORD PTR [edx+176]
  00522	8b 4d 08	 mov	 ecx, DWORD PTR _player$[ebp]
  00525	8b 11		 mov	 edx, DWORD PTR [ecx]
  00527	8b 40 10	 mov	 eax, DWORD PTR [eax+16]
  0052a	2b 42 10	 sub	 eax, DWORD PTR [edx+16]
  0052d	50		 push	 eax
  0052e	e8 00 00 00 00	 call	 _P_AproxDistance
  00533	83 c4 08	 add	 esp, 8
  00536	50		 push	 eax
  00537	e8 00 00 00 00	 call	 _P_AproxDistance
  0053c	83 c4 08	 add	 esp, 8
  0053f	89 45 e8	 mov	 DWORD PTR _dist$[ebp], eax

; 8615 : 
; 8616 : 			if (dist < 1)

  00542	83 7d e8 01	 cmp	 DWORD PTR _dist$[ebp], 1
  00546	7d 07		 jge	 SHORT $LN34@P_DoRopeHa

; 8617 : 				dist = 1;

  00548	c7 45 e8 01 00
	00 00		 mov	 DWORD PTR _dist$[ebp], 1
$LN34@P_DoRopeHa:

; 8618 : 
; 8619 : 			player->mo->momx = FixedMul(FixedDiv(player->mo->tracer->x - player->mo->x, dist), (speed));

  0054f	8b 45 f8	 mov	 eax, DWORD PTR _speed$[ebp]
  00552	50		 push	 eax
  00553	8b 4d e8	 mov	 ecx, DWORD PTR _dist$[ebp]
  00556	51		 push	 ecx
  00557	8b 55 08	 mov	 edx, DWORD PTR _player$[ebp]
  0055a	8b 02		 mov	 eax, DWORD PTR [edx]
  0055c	8b 88 b0 00 00
	00		 mov	 ecx, DWORD PTR [eax+176]
  00562	8b 55 08	 mov	 edx, DWORD PTR _player$[ebp]
  00565	8b 02		 mov	 eax, DWORD PTR [edx]
  00567	8b 49 10	 mov	 ecx, DWORD PTR [ecx+16]
  0056a	2b 48 10	 sub	 ecx, DWORD PTR [eax+16]
  0056d	51		 push	 ecx
  0056e	e8 00 00 00 00	 call	 _FixedDiv
  00573	83 c4 08	 add	 esp, 8
  00576	50		 push	 eax
  00577	e8 00 00 00 00	 call	 _FixedMul
  0057c	83 c4 08	 add	 esp, 8
  0057f	8b 55 08	 mov	 edx, DWORD PTR _player$[ebp]
  00582	8b 0a		 mov	 ecx, DWORD PTR [edx]
  00584	89 41 48	 mov	 DWORD PTR [ecx+72], eax

; 8620 : 			player->mo->momy = FixedMul(FixedDiv(player->mo->tracer->y - player->mo->y, dist), (speed));

  00587	8b 45 f8	 mov	 eax, DWORD PTR _speed$[ebp]
  0058a	50		 push	 eax
  0058b	8b 4d e8	 mov	 ecx, DWORD PTR _dist$[ebp]
  0058e	51		 push	 ecx
  0058f	8b 55 08	 mov	 edx, DWORD PTR _player$[ebp]
  00592	8b 02		 mov	 eax, DWORD PTR [edx]
  00594	8b 88 b0 00 00
	00		 mov	 ecx, DWORD PTR [eax+176]
  0059a	8b 55 08	 mov	 edx, DWORD PTR _player$[ebp]
  0059d	8b 02		 mov	 eax, DWORD PTR [edx]
  0059f	8b 49 14	 mov	 ecx, DWORD PTR [ecx+20]
  005a2	2b 48 14	 sub	 ecx, DWORD PTR [eax+20]
  005a5	51		 push	 ecx
  005a6	e8 00 00 00 00	 call	 _FixedDiv
  005ab	83 c4 08	 add	 esp, 8
  005ae	50		 push	 eax
  005af	e8 00 00 00 00	 call	 _FixedMul
  005b4	83 c4 08	 add	 esp, 8
  005b7	8b 55 08	 mov	 edx, DWORD PTR _player$[ebp]
  005ba	8b 0a		 mov	 ecx, DWORD PTR [edx]
  005bc	89 41 4c	 mov	 DWORD PTR [ecx+76], eax

; 8621 : 			player->mo->momz = FixedMul(FixedDiv(player->mo->tracer->z - playerz, dist), (speed));

  005bf	8b 45 f8	 mov	 eax, DWORD PTR _speed$[ebp]
  005c2	50		 push	 eax
  005c3	8b 4d e8	 mov	 ecx, DWORD PTR _dist$[ebp]
  005c6	51		 push	 ecx
  005c7	8b 55 08	 mov	 edx, DWORD PTR _player$[ebp]
  005ca	8b 02		 mov	 eax, DWORD PTR [edx]
  005cc	8b 88 b0 00 00
	00		 mov	 ecx, DWORD PTR [eax+176]
  005d2	8b 51 18	 mov	 edx, DWORD PTR [ecx+24]
  005d5	2b 55 d8	 sub	 edx, DWORD PTR _playerz$[ebp]
  005d8	52		 push	 edx
  005d9	e8 00 00 00 00	 call	 _FixedDiv
  005de	83 c4 08	 add	 esp, 8
  005e1	50		 push	 eax
  005e2	e8 00 00 00 00	 call	 _FixedMul
  005e7	83 c4 08	 add	 esp, 8
  005ea	8b 4d 08	 mov	 ecx, DWORD PTR _player$[ebp]
  005ed	8b 11		 mov	 edx, DWORD PTR [ecx]
  005ef	89 42 50	 mov	 DWORD PTR [edx+80], eax

; 8622 : 
; 8623 : 			P_SetTarget(&player->mo->tracer, waypoint);

  005f2	8b 45 ec	 mov	 eax, DWORD PTR _waypoint$[ebp]
  005f5	50		 push	 eax
  005f6	8b 4d 08	 mov	 ecx, DWORD PTR _player$[ebp]
  005f9	8b 11		 mov	 edx, DWORD PTR [ecx]
  005fb	81 c2 b0 00 00
	00		 add	 edx, 176		; 000000b0H
  00601	52		 push	 edx
  00602	e8 00 00 00 00	 call	 _P_SetTarget
  00607	83 c4 08	 add	 esp, 8

; 8624 : 		}

  0060a	e9 f9 00 00 00	 jmp	 $LN38@P_DoRopeHa
$LN31@P_DoRopeHa:

; 8625 : 		else
; 8626 : 		{
; 8627 : 			if (player->mo->tracer->flags & MF_SLIDEME)

  0060f	8b 45 08	 mov	 eax, DWORD PTR _player$[ebp]
  00612	8b 08		 mov	 ecx, DWORD PTR [eax]
  00614	8b 91 b0 00 00
	00		 mov	 edx, DWORD PTR [ecx+176]
  0061a	8b 42 60	 mov	 eax, DWORD PTR [edx+96]
  0061d	25 00 08 00 00	 and	 eax, 2048		; 00000800H
  00622	0f 84 b4 00 00
	00		 je	 $LN36@P_DoRopeHa

; 8628 : 			{
; 8629 : 				player->pflags |= PF_JUMPED;

  00628	8b 45 08	 mov	 eax, DWORD PTR _player$[ebp]
  0062b	8b 88 ac 00 00
	00		 mov	 ecx, DWORD PTR [eax+172]
  00631	81 c9 00 10 00
	00		 or	 ecx, 4096		; 00001000H
  00637	8b 55 08	 mov	 edx, DWORD PTR _player$[ebp]
  0063a	89 8a ac 00 00
	00		 mov	 DWORD PTR [edx+172], ecx

; 8630 : 				player->pflags &= ~PF_ROPEHANG;

  00640	8b 45 08	 mov	 eax, DWORD PTR _player$[ebp]
  00643	8b 88 ac 00 00
	00		 mov	 ecx, DWORD PTR [eax+172]
  00649	81 e1 ff ff ff
	df		 and	 ecx, -536870913		; dfffffffH
  0064f	8b 55 08	 mov	 edx, DWORD PTR _player$[ebp]
  00652	89 8a ac 00 00
	00		 mov	 DWORD PTR [edx+172], ecx

; 8631 : 
; 8632 : 				if (!(player->pflags & PF_SLIDING) && (player->pflags & PF_JUMPED) && !player->powers[pw_super]
; 8633 : 				&& (player->mo->state - states < S_PLAY_ATK1
; 8634 : 				|| player->mo->state - states > S_PLAY_ATK4) && player->charability2 == CA2_SPINDASH)

  00658	8b 45 08	 mov	 eax, DWORD PTR _player$[ebp]
  0065b	8b 88 ac 00 00
	00		 mov	 ecx, DWORD PTR [eax+172]
  00661	81 e1 00 00 04
	00		 and	 ecx, 262144		; 00040000H
  00667	75 73		 jne	 SHORT $LN36@P_DoRopeHa
  00669	8b 45 08	 mov	 eax, DWORD PTR _player$[ebp]
  0066c	8b 88 ac 00 00
	00		 mov	 ecx, DWORD PTR [eax+172]
  00672	81 e1 00 10 00
	00		 and	 ecx, 4096		; 00001000H
  00678	74 62		 je	 SHORT $LN36@P_DoRopeHa
  0067a	b8 04 00 00 00	 mov	 eax, 4
  0067f	6b c8 0f	 imul	 ecx, eax, 15
  00682	8b 55 08	 mov	 edx, DWORD PTR _player$[ebp]
  00685	83 7c 0a 38 00	 cmp	 DWORD PTR [edx+ecx+56], 0
  0068a	75 50		 jne	 SHORT $LN36@P_DoRopeHa
  0068c	8b 45 08	 mov	 eax, DWORD PTR _player$[ebp]
  0068f	8b 08		 mov	 ecx, DWORD PTR [eax]
  00691	8b 41 5c	 mov	 eax, DWORD PTR [ecx+92]
  00694	2d 00 00 00 00	 sub	 eax, OFFSET _states
  00699	99		 cdq
  0069a	b9 1c 00 00 00	 mov	 ecx, 28			; 0000001cH
  0069f	f7 f9		 idiv	 ecx
  006a1	83 f8 0c	 cmp	 eax, 12			; 0000000cH
  006a4	7c 1a		 jl	 SHORT $LN37@P_DoRopeHa
  006a6	8b 45 08	 mov	 eax, DWORD PTR _player$[ebp]
  006a9	8b 08		 mov	 ecx, DWORD PTR [eax]
  006ab	8b 41 5c	 mov	 eax, DWORD PTR [ecx+92]
  006ae	2d 00 00 00 00	 sub	 eax, OFFSET _states
  006b3	99		 cdq
  006b4	b9 1c 00 00 00	 mov	 ecx, 28			; 0000001cH
  006b9	f7 f9		 idiv	 ecx
  006bb	83 f8 0f	 cmp	 eax, 15			; 0000000fH
  006be	7e 1c		 jle	 SHORT $LN36@P_DoRopeHa
$LN37@P_DoRopeHa:
  006c0	8b 45 08	 mov	 eax, DWORD PTR _player$[ebp]
  006c3	83 b8 dc 00 00
	00 00		 cmp	 DWORD PTR [eax+220], 0
  006ca	75 10		 jne	 SHORT $LN36@P_DoRopeHa

; 8635 : 				{
; 8636 : 					P_SetPlayerMobjState(player->mo, S_PLAY_ATK1);

  006cc	6a 0c		 push	 12			; 0000000cH
  006ce	8b 45 08	 mov	 eax, DWORD PTR _player$[ebp]
  006d1	8b 08		 mov	 ecx, DWORD PTR [eax]
  006d3	51		 push	 ecx
  006d4	e8 00 00 00 00	 call	 _P_SetPlayerMobjState
  006d9	83 c4 08	 add	 esp, 8
$LN36@P_DoRopeHa:

; 8637 : 				}
; 8638 : 			}
; 8639 : 
; 8640 : 			P_SetTarget(&player->mo->tracer, NULL);

  006dc	6a 00		 push	 0
  006de	8b 45 08	 mov	 eax, DWORD PTR _player$[ebp]
  006e1	8b 08		 mov	 ecx, DWORD PTR [eax]
  006e3	81 c1 b0 00 00
	00		 add	 ecx, 176		; 000000b0H
  006e9	51		 push	 ecx
  006ea	e8 00 00 00 00	 call	 _P_SetTarget
  006ef	83 c4 08	 add	 esp, 8

; 8641 : 
; 8642 : 			if (cv_debug)

  006f2	83 3d 00 00 00
	00 00		 cmp	 DWORD PTR _cv_debug, 0
  006f9	74 0d		 je	 SHORT $LN38@P_DoRopeHa

; 8643 : 				CONS_Printf("Next waypoint not found!\n");

  006fb	68 00 00 00 00	 push	 OFFSET ??_C@_0BK@JEFHHCNP@Next?5waypoint?5not?5found?$CB?6@
  00700	e8 00 00 00 00	 call	 _CONS_Printf
  00705	83 c4 04	 add	 esp, 4
$LN38@P_DoRopeHa:

; 8644 : 		}
; 8645 : 	}

  00708	eb 21		 jmp	 SHORT $LN17@P_DoRopeHa
$LN16@P_DoRopeHa:

; 8646 : 	else
; 8647 : 	{
; 8648 : 		player->mo->momx = speedx;

  0070a	8b 45 08	 mov	 eax, DWORD PTR _player$[ebp]
  0070d	8b 08		 mov	 ecx, DWORD PTR [eax]
  0070f	8b 55 e4	 mov	 edx, DWORD PTR _speedx$[ebp]
  00712	89 51 48	 mov	 DWORD PTR [ecx+72], edx

; 8649 : 		player->mo->momy = speedy;

  00715	8b 45 08	 mov	 eax, DWORD PTR _player$[ebp]
  00718	8b 08		 mov	 ecx, DWORD PTR [eax]
  0071a	8b 55 e0	 mov	 edx, DWORD PTR _speedy$[ebp]
  0071d	89 51 4c	 mov	 DWORD PTR [ecx+76], edx

; 8650 : 		player->mo->momz = speedz;

  00720	8b 45 08	 mov	 eax, DWORD PTR _player$[ebp]
  00723	8b 08		 mov	 ecx, DWORD PTR [eax]
  00725	8b 55 dc	 mov	 edx, DWORD PTR _speedz$[ebp]
  00728	89 51 50	 mov	 DWORD PTR [ecx+80], edx
$LN17@P_DoRopeHa:

; 8651 : 	}
; 8652 : }

  0072b	5f		 pop	 edi
  0072c	5e		 pop	 esi
  0072d	5b		 pop	 ebx
  0072e	8b e5		 mov	 esp, ebp
  00730	5d		 pop	 ebp
  00731	c3		 ret	 0
_P_DoRopeHang ENDP
_TEXT	ENDS
; Function compile flags: /Odtp /ZI
; File C:\Users\RafaTheFox\Desktop\SRB2-Public-master (1)\SRB2-Public-master\src\p_user.c
;	COMDAT _P_DoZoomTube
_TEXT	SEGMENT
_speedz$ = -40						; size = 4
_speedy$ = -36						; size = 4
_speedx$ = -32						; size = 4
_reverse$ = -28						; size = 4
_dist$ = -24						; size = 4
_waypoint$ = -20					; size = 4
_mo2$ = -16						; size = 4
_th$ = -12						; size = 4
_speed$ = -8						; size = 4
_sequence$ = -4						; size = 4
_player$ = 8						; size = 4
_P_DoZoomTube PROC					; COMDAT

; 8341 : {

  00000	55		 push	 ebp
  00001	8b ec		 mov	 ebp, esp
  00003	83 ec 68	 sub	 esp, 104		; 00000068H
  00006	53		 push	 ebx
  00007	56		 push	 esi
  00008	57		 push	 edi

; 8342 : 	INT32 sequence;
; 8343 : 	fixed_t speed;
; 8344 : 	thinker_t *th;
; 8345 : 	mobj_t *mo2;
; 8346 : 	mobj_t *waypoint = NULL;

  00009	c7 45 ec 00 00
	00 00		 mov	 DWORD PTR _waypoint$[ebp], 0

; 8347 : 	fixed_t dist;
; 8348 : 	boolean reverse;
; 8349 : 	fixed_t speedx,speedy,speedz;
; 8350 : 
; 8351 : 	player->mo->height = P_GetPlayerSpinHeight(player);

  00010	8b 45 08	 mov	 eax, DWORD PTR _player$[ebp]
  00013	50		 push	 eax
  00014	e8 00 00 00 00	 call	 _P_GetPlayerSpinHeight
  00019	83 c4 04	 add	 esp, 4
  0001c	8b 4d 08	 mov	 ecx, DWORD PTR _player$[ebp]
  0001f	8b 11		 mov	 edx, DWORD PTR [ecx]
  00021	89 42 44	 mov	 DWORD PTR [edx+68], eax

; 8352 : 
; 8353 : 	if (player->speed > 0)

  00024	8b 45 08	 mov	 eax, DWORD PTR _player$[ebp]
  00027	83 b8 0c 01 00
	00 00		 cmp	 DWORD PTR [eax+268], 0
  0002e	7e 09		 jle	 SHORT $LN5@P_DoZoomTu

; 8354 : 		reverse = false;

  00030	c7 45 e4 00 00
	00 00		 mov	 DWORD PTR _reverse$[ebp], 0
  00037	eb 07		 jmp	 SHORT $LN6@P_DoZoomTu
$LN5@P_DoZoomTu:

; 8355 : 	else
; 8356 : 		reverse = true;

  00039	c7 45 e4 01 00
	00 00		 mov	 DWORD PTR _reverse$[ebp], 1
$LN6@P_DoZoomTu:

; 8357 : 
; 8358 : 	player->powers[pw_flashing] = 1;

  00040	b8 04 00 00 00	 mov	 eax, 4
  00045	d1 e0		 shl	 eax, 1
  00047	8b 4d 08	 mov	 ecx, DWORD PTR _player$[ebp]
  0004a	c7 44 01 38 01
	00 00 00	 mov	 DWORD PTR [ecx+eax+56], 1

; 8359 : 
; 8360 : 	speed = abs(player->speed);

  00052	8b 45 08	 mov	 eax, DWORD PTR _player$[ebp]
  00055	8b 88 0c 01 00
	00		 mov	 ecx, DWORD PTR [eax+268]
  0005b	51		 push	 ecx
  0005c	e8 00 00 00 00	 call	 _abs
  00061	83 c4 04	 add	 esp, 4
  00064	89 45 f8	 mov	 DWORD PTR _speed$[ebp], eax

; 8361 : 
; 8362 : 	sequence = player->mo->tracer->threshold;

  00067	8b 45 08	 mov	 eax, DWORD PTR _player$[ebp]
  0006a	8b 08		 mov	 ecx, DWORD PTR [eax]
  0006c	8b 91 b0 00 00
	00		 mov	 edx, DWORD PTR [ecx+176]
  00072	8b 82 a0 00 00
	00		 mov	 eax, DWORD PTR [edx+160]
  00078	89 45 fc	 mov	 DWORD PTR _sequence$[ebp], eax

; 8363 : 
; 8364 : 	// change slope
; 8365 : 	dist = P_AproxDistance(P_AproxDistance(player->mo->tracer->x - player->mo->x, player->mo->tracer->y - player->mo->y), player->mo->tracer->z - player->mo->z);

  0007b	8b 45 08	 mov	 eax, DWORD PTR _player$[ebp]
  0007e	8b 08		 mov	 ecx, DWORD PTR [eax]
  00080	8b 91 b0 00 00
	00		 mov	 edx, DWORD PTR [ecx+176]
  00086	8b 45 08	 mov	 eax, DWORD PTR _player$[ebp]
  00089	8b 08		 mov	 ecx, DWORD PTR [eax]
  0008b	8b 52 18	 mov	 edx, DWORD PTR [edx+24]
  0008e	2b 51 18	 sub	 edx, DWORD PTR [ecx+24]
  00091	52		 push	 edx
  00092	8b 45 08	 mov	 eax, DWORD PTR _player$[ebp]
  00095	8b 08		 mov	 ecx, DWORD PTR [eax]
  00097	8b 91 b0 00 00
	00		 mov	 edx, DWORD PTR [ecx+176]
  0009d	8b 45 08	 mov	 eax, DWORD PTR _player$[ebp]
  000a0	8b 08		 mov	 ecx, DWORD PTR [eax]
  000a2	8b 52 14	 mov	 edx, DWORD PTR [edx+20]
  000a5	2b 51 14	 sub	 edx, DWORD PTR [ecx+20]
  000a8	52		 push	 edx
  000a9	8b 45 08	 mov	 eax, DWORD PTR _player$[ebp]
  000ac	8b 08		 mov	 ecx, DWORD PTR [eax]
  000ae	8b 91 b0 00 00
	00		 mov	 edx, DWORD PTR [ecx+176]
  000b4	8b 45 08	 mov	 eax, DWORD PTR _player$[ebp]
  000b7	8b 08		 mov	 ecx, DWORD PTR [eax]
  000b9	8b 52 10	 mov	 edx, DWORD PTR [edx+16]
  000bc	2b 51 10	 sub	 edx, DWORD PTR [ecx+16]
  000bf	52		 push	 edx
  000c0	e8 00 00 00 00	 call	 _P_AproxDistance
  000c5	83 c4 08	 add	 esp, 8
  000c8	50		 push	 eax
  000c9	e8 00 00 00 00	 call	 _P_AproxDistance
  000ce	83 c4 08	 add	 esp, 8
  000d1	89 45 e8	 mov	 DWORD PTR _dist$[ebp], eax

; 8366 : 
; 8367 : 	if (dist < 1)

  000d4	83 7d e8 01	 cmp	 DWORD PTR _dist$[ebp], 1
  000d8	7d 07		 jge	 SHORT $LN7@P_DoZoomTu

; 8368 : 		dist = 1;

  000da	c7 45 e8 01 00
	00 00		 mov	 DWORD PTR _dist$[ebp], 1
$LN7@P_DoZoomTu:

; 8369 : 
; 8370 : 	speedx = FixedMul(FixedDiv(player->mo->tracer->x - player->mo->x, dist), (speed));

  000e1	8b 45 f8	 mov	 eax, DWORD PTR _speed$[ebp]
  000e4	50		 push	 eax
  000e5	8b 4d e8	 mov	 ecx, DWORD PTR _dist$[ebp]
  000e8	51		 push	 ecx
  000e9	8b 55 08	 mov	 edx, DWORD PTR _player$[ebp]
  000ec	8b 02		 mov	 eax, DWORD PTR [edx]
  000ee	8b 88 b0 00 00
	00		 mov	 ecx, DWORD PTR [eax+176]
  000f4	8b 55 08	 mov	 edx, DWORD PTR _player$[ebp]
  000f7	8b 02		 mov	 eax, DWORD PTR [edx]
  000f9	8b 49 10	 mov	 ecx, DWORD PTR [ecx+16]
  000fc	2b 48 10	 sub	 ecx, DWORD PTR [eax+16]
  000ff	51		 push	 ecx
  00100	e8 00 00 00 00	 call	 _FixedDiv
  00105	83 c4 08	 add	 esp, 8
  00108	50		 push	 eax
  00109	e8 00 00 00 00	 call	 _FixedMul
  0010e	83 c4 08	 add	 esp, 8
  00111	89 45 e0	 mov	 DWORD PTR _speedx$[ebp], eax

; 8371 : 	speedy = FixedMul(FixedDiv(player->mo->tracer->y - player->mo->y, dist), (speed));

  00114	8b 45 f8	 mov	 eax, DWORD PTR _speed$[ebp]
  00117	50		 push	 eax
  00118	8b 4d e8	 mov	 ecx, DWORD PTR _dist$[ebp]
  0011b	51		 push	 ecx
  0011c	8b 55 08	 mov	 edx, DWORD PTR _player$[ebp]
  0011f	8b 02		 mov	 eax, DWORD PTR [edx]
  00121	8b 88 b0 00 00
	00		 mov	 ecx, DWORD PTR [eax+176]
  00127	8b 55 08	 mov	 edx, DWORD PTR _player$[ebp]
  0012a	8b 02		 mov	 eax, DWORD PTR [edx]
  0012c	8b 49 14	 mov	 ecx, DWORD PTR [ecx+20]
  0012f	2b 48 14	 sub	 ecx, DWORD PTR [eax+20]
  00132	51		 push	 ecx
  00133	e8 00 00 00 00	 call	 _FixedDiv
  00138	83 c4 08	 add	 esp, 8
  0013b	50		 push	 eax
  0013c	e8 00 00 00 00	 call	 _FixedMul
  00141	83 c4 08	 add	 esp, 8
  00144	89 45 dc	 mov	 DWORD PTR _speedy$[ebp], eax

; 8372 : 	speedz = FixedMul(FixedDiv(player->mo->tracer->z - player->mo->z, dist), (speed));

  00147	8b 45 f8	 mov	 eax, DWORD PTR _speed$[ebp]
  0014a	50		 push	 eax
  0014b	8b 4d e8	 mov	 ecx, DWORD PTR _dist$[ebp]
  0014e	51		 push	 ecx
  0014f	8b 55 08	 mov	 edx, DWORD PTR _player$[ebp]
  00152	8b 02		 mov	 eax, DWORD PTR [edx]
  00154	8b 88 b0 00 00
	00		 mov	 ecx, DWORD PTR [eax+176]
  0015a	8b 55 08	 mov	 edx, DWORD PTR _player$[ebp]
  0015d	8b 02		 mov	 eax, DWORD PTR [edx]
  0015f	8b 49 18	 mov	 ecx, DWORD PTR [ecx+24]
  00162	2b 48 18	 sub	 ecx, DWORD PTR [eax+24]
  00165	51		 push	 ecx
  00166	e8 00 00 00 00	 call	 _FixedDiv
  0016b	83 c4 08	 add	 esp, 8
  0016e	50		 push	 eax
  0016f	e8 00 00 00 00	 call	 _FixedMul
  00174	83 c4 08	 add	 esp, 8
  00177	89 45 d8	 mov	 DWORD PTR _speedz$[ebp], eax

; 8373 : 
; 8374 : 	// Calculate the distance between the player and the waypoint
; 8375 : 	// 'dist' already equals this.
; 8376 : 
; 8377 : 	// Will the player be FURTHER away if the momx/momy/momz is added to
; 8378 : 	// his current coordinates, or closer? (shift down to fracunits to avoid approximation errors)
; 8379 : 	if (dist>>FRACBITS <= P_AproxDistance(P_AproxDistance(player->mo->tracer->x - player->mo->x - speedx, player->mo->tracer->y - player->mo->y - speedy), player->mo->tracer->z - player->mo->z - speedz)>>FRACBITS)

  0017a	8b 75 e8	 mov	 esi, DWORD PTR _dist$[ebp]
  0017d	c1 fe 10	 sar	 esi, 16			; 00000010H
  00180	8b 45 08	 mov	 eax, DWORD PTR _player$[ebp]
  00183	8b 08		 mov	 ecx, DWORD PTR [eax]
  00185	8b 91 b0 00 00
	00		 mov	 edx, DWORD PTR [ecx+176]
  0018b	8b 45 08	 mov	 eax, DWORD PTR _player$[ebp]
  0018e	8b 08		 mov	 ecx, DWORD PTR [eax]
  00190	8b 52 18	 mov	 edx, DWORD PTR [edx+24]
  00193	2b 51 18	 sub	 edx, DWORD PTR [ecx+24]
  00196	2b 55 d8	 sub	 edx, DWORD PTR _speedz$[ebp]
  00199	52		 push	 edx
  0019a	8b 45 08	 mov	 eax, DWORD PTR _player$[ebp]
  0019d	8b 08		 mov	 ecx, DWORD PTR [eax]
  0019f	8b 91 b0 00 00
	00		 mov	 edx, DWORD PTR [ecx+176]
  001a5	8b 45 08	 mov	 eax, DWORD PTR _player$[ebp]
  001a8	8b 08		 mov	 ecx, DWORD PTR [eax]
  001aa	8b 52 14	 mov	 edx, DWORD PTR [edx+20]
  001ad	2b 51 14	 sub	 edx, DWORD PTR [ecx+20]
  001b0	2b 55 dc	 sub	 edx, DWORD PTR _speedy$[ebp]
  001b3	52		 push	 edx
  001b4	8b 45 08	 mov	 eax, DWORD PTR _player$[ebp]
  001b7	8b 08		 mov	 ecx, DWORD PTR [eax]
  001b9	8b 91 b0 00 00
	00		 mov	 edx, DWORD PTR [ecx+176]
  001bf	8b 45 08	 mov	 eax, DWORD PTR _player$[ebp]
  001c2	8b 08		 mov	 ecx, DWORD PTR [eax]
  001c4	8b 52 10	 mov	 edx, DWORD PTR [edx+16]
  001c7	2b 51 10	 sub	 edx, DWORD PTR [ecx+16]
  001ca	2b 55 e0	 sub	 edx, DWORD PTR _speedx$[ebp]
  001cd	52		 push	 edx
  001ce	e8 00 00 00 00	 call	 _P_AproxDistance
  001d3	83 c4 08	 add	 esp, 8
  001d6	50		 push	 eax
  001d7	e8 00 00 00 00	 call	 _P_AproxDistance
  001dc	83 c4 08	 add	 esp, 8
  001df	c1 f8 10	 sar	 eax, 16			; 00000010H
  001e2	3b f0		 cmp	 esi, eax
  001e4	0f 8f 5d 03 00
	00		 jg	 $LN8@P_DoZoomTu

; 8380 : 	{
; 8381 : 		// If further away, set XYZ of player to waypoint location
; 8382 : 		P_UnsetThingPosition(player->mo);

  001ea	8b 45 08	 mov	 eax, DWORD PTR _player$[ebp]
  001ed	8b 08		 mov	 ecx, DWORD PTR [eax]
  001ef	51		 push	 ecx
  001f0	e8 00 00 00 00	 call	 _P_UnsetThingPosition
  001f5	83 c4 04	 add	 esp, 4

; 8383 : 		player->mo->x = player->mo->tracer->x;

  001f8	8b 45 08	 mov	 eax, DWORD PTR _player$[ebp]
  001fb	8b 08		 mov	 ecx, DWORD PTR [eax]
  001fd	8b 91 b0 00 00
	00		 mov	 edx, DWORD PTR [ecx+176]
  00203	8b 45 08	 mov	 eax, DWORD PTR _player$[ebp]
  00206	8b 08		 mov	 ecx, DWORD PTR [eax]
  00208	8b 52 10	 mov	 edx, DWORD PTR [edx+16]
  0020b	89 51 10	 mov	 DWORD PTR [ecx+16], edx

; 8384 : 		player->mo->y = player->mo->tracer->y;

  0020e	8b 45 08	 mov	 eax, DWORD PTR _player$[ebp]
  00211	8b 08		 mov	 ecx, DWORD PTR [eax]
  00213	8b 91 b0 00 00
	00		 mov	 edx, DWORD PTR [ecx+176]
  00219	8b 45 08	 mov	 eax, DWORD PTR _player$[ebp]
  0021c	8b 08		 mov	 ecx, DWORD PTR [eax]
  0021e	8b 52 14	 mov	 edx, DWORD PTR [edx+20]
  00221	89 51 14	 mov	 DWORD PTR [ecx+20], edx

; 8385 : 		player->mo->z = player->mo->tracer->z;

  00224	8b 45 08	 mov	 eax, DWORD PTR _player$[ebp]
  00227	8b 08		 mov	 ecx, DWORD PTR [eax]
  00229	8b 91 b0 00 00
	00		 mov	 edx, DWORD PTR [ecx+176]
  0022f	8b 45 08	 mov	 eax, DWORD PTR _player$[ebp]
  00232	8b 08		 mov	 ecx, DWORD PTR [eax]
  00234	8b 52 18	 mov	 edx, DWORD PTR [edx+24]
  00237	89 51 18	 mov	 DWORD PTR [ecx+24], edx

; 8386 : 		P_SetThingPosition(player->mo);

  0023a	8b 45 08	 mov	 eax, DWORD PTR _player$[ebp]
  0023d	8b 08		 mov	 ecx, DWORD PTR [eax]
  0023f	51		 push	 ecx
  00240	e8 00 00 00 00	 call	 _P_SetThingPosition
  00245	83 c4 04	 add	 esp, 4

; 8387 : 
; 8388 : 		// ugh, duh!!
; 8389 : 		player->mo->floorz = player->mo->subsector->sector->floorheight;

  00248	8b 45 08	 mov	 eax, DWORD PTR _player$[ebp]
  0024b	8b 08		 mov	 ecx, DWORD PTR [eax]
  0024d	8b 51 34	 mov	 edx, DWORD PTR [ecx+52]
  00250	8b 02		 mov	 eax, DWORD PTR [edx]
  00252	8b 4d 08	 mov	 ecx, DWORD PTR _player$[ebp]
  00255	8b 11		 mov	 edx, DWORD PTR [ecx]
  00257	8b 00		 mov	 eax, DWORD PTR [eax]
  00259	89 42 38	 mov	 DWORD PTR [edx+56], eax

; 8390 : 		player->mo->ceilingz = player->mo->subsector->sector->ceilingheight;

  0025c	8b 45 08	 mov	 eax, DWORD PTR _player$[ebp]
  0025f	8b 08		 mov	 ecx, DWORD PTR [eax]
  00261	8b 51 34	 mov	 edx, DWORD PTR [ecx+52]
  00264	8b 02		 mov	 eax, DWORD PTR [edx]
  00266	8b 4d 08	 mov	 ecx, DWORD PTR _player$[ebp]
  00269	8b 11		 mov	 edx, DWORD PTR [ecx]
  0026b	8b 40 04	 mov	 eax, DWORD PTR [eax+4]
  0026e	89 42 3c	 mov	 DWORD PTR [edx+60], eax

; 8391 : 
; 8392 : 		if (cv_debug)

  00271	83 3d 00 00 00
	00 00		 cmp	 DWORD PTR _cv_debug, 0
  00278	74 0d		 je	 SHORT $LN10@P_DoZoomTu

; 8393 : 			CONS_Printf("Looking for next waypoint...\n");

  0027a	68 00 00 00 00	 push	 OFFSET ??_C@_0BO@OPDLNCEP@Looking?5for?5next?5waypoint?4?4?4?6@
  0027f	e8 00 00 00 00	 call	 _CONS_Printf
  00284	83 c4 04	 add	 esp, 4
$LN10@P_DoZoomTu:

; 8394 : 
; 8395 : 		// Find next waypoint
; 8396 : 		for (th = thinkercap.next; th != &thinkercap; th = th->next)

  00287	a1 04 00 00 00	 mov	 eax, DWORD PTR _thinkercap+4
  0028c	89 45 f4	 mov	 DWORD PTR _th$[ebp], eax
  0028f	eb 09		 jmp	 SHORT $LN4@P_DoZoomTu
$LN2@P_DoZoomTu:
  00291	8b 45 f4	 mov	 eax, DWORD PTR _th$[ebp]
  00294	8b 48 04	 mov	 ecx, DWORD PTR [eax+4]
  00297	89 4d f4	 mov	 DWORD PTR _th$[ebp], ecx
$LN4@P_DoZoomTu:
  0029a	81 7d f4 00 00
	00 00		 cmp	 DWORD PTR _th$[ebp], OFFSET _thinkercap
  002a1	0f 84 87 00 00
	00		 je	 $LN3@P_DoZoomTu

; 8397 : 		{
; 8398 : 			if (th->function.acp1 != (actionf_p1)P_MobjThinker) // Not a mobj thinker

  002a7	8b 45 f4	 mov	 eax, DWORD PTR _th$[ebp]
  002aa	81 78 08 00 00
	00 00		 cmp	 DWORD PTR [eax+8], OFFSET _P_MobjThinker
  002b1	74 02		 je	 SHORT $LN11@P_DoZoomTu

; 8399 : 				continue;

  002b3	eb dc		 jmp	 SHORT $LN2@P_DoZoomTu
$LN11@P_DoZoomTu:

; 8400 : 
; 8401 : 			mo2 = (mobj_t *)th;

  002b5	8b 45 f4	 mov	 eax, DWORD PTR _th$[ebp]
  002b8	89 45 f0	 mov	 DWORD PTR _mo2$[ebp], eax

; 8402 : 
; 8403 : 			if (mo2->type != MT_TUBEWAYPOINT)

  002bb	8b 45 f0	 mov	 eax, DWORD PTR _mo2$[ebp]
  002be	81 78 7c 06 01
	00 00		 cmp	 DWORD PTR [eax+124], 262 ; 00000106H
  002c5	74 02		 je	 SHORT $LN12@P_DoZoomTu

; 8404 : 				continue;

  002c7	eb c8		 jmp	 SHORT $LN2@P_DoZoomTu
$LN12@P_DoZoomTu:

; 8405 : 
; 8406 : 			if (mo2->threshold == sequence)

  002c9	8b 45 f0	 mov	 eax, DWORD PTR _mo2$[ebp]
  002cc	8b 88 a0 00 00
	00		 mov	 ecx, DWORD PTR [eax+160]
  002d2	3b 4d fc	 cmp	 ecx, DWORD PTR _sequence$[ebp]
  002d5	75 52		 jne	 SHORT $LN14@P_DoZoomTu

; 8407 : 			{
; 8408 : 				if ((reverse && mo2->health == player->mo->tracer->health - 1)
; 8409 : 					|| (!reverse && mo2->health == player->mo->tracer->health + 1))

  002d7	83 7d e4 00	 cmp	 DWORD PTR _reverse$[ebp], 0
  002db	74 1f		 je	 SHORT $LN16@P_DoZoomTu
  002dd	8b 45 08	 mov	 eax, DWORD PTR _player$[ebp]
  002e0	8b 08		 mov	 ecx, DWORD PTR [eax]
  002e2	8b 91 b0 00 00
	00		 mov	 edx, DWORD PTR [ecx+176]
  002e8	8b 82 8c 00 00
	00		 mov	 eax, DWORD PTR [edx+140]
  002ee	83 e8 01	 sub	 eax, 1
  002f1	8b 4d f0	 mov	 ecx, DWORD PTR _mo2$[ebp]
  002f4	39 81 8c 00 00
	00		 cmp	 DWORD PTR [ecx+140], eax
  002fa	74 25		 je	 SHORT $LN15@P_DoZoomTu
$LN16@P_DoZoomTu:
  002fc	83 7d e4 00	 cmp	 DWORD PTR _reverse$[ebp], 0
  00300	75 27		 jne	 SHORT $LN14@P_DoZoomTu
  00302	8b 45 08	 mov	 eax, DWORD PTR _player$[ebp]
  00305	8b 08		 mov	 ecx, DWORD PTR [eax]
  00307	8b 91 b0 00 00
	00		 mov	 edx, DWORD PTR [ecx+176]
  0030d	8b 82 8c 00 00
	00		 mov	 eax, DWORD PTR [edx+140]
  00313	83 c0 01	 add	 eax, 1
  00316	8b 4d f0	 mov	 ecx, DWORD PTR _mo2$[ebp]
  00319	39 81 8c 00 00
	00		 cmp	 DWORD PTR [ecx+140], eax
  0031f	75 08		 jne	 SHORT $LN14@P_DoZoomTu
$LN15@P_DoZoomTu:

; 8410 : 				{
; 8411 : 					waypoint = mo2;

  00321	8b 45 f0	 mov	 eax, DWORD PTR _mo2$[ebp]
  00324	89 45 ec	 mov	 DWORD PTR _waypoint$[ebp], eax

; 8412 : 					break;

  00327	eb 05		 jmp	 SHORT $LN3@P_DoZoomTu
$LN14@P_DoZoomTu:

; 8413 : 				}
; 8414 : 			}
; 8415 : 		}

  00329	e9 63 ff ff ff	 jmp	 $LN2@P_DoZoomTu
$LN3@P_DoZoomTu:

; 8416 : 
; 8417 : 		if (waypoint)

  0032e	83 7d ec 00	 cmp	 DWORD PTR _waypoint$[ebp], 0
  00332	0f 84 e1 01 00
	00		 je	 $LN17@P_DoZoomTu

; 8418 : 		{
; 8419 : 			if (cv_debug)

  00338	83 3d 00 00 00
	00 00		 cmp	 DWORD PTR _cv_debug, 0
  0033f	74 21		 je	 SHORT $LN19@P_DoZoomTu

; 8420 : 				CONS_Printf("Found waypoint (sequence %d, number %d).\n", waypoint->threshold, waypoint->health);

  00341	8b 45 ec	 mov	 eax, DWORD PTR _waypoint$[ebp]
  00344	8b 88 8c 00 00
	00		 mov	 ecx, DWORD PTR [eax+140]
  0034a	51		 push	 ecx
  0034b	8b 55 ec	 mov	 edx, DWORD PTR _waypoint$[ebp]
  0034e	8b 82 a0 00 00
	00		 mov	 eax, DWORD PTR [edx+160]
  00354	50		 push	 eax
  00355	68 00 00 00 00	 push	 OFFSET ??_C@_0CK@OOJOEGDC@Found?5waypoint?5?$CIsequence?5?$CFd?0?5nu@
  0035a	e8 00 00 00 00	 call	 _CONS_Printf
  0035f	83 c4 0c	 add	 esp, 12			; 0000000cH
$LN19@P_DoZoomTu:

; 8421 : 
; 8422 : 			// calculate MOMX/MOMY/MOMZ for next waypoint
; 8423 : 			// change angle
; 8424 : 			player->mo->angle = R_PointToAngle2(player->mo->x, player->mo->y, player->mo->tracer->x, player->mo->tracer->y);

  00362	8b 45 08	 mov	 eax, DWORD PTR _player$[ebp]
  00365	8b 08		 mov	 ecx, DWORD PTR [eax]
  00367	8b 91 b0 00 00
	00		 mov	 edx, DWORD PTR [ecx+176]
  0036d	8b 42 14	 mov	 eax, DWORD PTR [edx+20]
  00370	50		 push	 eax
  00371	8b 4d 08	 mov	 ecx, DWORD PTR _player$[ebp]
  00374	8b 11		 mov	 edx, DWORD PTR [ecx]
  00376	8b 82 b0 00 00
	00		 mov	 eax, DWORD PTR [edx+176]
  0037c	8b 48 10	 mov	 ecx, DWORD PTR [eax+16]
  0037f	51		 push	 ecx
  00380	8b 55 08	 mov	 edx, DWORD PTR _player$[ebp]
  00383	8b 02		 mov	 eax, DWORD PTR [edx]
  00385	8b 48 14	 mov	 ecx, DWORD PTR [eax+20]
  00388	51		 push	 ecx
  00389	8b 55 08	 mov	 edx, DWORD PTR _player$[ebp]
  0038c	8b 02		 mov	 eax, DWORD PTR [edx]
  0038e	8b 48 10	 mov	 ecx, DWORD PTR [eax+16]
  00391	51		 push	 ecx
  00392	e8 00 00 00 00	 call	 _R_PointToAngle2
  00397	83 c4 10	 add	 esp, 16			; 00000010H
  0039a	8b 55 08	 mov	 edx, DWORD PTR _player$[ebp]
  0039d	8b 0a		 mov	 ecx, DWORD PTR [edx]
  0039f	89 41 24	 mov	 DWORD PTR [ecx+36], eax

; 8425 : 
; 8426 : 			if (player == &players[consoleplayer])

  003a2	69 05 00 00 00
	00 fc 01 00 00	 imul	 eax, DWORD PTR _consoleplayer, 508
  003ac	05 00 00 00 00	 add	 eax, OFFSET _players
  003b1	39 45 08	 cmp	 DWORD PTR _player$[ebp], eax
  003b4	75 10		 jne	 SHORT $LN20@P_DoZoomTu

; 8427 : 				localangle = player->mo->angle;

  003b6	8b 45 08	 mov	 eax, DWORD PTR _player$[ebp]
  003b9	8b 08		 mov	 ecx, DWORD PTR [eax]
  003bb	8b 51 24	 mov	 edx, DWORD PTR [ecx+36]
  003be	89 15 00 00 00
	00		 mov	 DWORD PTR _localangle, edx
  003c4	eb 2b		 jmp	 SHORT $LN22@P_DoZoomTu
$LN20@P_DoZoomTu:

; 8428 : 			else if (splitscreen && player == &players[secondarydisplayplayer])

  003c6	83 3d 00 00 00
	00 00		 cmp	 DWORD PTR _splitscreen, 0
  003cd	74 22		 je	 SHORT $LN22@P_DoZoomTu
  003cf	69 05 00 00 00
	00 fc 01 00 00	 imul	 eax, DWORD PTR _secondarydisplayplayer, 508
  003d9	05 00 00 00 00	 add	 eax, OFFSET _players
  003de	39 45 08	 cmp	 DWORD PTR _player$[ebp], eax
  003e1	75 0e		 jne	 SHORT $LN22@P_DoZoomTu

; 8429 : 				localangle2 = player->mo->angle;

  003e3	8b 45 08	 mov	 eax, DWORD PTR _player$[ebp]
  003e6	8b 08		 mov	 ecx, DWORD PTR [eax]
  003e8	8b 51 24	 mov	 edx, DWORD PTR [ecx+36]
  003eb	89 15 00 00 00
	00		 mov	 DWORD PTR _localangle2, edx
$LN22@P_DoZoomTu:

; 8430 : 
; 8431 : 			// change slope
; 8432 : 			dist = P_AproxDistance(P_AproxDistance(player->mo->tracer->x - player->mo->x, player->mo->tracer->y - player->mo->y), player->mo->tracer->z - player->mo->z);

  003f1	8b 45 08	 mov	 eax, DWORD PTR _player$[ebp]
  003f4	8b 08		 mov	 ecx, DWORD PTR [eax]
  003f6	8b 91 b0 00 00
	00		 mov	 edx, DWORD PTR [ecx+176]
  003fc	8b 45 08	 mov	 eax, DWORD PTR _player$[ebp]
  003ff	8b 08		 mov	 ecx, DWORD PTR [eax]
  00401	8b 52 18	 mov	 edx, DWORD PTR [edx+24]
  00404	2b 51 18	 sub	 edx, DWORD PTR [ecx+24]
  00407	52		 push	 edx
  00408	8b 45 08	 mov	 eax, DWORD PTR _player$[ebp]
  0040b	8b 08		 mov	 ecx, DWORD PTR [eax]
  0040d	8b 91 b0 00 00
	00		 mov	 edx, DWORD PTR [ecx+176]
  00413	8b 45 08	 mov	 eax, DWORD PTR _player$[ebp]
  00416	8b 08		 mov	 ecx, DWORD PTR [eax]
  00418	8b 52 14	 mov	 edx, DWORD PTR [edx+20]
  0041b	2b 51 14	 sub	 edx, DWORD PTR [ecx+20]
  0041e	52		 push	 edx
  0041f	8b 45 08	 mov	 eax, DWORD PTR _player$[ebp]
  00422	8b 08		 mov	 ecx, DWORD PTR [eax]
  00424	8b 91 b0 00 00
	00		 mov	 edx, DWORD PTR [ecx+176]
  0042a	8b 45 08	 mov	 eax, DWORD PTR _player$[ebp]
  0042d	8b 08		 mov	 ecx, DWORD PTR [eax]
  0042f	8b 52 10	 mov	 edx, DWORD PTR [edx+16]
  00432	2b 51 10	 sub	 edx, DWORD PTR [ecx+16]
  00435	52		 push	 edx
  00436	e8 00 00 00 00	 call	 _P_AproxDistance
  0043b	83 c4 08	 add	 esp, 8
  0043e	50		 push	 eax
  0043f	e8 00 00 00 00	 call	 _P_AproxDistance
  00444	83 c4 08	 add	 esp, 8
  00447	89 45 e8	 mov	 DWORD PTR _dist$[ebp], eax

; 8433 : 
; 8434 : 			if (dist < 1)

  0044a	83 7d e8 01	 cmp	 DWORD PTR _dist$[ebp], 1
  0044e	7d 07		 jge	 SHORT $LN23@P_DoZoomTu

; 8435 : 				dist = 1;

  00450	c7 45 e8 01 00
	00 00		 mov	 DWORD PTR _dist$[ebp], 1
$LN23@P_DoZoomTu:

; 8436 : 
; 8437 : 			player->mo->momx = FixedMul(FixedDiv(player->mo->tracer->x - player->mo->x, dist), (speed));

  00457	8b 45 f8	 mov	 eax, DWORD PTR _speed$[ebp]
  0045a	50		 push	 eax
  0045b	8b 4d e8	 mov	 ecx, DWORD PTR _dist$[ebp]
  0045e	51		 push	 ecx
  0045f	8b 55 08	 mov	 edx, DWORD PTR _player$[ebp]
  00462	8b 02		 mov	 eax, DWORD PTR [edx]
  00464	8b 88 b0 00 00
	00		 mov	 ecx, DWORD PTR [eax+176]
  0046a	8b 55 08	 mov	 edx, DWORD PTR _player$[ebp]
  0046d	8b 02		 mov	 eax, DWORD PTR [edx]
  0046f	8b 49 10	 mov	 ecx, DWORD PTR [ecx+16]
  00472	2b 48 10	 sub	 ecx, DWORD PTR [eax+16]
  00475	51		 push	 ecx
  00476	e8 00 00 00 00	 call	 _FixedDiv
  0047b	83 c4 08	 add	 esp, 8
  0047e	50		 push	 eax
  0047f	e8 00 00 00 00	 call	 _FixedMul
  00484	83 c4 08	 add	 esp, 8
  00487	8b 55 08	 mov	 edx, DWORD PTR _player$[ebp]
  0048a	8b 0a		 mov	 ecx, DWORD PTR [edx]
  0048c	89 41 48	 mov	 DWORD PTR [ecx+72], eax

; 8438 : 			player->mo->momy = FixedMul(FixedDiv(player->mo->tracer->y - player->mo->y, dist), (speed));

  0048f	8b 45 f8	 mov	 eax, DWORD PTR _speed$[ebp]
  00492	50		 push	 eax
  00493	8b 4d e8	 mov	 ecx, DWORD PTR _dist$[ebp]
  00496	51		 push	 ecx
  00497	8b 55 08	 mov	 edx, DWORD PTR _player$[ebp]
  0049a	8b 02		 mov	 eax, DWORD PTR [edx]
  0049c	8b 88 b0 00 00
	00		 mov	 ecx, DWORD PTR [eax+176]
  004a2	8b 55 08	 mov	 edx, DWORD PTR _player$[ebp]
  004a5	8b 02		 mov	 eax, DWORD PTR [edx]
  004a7	8b 49 14	 mov	 ecx, DWORD PTR [ecx+20]
  004aa	2b 48 14	 sub	 ecx, DWORD PTR [eax+20]
  004ad	51		 push	 ecx
  004ae	e8 00 00 00 00	 call	 _FixedDiv
  004b3	83 c4 08	 add	 esp, 8
  004b6	50		 push	 eax
  004b7	e8 00 00 00 00	 call	 _FixedMul
  004bc	83 c4 08	 add	 esp, 8
  004bf	8b 55 08	 mov	 edx, DWORD PTR _player$[ebp]
  004c2	8b 0a		 mov	 ecx, DWORD PTR [edx]
  004c4	89 41 4c	 mov	 DWORD PTR [ecx+76], eax

; 8439 : 			player->mo->momz = FixedMul(FixedDiv(player->mo->tracer->z - player->mo->z, dist), (speed));

  004c7	8b 45 f8	 mov	 eax, DWORD PTR _speed$[ebp]
  004ca	50		 push	 eax
  004cb	8b 4d e8	 mov	 ecx, DWORD PTR _dist$[ebp]
  004ce	51		 push	 ecx
  004cf	8b 55 08	 mov	 edx, DWORD PTR _player$[ebp]
  004d2	8b 02		 mov	 eax, DWORD PTR [edx]
  004d4	8b 88 b0 00 00
	00		 mov	 ecx, DWORD PTR [eax+176]
  004da	8b 55 08	 mov	 edx, DWORD PTR _player$[ebp]
  004dd	8b 02		 mov	 eax, DWORD PTR [edx]
  004df	8b 49 18	 mov	 ecx, DWORD PTR [ecx+24]
  004e2	2b 48 18	 sub	 ecx, DWORD PTR [eax+24]
  004e5	51		 push	 ecx
  004e6	e8 00 00 00 00	 call	 _FixedDiv
  004eb	83 c4 08	 add	 esp, 8
  004ee	50		 push	 eax
  004ef	e8 00 00 00 00	 call	 _FixedMul
  004f4	83 c4 08	 add	 esp, 8
  004f7	8b 55 08	 mov	 edx, DWORD PTR _player$[ebp]
  004fa	8b 0a		 mov	 ecx, DWORD PTR [edx]
  004fc	89 41 50	 mov	 DWORD PTR [ecx+80], eax

; 8440 : 
; 8441 : 			P_SetTarget(&player->mo->tracer, waypoint);

  004ff	8b 45 ec	 mov	 eax, DWORD PTR _waypoint$[ebp]
  00502	50		 push	 eax
  00503	8b 4d 08	 mov	 ecx, DWORD PTR _player$[ebp]
  00506	8b 11		 mov	 edx, DWORD PTR [ecx]
  00508	81 c2 b0 00 00
	00		 add	 edx, 176		; 000000b0H
  0050e	52		 push	 edx
  0050f	e8 00 00 00 00	 call	 _P_SetTarget
  00514	83 c4 08	 add	 esp, 8

; 8442 : 		}

  00517	eb 2c		 jmp	 SHORT $LN24@P_DoZoomTu
$LN17@P_DoZoomTu:

; 8443 : 		else
; 8444 : 		{
; 8445 : 			P_SetTarget(&player->mo->tracer, NULL); // Else, we just let him fly.

  00519	6a 00		 push	 0
  0051b	8b 45 08	 mov	 eax, DWORD PTR _player$[ebp]
  0051e	8b 08		 mov	 ecx, DWORD PTR [eax]
  00520	81 c1 b0 00 00
	00		 add	 ecx, 176		; 000000b0H
  00526	51		 push	 ecx
  00527	e8 00 00 00 00	 call	 _P_SetTarget
  0052c	83 c4 08	 add	 esp, 8

; 8446 : 
; 8447 : 			if (cv_debug)

  0052f	83 3d 00 00 00
	00 00		 cmp	 DWORD PTR _cv_debug, 0
  00536	74 0d		 je	 SHORT $LN24@P_DoZoomTu

; 8448 : 				CONS_Printf("Next waypoint not found, releasing from track...\n");

  00538	68 00 00 00 00	 push	 OFFSET ??_C@_0DC@HMALHLBL@Next?5waypoint?5not?5found?0?5releas@
  0053d	e8 00 00 00 00	 call	 _CONS_Printf
  00542	83 c4 04	 add	 esp, 4
$LN24@P_DoZoomTu:

; 8449 : 		}
; 8450 : 	}

  00545	eb 21		 jmp	 SHORT $LN9@P_DoZoomTu
$LN8@P_DoZoomTu:

; 8451 : 	else
; 8452 : 	{
; 8453 : 		player->mo->momx = speedx;

  00547	8b 45 08	 mov	 eax, DWORD PTR _player$[ebp]
  0054a	8b 08		 mov	 ecx, DWORD PTR [eax]
  0054c	8b 55 e0	 mov	 edx, DWORD PTR _speedx$[ebp]
  0054f	89 51 48	 mov	 DWORD PTR [ecx+72], edx

; 8454 : 		player->mo->momy = speedy;

  00552	8b 45 08	 mov	 eax, DWORD PTR _player$[ebp]
  00555	8b 08		 mov	 ecx, DWORD PTR [eax]
  00557	8b 55 dc	 mov	 edx, DWORD PTR _speedy$[ebp]
  0055a	89 51 4c	 mov	 DWORD PTR [ecx+76], edx

; 8455 : 		player->mo->momz = speedz;

  0055d	8b 45 08	 mov	 eax, DWORD PTR _player$[ebp]
  00560	8b 08		 mov	 ecx, DWORD PTR [eax]
  00562	8b 55 d8	 mov	 edx, DWORD PTR _speedz$[ebp]
  00565	89 51 50	 mov	 DWORD PTR [ecx+80], edx
$LN9@P_DoZoomTu:

; 8456 : 	}
; 8457 : 
; 8458 : 	// change angle
; 8459 : 	if (player->mo->tracer)

  00568	8b 45 08	 mov	 eax, DWORD PTR _player$[ebp]
  0056b	8b 08		 mov	 ecx, DWORD PTR [eax]
  0056d	83 b9 b0 00 00
	00 00		 cmp	 DWORD PTR [ecx+176], 0
  00574	0f 84 8f 00 00
	00		 je	 $LN28@P_DoZoomTu

; 8460 : 	{
; 8461 : 		player->mo->angle = R_PointToAngle2(player->mo->x, player->mo->y, player->mo->tracer->x, player->mo->tracer->y);

  0057a	8b 45 08	 mov	 eax, DWORD PTR _player$[ebp]
  0057d	8b 08		 mov	 ecx, DWORD PTR [eax]
  0057f	8b 91 b0 00 00
	00		 mov	 edx, DWORD PTR [ecx+176]
  00585	8b 42 14	 mov	 eax, DWORD PTR [edx+20]
  00588	50		 push	 eax
  00589	8b 4d 08	 mov	 ecx, DWORD PTR _player$[ebp]
  0058c	8b 11		 mov	 edx, DWORD PTR [ecx]
  0058e	8b 82 b0 00 00
	00		 mov	 eax, DWORD PTR [edx+176]
  00594	8b 48 10	 mov	 ecx, DWORD PTR [eax+16]
  00597	51		 push	 ecx
  00598	8b 55 08	 mov	 edx, DWORD PTR _player$[ebp]
  0059b	8b 02		 mov	 eax, DWORD PTR [edx]
  0059d	8b 48 14	 mov	 ecx, DWORD PTR [eax+20]
  005a0	51		 push	 ecx
  005a1	8b 55 08	 mov	 edx, DWORD PTR _player$[ebp]
  005a4	8b 02		 mov	 eax, DWORD PTR [edx]
  005a6	8b 48 10	 mov	 ecx, DWORD PTR [eax+16]
  005a9	51		 push	 ecx
  005aa	e8 00 00 00 00	 call	 _R_PointToAngle2
  005af	83 c4 10	 add	 esp, 16			; 00000010H
  005b2	8b 55 08	 mov	 edx, DWORD PTR _player$[ebp]
  005b5	8b 0a		 mov	 ecx, DWORD PTR [edx]
  005b7	89 41 24	 mov	 DWORD PTR [ecx+36], eax

; 8462 : 
; 8463 : 		if (player == &players[consoleplayer])

  005ba	69 05 00 00 00
	00 fc 01 00 00	 imul	 eax, DWORD PTR _consoleplayer, 508
  005c4	05 00 00 00 00	 add	 eax, OFFSET _players
  005c9	39 45 08	 cmp	 DWORD PTR _player$[ebp], eax
  005cc	75 10		 jne	 SHORT $LN26@P_DoZoomTu

; 8464 : 			localangle = player->mo->angle;

  005ce	8b 45 08	 mov	 eax, DWORD PTR _player$[ebp]
  005d1	8b 08		 mov	 ecx, DWORD PTR [eax]
  005d3	8b 51 24	 mov	 edx, DWORD PTR [ecx+36]
  005d6	89 15 00 00 00
	00		 mov	 DWORD PTR _localangle, edx
  005dc	eb 2b		 jmp	 SHORT $LN28@P_DoZoomTu
$LN26@P_DoZoomTu:

; 8465 : 		else if (splitscreen && player == &players[secondarydisplayplayer])

  005de	83 3d 00 00 00
	00 00		 cmp	 DWORD PTR _splitscreen, 0
  005e5	74 22		 je	 SHORT $LN28@P_DoZoomTu
  005e7	69 05 00 00 00
	00 fc 01 00 00	 imul	 eax, DWORD PTR _secondarydisplayplayer, 508
  005f1	05 00 00 00 00	 add	 eax, OFFSET _players
  005f6	39 45 08	 cmp	 DWORD PTR _player$[ebp], eax
  005f9	75 0e		 jne	 SHORT $LN28@P_DoZoomTu

; 8466 : 			localangle2 = player->mo->angle;

  005fb	8b 45 08	 mov	 eax, DWORD PTR _player$[ebp]
  005fe	8b 08		 mov	 ecx, DWORD PTR [eax]
  00600	8b 51 24	 mov	 edx, DWORD PTR [ecx+36]
  00603	89 15 00 00 00
	00		 mov	 DWORD PTR _localangle2, edx
$LN28@P_DoZoomTu:

; 8467 : 	}
; 8468 : }

  00609	5f		 pop	 edi
  0060a	5e		 pop	 esi
  0060b	5b		 pop	 ebx
  0060c	8b e5		 mov	 esp, ebp
  0060e	5d		 pop	 ebp
  0060f	c3		 ret	 0
_P_DoZoomTube ENDP
_TEXT	ENDS
; Function compile flags: /Odtp /ZI
; File C:\Users\RafaTheFox\Desktop\SRB2-Public-master (1)\SRB2-Public-master\src\p_user.c
;	COMDAT _P_MovePlayer
_TEXT	SEGMENT
tv396 = -848						; size = 4
tv2697 = -848						; size = 4
tv2636 = -848						; size = 4
tv2578 = -848						; size = 4
tv1175 = -848						; size = 4
tv3833 = -848						; size = 4
tv2509 = -848						; size = 4
tv5419 = -848						; size = 4
tv242 = -848						; size = 4
tv3436 = -848						; size = 4
tv2755 = -848						; size = 4
_friction$1 = -716					; size = 4
_sinkspeed$2 = -712					; size = 4
_rover$3 = -708						; size = 4
_newmom$4 = -704					; size = 4
_linedist$5 = -700					; size = 4
_top$6 = -696						; size = 4
_rover$7 = -692						; size = 4
_oldz$8 = -688						; size = 4
_oldy$9 = -684						; size = 4
_oldx$10 = -680						; size = 4
_rover$11 = -676					; size = 4
_oldy$12 = -672						; size = 4
_oldx$13 = -668						; size = 4
_rover$14 = -664					; size = 4
_oldy$15 = -660						; size = 4
_oldx$16 = -656						; size = 4
_runnyspeed$17 = -652					; size = 4
_speed$18 = -648					; size = 4
_killer$19 = -644					; size = 4
_oldaim$20 = -640					; size = 4
_mo$21 = -636						; size = 4
_nblockmap$22 = -632					; size = 4
_oldaiming$23 = -628					; size = 4
_shotangle$24 = -624					; size = 4
_oldz$25 = -620						; size = 4
_mo$26 = -616						; size = 4
_mo$27 = -612						; size = 4
_polybottom$28 = -608					; size = 4
_polytop$29 = -604					; size = 4
_polysec$30 = -600					; size = 4
_po$31 = -596						; size = 4
_plink$32 = -592					; size = 4
_offset$33 = -588					; size = 4
_yh$34 = -584						; size = 4
_yl$35 = -580						; size = 4
_xh$36 = -576						; size = 4
_xl$37 = -572						; size = 4
_by$38 = -568						; size = 4
_bx$39 = -564						; size = 4
_rover$40 = -560					; size = 4
_rover$41 = -556					; size = 4
_rover$42 = -552					; size = 4
_rover$43 = -548					; size = 4
_d$44 = -544						; size = 4
_c$45 = -540						; size = 4
_b$46 = -536						; size = 4
_a$47 = -532						; size = 4
_rover$48 = -528					; size = 4
_tiptop$49 = -524					; size = 4
_checkedforteeter$50 = -520				; size = 4
_roverfloor$51 = -516					; size = 4
_teeter$52 = -512					; size = 4
_sideangle$53 = -508					; size = 4
_scroller$54 = -504					; size = 4
_think$55 = -500					; size = 4
_rover$56 = -496					; size = 4
_foundfof$57 = -492					; size = 4
_rover$58 = -488					; size = 4
_foundfof$59 = -484					; size = 4
_foundfof$60 = -480					; size = 4
_roverbelow$61 = -476					; size = 4
_foundfof$62 = -472					; size = 4
_roverbelow$63 = -468					; size = 4
_rover$64 = -464					; size = 4
_skyclimber$65 = -460					; size = 4
_boostup$66 = -456					; size = 4
_thrust$67 = -452					; size = 4
_floorclimb$68 = -448					; size = 4
_climb$69 = -444					; size = 4
_glidesector$70 = -440					; size = 4
_platy$71 = -436					; size = 4
_platx$72 = -432					; size = 4
_item$73 = -428						; size = 4
_travelangle$74 = -424					; size = 4
_flame$75 = -420					; size = 4
_ground$76 = -416					; size = 4
_newy$77 = -412						; size = 4
_newx$78 = -408						; size = 4
_item$79 = -404						; size = 4
_viewingangle$80 = -400					; size = 4
_sparkle$81 = -396					; size = 4
_desty$82 = -392					; size = 4
_destx$83 = -388					; size = 4
_actionspd$84 = -384					; size = 4
_bubble$85 = -380					; size = 4
_stirwaterz$86 = -376					; size = 4
_stirwatery$87 = -372					; size = 4
_stirwaterx$88 = -368					; size = 4
_fa$89 = -364						; size = 4
_radius$90 = -360					; size = 4
_zh$91 = -356						; size = 4
_water$92 = -352					; size = 4
_leeway$93 = -348					; size = 4
_speed$94 = -344					; size = 4
_z$95 = -340						; size = 4
_z$96 = -336						; size = 4
_mo2$97 = -332						; size = 4
_th$98 = -328						; size = 4
_z$99 = -324						; size = 4
_y$100 = -320						; size = 4
_x$101 = -316						; size = 4
_mo2$102 = -312						; size = 4
_th$103 = -308						; size = 4
_bluearray$104 = -304					; size = 128
_redarray$105 = -176					; size = 128
_blue$106 = -48						; size = 4
_red$107 = -44						; size = 4
_changeto$108 = -40					; size = 4
_runspd$ = -36						; size = 4
_thiscam$ = -32						; size = 4
_node$ = -28						; size = 4
_tempangle$ = -24					; size = 4
_tempy$ = -20						; size = 4
_tempx$ = -16						; size = 4
_i$ = -12						; size = 4
_cmd$ = -8						; size = 4
__$ArrayPad$ = -4					; size = 4
_player$ = 8						; size = 4
_P_MovePlayer PROC					; COMDAT

; 5472 : {

  00000	55		 push	 ebp
  00001	8b ec		 mov	 ebp, esp
  00003	81 ec 50 03 00
	00		 sub	 esp, 848		; 00000350H
  00009	a1 00 00 00 00	 mov	 eax, DWORD PTR ___security_cookie
  0000e	33 c5		 xor	 eax, ebp
  00010	89 45 fc	 mov	 DWORD PTR __$ArrayPad$[ebp], eax
  00013	53		 push	 ebx
  00014	56		 push	 esi
  00015	57		 push	 edi

; 5473 : 	ticcmd_t *cmd;
; 5474 : 	INT32 i;
; 5475 : 
; 5476 : 	fixed_t tempx, tempy;
; 5477 : 	angle_t tempangle;
; 5478 : 	msecnode_t *node;
; 5479 : 	camera_t *thiscam;
; 5480 : 	fixed_t runspd;
; 5481 : 
; 5482 : 	if (countdowntimeup)

  00016	0f b6 05 00 00
	00 00		 movzx	 eax, BYTE PTR _countdowntimeup
  0001d	85 c0		 test	 eax, eax
  0001f	74 05		 je	 SHORT $LN111@P_MovePlay

; 5483 : 		return;

  00021	e9 7f 87 00 00	 jmp	 $LN109@P_MovePlay
$LN111@P_MovePlay:

; 5484 : 
; 5485 : 	if (splitscreen && player == &players[secondarydisplayplayer])

  00026	83 3d 00 00 00
	00 00		 cmp	 DWORD PTR _splitscreen, 0
  0002d	74 1d		 je	 SHORT $LN112@P_MovePlay
  0002f	69 05 00 00 00
	00 fc 01 00 00	 imul	 eax, DWORD PTR _secondarydisplayplayer, 508
  00039	05 00 00 00 00	 add	 eax, OFFSET _players
  0003e	39 45 08	 cmp	 DWORD PTR _player$[ebp], eax
  00041	75 09		 jne	 SHORT $LN112@P_MovePlay

; 5486 : 		thiscam = &camera2;

  00043	c7 45 e0 00 00
	00 00		 mov	 DWORD PTR _thiscam$[ebp], OFFSET _camera2
  0004a	eb 07		 jmp	 SHORT $LN113@P_MovePlay
$LN112@P_MovePlay:

; 5487 : 	else
; 5488 : 		thiscam = &camera;

  0004c	c7 45 e0 00 00
	00 00		 mov	 DWORD PTR _thiscam$[ebp], OFFSET _camera
$LN113@P_MovePlay:

; 5489 : 
; 5490 : 	if (player->mo->state >= &states[S_PLAY_SUPERTRANS1] && player->mo->state <= &states[S_PLAY_SUPERTRANS9])

  00053	8b 45 08	 mov	 eax, DWORD PTR _player$[ebp]
  00056	8b 08		 mov	 ecx, DWORD PTR [eax]
  00058	ba 1c 00 00 00	 mov	 edx, 28			; 0000001cH
  0005d	6b c2 31	 imul	 eax, edx, 49
  00060	05 00 00 00 00	 add	 eax, OFFSET _states
  00065	39 41 5c	 cmp	 DWORD PTR [ecx+92], eax
  00068	72 58		 jb	 SHORT $LN114@P_MovePlay
  0006a	8b 45 08	 mov	 eax, DWORD PTR _player$[ebp]
  0006d	8b 08		 mov	 ecx, DWORD PTR [eax]
  0006f	ba 1c 00 00 00	 mov	 edx, 28			; 0000001cH
  00074	6b c2 39	 imul	 eax, edx, 57
  00077	05 00 00 00 00	 add	 eax, OFFSET _states
  0007c	39 41 5c	 cmp	 DWORD PTR [ecx+92], eax
  0007f	77 41		 ja	 SHORT $LN114@P_MovePlay

; 5491 : 	{
; 5492 : 		P_CheckSneakerAndLivesTimer(player);

  00081	8b 45 08	 mov	 eax, DWORD PTR _player$[ebp]
  00084	50		 push	 eax
  00085	e8 00 00 00 00	 call	 _P_CheckSneakerAndLivesTimer
  0008a	83 c4 04	 add	 esp, 4

; 5493 : 		P_CheckUnderwaterAndSpaceTimer(player);

  0008d	8b 45 08	 mov	 eax, DWORD PTR _player$[ebp]
  00090	50		 push	 eax
  00091	e8 00 00 00 00	 call	 _P_CheckUnderwaterAndSpaceTimer
  00096	83 c4 04	 add	 esp, 4

; 5494 : 		player->mo->momx = player->mo->momy = player->mo->momz = 0;

  00099	8b 45 08	 mov	 eax, DWORD PTR _player$[ebp]
  0009c	8b 08		 mov	 ecx, DWORD PTR [eax]
  0009e	c7 41 50 00 00
	00 00		 mov	 DWORD PTR [ecx+80], 0
  000a5	8b 55 08	 mov	 edx, DWORD PTR _player$[ebp]
  000a8	8b 02		 mov	 eax, DWORD PTR [edx]
  000aa	c7 40 4c 00 00
	00 00		 mov	 DWORD PTR [eax+76], 0
  000b1	8b 4d 08	 mov	 ecx, DWORD PTR _player$[ebp]
  000b4	8b 11		 mov	 edx, DWORD PTR [ecx]
  000b6	c7 42 48 00 00
	00 00		 mov	 DWORD PTR [edx+72], 0

; 5495 : 		return;

  000bd	e9 e3 86 00 00	 jmp	 $LN109@P_MovePlay
$LN114@P_MovePlay:

; 5496 : 	}
; 5497 : 
; 5498 : 	cmd = &player->cmd;

  000c2	8b 45 08	 mov	 eax, DWORD PTR _player$[ebp]
  000c5	83 c0 08	 add	 eax, 8
  000c8	89 45 f8	 mov	 DWORD PTR _cmd$[ebp], eax

; 5499 : 	runspd = player->runspeed;

  000cb	8b 45 08	 mov	 eax, DWORD PTR _player$[ebp]
  000ce	8b 88 c8 00 00
	00		 mov	 ecx, DWORD PTR [eax+200]
  000d4	89 4d dc	 mov	 DWORD PTR _runspd$[ebp], ecx

; 5500 : 
; 5501 : 	// Synchronizes the "real" amount of time spent in the level.
; 5502 : 	if (!player->exiting)

  000d7	8b 45 08	 mov	 eax, DWORD PTR _player$[ebp]
  000da	83 b8 30 01 00
	00 00		 cmp	 DWORD PTR [eax+304], 0
  000e1	75 4b		 jne	 SHORT $LN117@P_MovePlay

; 5503 : 	{
; 5504 : 		if (gametype == GT_RACE)

  000e3	0f bf 05 00 00
	00 00		 movsx	 eax, WORD PTR _gametype
  000ea	83 f8 02	 cmp	 eax, 2
  000ed	75 30		 jne	 SHORT $LN116@P_MovePlay

; 5505 : 		{
; 5506 : 			if (leveltime >= 4*TICRATE)

  000ef	81 3d 00 00 00
	00 8c 00 00 00	 cmp	 DWORD PTR _leveltime, 140 ; 0000008cH
  000f9	72 15		 jb	 SHORT $LN118@P_MovePlay

; 5507 : 				player->realtime = leveltime - 4*TICRATE;

  000fb	a1 00 00 00 00	 mov	 eax, DWORD PTR _leveltime
  00100	2d 8c 00 00 00	 sub	 eax, 140		; 0000008cH
  00105	8b 4d 08	 mov	 ecx, DWORD PTR _player$[ebp]
  00108	89 81 54 01 00
	00		 mov	 DWORD PTR [ecx+340], eax
  0010e	eb 0d		 jmp	 SHORT $LN119@P_MovePlay
$LN118@P_MovePlay:

; 5508 : 			else
; 5509 : 				player->realtime = 0;

  00110	8b 45 08	 mov	 eax, DWORD PTR _player$[ebp]
  00113	c7 80 54 01 00
	00 00 00 00 00	 mov	 DWORD PTR [eax+340], 0
$LN119@P_MovePlay:

; 5510 : 		}

  0011d	eb 0f		 jmp	 SHORT $LN117@P_MovePlay
$LN116@P_MovePlay:

; 5511 : 		else
; 5512 : 			player->realtime = leveltime;

  0011f	8b 45 08	 mov	 eax, DWORD PTR _player$[ebp]
  00122	8b 0d 00 00 00
	00		 mov	 ecx, DWORD PTR _leveltime
  00128	89 88 54 01 00
	00		 mov	 DWORD PTR [eax+340], ecx
$LN117@P_MovePlay:

; 5513 : 	}
; 5514 : 
; 5515 : 	//Only allow this style of joining the game in normal match and tag.
; 5516 : 	//CTF and team match spectators have to join the game in another method.
; 5517 : 	if ((netgame || splitscreen) && player->spectator && (cmd->buttons & BT_ATTACK) && !player->powers[pw_flashing] &&

  0012e	83 3d 00 00 00
	00 00		 cmp	 DWORD PTR _netgame, 0
  00135	75 0d		 jne	 SHORT $LN121@P_MovePlay
  00137	83 3d 00 00 00
	00 00		 cmp	 DWORD PTR _splitscreen, 0
  0013e	0f 84 f1 01 00
	00		 je	 $LN125@P_MovePlay
$LN121@P_MovePlay:
  00144	8b 45 08	 mov	 eax, DWORD PTR _player$[ebp]
  00147	0f b6 88 f0 01
	00 00		 movzx	 ecx, BYTE PTR [eax+496]
  0014e	85 c9		 test	 ecx, ecx
  00150	0f 84 df 01 00
	00		 je	 $LN125@P_MovePlay
  00156	8b 45 f8	 mov	 eax, DWORD PTR _cmd$[ebp]
  00159	0f b7 48 06	 movzx	 ecx, WORD PTR [eax+6]
  0015d	81 e1 00 01 00
	00		 and	 ecx, 256		; 00000100H
  00163	0f 84 cc 01 00
	00		 je	 $LN125@P_MovePlay
  00169	b8 04 00 00 00	 mov	 eax, 4
  0016e	d1 e0		 shl	 eax, 1
  00170	8b 4d 08	 mov	 ecx, DWORD PTR _player$[ebp]
  00173	83 7c 01 38 00	 cmp	 DWORD PTR [ecx+eax+56], 0
  00178	0f 85 b7 01 00
	00		 jne	 $LN125@P_MovePlay
  0017e	0f bf 05 00 00
	00 00		 movsx	 eax, WORD PTR _gametype
  00185	83 f8 01	 cmp	 eax, 1
  00188	75 09		 jne	 SHORT $LN123@P_MovePlay
  0018a	83 3d 14 00 00
	00 00		 cmp	 DWORD PTR _cv_matchtype+20, 0
  00191	74 10		 je	 SHORT $LN122@P_MovePlay
$LN123@P_MovePlay:
  00193	0f bf 05 00 00
	00 00		 movsx	 eax, WORD PTR _gametype
  0019a	83 f8 03	 cmp	 eax, 3
  0019d	0f 85 92 01 00
	00		 jne	 $LN125@P_MovePlay
$LN122@P_MovePlay:

; 5518 : 		((gametype == GT_MATCH && !cv_matchtype.value) || gametype == GT_TAG))
; 5519 : 	{
; 5520 : 		if (cv_allowteamchange.value)

  001a3	83 3d 14 00 00
	00 00		 cmp	 DWORD PTR _cv_allowteamchange+20, 0
  001aa	0f 84 59 01 00
	00		 je	 $LN124@P_MovePlay

; 5521 : 		{
; 5522 : 			// Exception for hide and seek. Don't join a game when you simply
; 5523 : 			// respawn in place and sit there for the rest of the round.
; 5524 : 			if (!(gametype == GT_TAG && cv_tagtype.value && leveltime > (hidetime * TICRATE)))

  001b0	0f bf 05 00 00
	00 00		 movsx	 eax, WORD PTR _gametype
  001b7	83 f8 03	 cmp	 eax, 3
  001ba	75 1c		 jne	 SHORT $LN128@P_MovePlay
  001bc	83 3d 14 00 00
	00 00		 cmp	 DWORD PTR _cv_tagtype+20, 0
  001c3	74 13		 je	 SHORT $LN128@P_MovePlay
  001c5	6b 05 00 00 00
	00 23		 imul	 eax, DWORD PTR _hidetime, 35
  001cc	39 05 00 00 00
	00		 cmp	 DWORD PTR _leveltime, eax
  001d2	0f 87 f3 00 00
	00		 ja	 $LN126@P_MovePlay
$LN128@P_MovePlay:

; 5525 : 			{
; 5526 : 				player->lives++;

  001d8	8b 45 08	 mov	 eax, DWORD PTR _player$[ebp]
  001db	8b 88 00 01 00
	00		 mov	 ecx, DWORD PTR [eax+256]
  001e1	83 c1 01	 add	 ecx, 1
  001e4	8b 55 08	 mov	 edx, DWORD PTR _player$[ebp]
  001e7	89 8a 00 01 00
	00		 mov	 DWORD PTR [edx+256], ecx

; 5527 : 				P_DamageMobj(player->mo, NULL, NULL, 42000);

  001ed	68 10 a4 00 00	 push	 42000			; 0000a410H
  001f2	6a 00		 push	 0
  001f4	6a 00		 push	 0
  001f6	8b 45 08	 mov	 eax, DWORD PTR _player$[ebp]
  001f9	8b 08		 mov	 ecx, DWORD PTR [eax]
  001fb	51		 push	 ecx
  001fc	e8 00 00 00 00	 call	 _P_DamageMobj
  00201	83 c4 10	 add	 esp, 16			; 00000010H

; 5528 : 				player->spectator = false;

  00204	8b 45 08	 mov	 eax, DWORD PTR _player$[ebp]
  00207	c6 80 f0 01 00
	00 00		 mov	 BYTE PTR [eax+496], 0

; 5529 : 
; 5530 : 				if (gametype == GT_TAG)

  0020e	0f bf 05 00 00
	00 00		 movsx	 eax, WORD PTR _gametype
  00215	83 f8 03	 cmp	 eax, 3
  00218	75 54		 jne	 SHORT $LN129@P_MovePlay

; 5531 : 				{
; 5532 : 					//Make joining players "it" after hidetime.
; 5533 : 					if (leveltime > (hidetime * TICRATE))

  0021a	6b 05 00 00 00
	00 23		 imul	 eax, DWORD PTR _hidetime, 35
  00221	39 05 00 00 00
	00		 cmp	 DWORD PTR _leveltime, eax
  00227	76 3f		 jbe	 SHORT $LN130@P_MovePlay

; 5534 : 					{
; 5535 : 						CONS_Printf("%s is it!\n", player_names[player-players]); // Tell everyone who is it!

  00229	8b 45 08	 mov	 eax, DWORD PTR _player$[ebp]
  0022c	2d 00 00 00 00	 sub	 eax, OFFSET _players
  00231	99		 cdq
  00232	b9 fc 01 00 00	 mov	 ecx, 508		; 000001fcH
  00237	f7 f9		 idiv	 ecx
  00239	6b d0 16	 imul	 edx, eax, 22
  0023c	81 c2 00 00 00
	00		 add	 edx, OFFSET _player_names
  00242	52		 push	 edx
  00243	68 00 00 00 00	 push	 OFFSET ??_C@_0L@FKKLEDAE@?$CFs?5is?5it?$CB?6@
  00248	e8 00 00 00 00	 call	 _CONS_Printf
  0024d	83 c4 08	 add	 esp, 8

; 5536 : 						player->pflags |= PF_TAGIT;

  00250	8b 45 08	 mov	 eax, DWORD PTR _player$[ebp]
  00253	8b 88 ac 00 00
	00		 mov	 ecx, DWORD PTR [eax+172]
  00259	81 c9 00 00 00
	10		 or	 ecx, 268435456		; 10000000H
  0025f	8b 55 08	 mov	 edx, DWORD PTR _player$[ebp]
  00262	89 8a ac 00 00
	00		 mov	 DWORD PTR [edx+172], ecx
$LN130@P_MovePlay:

; 5537 : 					}
; 5538 : 
; 5539 : 					P_CheckSurvivors();

  00268	e8 00 00 00 00	 call	 _P_CheckSurvivors
  0026d	90		 npad	 1
$LN129@P_MovePlay:

; 5540 : 				}
; 5541 : 
; 5542 : 				//Reset away view
; 5543 : 				if (P_IsLocalPlayer(player) && displayplayer != consoleplayer)

  0026e	8b 45 08	 mov	 eax, DWORD PTR _player$[ebp]
  00271	50		 push	 eax
  00272	e8 00 00 00 00	 call	 _P_IsLocalPlayer
  00277	83 c4 04	 add	 esp, 4
  0027a	85 c0		 test	 eax, eax
  0027c	74 17		 je	 SHORT $LN131@P_MovePlay
  0027e	a1 00 00 00 00	 mov	 eax, DWORD PTR _displayplayer
  00283	3b 05 00 00 00
	00		 cmp	 eax, DWORD PTR _consoleplayer
  00289	74 0a		 je	 SHORT $LN131@P_MovePlay

; 5544 : 					displayplayer = consoleplayer;

  0028b	a1 00 00 00 00	 mov	 eax, DWORD PTR _consoleplayer
  00290	a3 00 00 00 00	 mov	 DWORD PTR _displayplayer, eax
$LN131@P_MovePlay:

; 5545 : 
; 5546 : 				CONS_Printf(text[INGAME_SWITCH], player_names[player-players]);

  00295	8b 45 08	 mov	 eax, DWORD PTR _player$[ebp]
  00298	2d 00 00 00 00	 sub	 eax, OFFSET _players
  0029d	99		 cdq
  0029e	b9 fc 01 00 00	 mov	 ecx, 508		; 000001fcH
  002a3	f7 f9		 idiv	 ecx
  002a5	6b d0 16	 imul	 edx, eax, 22
  002a8	81 c2 00 00 00
	00		 add	 edx, OFFSET _player_names
  002ae	52		 push	 edx
  002af	b8 04 00 00 00	 mov	 eax, 4
  002b4	69 c8 8c 00 00
	00		 imul	 ecx, eax, 140
  002ba	8b 91 00 00 00
	00		 mov	 edx, DWORD PTR _text[ecx]
  002c0	52		 push	 edx
  002c1	e8 00 00 00 00	 call	 _CONS_Printf
  002c6	83 c4 08	 add	 esp, 8

; 5547 : 			}

  002c9	eb 3c		 jmp	 SHORT $LN127@P_MovePlay
$LN126@P_MovePlay:

; 5548 : 			else
; 5549 : 			{
; 5550 : 				if (P_IsLocalPlayer(player))

  002cb	8b 45 08	 mov	 eax, DWORD PTR _player$[ebp]
  002ce	50		 push	 eax
  002cf	e8 00 00 00 00	 call	 _P_IsLocalPlayer
  002d4	83 c4 04	 add	 esp, 4
  002d7	85 c0		 test	 eax, eax
  002d9	74 0d		 je	 SHORT $LN132@P_MovePlay

; 5551 : 					CONS_Printf("You must wait until next round to enter the game.\n");

  002db	68 00 00 00 00	 push	 OFFSET ??_C@_0DD@DEDIIPMB@You?5must?5wait?5until?5next?5round?5@
  002e0	e8 00 00 00 00	 call	 _CONS_Printf
  002e5	83 c4 04	 add	 esp, 4
$LN132@P_MovePlay:

; 5552 : 				player->powers[pw_flashing] += 2*TICRATE; //to prevent message spam.

  002e8	b8 04 00 00 00	 mov	 eax, 4
  002ed	d1 e0		 shl	 eax, 1
  002ef	8b 4d 08	 mov	 ecx, DWORD PTR _player$[ebp]
  002f2	8b 54 01 38	 mov	 edx, DWORD PTR [ecx+eax+56]
  002f6	83 c2 46	 add	 edx, 70			; 00000046H
  002f9	b8 04 00 00 00	 mov	 eax, 4
  002fe	d1 e0		 shl	 eax, 1
  00300	8b 4d 08	 mov	 ecx, DWORD PTR _player$[ebp]
  00303	89 54 01 38	 mov	 DWORD PTR [ecx+eax+56], edx
$LN127@P_MovePlay:

; 5553 : 			}
; 5554 : 		}

  00307	eb 2c		 jmp	 SHORT $LN125@P_MovePlay
$LN124@P_MovePlay:

; 5555 : 		else
; 5556 : 		{
; 5557 : 			CONS_Printf("Server does not allow team change.\n");

  00309	68 00 00 00 00	 push	 OFFSET ??_C@_0CE@GFKDEHPF@Server?5does?5not?5allow?5team?5chan@
  0030e	e8 00 00 00 00	 call	 _CONS_Printf
  00313	83 c4 04	 add	 esp, 4

; 5558 : 			player->powers[pw_flashing] += 2*TICRATE; //to prevent message spam.

  00316	b8 04 00 00 00	 mov	 eax, 4
  0031b	d1 e0		 shl	 eax, 1
  0031d	8b 4d 08	 mov	 ecx, DWORD PTR _player$[ebp]
  00320	8b 54 01 38	 mov	 edx, DWORD PTR [ecx+eax+56]
  00324	83 c2 46	 add	 edx, 70			; 00000046H
  00327	b8 04 00 00 00	 mov	 eax, 4
  0032c	d1 e0		 shl	 eax, 1
  0032e	8b 4d 08	 mov	 ecx, DWORD PTR _player$[ebp]
  00331	89 54 01 38	 mov	 DWORD PTR [ecx+eax+56], edx
$LN125@P_MovePlay:

; 5559 : 		}
; 5560 : 	}
; 5561 : 
; 5562 : 	// Team changing in Team Match and CTF
; 5563 : 	// Pressing fire assigns you to a team that needs players if allowed.
; 5564 : 	// Partial code reproduction from p_tick.c autobalance code.
; 5565 : 	if ((netgame || splitscreen) && player->spectator && (cmd->buttons & BT_ATTACK) && !player->powers[pw_flashing] &&

  00335	83 3d 00 00 00
	00 00		 cmp	 DWORD PTR _netgame, 0
  0033c	75 0d		 jne	 SHORT $LN134@P_MovePlay
  0033e	83 3d 00 00 00
	00 00		 cmp	 DWORD PTR _splitscreen, 0
  00345	0f 84 a7 02 00
	00		 je	 $LN138@P_MovePlay
$LN134@P_MovePlay:
  0034b	8b 45 08	 mov	 eax, DWORD PTR _player$[ebp]
  0034e	0f b6 88 f0 01
	00 00		 movzx	 ecx, BYTE PTR [eax+496]
  00355	85 c9		 test	 ecx, ecx
  00357	0f 84 95 02 00
	00		 je	 $LN138@P_MovePlay
  0035d	8b 45 f8	 mov	 eax, DWORD PTR _cmd$[ebp]
  00360	0f b7 48 06	 movzx	 ecx, WORD PTR [eax+6]
  00364	81 e1 00 01 00
	00		 and	 ecx, 256		; 00000100H
  0036a	0f 84 82 02 00
	00		 je	 $LN138@P_MovePlay
  00370	b8 04 00 00 00	 mov	 eax, 4
  00375	d1 e0		 shl	 eax, 1
  00377	8b 4d 08	 mov	 ecx, DWORD PTR _player$[ebp]
  0037a	83 7c 01 38 00	 cmp	 DWORD PTR [ecx+eax+56], 0
  0037f	0f 85 6d 02 00
	00		 jne	 $LN138@P_MovePlay
  00385	0f bf 05 00 00
	00 00		 movsx	 eax, WORD PTR _gametype
  0038c	83 f8 01	 cmp	 eax, 1
  0038f	75 09		 jne	 SHORT $LN136@P_MovePlay
  00391	83 3d 14 00 00
	00 00		 cmp	 DWORD PTR _cv_matchtype+20, 0
  00398	75 10		 jne	 SHORT $LN135@P_MovePlay
$LN136@P_MovePlay:
  0039a	0f bf 05 00 00
	00 00		 movsx	 eax, WORD PTR _gametype
  003a1	83 f8 04	 cmp	 eax, 4
  003a4	0f 85 48 02 00
	00		 jne	 $LN138@P_MovePlay
$LN135@P_MovePlay:

; 5566 : 		((gametype == GT_MATCH && cv_matchtype.value) || gametype == GT_CTF))
; 5567 : 	{
; 5568 : 		if (cv_allowteamchange.value)

  003aa	83 3d 14 00 00
	00 00		 cmp	 DWORD PTR _cv_allowteamchange+20, 0
  003b1	0f 84 0f 02 00
	00		 je	 $LN137@P_MovePlay

; 5569 : 		{
; 5570 : 			INT32 changeto;
; 5571 : 			INT32 red, blue;
; 5572 : 			INT32 redarray[MAXPLAYERS], bluearray[MAXPLAYERS];
; 5573 : 
; 5574 : 			red = blue = changeto = 0;

  003b7	c7 45 d8 00 00
	00 00		 mov	 DWORD PTR _changeto$108[ebp], 0
  003be	8b 45 d8	 mov	 eax, DWORD PTR _changeto$108[ebp]
  003c1	89 45 d0	 mov	 DWORD PTR _blue$106[ebp], eax
  003c4	8b 4d d0	 mov	 ecx, DWORD PTR _blue$106[ebp]
  003c7	89 4d d4	 mov	 DWORD PTR _red$107[ebp], ecx

; 5575 : 
; 5576 : 			//We have to store the players in an array with the rest of their team.
; 5577 : 			//We can then pick which team the player will be assigned to.
; 5578 : 			for (i = 0; i < MAXPLAYERS; i++)

  003ca	c7 45 f4 00 00
	00 00		 mov	 DWORD PTR _i$[ebp], 0
  003d1	eb 09		 jmp	 SHORT $LN4@P_MovePlay
$LN2@P_MovePlay:
  003d3	8b 45 f4	 mov	 eax, DWORD PTR _i$[ebp]
  003d6	83 c0 01	 add	 eax, 1
  003d9	89 45 f4	 mov	 DWORD PTR _i$[ebp], eax
$LN4@P_MovePlay:
  003dc	83 7d f4 20	 cmp	 DWORD PTR _i$[ebp], 32	; 00000020H
  003e0	7d 1e		 jge	 SHORT $LN3@P_MovePlay

; 5579 : 			{
; 5580 : 				redarray[i] = 0;

  003e2	8b 45 f4	 mov	 eax, DWORD PTR _i$[ebp]
  003e5	c7 84 85 50 ff
	ff ff 00 00 00
	00		 mov	 DWORD PTR _redarray$105[ebp+eax*4], 0

; 5581 : 				bluearray[i] = 0;

  003f0	8b 45 f4	 mov	 eax, DWORD PTR _i$[ebp]
  003f3	c7 84 85 d0 fe
	ff ff 00 00 00
	00		 mov	 DWORD PTR _bluearray$104[ebp+eax*4], 0

; 5582 : 			}

  003fe	eb d3		 jmp	 SHORT $LN2@P_MovePlay
$LN3@P_MovePlay:

; 5583 : 
; 5584 : 			for (i = 0; i < MAXPLAYERS; i++)

  00400	c7 45 f4 00 00
	00 00		 mov	 DWORD PTR _i$[ebp], 0
  00407	eb 09		 jmp	 SHORT $LN7@P_MovePlay
$LN5@P_MovePlay:
  00409	8b 45 f4	 mov	 eax, DWORD PTR _i$[ebp]
  0040c	83 c0 01	 add	 eax, 1
  0040f	89 45 f4	 mov	 DWORD PTR _i$[ebp], eax
$LN7@P_MovePlay:
  00412	83 7d f4 20	 cmp	 DWORD PTR _i$[ebp], 32	; 00000020H
  00416	7d 66		 jge	 SHORT $LN6@P_MovePlay

; 5585 : 			{
; 5586 : 				if (playeringame[i])

  00418	8b 45 f4	 mov	 eax, DWORD PTR _i$[ebp]
  0041b	83 3c 85 00 00
	00 00 00	 cmp	 DWORD PTR _playeringame[eax*4], 0
  00423	74 57		 je	 SHORT $LN8@P_MovePlay

; 5587 : 				{
; 5588 : 					switch (players[i].ctfteam)

  00425	69 45 f4 fc 01
	00 00		 imul	 eax, DWORD PTR _i$[ebp], 508
  0042c	8b 88 60 01 00
	00		 mov	 ecx, DWORD PTR _players[eax+352]
  00432	89 8d b0 fc ff
	ff		 mov	 DWORD PTR tv242[ebp], ecx
  00438	83 bd b0 fc ff
	ff 01		 cmp	 DWORD PTR tv242[ebp], 1
  0043f	74 0d		 je	 SHORT $LN141@P_MovePlay
  00441	83 bd b0 fc ff
	ff 02		 cmp	 DWORD PTR tv242[ebp], 2
  00448	74 1c		 je	 SHORT $LN142@P_MovePlay
  0044a	eb 30		 jmp	 SHORT $LN8@P_MovePlay

; 5589 : 					{
; 5590 : 					case 0:
; 5591 : 						break;

  0044c	eb 2e		 jmp	 SHORT $LN8@P_MovePlay
$LN141@P_MovePlay:

; 5592 : 					case 1:
; 5593 : 						redarray[red] = i; //store the player's node.

  0044e	8b 45 d4	 mov	 eax, DWORD PTR _red$107[ebp]
  00451	8b 4d f4	 mov	 ecx, DWORD PTR _i$[ebp]
  00454	89 8c 85 50 ff
	ff ff		 mov	 DWORD PTR _redarray$105[ebp+eax*4], ecx

; 5594 : 						red++;

  0045b	8b 45 d4	 mov	 eax, DWORD PTR _red$107[ebp]
  0045e	83 c0 01	 add	 eax, 1
  00461	89 45 d4	 mov	 DWORD PTR _red$107[ebp], eax

; 5595 : 						break;

  00464	eb 16		 jmp	 SHORT $LN8@P_MovePlay
$LN142@P_MovePlay:

; 5596 : 					case 2:
; 5597 : 						bluearray[blue] = i; //store the player's node.

  00466	8b 45 d0	 mov	 eax, DWORD PTR _blue$106[ebp]
  00469	8b 4d f4	 mov	 ecx, DWORD PTR _i$[ebp]
  0046c	89 8c 85 d0 fe
	ff ff		 mov	 DWORD PTR _bluearray$104[ebp+eax*4], ecx

; 5598 : 						blue++;

  00473	8b 45 d0	 mov	 eax, DWORD PTR _blue$106[ebp]
  00476	83 c0 01	 add	 eax, 1
  00479	89 45 d0	 mov	 DWORD PTR _blue$106[ebp], eax
$LN8@P_MovePlay:

; 5599 : 						break;
; 5600 : 					}
; 5601 : 				}
; 5602 : 			}

  0047c	eb 8b		 jmp	 SHORT $LN5@P_MovePlay
$LN6@P_MovePlay:

; 5603 : 
; 5604 : 			//find a team by players, then by score, or random if all else fails.
; 5605 : 			if (blue > red)

  0047e	8b 45 d0	 mov	 eax, DWORD PTR _blue$106[ebp]
  00481	3b 45 d4	 cmp	 eax, DWORD PTR _red$107[ebp]
  00484	7e 09		 jle	 SHORT $LN143@P_MovePlay

; 5606 : 				changeto = 1;

  00486	c7 45 d8 01 00
	00 00		 mov	 DWORD PTR _changeto$108[ebp], 1
  0048d	eb 57		 jmp	 SHORT $LN150@P_MovePlay
$LN143@P_MovePlay:

; 5607 : 			else if (red > blue)

  0048f	8b 45 d4	 mov	 eax, DWORD PTR _red$107[ebp]
  00492	3b 45 d0	 cmp	 eax, DWORD PTR _blue$106[ebp]
  00495	7e 09		 jle	 SHORT $LN145@P_MovePlay

; 5608 : 				changeto = 2;

  00497	c7 45 d8 02 00
	00 00		 mov	 DWORD PTR _changeto$108[ebp], 2
  0049e	eb 46		 jmp	 SHORT $LN150@P_MovePlay
$LN145@P_MovePlay:

; 5609 : 			else if (bluescore > redscore)

  004a0	a1 00 00 00 00	 mov	 eax, DWORD PTR _bluescore
  004a5	3b 05 00 00 00
	00		 cmp	 eax, DWORD PTR _redscore
  004ab	76 09		 jbe	 SHORT $LN147@P_MovePlay

; 5610 : 				changeto = 1;

  004ad	c7 45 d8 01 00
	00 00		 mov	 DWORD PTR _changeto$108[ebp], 1
  004b4	eb 30		 jmp	 SHORT $LN150@P_MovePlay
$LN147@P_MovePlay:

; 5611 : 			else if (redscore > bluescore)

  004b6	a1 00 00 00 00	 mov	 eax, DWORD PTR _redscore
  004bb	3b 05 00 00 00
	00		 cmp	 eax, DWORD PTR _bluescore
  004c1	76 09		 jbe	 SHORT $LN149@P_MovePlay

; 5612 : 				changeto = 2;

  004c3	c7 45 d8 02 00
	00 00		 mov	 DWORD PTR _changeto$108[ebp], 2
  004ca	eb 1a		 jmp	 SHORT $LN150@P_MovePlay
$LN149@P_MovePlay:

; 5613 : 			else
; 5614 : 				changeto = (P_Random() % 2) + 1;

  004cc	e8 00 00 00 00	 call	 _P_Random
  004d1	0f b6 c0	 movzx	 eax, al
  004d4	25 01 00 00 80	 and	 eax, -2147483647	; 80000001H
  004d9	79 05		 jns	 SHORT $LN828@P_MovePlay
  004db	48		 dec	 eax
  004dc	83 c8 fe	 or	 eax, -2			; fffffffeH
  004df	40		 inc	 eax
$LN828@P_MovePlay:
  004e0	83 c0 01	 add	 eax, 1
  004e3	89 45 d8	 mov	 DWORD PTR _changeto$108[ebp], eax
$LN150@P_MovePlay:

; 5615 : 
; 5616 : 			//assign the player
; 5617 : 			player->lives++;

  004e6	8b 45 08	 mov	 eax, DWORD PTR _player$[ebp]
  004e9	8b 88 00 01 00
	00		 mov	 ecx, DWORD PTR [eax+256]
  004ef	83 c1 01	 add	 ecx, 1
  004f2	8b 55 08	 mov	 edx, DWORD PTR _player$[ebp]
  004f5	89 8a 00 01 00
	00		 mov	 DWORD PTR [edx+256], ecx

; 5618 : 			P_DamageMobj(player->mo, NULL, NULL, 42000);

  004fb	68 10 a4 00 00	 push	 42000			; 0000a410H
  00500	6a 00		 push	 0
  00502	6a 00		 push	 0
  00504	8b 45 08	 mov	 eax, DWORD PTR _player$[ebp]
  00507	8b 08		 mov	 ecx, DWORD PTR [eax]
  00509	51		 push	 ecx
  0050a	e8 00 00 00 00	 call	 _P_DamageMobj
  0050f	83 c4 10	 add	 esp, 16			; 00000010H

; 5619 : 			player->spectator = false;

  00512	8b 45 08	 mov	 eax, DWORD PTR _player$[ebp]
  00515	c6 80 f0 01 00
	00 00		 mov	 BYTE PTR [eax+496], 0

; 5620 : 
; 5621 : 			if (changeto == 1)

  0051c	83 7d d8 01	 cmp	 DWORD PTR _changeto$108[ebp], 1
  00520	75 4f		 jne	 SHORT $LN151@P_MovePlay

; 5622 : 			{
; 5623 : 				if (player == &players[consoleplayer])

  00522	69 05 00 00 00
	00 fc 01 00 00	 imul	 eax, DWORD PTR _consoleplayer, 508
  0052c	05 00 00 00 00	 add	 eax, OFFSET _players
  00531	39 45 08	 cmp	 DWORD PTR _player$[ebp], eax
  00534	75 0f		 jne	 SHORT $LN153@P_MovePlay

; 5624 : 				{
; 5625 : 					COM_ImmedExecute("changeteam red");

  00536	68 00 00 00 00	 push	 OFFSET ??_C@_0P@HLFJDFHH@changeteam?5red@
  0053b	e8 00 00 00 00	 call	 _COM_ImmedExecute
  00540	83 c4 04	 add	 esp, 4

; 5626 : 				}

  00543	eb 2a		 jmp	 SHORT $LN155@P_MovePlay
$LN153@P_MovePlay:

; 5627 : 				else if (splitscreen && player == &players[secondarydisplayplayer])

  00545	83 3d 00 00 00
	00 00		 cmp	 DWORD PTR _splitscreen, 0
  0054c	74 21		 je	 SHORT $LN155@P_MovePlay
  0054e	69 05 00 00 00
	00 fc 01 00 00	 imul	 eax, DWORD PTR _secondarydisplayplayer, 508
  00558	05 00 00 00 00	 add	 eax, OFFSET _players
  0055d	39 45 08	 cmp	 DWORD PTR _player$[ebp], eax
  00560	75 0d		 jne	 SHORT $LN155@P_MovePlay

; 5628 : 				{
; 5629 : 					COM_ImmedExecute("changeteam2 red");

  00562	68 00 00 00 00	 push	 OFFSET ??_C@_0BA@PEKCJCD@changeteam2?5red@
  00567	e8 00 00 00 00	 call	 _COM_ImmedExecute
  0056c	83 c4 04	 add	 esp, 4
$LN155@P_MovePlay:

; 5630 : 				}
; 5631 : 			}

  0056f	eb 53		 jmp	 SHORT $LN159@P_MovePlay
$LN151@P_MovePlay:

; 5632 : 			else if (changeto == 2)

  00571	83 7d d8 02	 cmp	 DWORD PTR _changeto$108[ebp], 2
  00575	75 4d		 jne	 SHORT $LN159@P_MovePlay

; 5633 : 			{
; 5634 : 				if (player == &players[consoleplayer])

  00577	69 05 00 00 00
	00 fc 01 00 00	 imul	 eax, DWORD PTR _consoleplayer, 508
  00581	05 00 00 00 00	 add	 eax, OFFSET _players
  00586	39 45 08	 cmp	 DWORD PTR _player$[ebp], eax
  00589	75 0f		 jne	 SHORT $LN157@P_MovePlay

; 5635 : 				{
; 5636 : 					COM_ImmedExecute("changeteam blue");

  0058b	68 00 00 00 00	 push	 OFFSET ??_C@_0BA@NGJMDDAH@changeteam?5blue@
  00590	e8 00 00 00 00	 call	 _COM_ImmedExecute
  00595	83 c4 04	 add	 esp, 4

; 5637 : 				}

  00598	eb 2a		 jmp	 SHORT $LN159@P_MovePlay
$LN157@P_MovePlay:

; 5638 : 				else if (splitscreen && player == &players[secondarydisplayplayer])

  0059a	83 3d 00 00 00
	00 00		 cmp	 DWORD PTR _splitscreen, 0
  005a1	74 21		 je	 SHORT $LN159@P_MovePlay
  005a3	69 05 00 00 00
	00 fc 01 00 00	 imul	 eax, DWORD PTR _secondarydisplayplayer, 508
  005ad	05 00 00 00 00	 add	 eax, OFFSET _players
  005b2	39 45 08	 cmp	 DWORD PTR _player$[ebp], eax
  005b5	75 0d		 jne	 SHORT $LN159@P_MovePlay

; 5639 : 				{
; 5640 : 					COM_ImmedExecute("changeteam2 blue");

  005b7	68 00 00 00 00	 push	 OFFSET ??_C@_0BB@LKOOLFPG@changeteam2?5blue@
  005bc	e8 00 00 00 00	 call	 _COM_ImmedExecute
  005c1	83 c4 04	 add	 esp, 4
$LN159@P_MovePlay:

; 5641 : 				}
; 5642 : 			}
; 5643 : 		}

  005c4	eb 2c		 jmp	 SHORT $LN138@P_MovePlay
$LN137@P_MovePlay:

; 5644 : 		else
; 5645 : 		{
; 5646 : 			CONS_Printf("Server does not allow team change.\n");

  005c6	68 00 00 00 00	 push	 OFFSET ??_C@_0CE@GFKDEHPF@Server?5does?5not?5allow?5team?5chan@
  005cb	e8 00 00 00 00	 call	 _CONS_Printf
  005d0	83 c4 04	 add	 esp, 4

; 5647 : 			player->powers[pw_flashing] += 2*TICRATE; //to prevent message spam.

  005d3	b8 04 00 00 00	 mov	 eax, 4
  005d8	d1 e0		 shl	 eax, 1
  005da	8b 4d 08	 mov	 ecx, DWORD PTR _player$[ebp]
  005dd	8b 54 01 38	 mov	 edx, DWORD PTR [ecx+eax+56]
  005e1	83 c2 46	 add	 edx, 70			; 00000046H
  005e4	b8 04 00 00 00	 mov	 eax, 4
  005e9	d1 e0		 shl	 eax, 1
  005eb	8b 4d 08	 mov	 ecx, DWORD PTR _player$[ebp]
  005ee	89 54 01 38	 mov	 DWORD PTR [ecx+eax+56], edx
$LN138@P_MovePlay:

; 5648 : 		}
; 5649 : 	}
; 5650 : 
; 5651 : 	// Even if not NiGHTS, pull in nearby objects when walking around as John Q. Elliot.
; 5652 : 	if (!cv_objectplace.value && !((netgame || multiplayer) && player->spectator) && ((maptol & TOL_NIGHTS)) && (!(player->pflags & PF_NIGHTSMODE) || player->powers[pw_nightshelper]))

  005f2	83 3d 14 00 00
	00 00		 cmp	 DWORD PTR _cv_objectplace+20, 0
  005f9	0f 85 85 01 00
	00		 jne	 $LN11@P_MovePlay
  005ff	83 3d 00 00 00
	00 00		 cmp	 DWORD PTR _netgame, 0
  00606	75 09		 jne	 SHORT $LN162@P_MovePlay
  00608	83 3d 00 00 00
	00 00		 cmp	 DWORD PTR _multiplayer, 0
  0060f	74 12		 je	 SHORT $LN161@P_MovePlay
$LN162@P_MovePlay:
  00611	8b 45 08	 mov	 eax, DWORD PTR _player$[ebp]
  00614	0f b6 88 f0 01
	00 00		 movzx	 ecx, BYTE PTR [eax+496]
  0061b	85 c9		 test	 ecx, ecx
  0061d	0f 85 61 01 00
	00		 jne	 $LN11@P_MovePlay
$LN161@P_MovePlay:
  00623	0f bf 05 00 00
	00 00		 movsx	 eax, WORD PTR _maptol
  0062a	83 e0 40	 and	 eax, 64			; 00000040H
  0062d	0f 84 51 01 00
	00		 je	 $LN11@P_MovePlay
  00633	8b 45 08	 mov	 eax, DWORD PTR _player$[ebp]
  00636	8b 88 ac 00 00
	00		 mov	 ecx, DWORD PTR [eax+172]
  0063c	81 e1 00 00 20
	00		 and	 ecx, 2097152		; 00200000H
  00642	74 16		 je	 SHORT $LN163@P_MovePlay
  00644	b8 04 00 00 00	 mov	 eax, 4
  00649	6b c8 1a	 imul	 ecx, eax, 26
  0064c	8b 55 08	 mov	 edx, DWORD PTR _player$[ebp]
  0064f	83 7c 0a 38 00	 cmp	 DWORD PTR [edx+ecx+56], 0
  00654	0f 84 2a 01 00
	00		 je	 $LN11@P_MovePlay
$LN163@P_MovePlay:

; 5653 : 	{
; 5654 : 		thinker_t *th;
; 5655 : 		mobj_t *mo2;
; 5656 : 		fixed_t x = player->mo->x;

  0065a	8b 45 08	 mov	 eax, DWORD PTR _player$[ebp]
  0065d	8b 08		 mov	 ecx, DWORD PTR [eax]
  0065f	8b 51 10	 mov	 edx, DWORD PTR [ecx+16]
  00662	89 95 c4 fe ff
	ff		 mov	 DWORD PTR _x$101[ebp], edx

; 5657 : 		fixed_t y = player->mo->y;

  00668	8b 45 08	 mov	 eax, DWORD PTR _player$[ebp]
  0066b	8b 08		 mov	 ecx, DWORD PTR [eax]
  0066d	8b 51 14	 mov	 edx, DWORD PTR [ecx+20]
  00670	89 95 c0 fe ff
	ff		 mov	 DWORD PTR _y$100[ebp], edx

; 5658 : 		fixed_t z = player->mo->z;

  00676	8b 45 08	 mov	 eax, DWORD PTR _player$[ebp]
  00679	8b 08		 mov	 ecx, DWORD PTR [eax]
  0067b	8b 51 18	 mov	 edx, DWORD PTR [ecx+24]
  0067e	89 95 bc fe ff
	ff		 mov	 DWORD PTR _z$99[ebp], edx

; 5659 : 
; 5660 : 		for (th = thinkercap.next; th != &thinkercap; th = th->next)

  00684	a1 04 00 00 00	 mov	 eax, DWORD PTR _thinkercap+4
  00689	89 85 cc fe ff
	ff		 mov	 DWORD PTR _th$103[ebp], eax
  0068f	eb 0f		 jmp	 SHORT $LN12@P_MovePlay
$LN10@P_MovePlay:
  00691	8b 85 cc fe ff
	ff		 mov	 eax, DWORD PTR _th$103[ebp]
  00697	8b 48 04	 mov	 ecx, DWORD PTR [eax+4]
  0069a	89 8d cc fe ff
	ff		 mov	 DWORD PTR _th$103[ebp], ecx
$LN12@P_MovePlay:
  006a0	81 bd cc fe ff
	ff 00 00 00 00	 cmp	 DWORD PTR _th$103[ebp], OFFSET _thinkercap
  006aa	0f 84 d4 00 00
	00		 je	 $LN11@P_MovePlay

; 5661 : 		{
; 5662 : 			if (th->function.acp1 != (actionf_p1)P_MobjThinker)

  006b0	8b 85 cc fe ff
	ff		 mov	 eax, DWORD PTR _th$103[ebp]
  006b6	81 78 08 00 00
	00 00		 cmp	 DWORD PTR [eax+8], OFFSET _P_MobjThinker
  006bd	74 02		 je	 SHORT $LN164@P_MovePlay

; 5663 : 				continue;

  006bf	eb d0		 jmp	 SHORT $LN10@P_MovePlay
$LN164@P_MovePlay:

; 5664 : 
; 5665 : 			mo2 = (mobj_t *)th;

  006c1	8b 85 cc fe ff
	ff		 mov	 eax, DWORD PTR _th$103[ebp]
  006c7	89 85 c8 fe ff
	ff		 mov	 DWORD PTR _mo2$102[ebp], eax

; 5666 : 
; 5667 : 			if (!(mo2->type == MT_NIGHTSWING || mo2->type == MT_RING || mo2->type == MT_COIN

  006cd	8b 85 c8 fe ff
	ff		 mov	 eax, DWORD PTR _mo2$102[ebp]
  006d3	81 78 7c fc 00
	00 00		 cmp	 DWORD PTR [eax+124], 252 ; 000000fcH
  006da	74 1d		 je	 SHORT $LN165@P_MovePlay
  006dc	8b 85 c8 fe ff
	ff		 mov	 eax, DWORD PTR _mo2$102[ebp]
  006e2	83 78 7c 2b	 cmp	 DWORD PTR [eax+124], 43	; 0000002bH
  006e6	74 11		 je	 SHORT $LN165@P_MovePlay
  006e8	8b 85 c8 fe ff
	ff		 mov	 eax, DWORD PTR _mo2$102[ebp]
  006ee	81 78 7c e1 00
	00 00		 cmp	 DWORD PTR [eax+124], 225 ; 000000e1H
  006f5	74 02		 je	 SHORT $LN165@P_MovePlay

; 5668 : #ifdef BLUE_SPHERES
; 5669 : 			      || mo2->type == MT_BLUEBALL
; 5670 : #endif
; 5671 : 			     ))
; 5672 : 				continue;

  006f7	eb 98		 jmp	 SHORT $LN10@P_MovePlay
$LN165@P_MovePlay:

; 5673 : 
; 5674 : 			if (P_AproxDistance(P_AproxDistance(mo2->x - x, mo2->y - y), mo2->z - z) > 128*FRACUNIT)

  006f9	8b 85 c8 fe ff
	ff		 mov	 eax, DWORD PTR _mo2$102[ebp]
  006ff	8b 48 18	 mov	 ecx, DWORD PTR [eax+24]
  00702	2b 8d bc fe ff
	ff		 sub	 ecx, DWORD PTR _z$99[ebp]
  00708	51		 push	 ecx
  00709	8b 95 c8 fe ff
	ff		 mov	 edx, DWORD PTR _mo2$102[ebp]
  0070f	8b 42 14	 mov	 eax, DWORD PTR [edx+20]
  00712	2b 85 c0 fe ff
	ff		 sub	 eax, DWORD PTR _y$100[ebp]
  00718	50		 push	 eax
  00719	8b 8d c8 fe ff
	ff		 mov	 ecx, DWORD PTR _mo2$102[ebp]
  0071f	8b 51 10	 mov	 edx, DWORD PTR [ecx+16]
  00722	2b 95 c4 fe ff
	ff		 sub	 edx, DWORD PTR _x$101[ebp]
  00728	52		 push	 edx
  00729	e8 00 00 00 00	 call	 _P_AproxDistance
  0072e	83 c4 08	 add	 esp, 8
  00731	50		 push	 eax
  00732	e8 00 00 00 00	 call	 _P_AproxDistance
  00737	83 c4 08	 add	 esp, 8
  0073a	3d 00 00 80 00	 cmp	 eax, 8388608		; 00800000H
  0073f	7e 05		 jle	 SHORT $LN166@P_MovePlay

; 5675 : 				continue;

  00741	e9 4b ff ff ff	 jmp	 $LN10@P_MovePlay
$LN166@P_MovePlay:

; 5676 : 
; 5677 : 			// Yay! The thing's in reach! Pull it in!
; 5678 : 			mo2->flags2 |= MF2_NIGHTSPULL;

  00746	8b 85 c8 fe ff
	ff		 mov	 eax, DWORD PTR _mo2$102[ebp]
  0074c	8b 88 88 00 00
	00		 mov	 ecx, DWORD PTR [eax+136]
  00752	81 c9 00 01 00
	00		 or	 ecx, 256		; 00000100H
  00758	8b 95 c8 fe ff
	ff		 mov	 edx, DWORD PTR _mo2$102[ebp]
  0075e	89 8a 88 00 00
	00		 mov	 DWORD PTR [edx+136], ecx

; 5679 : 			P_SetTarget(&mo2->tracer, player->mo);

  00764	8b 45 08	 mov	 eax, DWORD PTR _player$[ebp]
  00767	8b 08		 mov	 ecx, DWORD PTR [eax]
  00769	51		 push	 ecx
  0076a	8b 95 c8 fe ff
	ff		 mov	 edx, DWORD PTR _mo2$102[ebp]
  00770	81 c2 b0 00 00
	00		 add	 edx, 176		; 000000b0H
  00776	52		 push	 edx
  00777	e8 00 00 00 00	 call	 _P_SetTarget
  0077c	83 c4 08	 add	 esp, 8

; 5680 : 		}

  0077f	e9 0d ff ff ff	 jmp	 $LN10@P_MovePlay
$LN11@P_MovePlay:

; 5681 : 	}
; 5682 : 
; 5683 : 	if (player->bonustime > 1)

  00784	8b 45 08	 mov	 eax, DWORD PTR _player$[ebp]
  00787	0f b6 88 cd 01
	00 00		 movzx	 ecx, BYTE PTR [eax+461]
  0078e	83 f9 01	 cmp	 ecx, 1
  00791	7e 2e		 jle	 SHORT $LN168@P_MovePlay

; 5684 : 	{
; 5685 : 		player->bonustime--;

  00793	8b 45 08	 mov	 eax, DWORD PTR _player$[ebp]
  00796	8a 88 cd 01 00
	00		 mov	 cl, BYTE PTR [eax+461]
  0079c	80 e9 01	 sub	 cl, 1
  0079f	8b 55 08	 mov	 edx, DWORD PTR _player$[ebp]
  007a2	88 8a cd 01 00
	00		 mov	 BYTE PTR [edx+461], cl

; 5686 : 		if (player->bonustime <= 1)

  007a8	8b 45 08	 mov	 eax, DWORD PTR _player$[ebp]
  007ab	0f b6 88 cd 01
	00 00		 movzx	 ecx, BYTE PTR [eax+461]
  007b2	83 f9 01	 cmp	 ecx, 1
  007b5	7f 0a		 jg	 SHORT $LN168@P_MovePlay

; 5687 : 			player->bonustime = 1;

  007b7	8b 45 08	 mov	 eax, DWORD PTR _player$[ebp]
  007ba	c6 80 cd 01 00
	00 01		 mov	 BYTE PTR [eax+461], 1
$LN168@P_MovePlay:

; 5688 : 	}
; 5689 : 
; 5690 : 	if (player->linktimer)

  007c1	8b 45 08	 mov	 eax, DWORD PTR _player$[ebp]
  007c4	83 b8 bc 01 00
	00 00		 cmp	 DWORD PTR [eax+444], 0
  007cb	74 37		 je	 SHORT $LN170@P_MovePlay

; 5691 : 	{
; 5692 : 		if (--player->linktimer <= 0) // Link timer

  007cd	8b 45 08	 mov	 eax, DWORD PTR _player$[ebp]
  007d0	8b 88 bc 01 00
	00		 mov	 ecx, DWORD PTR [eax+444]
  007d6	83 e9 01	 sub	 ecx, 1
  007d9	89 8d b0 fc ff
	ff		 mov	 DWORD PTR tv396[ebp], ecx
  007df	8b 55 08	 mov	 edx, DWORD PTR _player$[ebp]
  007e2	8b 85 b0 fc ff
	ff		 mov	 eax, DWORD PTR tv396[ebp]
  007e8	89 82 bc 01 00
	00		 mov	 DWORD PTR [edx+444], eax
  007ee	83 bd b0 fc ff
	ff 00		 cmp	 DWORD PTR tv396[ebp], 0
  007f5	77 0d		 ja	 SHORT $LN170@P_MovePlay

; 5693 : 			player->linkcount = 0;

  007f7	8b 45 08	 mov	 eax, DWORD PTR _player$[ebp]
  007fa	c7 80 b8 01 00
	00 00 00 00 00	 mov	 DWORD PTR [eax+440], 0
$LN170@P_MovePlay:

; 5694 : 	}
; 5695 : 
; 5696 : 	// Locate the capsule for this mare.
; 5697 : 	if (maptol & TOL_NIGHTS)

  00804	0f bf 05 00 00
	00 00		 movsx	 eax, WORD PTR _maptol
  0080b	83 e0 40	 and	 eax, 64			; 00000040H
  0080e	0f 84 1a 09 00
	00		 je	 $LN202@P_MovePlay

; 5698 : 	{
; 5699 : 		if (!player->capsule && !player->bonustime)

  00814	8b 45 08	 mov	 eax, DWORD PTR _player$[ebp]
  00817	83 b8 d0 01 00
	00 00		 cmp	 DWORD PTR [eax+464], 0
  0081e	0f 85 9e 00 00
	00		 jne	 $LN172@P_MovePlay
  00824	8b 45 08	 mov	 eax, DWORD PTR _player$[ebp]
  00827	0f b6 88 cd 01
	00 00		 movzx	 ecx, BYTE PTR [eax+461]
  0082e	85 c9		 test	 ecx, ecx
  00830	0f 85 8c 00 00
	00		 jne	 $LN172@P_MovePlay

; 5700 : 		{
; 5701 : 			thinker_t *th;
; 5702 : 			mobj_t *mo2;
; 5703 : 
; 5704 : 			for (th = thinkercap.next; th != &thinkercap; th = th->next)

  00836	a1 04 00 00 00	 mov	 eax, DWORD PTR _thinkercap+4
  0083b	89 85 b8 fe ff
	ff		 mov	 DWORD PTR _th$98[ebp], eax
  00841	eb 0f		 jmp	 SHORT $LN15@P_MovePlay
$LN13@P_MovePlay:
  00843	8b 85 b8 fe ff
	ff		 mov	 eax, DWORD PTR _th$98[ebp]
  00849	8b 48 04	 mov	 ecx, DWORD PTR [eax+4]
  0084c	89 8d b8 fe ff
	ff		 mov	 DWORD PTR _th$98[ebp], ecx
$LN15@P_MovePlay:
  00852	81 bd b8 fe ff
	ff 00 00 00 00	 cmp	 DWORD PTR _th$98[ebp], OFFSET _thinkercap
  0085c	74 5f		 je	 SHORT $LN14@P_MovePlay

; 5705 : 			{
; 5706 : 				if (th->function.acp1 != (actionf_p1)P_MobjThinker)

  0085e	8b 85 b8 fe ff
	ff		 mov	 eax, DWORD PTR _th$98[ebp]
  00864	81 78 08 00 00
	00 00		 cmp	 DWORD PTR [eax+8], OFFSET _P_MobjThinker
  0086b	74 02		 je	 SHORT $LN174@P_MovePlay

; 5707 : 					continue;

  0086d	eb d4		 jmp	 SHORT $LN13@P_MovePlay
$LN174@P_MovePlay:

; 5708 : 
; 5709 : 				mo2 = (mobj_t *)th;

  0086f	8b 85 b8 fe ff
	ff		 mov	 eax, DWORD PTR _th$98[ebp]
  00875	89 85 b4 fe ff
	ff		 mov	 DWORD PTR _mo2$97[ebp], eax

; 5710 : 
; 5711 : 				if (mo2->type == MT_EGGCAPSULE
; 5712 : 					&& mo2->threshold == player->mare)

  0087b	8b 85 b4 fe ff
	ff		 mov	 eax, DWORD PTR _mo2$97[ebp]
  00881	81 78 7c 00 01
	00 00		 cmp	 DWORD PTR [eax+124], 256 ; 00000100H
  00888	75 31		 jne	 SHORT $LN175@P_MovePlay
  0088a	8b 45 08	 mov	 eax, DWORD PTR _player$[ebp]
  0088d	0f b6 88 d4 01
	00 00		 movzx	 ecx, BYTE PTR [eax+468]
  00894	8b 95 b4 fe ff
	ff		 mov	 edx, DWORD PTR _mo2$97[ebp]
  0089a	39 8a a0 00 00
	00		 cmp	 DWORD PTR [edx+160], ecx
  008a0	75 19		 jne	 SHORT $LN175@P_MovePlay

; 5713 : 					P_SetTarget(&player->capsule, mo2);

  008a2	8b 85 b4 fe ff
	ff		 mov	 eax, DWORD PTR _mo2$97[ebp]
  008a8	50		 push	 eax
  008a9	8b 4d 08	 mov	 ecx, DWORD PTR _player$[ebp]
  008ac	81 c1 d0 01 00
	00		 add	 ecx, 464		; 000001d0H
  008b2	51		 push	 ecx
  008b3	e8 00 00 00 00	 call	 _P_SetTarget
  008b8	83 c4 08	 add	 esp, 8
$LN175@P_MovePlay:

; 5714 : 			}

  008bb	eb 86		 jmp	 SHORT $LN13@P_MovePlay
$LN14@P_MovePlay:

; 5715 : 		}

  008bd	e9 92 07 00 00	 jmp	 $LN176@P_MovePlay
$LN172@P_MovePlay:

; 5716 : 		else if (player->capsule && player->capsule->reactiontime > 0 && player == &players[player->capsule->reactiontime-1])

  008c2	8b 45 08	 mov	 eax, DWORD PTR _player$[ebp]
  008c5	83 b8 d0 01 00
	00 00		 cmp	 DWORD PTR [eax+464], 0
  008cc	0f 84 82 07 00
	00		 je	 $LN176@P_MovePlay
  008d2	8b 45 08	 mov	 eax, DWORD PTR _player$[ebp]
  008d5	8b 88 d0 01 00
	00		 mov	 ecx, DWORD PTR [eax+464]
  008db	83 b9 9c 00 00
	00 00		 cmp	 DWORD PTR [ecx+156], 0
  008e2	0f 8e 6c 07 00
	00		 jle	 $LN176@P_MovePlay
  008e8	8b 45 08	 mov	 eax, DWORD PTR _player$[ebp]
  008eb	8b 88 d0 01 00
	00		 mov	 ecx, DWORD PTR [eax+464]
  008f1	8b 91 9c 00 00
	00		 mov	 edx, DWORD PTR [ecx+156]
  008f7	83 ea 01	 sub	 edx, 1
  008fa	69 c2 fc 01 00
	00		 imul	 eax, edx, 508
  00900	05 00 00 00 00	 add	 eax, OFFSET _players
  00905	39 45 08	 cmp	 DWORD PTR _player$[ebp], eax
  00908	0f 85 46 07 00
	00		 jne	 $LN176@P_MovePlay

; 5717 : 		{
; 5718 : 			if ((player->pflags & PF_NIGHTSMODE) && (player->mo->tracer->state < &states[S_NIGHTSHURT1]

  0090e	8b 45 08	 mov	 eax, DWORD PTR _player$[ebp]
  00911	8b 88 ac 00 00
	00		 mov	 ecx, DWORD PTR [eax+172]
  00917	81 e1 00 00 20
	00		 and	 ecx, 2097152		; 00200000H
  0091d	74 5b		 je	 SHORT $LN177@P_MovePlay
  0091f	8b 45 08	 mov	 eax, DWORD PTR _player$[ebp]
  00922	8b 08		 mov	 ecx, DWORD PTR [eax]
  00924	8b 91 b0 00 00
	00		 mov	 edx, DWORD PTR [ecx+176]
  0092a	b8 1c 00 00 00	 mov	 eax, 28			; 0000001cH
  0092f	69 c8 db 05 00
	00		 imul	 ecx, eax, 1499
  00935	81 c1 00 00 00
	00		 add	 ecx, OFFSET _states
  0093b	39 4a 5c	 cmp	 DWORD PTR [edx+92], ecx
  0093e	72 21		 jb	 SHORT $LN178@P_MovePlay
  00940	8b 45 08	 mov	 eax, DWORD PTR _player$[ebp]
  00943	8b 08		 mov	 ecx, DWORD PTR [eax]
  00945	8b 91 b0 00 00
	00		 mov	 edx, DWORD PTR [ecx+176]
  0094b	b8 1c 00 00 00	 mov	 eax, 28			; 0000001cH
  00950	69 c8 fa 05 00
	00		 imul	 ecx, eax, 1530
  00956	81 c1 00 00 00
	00		 add	 ecx, OFFSET _states
  0095c	39 4a 5c	 cmp	 DWORD PTR [edx+92], ecx
  0095f	76 19		 jbe	 SHORT $LN177@P_MovePlay
$LN178@P_MovePlay:

; 5719 : 				|| player->mo->tracer->state > &states[S_NIGHTSHURT32]))
; 5720 : 				P_SetMobjState(player->mo->tracer, S_NIGHTSHURT1);

  00961	68 db 05 00 00	 push	 1499			; 000005dbH
  00966	8b 45 08	 mov	 eax, DWORD PTR _player$[ebp]
  00969	8b 08		 mov	 ecx, DWORD PTR [eax]
  0096b	8b 91 b0 00 00
	00		 mov	 edx, DWORD PTR [ecx+176]
  00971	52		 push	 edx
  00972	e8 00 00 00 00	 call	 _P_SetMobjState
  00977	83 c4 08	 add	 esp, 8
$LN177@P_MovePlay:

; 5721 : 
; 5722 : 			if (player->mo->x <= player->capsule->x + 2*FRACUNIT
; 5723 : 				&& player->mo->x >= player->capsule->x - 2*FRACUNIT)

  0097a	8b 45 08	 mov	 eax, DWORD PTR _player$[ebp]
  0097d	8b 08		 mov	 ecx, DWORD PTR [eax]
  0097f	8b 55 08	 mov	 edx, DWORD PTR _player$[ebp]
  00982	8b 82 d0 01 00
	00		 mov	 eax, DWORD PTR [edx+464]
  00988	8b 50 10	 mov	 edx, DWORD PTR [eax+16]
  0098b	81 c2 00 00 02
	00		 add	 edx, 131072		; 00020000H
  00991	39 51 10	 cmp	 DWORD PTR [ecx+16], edx
  00994	7f 58		 jg	 SHORT $LN179@P_MovePlay
  00996	8b 45 08	 mov	 eax, DWORD PTR _player$[ebp]
  00999	8b 08		 mov	 ecx, DWORD PTR [eax]
  0099b	8b 55 08	 mov	 edx, DWORD PTR _player$[ebp]
  0099e	8b 82 d0 01 00
	00		 mov	 eax, DWORD PTR [edx+464]
  009a4	8b 50 10	 mov	 edx, DWORD PTR [eax+16]
  009a7	81 ea 00 00 02
	00		 sub	 edx, 131072		; 00020000H
  009ad	39 51 10	 cmp	 DWORD PTR [ecx+16], edx
  009b0	7c 3c		 jl	 SHORT $LN179@P_MovePlay

; 5724 : 			{
; 5725 : 				P_UnsetThingPosition(player->mo);

  009b2	8b 45 08	 mov	 eax, DWORD PTR _player$[ebp]
  009b5	8b 08		 mov	 ecx, DWORD PTR [eax]
  009b7	51		 push	 ecx
  009b8	e8 00 00 00 00	 call	 _P_UnsetThingPosition
  009bd	83 c4 04	 add	 esp, 4

; 5726 : 				player->mo->x = player->capsule->x;

  009c0	8b 45 08	 mov	 eax, DWORD PTR _player$[ebp]
  009c3	8b 88 d0 01 00
	00		 mov	 ecx, DWORD PTR [eax+464]
  009c9	8b 55 08	 mov	 edx, DWORD PTR _player$[ebp]
  009cc	8b 02		 mov	 eax, DWORD PTR [edx]
  009ce	8b 49 10	 mov	 ecx, DWORD PTR [ecx+16]
  009d1	89 48 10	 mov	 DWORD PTR [eax+16], ecx

; 5727 : 				P_SetThingPosition(player->mo);

  009d4	8b 45 08	 mov	 eax, DWORD PTR _player$[ebp]
  009d7	8b 08		 mov	 ecx, DWORD PTR [eax]
  009d9	51		 push	 ecx
  009da	e8 00 00 00 00	 call	 _P_SetThingPosition
  009df	83 c4 04	 add	 esp, 4

; 5728 : 				player->mo->momx = 0;

  009e2	8b 45 08	 mov	 eax, DWORD PTR _player$[ebp]
  009e5	8b 08		 mov	 ecx, DWORD PTR [eax]
  009e7	c7 41 48 00 00
	00 00		 mov	 DWORD PTR [ecx+72], 0
$LN179@P_MovePlay:

; 5729 : 			}
; 5730 : 
; 5731 : 			if (player->mo->y <= player->capsule->y + 2*FRACUNIT
; 5732 : 				&& player->mo->y >= player->capsule->y - 2*FRACUNIT)

  009ee	8b 45 08	 mov	 eax, DWORD PTR _player$[ebp]
  009f1	8b 08		 mov	 ecx, DWORD PTR [eax]
  009f3	8b 55 08	 mov	 edx, DWORD PTR _player$[ebp]
  009f6	8b 82 d0 01 00
	00		 mov	 eax, DWORD PTR [edx+464]
  009fc	8b 50 14	 mov	 edx, DWORD PTR [eax+20]
  009ff	81 c2 00 00 02
	00		 add	 edx, 131072		; 00020000H
  00a05	39 51 14	 cmp	 DWORD PTR [ecx+20], edx
  00a08	7f 58		 jg	 SHORT $LN180@P_MovePlay
  00a0a	8b 45 08	 mov	 eax, DWORD PTR _player$[ebp]
  00a0d	8b 08		 mov	 ecx, DWORD PTR [eax]
  00a0f	8b 55 08	 mov	 edx, DWORD PTR _player$[ebp]
  00a12	8b 82 d0 01 00
	00		 mov	 eax, DWORD PTR [edx+464]
  00a18	8b 50 14	 mov	 edx, DWORD PTR [eax+20]
  00a1b	81 ea 00 00 02
	00		 sub	 edx, 131072		; 00020000H
  00a21	39 51 14	 cmp	 DWORD PTR [ecx+20], edx
  00a24	7c 3c		 jl	 SHORT $LN180@P_MovePlay

; 5733 : 			{
; 5734 : 				P_UnsetThingPosition(player->mo);

  00a26	8b 45 08	 mov	 eax, DWORD PTR _player$[ebp]
  00a29	8b 08		 mov	 ecx, DWORD PTR [eax]
  00a2b	51		 push	 ecx
  00a2c	e8 00 00 00 00	 call	 _P_UnsetThingPosition
  00a31	83 c4 04	 add	 esp, 4

; 5735 : 				player->mo->y = player->capsule->y;

  00a34	8b 45 08	 mov	 eax, DWORD PTR _player$[ebp]
  00a37	8b 88 d0 01 00
	00		 mov	 ecx, DWORD PTR [eax+464]
  00a3d	8b 55 08	 mov	 edx, DWORD PTR _player$[ebp]
  00a40	8b 02		 mov	 eax, DWORD PTR [edx]
  00a42	8b 49 14	 mov	 ecx, DWORD PTR [ecx+20]
  00a45	89 48 14	 mov	 DWORD PTR [eax+20], ecx

; 5736 : 				P_SetThingPosition(player->mo);

  00a48	8b 45 08	 mov	 eax, DWORD PTR _player$[ebp]
  00a4b	8b 08		 mov	 ecx, DWORD PTR [eax]
  00a4d	51		 push	 ecx
  00a4e	e8 00 00 00 00	 call	 _P_SetThingPosition
  00a53	83 c4 04	 add	 esp, 4

; 5737 : 				player->mo->momy = 0;

  00a56	8b 45 08	 mov	 eax, DWORD PTR _player$[ebp]
  00a59	8b 08		 mov	 ecx, DWORD PTR [eax]
  00a5b	c7 41 4c 00 00
	00 00		 mov	 DWORD PTR [ecx+76], 0
$LN180@P_MovePlay:

; 5738 : 			}
; 5739 : 
; 5740 : 			if (player->mo->z <= player->capsule->z+(player->capsule->height/3) + 2*FRACUNIT
; 5741 : 				&& player->mo->z >= player->capsule->z+(player->capsule->height/3) - 2*FRACUNIT)

  00a62	8b 45 08	 mov	 eax, DWORD PTR _player$[ebp]
  00a65	8b 08		 mov	 ecx, DWORD PTR [eax]
  00a67	8b 55 08	 mov	 edx, DWORD PTR _player$[ebp]
  00a6a	8b b2 d0 01 00
	00		 mov	 esi, DWORD PTR [edx+464]
  00a70	8b 45 08	 mov	 eax, DWORD PTR _player$[ebp]
  00a73	8b 90 d0 01 00
	00		 mov	 edx, DWORD PTR [eax+464]
  00a79	8b 42 44	 mov	 eax, DWORD PTR [edx+68]
  00a7c	99		 cdq
  00a7d	bf 03 00 00 00	 mov	 edi, 3
  00a82	f7 ff		 idiv	 edi
  00a84	8b 56 18	 mov	 edx, DWORD PTR [esi+24]
  00a87	8d 84 02 00 00
	02 00		 lea	 eax, DWORD PTR [edx+eax+131072]
  00a8e	39 41 18	 cmp	 DWORD PTR [ecx+24], eax
  00a91	7f 65		 jg	 SHORT $LN181@P_MovePlay
  00a93	8b 45 08	 mov	 eax, DWORD PTR _player$[ebp]
  00a96	8b 08		 mov	 ecx, DWORD PTR [eax]
  00a98	8b 55 08	 mov	 edx, DWORD PTR _player$[ebp]
  00a9b	8b b2 d0 01 00
	00		 mov	 esi, DWORD PTR [edx+464]
  00aa1	8b 45 08	 mov	 eax, DWORD PTR _player$[ebp]
  00aa4	8b 90 d0 01 00
	00		 mov	 edx, DWORD PTR [eax+464]
  00aaa	8b 42 44	 mov	 eax, DWORD PTR [edx+68]
  00aad	99		 cdq
  00aae	bf 03 00 00 00	 mov	 edi, 3
  00ab3	f7 ff		 idiv	 edi
  00ab5	8b 56 18	 mov	 edx, DWORD PTR [esi+24]
  00ab8	8d 84 02 00 00
	fe ff		 lea	 eax, DWORD PTR [edx+eax-131072]
  00abf	39 41 18	 cmp	 DWORD PTR [ecx+24], eax
  00ac2	7c 34		 jl	 SHORT $LN181@P_MovePlay

; 5742 : 			{
; 5743 : 				player->mo->z = player->capsule->z+(player->capsule->height/3);

  00ac4	8b 45 08	 mov	 eax, DWORD PTR _player$[ebp]
  00ac7	8b 88 d0 01 00
	00		 mov	 ecx, DWORD PTR [eax+464]
  00acd	8b 55 08	 mov	 edx, DWORD PTR _player$[ebp]
  00ad0	8b 82 d0 01 00
	00		 mov	 eax, DWORD PTR [edx+464]
  00ad6	8b 40 44	 mov	 eax, DWORD PTR [eax+68]
  00ad9	99		 cdq
  00ada	be 03 00 00 00	 mov	 esi, 3
  00adf	f7 fe		 idiv	 esi
  00ae1	03 41 18	 add	 eax, DWORD PTR [ecx+24]
  00ae4	8b 4d 08	 mov	 ecx, DWORD PTR _player$[ebp]
  00ae7	8b 11		 mov	 edx, DWORD PTR [ecx]
  00ae9	89 42 18	 mov	 DWORD PTR [edx+24], eax

; 5744 : 				player->mo->momz = 0;

  00aec	8b 45 08	 mov	 eax, DWORD PTR _player$[ebp]
  00aef	8b 08		 mov	 ecx, DWORD PTR [eax]
  00af1	c7 41 50 00 00
	00 00		 mov	 DWORD PTR [ecx+80], 0
$LN181@P_MovePlay:

; 5745 : 			}
; 5746 : 
; 5747 : 			if (player->mo->x > player->capsule->x)

  00af8	8b 45 08	 mov	 eax, DWORD PTR _player$[ebp]
  00afb	8b 08		 mov	 ecx, DWORD PTR [eax]
  00afd	8b 55 08	 mov	 edx, DWORD PTR _player$[ebp]
  00b00	8b 82 d0 01 00
	00		 mov	 eax, DWORD PTR [edx+464]
  00b06	8b 49 10	 mov	 ecx, DWORD PTR [ecx+16]
  00b09	3b 48 10	 cmp	 ecx, DWORD PTR [eax+16]
  00b0c	7e 0e		 jle	 SHORT $LN182@P_MovePlay

; 5748 : 				player->mo->momx = -2*FRACUNIT;

  00b0e	8b 45 08	 mov	 eax, DWORD PTR _player$[ebp]
  00b11	8b 08		 mov	 ecx, DWORD PTR [eax]
  00b13	c7 41 48 00 00
	fe ff		 mov	 DWORD PTR [ecx+72], -131072 ; fffe0000H
  00b1a	eb 22		 jmp	 SHORT $LN184@P_MovePlay
$LN182@P_MovePlay:

; 5749 : 			else if (player->mo->x < player->capsule->x)

  00b1c	8b 45 08	 mov	 eax, DWORD PTR _player$[ebp]
  00b1f	8b 08		 mov	 ecx, DWORD PTR [eax]
  00b21	8b 55 08	 mov	 edx, DWORD PTR _player$[ebp]
  00b24	8b 82 d0 01 00
	00		 mov	 eax, DWORD PTR [edx+464]
  00b2a	8b 49 10	 mov	 ecx, DWORD PTR [ecx+16]
  00b2d	3b 48 10	 cmp	 ecx, DWORD PTR [eax+16]
  00b30	7d 0c		 jge	 SHORT $LN184@P_MovePlay

; 5750 : 				player->mo->momx = 2*FRACUNIT;

  00b32	8b 45 08	 mov	 eax, DWORD PTR _player$[ebp]
  00b35	8b 08		 mov	 ecx, DWORD PTR [eax]
  00b37	c7 41 48 00 00
	02 00		 mov	 DWORD PTR [ecx+72], 131072 ; 00020000H
$LN184@P_MovePlay:

; 5751 : 
; 5752 : 			if (player->mo->y > player->capsule->y)

  00b3e	8b 45 08	 mov	 eax, DWORD PTR _player$[ebp]
  00b41	8b 08		 mov	 ecx, DWORD PTR [eax]
  00b43	8b 55 08	 mov	 edx, DWORD PTR _player$[ebp]
  00b46	8b 82 d0 01 00
	00		 mov	 eax, DWORD PTR [edx+464]
  00b4c	8b 49 14	 mov	 ecx, DWORD PTR [ecx+20]
  00b4f	3b 48 14	 cmp	 ecx, DWORD PTR [eax+20]
  00b52	7e 0e		 jle	 SHORT $LN185@P_MovePlay

; 5753 : 				player->mo->momy = -2*FRACUNIT;

  00b54	8b 45 08	 mov	 eax, DWORD PTR _player$[ebp]
  00b57	8b 08		 mov	 ecx, DWORD PTR [eax]
  00b59	c7 41 4c 00 00
	fe ff		 mov	 DWORD PTR [ecx+76], -131072 ; fffe0000H
  00b60	eb 22		 jmp	 SHORT $LN187@P_MovePlay
$LN185@P_MovePlay:

; 5754 : 			else if (player->mo->y < player->capsule->y)

  00b62	8b 45 08	 mov	 eax, DWORD PTR _player$[ebp]
  00b65	8b 08		 mov	 ecx, DWORD PTR [eax]
  00b67	8b 55 08	 mov	 edx, DWORD PTR _player$[ebp]
  00b6a	8b 82 d0 01 00
	00		 mov	 eax, DWORD PTR [edx+464]
  00b70	8b 49 14	 mov	 ecx, DWORD PTR [ecx+20]
  00b73	3b 48 14	 cmp	 ecx, DWORD PTR [eax+20]
  00b76	7d 0c		 jge	 SHORT $LN187@P_MovePlay

; 5755 : 				player->mo->momy = 2*FRACUNIT;

  00b78	8b 45 08	 mov	 eax, DWORD PTR _player$[ebp]
  00b7b	8b 08		 mov	 ecx, DWORD PTR [eax]
  00b7d	c7 41 4c 00 00
	02 00		 mov	 DWORD PTR [ecx+76], 131072 ; 00020000H
$LN187@P_MovePlay:

; 5756 : 
; 5757 : 			if (player->mo->z > player->capsule->z+(player->capsule->height/3))

  00b84	8b 45 08	 mov	 eax, DWORD PTR _player$[ebp]
  00b87	8b 08		 mov	 ecx, DWORD PTR [eax]
  00b89	8b 55 08	 mov	 edx, DWORD PTR _player$[ebp]
  00b8c	8b b2 d0 01 00
	00		 mov	 esi, DWORD PTR [edx+464]
  00b92	8b 45 08	 mov	 eax, DWORD PTR _player$[ebp]
  00b95	8b 90 d0 01 00
	00		 mov	 edx, DWORD PTR [eax+464]
  00b9b	8b 42 44	 mov	 eax, DWORD PTR [edx+68]
  00b9e	99		 cdq
  00b9f	bf 03 00 00 00	 mov	 edi, 3
  00ba4	f7 ff		 idiv	 edi
  00ba6	03 46 18	 add	 eax, DWORD PTR [esi+24]
  00ba9	39 41 18	 cmp	 DWORD PTR [ecx+24], eax
  00bac	7e 0e		 jle	 SHORT $LN188@P_MovePlay

; 5758 : 				player->mo->momz = -2*FRACUNIT;

  00bae	8b 45 08	 mov	 eax, DWORD PTR _player$[ebp]
  00bb1	8b 08		 mov	 ecx, DWORD PTR [eax]
  00bb3	c7 41 50 00 00
	fe ff		 mov	 DWORD PTR [ecx+80], -131072 ; fffe0000H
  00bba	eb 36		 jmp	 SHORT $LN190@P_MovePlay
$LN188@P_MovePlay:

; 5759 : 			else if (player->mo->z < player->capsule->z+(player->capsule->height/3))

  00bbc	8b 45 08	 mov	 eax, DWORD PTR _player$[ebp]
  00bbf	8b 08		 mov	 ecx, DWORD PTR [eax]
  00bc1	8b 55 08	 mov	 edx, DWORD PTR _player$[ebp]
  00bc4	8b b2 d0 01 00
	00		 mov	 esi, DWORD PTR [edx+464]
  00bca	8b 45 08	 mov	 eax, DWORD PTR _player$[ebp]
  00bcd	8b 90 d0 01 00
	00		 mov	 edx, DWORD PTR [eax+464]
  00bd3	8b 42 44	 mov	 eax, DWORD PTR [edx+68]
  00bd6	99		 cdq
  00bd7	bf 03 00 00 00	 mov	 edi, 3
  00bdc	f7 ff		 idiv	 edi
  00bde	03 46 18	 add	 eax, DWORD PTR [esi+24]
  00be1	39 41 18	 cmp	 DWORD PTR [ecx+24], eax
  00be4	7d 0c		 jge	 SHORT $LN190@P_MovePlay

; 5760 : 				player->mo->momz = 2*FRACUNIT;

  00be6	8b 45 08	 mov	 eax, DWORD PTR _player$[ebp]
  00be9	8b 08		 mov	 ecx, DWORD PTR [eax]
  00beb	c7 41 50 00 00
	02 00		 mov	 DWORD PTR [ecx+80], 131072 ; 00020000H
$LN190@P_MovePlay:

; 5761 : 
; 5762 : 			// Time to blow it up!
; 5763 : 			if (player->mo->x == player->capsule->x
; 5764 : 				&& player->mo->y == player->capsule->y
; 5765 : 				&& player->mo->z == player->capsule->z+(player->capsule->height/3))

  00bf2	8b 45 08	 mov	 eax, DWORD PTR _player$[ebp]
  00bf5	8b 08		 mov	 ecx, DWORD PTR [eax]
  00bf7	8b 55 08	 mov	 edx, DWORD PTR _player$[ebp]
  00bfa	8b 82 d0 01 00
	00		 mov	 eax, DWORD PTR [edx+464]
  00c00	8b 49 10	 mov	 ecx, DWORD PTR [ecx+16]
  00c03	3b 48 10	 cmp	 ecx, DWORD PTR [eax+16]
  00c06	0f 85 98 03 00
	00		 jne	 $LN193@P_MovePlay
  00c0c	8b 45 08	 mov	 eax, DWORD PTR _player$[ebp]
  00c0f	8b 08		 mov	 ecx, DWORD PTR [eax]
  00c11	8b 55 08	 mov	 edx, DWORD PTR _player$[ebp]
  00c14	8b 82 d0 01 00
	00		 mov	 eax, DWORD PTR [edx+464]
  00c1a	8b 49 14	 mov	 ecx, DWORD PTR [ecx+20]
  00c1d	3b 48 14	 cmp	 ecx, DWORD PTR [eax+20]
  00c20	0f 85 7e 03 00
	00		 jne	 $LN193@P_MovePlay
  00c26	8b 45 08	 mov	 eax, DWORD PTR _player$[ebp]
  00c29	8b 08		 mov	 ecx, DWORD PTR [eax]
  00c2b	8b 55 08	 mov	 edx, DWORD PTR _player$[ebp]
  00c2e	8b b2 d0 01 00
	00		 mov	 esi, DWORD PTR [edx+464]
  00c34	8b 45 08	 mov	 eax, DWORD PTR _player$[ebp]
  00c37	8b 90 d0 01 00
	00		 mov	 edx, DWORD PTR [eax+464]
  00c3d	8b 42 44	 mov	 eax, DWORD PTR [edx+68]
  00c40	99		 cdq
  00c41	bf 03 00 00 00	 mov	 edi, 3
  00c46	f7 ff		 idiv	 edi
  00c48	03 46 18	 add	 eax, DWORD PTR [esi+24]
  00c4b	39 41 18	 cmp	 DWORD PTR [ecx+24], eax
  00c4e	0f 85 50 03 00
	00		 jne	 $LN193@P_MovePlay

; 5766 : 			{
; 5767 : 				if (player->mo->health > 1)

  00c54	8b 45 08	 mov	 eax, DWORD PTR _player$[ebp]
  00c57	8b 08		 mov	 ecx, DWORD PTR [eax]
  00c59	83 b9 8c 00 00
	00 01		 cmp	 DWORD PTR [ecx+140], 1
  00c60	0f 8e 08 02 00
	00		 jle	 $LN192@P_MovePlay

; 5768 : 				{
; 5769 : 					player->mo->health--;

  00c66	8b 45 08	 mov	 eax, DWORD PTR _player$[ebp]
  00c69	8b 08		 mov	 ecx, DWORD PTR [eax]
  00c6b	8b 91 8c 00 00
	00		 mov	 edx, DWORD PTR [ecx+140]
  00c71	83 ea 01	 sub	 edx, 1
  00c74	8b 45 08	 mov	 eax, DWORD PTR _player$[ebp]
  00c77	8b 08		 mov	 ecx, DWORD PTR [eax]
  00c79	89 91 8c 00 00
	00		 mov	 DWORD PTR [ecx+140], edx

; 5770 : 					player->health--;

  00c7f	8b 45 08	 mov	 eax, DWORD PTR _player$[ebp]
  00c82	8b 48 28	 mov	 ecx, DWORD PTR [eax+40]
  00c85	83 e9 01	 sub	 ecx, 1
  00c88	8b 55 08	 mov	 edx, DWORD PTR _player$[ebp]
  00c8b	89 4a 28	 mov	 DWORD PTR [edx+40], ecx

; 5771 : 					player->capsule->health--;

  00c8e	8b 45 08	 mov	 eax, DWORD PTR _player$[ebp]
  00c91	8b 88 d0 01 00
	00		 mov	 ecx, DWORD PTR [eax+464]
  00c97	8b 91 8c 00 00
	00		 mov	 edx, DWORD PTR [ecx+140]
  00c9d	83 ea 01	 sub	 edx, 1
  00ca0	8b 45 08	 mov	 eax, DWORD PTR _player$[ebp]
  00ca3	8b 88 d0 01 00
	00		 mov	 ecx, DWORD PTR [eax+464]
  00ca9	89 91 8c 00 00
	00		 mov	 DWORD PTR [ecx+140], edx

; 5772 : 
; 5773 : 					// Spawn a 'pop' for each ring you deposit
; 5774 : 					S_StartSound(P_SpawnMobj(player->capsule->x + ((P_SignedRandom()/3)<<FRACBITS), player->capsule->y + ((P_SignedRandom()/3)<<FRACBITS), player->capsule->z + (player->capsule->height/2) + ((P_SignedRandom()/3)<<FRACBITS), MT_EXPLODE), sfx_pop);

  00caf	6a 77		 push	 119			; 00000077H
  00cb1	68 0e 01 00 00	 push	 270			; 0000010eH
  00cb6	8b 45 08	 mov	 eax, DWORD PTR _player$[ebp]
  00cb9	8b 88 d0 01 00
	00		 mov	 ecx, DWORD PTR [eax+464]
  00cbf	8b 55 08	 mov	 edx, DWORD PTR _player$[ebp]
  00cc2	8b 82 d0 01 00
	00		 mov	 eax, DWORD PTR [edx+464]
  00cc8	8b 40 44	 mov	 eax, DWORD PTR [eax+68]
  00ccb	99		 cdq
  00ccc	2b c2		 sub	 eax, edx
  00cce	d1 f8		 sar	 eax, 1
  00cd0	8b 71 18	 mov	 esi, DWORD PTR [ecx+24]
  00cd3	03 f0		 add	 esi, eax
  00cd5	e8 00 00 00 00	 call	 _P_SignedRandom
  00cda	99		 cdq
  00cdb	b9 03 00 00 00	 mov	 ecx, 3
  00ce0	f7 f9		 idiv	 ecx
  00ce2	c1 e0 10	 shl	 eax, 16			; 00000010H
  00ce5	03 f0		 add	 esi, eax
  00ce7	56		 push	 esi
  00ce8	8b 55 08	 mov	 edx, DWORD PTR _player$[ebp]
  00ceb	8b b2 d0 01 00
	00		 mov	 esi, DWORD PTR [edx+464]
  00cf1	e8 00 00 00 00	 call	 _P_SignedRandom
  00cf6	99		 cdq
  00cf7	b9 03 00 00 00	 mov	 ecx, 3
  00cfc	f7 f9		 idiv	 ecx
  00cfe	c1 e0 10	 shl	 eax, 16			; 00000010H
  00d01	03 46 14	 add	 eax, DWORD PTR [esi+20]
  00d04	50		 push	 eax
  00d05	8b 55 08	 mov	 edx, DWORD PTR _player$[ebp]
  00d08	8b b2 d0 01 00
	00		 mov	 esi, DWORD PTR [edx+464]
  00d0e	e8 00 00 00 00	 call	 _P_SignedRandom
  00d13	99		 cdq
  00d14	b9 03 00 00 00	 mov	 ecx, 3
  00d19	f7 f9		 idiv	 ecx
  00d1b	c1 e0 10	 shl	 eax, 16			; 00000010H
  00d1e	03 46 10	 add	 eax, DWORD PTR [esi+16]
  00d21	50		 push	 eax
  00d22	e8 00 00 00 00	 call	 _P_SpawnMobj
  00d27	83 c4 10	 add	 esp, 16			; 00000010H
  00d2a	50		 push	 eax
  00d2b	e8 00 00 00 00	 call	 _S_StartSound
  00d30	83 c4 08	 add	 esp, 8

; 5775 : 
; 5776 : 					if (player->capsule->health <= 0)

  00d33	8b 45 08	 mov	 eax, DWORD PTR _player$[ebp]
  00d36	8b 88 d0 01 00
	00		 mov	 ecx, DWORD PTR [eax+464]
  00d3c	83 b9 8c 00 00
	00 00		 cmp	 DWORD PTR [ecx+140], 0
  00d43	0f 8f 20 01 00
	00		 jg	 $LN194@P_MovePlay

; 5777 : 					{
; 5778 : 						player->capsule->flags &= ~MF_NOGRAVITY;

  00d49	8b 45 08	 mov	 eax, DWORD PTR _player$[ebp]
  00d4c	8b 88 d0 01 00
	00		 mov	 ecx, DWORD PTR [eax+464]
  00d52	8b 51 60	 mov	 edx, DWORD PTR [ecx+96]
  00d55	81 e2 ff fd ff
	ff		 and	 edx, -513		; fffffdffH
  00d5b	8b 45 08	 mov	 eax, DWORD PTR _player$[ebp]
  00d5e	8b 88 d0 01 00
	00		 mov	 ecx, DWORD PTR [eax+464]
  00d64	89 51 60	 mov	 DWORD PTR [ecx+96], edx

; 5779 : 						player->capsule->momz = 5*FRACUNIT;

  00d67	8b 45 08	 mov	 eax, DWORD PTR _player$[ebp]
  00d6a	8b 88 d0 01 00
	00		 mov	 ecx, DWORD PTR [eax+464]
  00d70	c7 41 50 00 00
	05 00		 mov	 DWORD PTR [ecx+80], 327680 ; 00050000H

; 5780 : 
; 5781 : 						for (i = 0; i < MAXPLAYERS; i++)

  00d77	c7 45 f4 00 00
	00 00		 mov	 DWORD PTR _i$[ebp], 0
  00d7e	eb 09		 jmp	 SHORT $LN18@P_MovePlay
$LN16@P_MovePlay:
  00d80	8b 45 f4	 mov	 eax, DWORD PTR _i$[ebp]
  00d83	83 c0 01	 add	 eax, 1
  00d86	89 45 f4	 mov	 DWORD PTR _i$[ebp], eax
$LN18@P_MovePlay:
  00d89	83 7d f4 20	 cmp	 DWORD PTR _i$[ebp], 32	; 00000020H
  00d8d	7d 39		 jge	 SHORT $LN17@P_MovePlay

; 5782 : 						{
; 5783 : 							if (players[i].mare == player->mare)

  00d8f	69 45 f4 fc 01
	00 00		 imul	 eax, DWORD PTR _i$[ebp], 508
  00d96	0f b6 88 d4 01
	00 00		 movzx	 ecx, BYTE PTR _players[eax+468]
  00d9d	8b 55 08	 mov	 edx, DWORD PTR _player$[ebp]
  00da0	0f b6 82 d4 01
	00 00		 movzx	 eax, BYTE PTR [edx+468]
  00da7	3b c8		 cmp	 ecx, eax
  00da9	75 1b		 jne	 SHORT $LN195@P_MovePlay

; 5784 : 							{
; 5785 : 								players[i].bonustime = 3*TICRATE;

  00dab	69 45 f4 fc 01
	00 00		 imul	 eax, DWORD PTR _i$[ebp], 508
  00db2	c6 80 cd 01 00
	00 69		 mov	 BYTE PTR _players[eax+461], 105 ; 00000069H

; 5786 : 								player->bonuscount = 10;

  00db9	8b 45 08	 mov	 eax, DWORD PTR _player$[ebp]
  00dbc	c7 80 b0 00 00
	00 0a 00 00 00	 mov	 DWORD PTR [eax+176], 10	; 0000000aH
$LN195@P_MovePlay:

; 5787 : 							}
; 5788 : 						}

  00dc6	eb b8		 jmp	 SHORT $LN16@P_MovePlay
$LN17@P_MovePlay:

; 5789 : 
; 5790 : 						{
; 5791 : 							fixed_t z;
; 5792 : 
; 5793 : 							z = player->capsule->z + player->capsule->height/2;

  00dc8	8b 45 08	 mov	 eax, DWORD PTR _player$[ebp]
  00dcb	8b 88 d0 01 00
	00		 mov	 ecx, DWORD PTR [eax+464]
  00dd1	8b 55 08	 mov	 edx, DWORD PTR _player$[ebp]
  00dd4	8b 82 d0 01 00
	00		 mov	 eax, DWORD PTR [edx+464]
  00dda	8b 40 44	 mov	 eax, DWORD PTR [eax+68]
  00ddd	99		 cdq
  00dde	2b c2		 sub	 eax, edx
  00de0	d1 f8		 sar	 eax, 1
  00de2	03 41 18	 add	 eax, DWORD PTR [ecx+24]
  00de5	89 85 b0 fe ff
	ff		 mov	 DWORD PTR _z$96[ebp], eax

; 5794 : 							for (i = 0; i < 16; i++)

  00deb	c7 45 f4 00 00
	00 00		 mov	 DWORD PTR _i$[ebp], 0
  00df2	eb 09		 jmp	 SHORT $LN21@P_MovePlay
$LN19@P_MovePlay:
  00df4	8b 45 f4	 mov	 eax, DWORD PTR _i$[ebp]
  00df7	83 c0 01	 add	 eax, 1
  00dfa	89 45 f4	 mov	 DWORD PTR _i$[ebp], eax
$LN21@P_MovePlay:
  00dfd	83 7d f4 10	 cmp	 DWORD PTR _i$[ebp], 16	; 00000010H
  00e01	7d 30		 jge	 SHORT $LN20@P_MovePlay

; 5795 : 								P_SpawnMobj(player->capsule->x, player->capsule->y, z, MT_BIRD);

  00e03	68 a5 00 00 00	 push	 165			; 000000a5H
  00e08	8b 85 b0 fe ff
	ff		 mov	 eax, DWORD PTR _z$96[ebp]
  00e0e	50		 push	 eax
  00e0f	8b 4d 08	 mov	 ecx, DWORD PTR _player$[ebp]
  00e12	8b 91 d0 01 00
	00		 mov	 edx, DWORD PTR [ecx+464]
  00e18	8b 42 14	 mov	 eax, DWORD PTR [edx+20]
  00e1b	50		 push	 eax
  00e1c	8b 4d 08	 mov	 ecx, DWORD PTR _player$[ebp]
  00e1f	8b 91 d0 01 00
	00		 mov	 edx, DWORD PTR [ecx+464]
  00e25	8b 42 10	 mov	 eax, DWORD PTR [edx+16]
  00e28	50		 push	 eax
  00e29	e8 00 00 00 00	 call	 _P_SpawnMobj
  00e2e	83 c4 10	 add	 esp, 16			; 00000010H
  00e31	eb c1		 jmp	 SHORT $LN19@P_MovePlay
$LN20@P_MovePlay:

; 5796 : 						}
; 5797 : 						player->capsule->reactiontime = 0;

  00e33	8b 45 08	 mov	 eax, DWORD PTR _player$[ebp]
  00e36	8b 88 d0 01 00
	00		 mov	 ecx, DWORD PTR [eax+464]
  00e3c	c7 81 9c 00 00
	00 00 00 00 00	 mov	 DWORD PTR [ecx+156], 0

; 5798 : 						P_SetTarget(&player->capsule, NULL);

  00e46	6a 00		 push	 0
  00e48	8b 45 08	 mov	 eax, DWORD PTR _player$[ebp]
  00e4b	05 d0 01 00 00	 add	 eax, 464		; 000001d0H
  00e50	50		 push	 eax
  00e51	e8 00 00 00 00	 call	 _P_SetTarget
  00e56	83 c4 08	 add	 esp, 8

; 5799 : 						S_StartScreamSound(player->mo, sfx_ngdone);

  00e59	6a 6d		 push	 109			; 0000006dH
  00e5b	8b 45 08	 mov	 eax, DWORD PTR _player$[ebp]
  00e5e	8b 08		 mov	 ecx, DWORD PTR [eax]
  00e60	51		 push	 ecx
  00e61	e8 00 00 00 00	 call	 _S_StartScreamSound
  00e66	83 c4 08	 add	 esp, 8
$LN194@P_MovePlay:

; 5800 : 					}
; 5801 : 				}

  00e69	e9 36 01 00 00	 jmp	 $LN193@P_MovePlay
$LN192@P_MovePlay:

; 5802 : 				else
; 5803 : 				{
; 5804 : 					if (player->capsule->health <= 0)

  00e6e	8b 45 08	 mov	 eax, DWORD PTR _player$[ebp]
  00e71	8b 88 d0 01 00
	00		 mov	 ecx, DWORD PTR [eax+464]
  00e77	83 b9 8c 00 00
	00 00		 cmp	 DWORD PTR [ecx+140], 0
  00e7e	0f 8f fa 00 00
	00		 jg	 $LN196@P_MovePlay

; 5805 : 					{
; 5806 : 						player->capsule->flags &= ~MF_NOGRAVITY;

  00e84	8b 45 08	 mov	 eax, DWORD PTR _player$[ebp]
  00e87	8b 88 d0 01 00
	00		 mov	 ecx, DWORD PTR [eax+464]
  00e8d	8b 51 60	 mov	 edx, DWORD PTR [ecx+96]
  00e90	81 e2 ff fd ff
	ff		 and	 edx, -513		; fffffdffH
  00e96	8b 45 08	 mov	 eax, DWORD PTR _player$[ebp]
  00e99	8b 88 d0 01 00
	00		 mov	 ecx, DWORD PTR [eax+464]
  00e9f	89 51 60	 mov	 DWORD PTR [ecx+96], edx

; 5807 : 						player->capsule->momz = 5*FRACUNIT;

  00ea2	8b 45 08	 mov	 eax, DWORD PTR _player$[ebp]
  00ea5	8b 88 d0 01 00
	00		 mov	 ecx, DWORD PTR [eax+464]
  00eab	c7 41 50 00 00
	05 00		 mov	 DWORD PTR [ecx+80], 327680 ; 00050000H

; 5808 : 
; 5809 : 						for (i = 0; i < MAXPLAYERS; i++)

  00eb2	c7 45 f4 00 00
	00 00		 mov	 DWORD PTR _i$[ebp], 0
  00eb9	eb 09		 jmp	 SHORT $LN24@P_MovePlay
$LN22@P_MovePlay:
  00ebb	8b 45 f4	 mov	 eax, DWORD PTR _i$[ebp]
  00ebe	83 c0 01	 add	 eax, 1
  00ec1	89 45 f4	 mov	 DWORD PTR _i$[ebp], eax
$LN24@P_MovePlay:
  00ec4	83 7d f4 20	 cmp	 DWORD PTR _i$[ebp], 32	; 00000020H
  00ec8	7d 39		 jge	 SHORT $LN23@P_MovePlay

; 5810 : 						{
; 5811 : 							if (players[i].mare == player->mare)

  00eca	69 45 f4 fc 01
	00 00		 imul	 eax, DWORD PTR _i$[ebp], 508
  00ed1	0f b6 88 d4 01
	00 00		 movzx	 ecx, BYTE PTR _players[eax+468]
  00ed8	8b 55 08	 mov	 edx, DWORD PTR _player$[ebp]
  00edb	0f b6 82 d4 01
	00 00		 movzx	 eax, BYTE PTR [edx+468]
  00ee2	3b c8		 cmp	 ecx, eax
  00ee4	75 1b		 jne	 SHORT $LN197@P_MovePlay

; 5812 : 							{
; 5813 : 								players[i].bonustime = 3*TICRATE;

  00ee6	69 45 f4 fc 01
	00 00		 imul	 eax, DWORD PTR _i$[ebp], 508
  00eed	c6 80 cd 01 00
	00 69		 mov	 BYTE PTR _players[eax+461], 105 ; 00000069H

; 5814 : 								player->bonuscount = 10;

  00ef4	8b 45 08	 mov	 eax, DWORD PTR _player$[ebp]
  00ef7	c7 80 b0 00 00
	00 0a 00 00 00	 mov	 DWORD PTR [eax+176], 10	; 0000000aH
$LN197@P_MovePlay:

; 5815 : 							}
; 5816 : 						}

  00f01	eb b8		 jmp	 SHORT $LN22@P_MovePlay
$LN23@P_MovePlay:

; 5817 : 
; 5818 : 						{
; 5819 : 							fixed_t z;
; 5820 : 
; 5821 : 							z = player->capsule->z + player->capsule->height/2;

  00f03	8b 45 08	 mov	 eax, DWORD PTR _player$[ebp]
  00f06	8b 88 d0 01 00
	00		 mov	 ecx, DWORD PTR [eax+464]
  00f0c	8b 55 08	 mov	 edx, DWORD PTR _player$[ebp]
  00f0f	8b 82 d0 01 00
	00		 mov	 eax, DWORD PTR [edx+464]
  00f15	8b 40 44	 mov	 eax, DWORD PTR [eax+68]
  00f18	99		 cdq
  00f19	2b c2		 sub	 eax, edx
  00f1b	d1 f8		 sar	 eax, 1
  00f1d	03 41 18	 add	 eax, DWORD PTR [ecx+24]
  00f20	89 85 ac fe ff
	ff		 mov	 DWORD PTR _z$95[ebp], eax

; 5822 : 							for (i = 0; i < 16; i++)

  00f26	c7 45 f4 00 00
	00 00		 mov	 DWORD PTR _i$[ebp], 0
  00f2d	eb 09		 jmp	 SHORT $LN27@P_MovePlay
$LN25@P_MovePlay:
  00f2f	8b 45 f4	 mov	 eax, DWORD PTR _i$[ebp]
  00f32	83 c0 01	 add	 eax, 1
  00f35	89 45 f4	 mov	 DWORD PTR _i$[ebp], eax
$LN27@P_MovePlay:
  00f38	83 7d f4 10	 cmp	 DWORD PTR _i$[ebp], 16	; 00000010H
  00f3c	7d 30		 jge	 SHORT $LN26@P_MovePlay

; 5823 : 								P_SpawnMobj(player->capsule->x, player->capsule->y, z, MT_BIRD);

  00f3e	68 a5 00 00 00	 push	 165			; 000000a5H
  00f43	8b 85 ac fe ff
	ff		 mov	 eax, DWORD PTR _z$95[ebp]
  00f49	50		 push	 eax
  00f4a	8b 4d 08	 mov	 ecx, DWORD PTR _player$[ebp]
  00f4d	8b 91 d0 01 00
	00		 mov	 edx, DWORD PTR [ecx+464]
  00f53	8b 42 14	 mov	 eax, DWORD PTR [edx+20]
  00f56	50		 push	 eax
  00f57	8b 4d 08	 mov	 ecx, DWORD PTR _player$[ebp]
  00f5a	8b 91 d0 01 00
	00		 mov	 edx, DWORD PTR [ecx+464]
  00f60	8b 42 10	 mov	 eax, DWORD PTR [edx+16]
  00f63	50		 push	 eax
  00f64	e8 00 00 00 00	 call	 _P_SpawnMobj
  00f69	83 c4 10	 add	 esp, 16			; 00000010H
  00f6c	eb c1		 jmp	 SHORT $LN25@P_MovePlay
$LN26@P_MovePlay:

; 5824 : 							S_StartScreamSound(player->mo, sfx_ngdone);

  00f6e	6a 6d		 push	 109			; 0000006dH
  00f70	8b 45 08	 mov	 eax, DWORD PTR _player$[ebp]
  00f73	8b 08		 mov	 ecx, DWORD PTR [eax]
  00f75	51		 push	 ecx
  00f76	e8 00 00 00 00	 call	 _S_StartScreamSound
  00f7b	83 c4 08	 add	 esp, 8
$LN196@P_MovePlay:

; 5825 : 						}
; 5826 : 					}
; 5827 : 					player->capsule->reactiontime = 0;

  00f7e	8b 45 08	 mov	 eax, DWORD PTR _player$[ebp]
  00f81	8b 88 d0 01 00
	00		 mov	 ecx, DWORD PTR [eax+464]
  00f87	c7 81 9c 00 00
	00 00 00 00 00	 mov	 DWORD PTR [ecx+156], 0

; 5828 : 					P_SetTarget(&player->capsule, NULL);

  00f91	6a 00		 push	 0
  00f93	8b 45 08	 mov	 eax, DWORD PTR _player$[ebp]
  00f96	05 d0 01 00 00	 add	 eax, 464		; 000001d0H
  00f9b	50		 push	 eax
  00f9c	e8 00 00 00 00	 call	 _P_SetTarget
  00fa1	83 c4 08	 add	 esp, 8
$LN193@P_MovePlay:

; 5829 : 				}
; 5830 : 			}
; 5831 : 
; 5832 : 			if (player->pflags & PF_NIGHTSMODE)

  00fa4	8b 45 08	 mov	 eax, DWORD PTR _player$[ebp]
  00fa7	8b 88 ac 00 00
	00		 mov	 ecx, DWORD PTR [eax+172]
  00fad	81 e1 00 00 20
	00		 and	 ecx, 2097152		; 00200000H
  00fb3	0f 84 96 00 00
	00		 je	 $LN198@P_MovePlay

; 5833 : 			{
; 5834 : 				P_UnsetThingPosition(player->mo->tracer);

  00fb9	8b 45 08	 mov	 eax, DWORD PTR _player$[ebp]
  00fbc	8b 08		 mov	 ecx, DWORD PTR [eax]
  00fbe	8b 91 b0 00 00
	00		 mov	 edx, DWORD PTR [ecx+176]
  00fc4	52		 push	 edx
  00fc5	e8 00 00 00 00	 call	 _P_UnsetThingPosition
  00fca	83 c4 04	 add	 esp, 4

; 5835 : 				player->mo->tracer->x = player->mo->x;

  00fcd	8b 45 08	 mov	 eax, DWORD PTR _player$[ebp]
  00fd0	8b 08		 mov	 ecx, DWORD PTR [eax]
  00fd2	8b 55 08	 mov	 edx, DWORD PTR _player$[ebp]
  00fd5	8b 02		 mov	 eax, DWORD PTR [edx]
  00fd7	8b 90 b0 00 00
	00		 mov	 edx, DWORD PTR [eax+176]
  00fdd	8b 41 10	 mov	 eax, DWORD PTR [ecx+16]
  00fe0	89 42 10	 mov	 DWORD PTR [edx+16], eax

; 5836 : 				player->mo->tracer->y = player->mo->y;

  00fe3	8b 45 08	 mov	 eax, DWORD PTR _player$[ebp]
  00fe6	8b 08		 mov	 ecx, DWORD PTR [eax]
  00fe8	8b 55 08	 mov	 edx, DWORD PTR _player$[ebp]
  00feb	8b 02		 mov	 eax, DWORD PTR [edx]
  00fed	8b 90 b0 00 00
	00		 mov	 edx, DWORD PTR [eax+176]
  00ff3	8b 41 14	 mov	 eax, DWORD PTR [ecx+20]
  00ff6	89 42 14	 mov	 DWORD PTR [edx+20], eax

; 5837 : 				player->mo->tracer->z = player->mo->z;

  00ff9	8b 45 08	 mov	 eax, DWORD PTR _player$[ebp]
  00ffc	8b 08		 mov	 ecx, DWORD PTR [eax]
  00ffe	8b 55 08	 mov	 edx, DWORD PTR _player$[ebp]
  01001	8b 02		 mov	 eax, DWORD PTR [edx]
  01003	8b 90 b0 00 00
	00		 mov	 edx, DWORD PTR [eax+176]
  01009	8b 41 18	 mov	 eax, DWORD PTR [ecx+24]
  0100c	89 42 18	 mov	 DWORD PTR [edx+24], eax

; 5838 : 				player->mo->tracer->floorz = player->mo->floorz;

  0100f	8b 45 08	 mov	 eax, DWORD PTR _player$[ebp]
  01012	8b 08		 mov	 ecx, DWORD PTR [eax]
  01014	8b 55 08	 mov	 edx, DWORD PTR _player$[ebp]
  01017	8b 02		 mov	 eax, DWORD PTR [edx]
  01019	8b 90 b0 00 00
	00		 mov	 edx, DWORD PTR [eax+176]
  0101f	8b 41 38	 mov	 eax, DWORD PTR [ecx+56]
  01022	89 42 38	 mov	 DWORD PTR [edx+56], eax

; 5839 : 				player->mo->tracer->ceilingz = player->mo->ceilingz;

  01025	8b 45 08	 mov	 eax, DWORD PTR _player$[ebp]
  01028	8b 08		 mov	 ecx, DWORD PTR [eax]
  0102a	8b 55 08	 mov	 edx, DWORD PTR _player$[ebp]
  0102d	8b 02		 mov	 eax, DWORD PTR [edx]
  0102f	8b 90 b0 00 00
	00		 mov	 edx, DWORD PTR [eax+176]
  01035	8b 41 3c	 mov	 eax, DWORD PTR [ecx+60]
  01038	89 42 3c	 mov	 DWORD PTR [edx+60], eax

; 5840 : 				P_SetThingPosition(player->mo->tracer);

  0103b	8b 45 08	 mov	 eax, DWORD PTR _player$[ebp]
  0103e	8b 08		 mov	 ecx, DWORD PTR [eax]
  01040	8b 91 b0 00 00
	00		 mov	 edx, DWORD PTR [ecx+176]
  01046	52		 push	 edx
  01047	e8 00 00 00 00	 call	 _P_SetThingPosition
  0104c	83 c4 04	 add	 esp, 4
$LN198@P_MovePlay:

; 5841 : 			}
; 5842 : 			return;

  0104f	e9 51 77 00 00	 jmp	 $LN109@P_MovePlay
$LN176@P_MovePlay:

; 5843 : 		}
; 5844 : 
; 5845 : 		// Test revamped NiGHTS movement.
; 5846 : 		if (player->pflags & PF_NIGHTSMODE)

  01054	8b 45 08	 mov	 eax, DWORD PTR _player$[ebp]
  01057	8b 88 ac 00 00
	00		 mov	 ecx, DWORD PTR [eax+172]
  0105d	81 e1 00 00 20
	00		 and	 ecx, 2097152		; 00200000H
  01063	74 11		 je	 SHORT $LN199@P_MovePlay

; 5847 : 		{
; 5848 : 			P_NiGHTSMovement(player);

  01065	8b 45 08	 mov	 eax, DWORD PTR _player$[ebp]
  01068	50		 push	 eax
  01069	e8 00 00 00 00	 call	 _P_NiGHTSMovement
  0106e	83 c4 04	 add	 esp, 4

; 5849 : 			// Retarded hack alert. If we want bustable blocks in NiGHTS,
; 5850 : 			// we have to execute parts of the code below this point.
; 5851 : 			// todo: Fix this ugly hack.
; 5852 : 			goto blockchecking;

  01071	e9 db 69 00 00	 jmp	 $blockchecking$830
$LN199@P_MovePlay:

; 5853 : 		}
; 5854 : 
; 5855 : 		if ((player->pflags & PF_NIGHTSFALL) && P_IsObjectOnGround(player->mo))

  01076	8b 45 08	 mov	 eax, DWORD PTR _player$[ebp]
  01079	8b 88 ac 00 00
	00		 mov	 ecx, DWORD PTR [eax+172]
  0107f	81 e1 00 00 80
	00		 and	 ecx, 8388608		; 00800000H
  01085	0f 84 a3 00 00
	00		 je	 $LN202@P_MovePlay
  0108b	8b 45 08	 mov	 eax, DWORD PTR _player$[ebp]
  0108e	8b 08		 mov	 ecx, DWORD PTR [eax]
  01090	51		 push	 ecx
  01091	e8 00 00 00 00	 call	 _P_IsObjectOnGround
  01096	83 c4 04	 add	 esp, 4
  01099	85 c0		 test	 eax, eax
  0109b	0f 84 8d 00 00
	00		 je	 $LN202@P_MovePlay

; 5856 : 		{
; 5857 : 			if (player->health > 1)

  010a1	8b 45 08	 mov	 eax, DWORD PTR _player$[ebp]
  010a4	83 78 28 01	 cmp	 DWORD PTR [eax+40], 1
  010a8	7e 14		 jle	 SHORT $LN201@P_MovePlay

; 5858 : 				P_DamageMobj(player->mo, NULL, NULL, 1);

  010aa	6a 01		 push	 1
  010ac	6a 00		 push	 0
  010ae	6a 00		 push	 0
  010b0	8b 45 08	 mov	 eax, DWORD PTR _player$[ebp]
  010b3	8b 08		 mov	 ecx, DWORD PTR [eax]
  010b5	51		 push	 ecx
  010b6	e8 00 00 00 00	 call	 _P_DamageMobj
  010bb	83 c4 10	 add	 esp, 16			; 00000010H
$LN201@P_MovePlay:

; 5859 : 
; 5860 : 			player->pflags &= ~PF_NIGHTSFALL;

  010be	8b 45 08	 mov	 eax, DWORD PTR _player$[ebp]
  010c1	8b 88 ac 00 00
	00		 mov	 ecx, DWORD PTR [eax+172]
  010c7	81 e1 ff ff 7f
	ff		 and	 ecx, -8388609		; ff7fffffH
  010cd	8b 55 08	 mov	 edx, DWORD PTR _player$[ebp]
  010d0	89 8a ac 00 00
	00		 mov	 DWORD PTR [edx+172], ecx

; 5861 : 
; 5862 : 			if (G_IsSpecialStage(gamemap))

  010d6	0f bf 05 00 00
	00 00		 movsx	 eax, WORD PTR _gamemap
  010dd	50		 push	 eax
  010de	e8 00 00 00 00	 call	 _G_IsSpecialStage
  010e3	83 c4 04	 add	 esp, 4
  010e6	85 c0		 test	 eax, eax
  010e8	74 44		 je	 SHORT $LN202@P_MovePlay

; 5863 : 			{
; 5864 : 				for (i = 0; i < MAXPLAYERS; i++)

  010ea	c7 45 f4 00 00
	00 00		 mov	 DWORD PTR _i$[ebp], 0
  010f1	eb 09		 jmp	 SHORT $LN30@P_MovePlay
$LN28@P_MovePlay:
  010f3	8b 45 f4	 mov	 eax, DWORD PTR _i$[ebp]
  010f6	83 c0 01	 add	 eax, 1
  010f9	89 45 f4	 mov	 DWORD PTR _i$[ebp], eax
$LN30@P_MovePlay:
  010fc	83 7d f4 20	 cmp	 DWORD PTR _i$[ebp], 32	; 00000020H
  01100	7d 20		 jge	 SHORT $LN29@P_MovePlay

; 5865 : 				{
; 5866 : 					if (playeringame[i])

  01102	8b 45 f4	 mov	 eax, DWORD PTR _i$[ebp]
  01105	83 3c 85 00 00
	00 00 00	 cmp	 DWORD PTR _playeringame[eax*4], 0
  0110d	74 11		 je	 SHORT $LN203@P_MovePlay

; 5867 : 						players[i].exiting = (14*TICRATE)/5 + 1;

  0110f	69 45 f4 fc 01
	00 00		 imul	 eax, DWORD PTR _i$[ebp], 508
  01116	c7 80 30 01 00
	00 63 00 00 00	 mov	 DWORD PTR _players[eax+304], 99 ; 00000063H
$LN203@P_MovePlay:

; 5868 : 				}

  01120	eb d1		 jmp	 SHORT $LN28@P_MovePlay
$LN29@P_MovePlay:

; 5869 : 
; 5870 : 				S_StartSound(NULL, sfx_lose);

  01122	6a 5b		 push	 91			; 0000005bH
  01124	6a 00		 push	 0
  01126	e8 00 00 00 00	 call	 _S_StartSound
  0112b	83 c4 08	 add	 esp, 8
$LN202@P_MovePlay:

; 5871 : 			}
; 5872 : 		}
; 5873 : 	}
; 5874 : 
; 5875 : 	if (P_FreezeObjectplace())

  0112e	e8 00 00 00 00	 call	 _P_FreezeObjectplace
  01133	85 c0		 test	 eax, eax
  01135	74 13		 je	 SHORT $LN204@P_MovePlay

; 5876 : 	{
; 5877 : 		P_ObjectplaceMovement(player);

  01137	8b 45 08	 mov	 eax, DWORD PTR _player$[ebp]
  0113a	50		 push	 eax
  0113b	e8 00 00 00 00	 call	 _P_ObjectplaceMovement
  01140	83 c4 04	 add	 esp, 4

; 5878 : 		return;

  01143	e9 5d 76 00 00	 jmp	 $LN109@P_MovePlay

; 5879 : 	}

  01148	eb 1f		 jmp	 SHORT $LN206@P_MovePlay
$LN204@P_MovePlay:

; 5880 : 	else if (player->spectator)

  0114a	8b 45 08	 mov	 eax, DWORD PTR _player$[ebp]
  0114d	0f b6 88 f0 01
	00 00		 movzx	 ecx, BYTE PTR [eax+496]
  01154	85 c9		 test	 ecx, ecx
  01156	74 11		 je	 SHORT $LN206@P_MovePlay

; 5881 : 	{
; 5882 : 		P_SpectatorMovement(player);

  01158	8b 45 08	 mov	 eax, DWORD PTR _player$[ebp]
  0115b	50		 push	 eax
  0115c	e8 00 00 00 00	 call	 _P_SpectatorMovement
  01161	83 c4 04	 add	 esp, 4

; 5883 : 		return;

  01164	e9 3c 76 00 00	 jmp	 $LN109@P_MovePlay
$LN206@P_MovePlay:

; 5884 : 	}
; 5885 : 
; 5886 : 	//////////////////////
; 5887 : 	// MOVEMENT CODE	//
; 5888 : 	//////////////////////
; 5889 : 
; 5890 : 	if (twodlevel || (player->mo->flags2 & MF2_TWOD)) // 2d-level, so special control applies.

  01169	0f bf 05 00 00
	00 00		 movsx	 eax, WORD PTR _maptol
  01170	25 00 02 00 00	 and	 eax, 512		; 00000200H
  01175	75 13		 jne	 SHORT $LN209@P_MovePlay
  01177	8b 45 08	 mov	 eax, DWORD PTR _player$[ebp]
  0117a	8b 08		 mov	 ecx, DWORD PTR [eax]
  0117c	8b 91 88 00 00
	00		 mov	 edx, DWORD PTR [ecx+136]
  01182	81 e2 80 00 00
	00		 and	 edx, 128		; 00000080H
  01188	74 11		 je	 SHORT $LN207@P_MovePlay
$LN209@P_MovePlay:

; 5891 : 	{
; 5892 : 		P_2dMovement(player);

  0118a	8b 45 08	 mov	 eax, DWORD PTR _player$[ebp]
  0118d	50		 push	 eax
  0118e	e8 00 00 00 00	 call	 _P_2dMovement
  01193	83 c4 04	 add	 esp, 4

; 5893 : 	}

  01196	e9 ad 00 00 00	 jmp	 $LN208@P_MovePlay
$LN207@P_MovePlay:

; 5894 : 	else
; 5895 : 	{
; 5896 : 		if (!player->climbing && (netgame || (player == &players[consoleplayer]

  0119b	8b 45 08	 mov	 eax, DWORD PTR _player$[ebp]
  0119e	83 b8 24 01 00
	00 00		 cmp	 DWORD PTR [eax+292], 0
  011a5	75 6f		 jne	 SHORT $LN210@P_MovePlay
  011a7	83 3d 00 00 00
	00 00		 cmp	 DWORD PTR _netgame, 0
  011ae	75 54		 jne	 SHORT $LN211@P_MovePlay
  011b0	69 05 00 00 00
	00 fc 01 00 00	 imul	 eax, DWORD PTR _consoleplayer, 508
  011ba	05 00 00 00 00	 add	 eax, OFFSET _players
  011bf	39 45 08	 cmp	 DWORD PTR _player$[ebp], eax
  011c2	75 09		 jne	 SHORT $LN212@P_MovePlay
  011c4	83 3d 14 00 00
	00 00		 cmp	 DWORD PTR _cv_analog+20, 0
  011cb	74 37		 je	 SHORT $LN211@P_MovePlay
$LN212@P_MovePlay:
  011cd	83 3d 00 00 00
	00 00		 cmp	 DWORD PTR _splitscreen, 0
  011d4	74 1d		 je	 SHORT $LN213@P_MovePlay
  011d6	69 05 00 00 00
	00 fc 01 00 00	 imul	 eax, DWORD PTR _secondarydisplayplayer, 508
  011e0	05 00 00 00 00	 add	 eax, OFFSET _players
  011e5	39 45 08	 cmp	 DWORD PTR _player$[ebp], eax
  011e8	75 09		 jne	 SHORT $LN213@P_MovePlay
  011ea	83 3d 14 00 00
	00 00		 cmp	 DWORD PTR _cv_analog2+20, 0
  011f1	74 11		 je	 SHORT $LN211@P_MovePlay
$LN213@P_MovePlay:
  011f3	8b 45 08	 mov	 eax, DWORD PTR _player$[ebp]
  011f6	8b 88 ac 00 00
	00		 mov	 ecx, DWORD PTR [eax+172]
  011fc	81 e1 00 20 00
	00		 and	 ecx, 8192		; 00002000H
  01202	74 12		 je	 SHORT $LN210@P_MovePlay
$LN211@P_MovePlay:

; 5897 : 			&& !cv_analog.value) || (splitscreen
; 5898 : 			&& player == &players[secondarydisplayplayer] && !cv_analog2.value)
; 5899 : 			|| (player->pflags & PF_SPINNING)))
; 5900 : 		{
; 5901 : 			player->mo->angle = (cmd->angleturn<<16 /* not FRACBITS */);

  01204	8b 45 f8	 mov	 eax, DWORD PTR _cmd$[ebp]
  01207	0f bf 48 02	 movsx	 ecx, WORD PTR [eax+2]
  0120b	c1 e1 10	 shl	 ecx, 16			; 00000010H
  0120e	8b 55 08	 mov	 edx, DWORD PTR _player$[ebp]
  01211	8b 02		 mov	 eax, DWORD PTR [edx]
  01213	89 48 24	 mov	 DWORD PTR [eax+36], ecx
$LN210@P_MovePlay:

; 5902 : 		}
; 5903 : 
; 5904 : 		ticruned++;

  01216	a1 00 00 00 00	 mov	 eax, DWORD PTR _ticruned
  0121b	83 c0 01	 add	 eax, 1
  0121e	a3 00 00 00 00	 mov	 DWORD PTR _ticruned, eax

; 5905 : 		if ((cmd->angleturn & TICCMD_RECEIVED) == 0)

  01223	8b 45 f8	 mov	 eax, DWORD PTR _cmd$[ebp]
  01226	0f bf 48 02	 movsx	 ecx, WORD PTR [eax+2]
  0122a	83 e1 01	 and	 ecx, 1
  0122d	75 0d		 jne	 SHORT $LN214@P_MovePlay

; 5906 : 			ticmiss++;

  0122f	a1 00 00 00 00	 mov	 eax, DWORD PTR _ticmiss
  01234	83 c0 01	 add	 eax, 1
  01237	a3 00 00 00 00	 mov	 DWORD PTR _ticmiss, eax
$LN214@P_MovePlay:

; 5907 : 
; 5908 : 		P_3dMovement(player);

  0123c	8b 45 08	 mov	 eax, DWORD PTR _player$[ebp]
  0123f	50		 push	 eax
  01240	e8 00 00 00 00	 call	 _P_3dMovement
  01245	83 c4 04	 add	 esp, 4
$LN208@P_MovePlay:

; 5909 : 	}
; 5910 : 
; 5911 : 	if (maptol & TOL_SRB1)

  01248	0f bf 05 00 00
	00 00		 movsx	 eax, WORD PTR _maptol
  0124f	25 00 20 00 00	 and	 eax, 8192		; 00002000H
  01254	74 10		 je	 SHORT $LN215@P_MovePlay

; 5912 : 		runspd = (runspd / 3) * 2;

  01256	8b 45 dc	 mov	 eax, DWORD PTR _runspd$[ebp]
  01259	99		 cdq
  0125a	b9 03 00 00 00	 mov	 ecx, 3
  0125f	f7 f9		 idiv	 ecx
  01261	d1 e0		 shl	 eax, 1
  01263	89 45 dc	 mov	 DWORD PTR _runspd$[ebp], eax
$LN215@P_MovePlay:

; 5913 : 
; 5914 : 	/////////////////////////
; 5915 : 	// MOVEMENT ANIMATIONS //
; 5916 : 	/////////////////////////
; 5917 : 
; 5918 : 	// Flag variables so it's easy to check
; 5919 : 	// what state the player is in.
; 5920 : 	if (player->mo->state == &states[S_PLAY_RUN1] || player->mo->state == &states[S_PLAY_RUN2] || player->mo->state == &states[S_PLAY_RUN3] || player->mo->state == &states[S_PLAY_RUN4] || player->mo->state == &states[S_PLAY_RUN5] || player->mo->state == &states[S_PLAY_RUN6] || player->mo->state == &states[S_PLAY_RUN7] || player->mo->state == &states[S_PLAY_RUN8]
; 5921 : 		|| player->mo->state == &states[S_PLAY_SUPERWALK1] || player->mo->state == &states[S_PLAY_SUPERWALK2])

  01266	8b 45 08	 mov	 eax, DWORD PTR _player$[ebp]
  01269	8b 08		 mov	 ecx, DWORD PTR [eax]
  0126b	ba 1c 00 00 00	 mov	 edx, 28			; 0000001cH
  01270	c1 e2 02	 shl	 edx, 2
  01273	81 c2 00 00 00
	00		 add	 edx, OFFSET _states
  01279	39 51 5c	 cmp	 DWORD PTR [ecx+92], edx
  0127c	0f 84 dc 00 00
	00		 je	 $LN218@P_MovePlay
  01282	8b 45 08	 mov	 eax, DWORD PTR _player$[ebp]
  01285	8b 08		 mov	 ecx, DWORD PTR [eax]
  01287	ba 1c 00 00 00	 mov	 edx, 28			; 0000001cH
  0128c	6b c2 05	 imul	 eax, edx, 5
  0128f	05 00 00 00 00	 add	 eax, OFFSET _states
  01294	39 41 5c	 cmp	 DWORD PTR [ecx+92], eax
  01297	0f 84 c1 00 00
	00		 je	 $LN218@P_MovePlay
  0129d	8b 45 08	 mov	 eax, DWORD PTR _player$[ebp]
  012a0	8b 08		 mov	 ecx, DWORD PTR [eax]
  012a2	ba 1c 00 00 00	 mov	 edx, 28			; 0000001cH
  012a7	6b c2 06	 imul	 eax, edx, 6
  012aa	05 00 00 00 00	 add	 eax, OFFSET _states
  012af	39 41 5c	 cmp	 DWORD PTR [ecx+92], eax
  012b2	0f 84 a6 00 00
	00		 je	 $LN218@P_MovePlay
  012b8	8b 45 08	 mov	 eax, DWORD PTR _player$[ebp]
  012bb	8b 08		 mov	 ecx, DWORD PTR [eax]
  012bd	ba 1c 00 00 00	 mov	 edx, 28			; 0000001cH
  012c2	6b c2 07	 imul	 eax, edx, 7
  012c5	05 00 00 00 00	 add	 eax, OFFSET _states
  012ca	39 41 5c	 cmp	 DWORD PTR [ecx+92], eax
  012cd	0f 84 8b 00 00
	00		 je	 $LN218@P_MovePlay
  012d3	8b 45 08	 mov	 eax, DWORD PTR _player$[ebp]
  012d6	8b 08		 mov	 ecx, DWORD PTR [eax]
  012d8	ba 1c 00 00 00	 mov	 edx, 28			; 0000001cH
  012dd	c1 e2 03	 shl	 edx, 3
  012e0	81 c2 00 00 00
	00		 add	 edx, OFFSET _states
  012e6	39 51 5c	 cmp	 DWORD PTR [ecx+92], edx
  012e9	74 73		 je	 SHORT $LN218@P_MovePlay
  012eb	8b 45 08	 mov	 eax, DWORD PTR _player$[ebp]
  012ee	8b 08		 mov	 ecx, DWORD PTR [eax]
  012f0	ba 1c 00 00 00	 mov	 edx, 28			; 0000001cH
  012f5	6b c2 09	 imul	 eax, edx, 9
  012f8	05 00 00 00 00	 add	 eax, OFFSET _states
  012fd	39 41 5c	 cmp	 DWORD PTR [ecx+92], eax
  01300	74 5c		 je	 SHORT $LN218@P_MovePlay
  01302	8b 45 08	 mov	 eax, DWORD PTR _player$[ebp]
  01305	8b 08		 mov	 ecx, DWORD PTR [eax]
  01307	ba 1c 00 00 00	 mov	 edx, 28			; 0000001cH
  0130c	6b c2 0a	 imul	 eax, edx, 10
  0130f	05 00 00 00 00	 add	 eax, OFFSET _states
  01314	39 41 5c	 cmp	 DWORD PTR [ecx+92], eax
  01317	74 45		 je	 SHORT $LN218@P_MovePlay
  01319	8b 45 08	 mov	 eax, DWORD PTR _player$[ebp]
  0131c	8b 08		 mov	 ecx, DWORD PTR [eax]
  0131e	ba 1c 00 00 00	 mov	 edx, 28			; 0000001cH
  01323	6b c2 0b	 imul	 eax, edx, 11
  01326	05 00 00 00 00	 add	 eax, OFFSET _states
  0132b	39 41 5c	 cmp	 DWORD PTR [ecx+92], eax
  0132e	74 2e		 je	 SHORT $LN218@P_MovePlay
  01330	8b 45 08	 mov	 eax, DWORD PTR _player$[ebp]
  01333	8b 08		 mov	 ecx, DWORD PTR [eax]
  01335	ba 1c 00 00 00	 mov	 edx, 28			; 0000001cH
  0133a	6b c2 2b	 imul	 eax, edx, 43
  0133d	05 00 00 00 00	 add	 eax, OFFSET _states
  01342	39 41 5c	 cmp	 DWORD PTR [ecx+92], eax
  01345	74 17		 je	 SHORT $LN218@P_MovePlay
  01347	8b 45 08	 mov	 eax, DWORD PTR _player$[ebp]
  0134a	8b 08		 mov	 ecx, DWORD PTR [eax]
  0134c	ba 1c 00 00 00	 mov	 edx, 28			; 0000001cH
  01351	6b c2 2c	 imul	 eax, edx, 44
  01354	05 00 00 00 00	 add	 eax, OFFSET _states
  01359	39 41 5c	 cmp	 DWORD PTR [ecx+92], eax
  0135c	75 4d		 jne	 SHORT $LN216@P_MovePlay
$LN218@P_MovePlay:

; 5922 : 	{
; 5923 : 		player->pflags |= PF_WALKINGANIM;

  0135e	8b 45 08	 mov	 eax, DWORD PTR _player$[ebp]
  01361	8b 88 ac 00 00
	00		 mov	 ecx, DWORD PTR [eax+172]
  01367	81 c9 00 02 00
	00		 or	 ecx, 512		; 00000200H
  0136d	8b 55 08	 mov	 edx, DWORD PTR _player$[ebp]
  01370	89 8a ac 00 00
	00		 mov	 DWORD PTR [edx+172], ecx

; 5924 : 		player->pflags &= ~PF_RUNNINGANIM;

  01376	8b 45 08	 mov	 eax, DWORD PTR _player$[ebp]
  01379	8b 88 ac 00 00
	00		 mov	 ecx, DWORD PTR [eax+172]
  0137f	81 e1 ff fb ff
	ff		 and	 ecx, -1025		; fffffbffH
  01385	8b 55 08	 mov	 edx, DWORD PTR _player$[ebp]
  01388	89 8a ac 00 00
	00		 mov	 DWORD PTR [edx+172], ecx

; 5925 : 		player->pflags &= ~PF_SPINNINGANIM;

  0138e	8b 45 08	 mov	 eax, DWORD PTR _player$[ebp]
  01391	8b 88 ac 00 00
	00		 mov	 ecx, DWORD PTR [eax+172]
  01397	81 e1 ff f7 ff
	ff		 and	 ecx, -2049		; fffff7ffH
  0139d	8b 55 08	 mov	 edx, DWORD PTR _player$[ebp]
  013a0	89 8a ac 00 00
	00		 mov	 DWORD PTR [edx+172], ecx

; 5926 : 	}

  013a6	e9 c5 01 00 00	 jmp	 $LN223@P_MovePlay
$LN216@P_MovePlay:

; 5927 : 	else if (player->mo->state == &states[S_PLAY_SPD1] || player->mo->state == &states[S_PLAY_SPD2] || player->mo->state == &states[S_PLAY_SPD3] || player->mo->state == &states[S_PLAY_SPD4] || player->mo->state == &states[S_PLAY_SUPERFLY1] || player->mo->state == &states[S_PLAY_SUPERFLY2])

  013ab	8b 45 08	 mov	 eax, DWORD PTR _player$[ebp]
  013ae	8b 08		 mov	 ecx, DWORD PTR [eax]
  013b0	ba 1c 00 00 00	 mov	 edx, 28			; 0000001cH
  013b5	6b c2 11	 imul	 eax, edx, 17
  013b8	05 00 00 00 00	 add	 eax, OFFSET _states
  013bd	39 41 5c	 cmp	 DWORD PTR [ecx+92], eax
  013c0	74 73		 je	 SHORT $LN221@P_MovePlay
  013c2	8b 45 08	 mov	 eax, DWORD PTR _player$[ebp]
  013c5	8b 08		 mov	 ecx, DWORD PTR [eax]
  013c7	ba 1c 00 00 00	 mov	 edx, 28			; 0000001cH
  013cc	6b c2 12	 imul	 eax, edx, 18
  013cf	05 00 00 00 00	 add	 eax, OFFSET _states
  013d4	39 41 5c	 cmp	 DWORD PTR [ecx+92], eax
  013d7	74 5c		 je	 SHORT $LN221@P_MovePlay
  013d9	8b 45 08	 mov	 eax, DWORD PTR _player$[ebp]
  013dc	8b 08		 mov	 ecx, DWORD PTR [eax]
  013de	ba 1c 00 00 00	 mov	 edx, 28			; 0000001cH
  013e3	6b c2 13	 imul	 eax, edx, 19
  013e6	05 00 00 00 00	 add	 eax, OFFSET _states
  013eb	39 41 5c	 cmp	 DWORD PTR [ecx+92], eax
  013ee	74 45		 je	 SHORT $LN221@P_MovePlay
  013f0	8b 45 08	 mov	 eax, DWORD PTR _player$[ebp]
  013f3	8b 08		 mov	 ecx, DWORD PTR [eax]
  013f5	ba 1c 00 00 00	 mov	 edx, 28			; 0000001cH
  013fa	6b c2 14	 imul	 eax, edx, 20
  013fd	05 00 00 00 00	 add	 eax, OFFSET _states
  01402	39 41 5c	 cmp	 DWORD PTR [ecx+92], eax
  01405	74 2e		 je	 SHORT $LN221@P_MovePlay
  01407	8b 45 08	 mov	 eax, DWORD PTR _player$[ebp]
  0140a	8b 08		 mov	 ecx, DWORD PTR [eax]
  0140c	ba 1c 00 00 00	 mov	 edx, 28			; 0000001cH
  01411	6b c2 2d	 imul	 eax, edx, 45
  01414	05 00 00 00 00	 add	 eax, OFFSET _states
  01419	39 41 5c	 cmp	 DWORD PTR [ecx+92], eax
  0141c	74 17		 je	 SHORT $LN221@P_MovePlay
  0141e	8b 45 08	 mov	 eax, DWORD PTR _player$[ebp]
  01421	8b 08		 mov	 ecx, DWORD PTR [eax]
  01423	ba 1c 00 00 00	 mov	 edx, 28			; 0000001cH
  01428	6b c2 2e	 imul	 eax, edx, 46
  0142b	05 00 00 00 00	 add	 eax, OFFSET _states
  01430	39 41 5c	 cmp	 DWORD PTR [ecx+92], eax
  01433	75 4d		 jne	 SHORT $LN219@P_MovePlay
$LN221@P_MovePlay:

; 5928 : 	{
; 5929 : 		player->pflags |= PF_RUNNINGANIM;

  01435	8b 45 08	 mov	 eax, DWORD PTR _player$[ebp]
  01438	8b 88 ac 00 00
	00		 mov	 ecx, DWORD PTR [eax+172]
  0143e	81 c9 00 04 00
	00		 or	 ecx, 1024		; 00000400H
  01444	8b 55 08	 mov	 edx, DWORD PTR _player$[ebp]
  01447	89 8a ac 00 00
	00		 mov	 DWORD PTR [edx+172], ecx

; 5930 : 		player->pflags &= ~PF_WALKINGANIM;

  0144d	8b 45 08	 mov	 eax, DWORD PTR _player$[ebp]
  01450	8b 88 ac 00 00
	00		 mov	 ecx, DWORD PTR [eax+172]
  01456	81 e1 ff fd ff
	ff		 and	 ecx, -513		; fffffdffH
  0145c	8b 55 08	 mov	 edx, DWORD PTR _player$[ebp]
  0145f	89 8a ac 00 00
	00		 mov	 DWORD PTR [edx+172], ecx

; 5931 : 		player->pflags &= ~PF_SPINNINGANIM;

  01465	8b 45 08	 mov	 eax, DWORD PTR _player$[ebp]
  01468	8b 88 ac 00 00
	00		 mov	 ecx, DWORD PTR [eax+172]
  0146e	81 e1 ff f7 ff
	ff		 and	 ecx, -2049		; fffff7ffH
  01474	8b 55 08	 mov	 edx, DWORD PTR _player$[ebp]
  01477	89 8a ac 00 00
	00		 mov	 DWORD PTR [edx+172], ecx

; 5932 : 	}

  0147d	e9 ee 00 00 00	 jmp	 $LN223@P_MovePlay
$LN219@P_MovePlay:

; 5933 : 	else if (player->mo->state == &states[S_PLAY_ATK1] || player->mo->state == &states[S_PLAY_ATK2] || player->mo->state == &states[S_PLAY_ATK3] || player->mo->state == &states[S_PLAY_ATK4])

  01482	8b 45 08	 mov	 eax, DWORD PTR _player$[ebp]
  01485	8b 08		 mov	 ecx, DWORD PTR [eax]
  01487	ba 1c 00 00 00	 mov	 edx, 28			; 0000001cH
  0148c	6b c2 0c	 imul	 eax, edx, 12
  0148f	05 00 00 00 00	 add	 eax, OFFSET _states
  01494	39 41 5c	 cmp	 DWORD PTR [ecx+92], eax
  01497	74 45		 je	 SHORT $LN224@P_MovePlay
  01499	8b 45 08	 mov	 eax, DWORD PTR _player$[ebp]
  0149c	8b 08		 mov	 ecx, DWORD PTR [eax]
  0149e	ba 1c 00 00 00	 mov	 edx, 28			; 0000001cH
  014a3	6b c2 0d	 imul	 eax, edx, 13
  014a6	05 00 00 00 00	 add	 eax, OFFSET _states
  014ab	39 41 5c	 cmp	 DWORD PTR [ecx+92], eax
  014ae	74 2e		 je	 SHORT $LN224@P_MovePlay
  014b0	8b 45 08	 mov	 eax, DWORD PTR _player$[ebp]
  014b3	8b 08		 mov	 ecx, DWORD PTR [eax]
  014b5	ba 1c 00 00 00	 mov	 edx, 28			; 0000001cH
  014ba	6b c2 0e	 imul	 eax, edx, 14
  014bd	05 00 00 00 00	 add	 eax, OFFSET _states
  014c2	39 41 5c	 cmp	 DWORD PTR [ecx+92], eax
  014c5	74 17		 je	 SHORT $LN224@P_MovePlay
  014c7	8b 45 08	 mov	 eax, DWORD PTR _player$[ebp]
  014ca	8b 08		 mov	 ecx, DWORD PTR [eax]
  014cc	ba 1c 00 00 00	 mov	 edx, 28			; 0000001cH
  014d1	6b c2 0f	 imul	 eax, edx, 15
  014d4	05 00 00 00 00	 add	 eax, OFFSET _states
  014d9	39 41 5c	 cmp	 DWORD PTR [ecx+92], eax
  014dc	75 4a		 jne	 SHORT $LN222@P_MovePlay
$LN224@P_MovePlay:

; 5934 : 	{
; 5935 : 		player->pflags |= PF_SPINNINGANIM;

  014de	8b 45 08	 mov	 eax, DWORD PTR _player$[ebp]
  014e1	8b 88 ac 00 00
	00		 mov	 ecx, DWORD PTR [eax+172]
  014e7	81 c9 00 08 00
	00		 or	 ecx, 2048		; 00000800H
  014ed	8b 55 08	 mov	 edx, DWORD PTR _player$[ebp]
  014f0	89 8a ac 00 00
	00		 mov	 DWORD PTR [edx+172], ecx

; 5936 : 		player->pflags &= ~PF_RUNNINGANIM;

  014f6	8b 45 08	 mov	 eax, DWORD PTR _player$[ebp]
  014f9	8b 88 ac 00 00
	00		 mov	 ecx, DWORD PTR [eax+172]
  014ff	81 e1 ff fb ff
	ff		 and	 ecx, -1025		; fffffbffH
  01505	8b 55 08	 mov	 edx, DWORD PTR _player$[ebp]
  01508	89 8a ac 00 00
	00		 mov	 DWORD PTR [edx+172], ecx

; 5937 : 		player->pflags &= ~PF_WALKINGANIM;

  0150e	8b 45 08	 mov	 eax, DWORD PTR _player$[ebp]
  01511	8b 88 ac 00 00
	00		 mov	 ecx, DWORD PTR [eax+172]
  01517	81 e1 ff fd ff
	ff		 and	 ecx, -513		; fffffdffH
  0151d	8b 55 08	 mov	 edx, DWORD PTR _player$[ebp]
  01520	89 8a ac 00 00
	00		 mov	 DWORD PTR [edx+172], ecx

; 5938 : 	}

  01526	eb 48		 jmp	 SHORT $LN223@P_MovePlay
$LN222@P_MovePlay:

; 5939 : 	else
; 5940 : 	{
; 5941 : 		player->pflags &= ~PF_WALKINGANIM;

  01528	8b 45 08	 mov	 eax, DWORD PTR _player$[ebp]
  0152b	8b 88 ac 00 00
	00		 mov	 ecx, DWORD PTR [eax+172]
  01531	81 e1 ff fd ff
	ff		 and	 ecx, -513		; fffffdffH
  01537	8b 55 08	 mov	 edx, DWORD PTR _player$[ebp]
  0153a	89 8a ac 00 00
	00		 mov	 DWORD PTR [edx+172], ecx

; 5942 : 		player->pflags &= ~PF_RUNNINGANIM;

  01540	8b 45 08	 mov	 eax, DWORD PTR _player$[ebp]
  01543	8b 88 ac 00 00
	00		 mov	 ecx, DWORD PTR [eax+172]
  01549	81 e1 ff fb ff
	ff		 and	 ecx, -1025		; fffffbffH
  0154f	8b 55 08	 mov	 edx, DWORD PTR _player$[ebp]
  01552	89 8a ac 00 00
	00		 mov	 DWORD PTR [edx+172], ecx

; 5943 : 		player->pflags &= ~PF_SPINNINGANIM;

  01558	8b 45 08	 mov	 eax, DWORD PTR _player$[ebp]
  0155b	8b 88 ac 00 00
	00		 mov	 ecx, DWORD PTR [eax+172]
  01561	81 e1 ff f7 ff
	ff		 and	 ecx, -2049		; fffff7ffH
  01567	8b 55 08	 mov	 edx, DWORD PTR _player$[ebp]
  0156a	89 8a ac 00 00
	00		 mov	 DWORD PTR [edx+172], ecx
$LN223@P_MovePlay:

; 5944 : 	}
; 5945 : 
; 5946 : 	if ((cmd->forwardmove != 0 || cmd->sidemove != 0) || (player->powers[pw_super] && player->mo->z > player->mo->floorz))

  01570	8b 45 f8	 mov	 eax, DWORD PTR _cmd$[ebp]
  01573	0f be 08	 movsx	 ecx, BYTE PTR [eax]
  01576	85 c9		 test	 ecx, ecx
  01578	75 37		 jne	 SHORT $LN226@P_MovePlay
  0157a	8b 45 f8	 mov	 eax, DWORD PTR _cmd$[ebp]
  0157d	0f be 48 01	 movsx	 ecx, BYTE PTR [eax+1]
  01581	85 c9		 test	 ecx, ecx
  01583	75 2c		 jne	 SHORT $LN226@P_MovePlay
  01585	b8 04 00 00 00	 mov	 eax, 4
  0158a	6b c8 0f	 imul	 ecx, eax, 15
  0158d	8b 55 08	 mov	 edx, DWORD PTR _player$[ebp]
  01590	83 7c 0a 38 00	 cmp	 DWORD PTR [edx+ecx+56], 0
  01595	0f 84 52 01 00
	00		 je	 $LN230@P_MovePlay
  0159b	8b 45 08	 mov	 eax, DWORD PTR _player$[ebp]
  0159e	8b 08		 mov	 ecx, DWORD PTR [eax]
  015a0	8b 55 08	 mov	 edx, DWORD PTR _player$[ebp]
  015a3	8b 02		 mov	 eax, DWORD PTR [edx]
  015a5	8b 49 18	 mov	 ecx, DWORD PTR [ecx+24]
  015a8	3b 48 38	 cmp	 ecx, DWORD PTR [eax+56]
  015ab	0f 8e 3c 01 00
	00		 jle	 $LN230@P_MovePlay
$LN226@P_MovePlay:

; 5947 : 	{
; 5948 : 		// If the player is moving fast enough,
; 5949 : 		// break into a run!
; 5950 : 		if ((player->speed > runspd) && (player->pflags & PF_WALKINGANIM) && (onground || player->powers[pw_super]))

  015b1	8b 45 08	 mov	 eax, DWORD PTR _player$[ebp]
  015b4	8b 88 0c 01 00
	00		 mov	 ecx, DWORD PTR [eax+268]
  015ba	3b 4d dc	 cmp	 ecx, DWORD PTR _runspd$[ebp]
  015bd	7e 41		 jle	 SHORT $LN227@P_MovePlay
  015bf	8b 45 08	 mov	 eax, DWORD PTR _player$[ebp]
  015c2	8b 88 ac 00 00
	00		 mov	 ecx, DWORD PTR [eax+172]
  015c8	81 e1 00 02 00
	00		 and	 ecx, 512		; 00000200H
  015ce	74 30		 je	 SHORT $LN227@P_MovePlay
  015d0	83 3d 00 00 00
	00 00		 cmp	 DWORD PTR _onground, 0
  015d7	75 12		 jne	 SHORT $LN229@P_MovePlay
  015d9	b8 04 00 00 00	 mov	 eax, 4
  015de	6b c8 0f	 imul	 ecx, eax, 15
  015e1	8b 55 08	 mov	 edx, DWORD PTR _player$[ebp]
  015e4	83 7c 0a 38 00	 cmp	 DWORD PTR [edx+ecx+56], 0
  015e9	74 15		 je	 SHORT $LN227@P_MovePlay
$LN229@P_MovePlay:

; 5951 : 			P_SetPlayerMobjState (player->mo, S_PLAY_SPD1);

  015eb	6a 11		 push	 17			; 00000011H
  015ed	8b 45 08	 mov	 eax, DWORD PTR _player$[ebp]
  015f0	8b 08		 mov	 ecx, DWORD PTR [eax]
  015f2	51		 push	 ecx
  015f3	e8 00 00 00 00	 call	 _P_SetPlayerMobjState
  015f8	83 c4 08	 add	 esp, 8
  015fb	e9 ed 00 00 00	 jmp	 $LN230@P_MovePlay
$LN227@P_MovePlay:

; 5952 : 
; 5953 : 		// Otherwise, just walk.
; 5954 : 		else if ((player->rmomx || player->rmomy) && (player->mo->state == &states[S_PLAY_STND] || player->mo->state == &states[S_PLAY_CARRY] || player->mo->state == &states[S_PLAY_TAP1] || player->mo->state == &states[S_PLAY_TAP2] || player->mo->state == &states[S_PLAY_TEETER1] || player->mo->state == &states[S_PLAY_TEETER2] || player->mo->state == &states[S_PLAY_SUPERSTAND] || player->mo->state == &states[S_PLAY_SUPERTEETER]))

  01600	8b 45 08	 mov	 eax, DWORD PTR _player$[ebp]
  01603	83 b8 44 01 00
	00 00		 cmp	 DWORD PTR [eax+324], 0
  0160a	75 10		 jne	 SHORT $LN231@P_MovePlay
  0160c	8b 45 08	 mov	 eax, DWORD PTR _player$[ebp]
  0160f	83 b8 48 01 00
	00 00		 cmp	 DWORD PTR [eax+328], 0
  01616	0f 84 d1 00 00
	00		 je	 $LN230@P_MovePlay
$LN231@P_MovePlay:
  0161c	8b 45 08	 mov	 eax, DWORD PTR _player$[ebp]
  0161f	8b 08		 mov	 ecx, DWORD PTR [eax]
  01621	ba 1c 00 00 00	 mov	 edx, 28			; 0000001cH
  01626	c1 e2 00	 shl	 edx, 0
  01629	81 c2 00 00 00
	00		 add	 edx, OFFSET _states
  0162f	39 51 5c	 cmp	 DWORD PTR [ecx+92], edx
  01632	0f 84 a5 00 00
	00		 je	 $LN232@P_MovePlay
  01638	8b 45 08	 mov	 eax, DWORD PTR _player$[ebp]
  0163b	8b 08		 mov	 ecx, DWORD PTR [eax]
  0163d	ba 1c 00 00 00	 mov	 edx, 28			; 0000001cH
  01642	6b c2 29	 imul	 eax, edx, 41
  01645	05 00 00 00 00	 add	 eax, OFFSET _states
  0164a	39 41 5c	 cmp	 DWORD PTR [ecx+92], eax
  0164d	0f 84 8a 00 00
	00		 je	 $LN232@P_MovePlay
  01653	8b 45 08	 mov	 eax, DWORD PTR _player$[ebp]
  01656	8b 08		 mov	 ecx, DWORD PTR [eax]
  01658	ba 1c 00 00 00	 mov	 edx, 28			; 0000001cH
  0165d	d1 e2		 shl	 edx, 1
  0165f	81 c2 00 00 00
	00		 add	 edx, OFFSET _states
  01665	39 51 5c	 cmp	 DWORD PTR [ecx+92], edx
  01668	74 73		 je	 SHORT $LN232@P_MovePlay
  0166a	8b 45 08	 mov	 eax, DWORD PTR _player$[ebp]
  0166d	8b 08		 mov	 ecx, DWORD PTR [eax]
  0166f	ba 1c 00 00 00	 mov	 edx, 28			; 0000001cH
  01674	6b c2 03	 imul	 eax, edx, 3
  01677	05 00 00 00 00	 add	 eax, OFFSET _states
  0167c	39 41 5c	 cmp	 DWORD PTR [ecx+92], eax
  0167f	74 5c		 je	 SHORT $LN232@P_MovePlay
  01681	8b 45 08	 mov	 eax, DWORD PTR _player$[ebp]
  01684	8b 08		 mov	 ecx, DWORD PTR [eax]
  01686	ba 1c 00 00 00	 mov	 edx, 28			; 0000001cH
  0168b	6b c2 25	 imul	 eax, edx, 37
  0168e	05 00 00 00 00	 add	 eax, OFFSET _states
  01693	39 41 5c	 cmp	 DWORD PTR [ecx+92], eax
  01696	74 45		 je	 SHORT $LN232@P_MovePlay
  01698	8b 45 08	 mov	 eax, DWORD PTR _player$[ebp]
  0169b	8b 08		 mov	 ecx, DWORD PTR [eax]
  0169d	ba 1c 00 00 00	 mov	 edx, 28			; 0000001cH
  016a2	6b c2 26	 imul	 eax, edx, 38
  016a5	05 00 00 00 00	 add	 eax, OFFSET _states
  016aa	39 41 5c	 cmp	 DWORD PTR [ecx+92], eax
  016ad	74 2e		 je	 SHORT $LN232@P_MovePlay
  016af	8b 45 08	 mov	 eax, DWORD PTR _player$[ebp]
  016b2	8b 08		 mov	 ecx, DWORD PTR [eax]
  016b4	ba 1c 00 00 00	 mov	 edx, 28			; 0000001cH
  016b9	6b c2 2a	 imul	 eax, edx, 42
  016bc	05 00 00 00 00	 add	 eax, OFFSET _states
  016c1	39 41 5c	 cmp	 DWORD PTR [ecx+92], eax
  016c4	74 17		 je	 SHORT $LN232@P_MovePlay
  016c6	8b 45 08	 mov	 eax, DWORD PTR _player$[ebp]
  016c9	8b 08		 mov	 ecx, DWORD PTR [eax]
  016cb	ba 1c 00 00 00	 mov	 edx, 28			; 0000001cH
  016d0	6b c2 2f	 imul	 eax, edx, 47
  016d3	05 00 00 00 00	 add	 eax, OFFSET _states
  016d8	39 41 5c	 cmp	 DWORD PTR [ecx+92], eax
  016db	75 10		 jne	 SHORT $LN230@P_MovePlay
$LN232@P_MovePlay:

; 5955 : 			P_SetPlayerMobjState (player->mo, S_PLAY_RUN1);

  016dd	6a 04		 push	 4
  016df	8b 45 08	 mov	 eax, DWORD PTR _player$[ebp]
  016e2	8b 08		 mov	 ecx, DWORD PTR [eax]
  016e4	51		 push	 ecx
  016e5	e8 00 00 00 00	 call	 _P_SetPlayerMobjState
  016ea	83 c4 08	 add	 esp, 8
$LN230@P_MovePlay:

; 5956 : 	}
; 5957 : 
; 5958 : 	// Adjust the player's animation speed to match their velocity.
; 5959 : 	if (P_IsLocalPlayer(player) && !disableSpeedAdjust)

  016ed	8b 45 08	 mov	 eax, DWORD PTR _player$[ebp]
  016f0	50		 push	 eax
  016f1	e8 00 00 00 00	 call	 _P_IsLocalPlayer
  016f6	83 c4 04	 add	 esp, 4
  016f9	85 c0		 test	 eax, eax
  016fb	0f 84 b0 03 00
	00		 je	 $LN256@P_MovePlay
  01701	83 3d 00 00 00
	00 00		 cmp	 DWORD PTR _disableSpeedAdjust, 0
  01708	0f 85 a3 03 00
	00		 jne	 $LN256@P_MovePlay

; 5960 : 	{
; 5961 : 		if (onground || (player->powers[pw_super] && player->mo->z > player->mo->floorz)) // Only if on the ground.

  0170e	83 3d 00 00 00
	00 00		 cmp	 DWORD PTR _onground, 0
  01715	75 2c		 jne	 SHORT $LN236@P_MovePlay
  01717	b8 04 00 00 00	 mov	 eax, 4
  0171c	6b c8 0f	 imul	 ecx, eax, 15
  0171f	8b 55 08	 mov	 edx, DWORD PTR _player$[ebp]
  01722	83 7c 0a 38 00	 cmp	 DWORD PTR [edx+ecx+56], 0
  01727	0f 84 85 01 00
	00		 je	 $LN234@P_MovePlay
  0172d	8b 45 08	 mov	 eax, DWORD PTR _player$[ebp]
  01730	8b 08		 mov	 ecx, DWORD PTR [eax]
  01732	8b 55 08	 mov	 edx, DWORD PTR _player$[ebp]
  01735	8b 02		 mov	 eax, DWORD PTR [edx]
  01737	8b 49 18	 mov	 ecx, DWORD PTR [ecx+24]
  0173a	3b 48 38	 cmp	 ecx, DWORD PTR [eax+56]
  0173d	0f 8e 6f 01 00
	00		 jle	 $LN234@P_MovePlay
$LN236@P_MovePlay:

; 5962 : 		{
; 5963 : 			if (player->pflags & PF_WALKINGANIM)

  01743	8b 45 08	 mov	 eax, DWORD PTR _player$[ebp]
  01746	8b 88 ac 00 00
	00		 mov	 ecx, DWORD PTR [eax+172]
  0174c	81 e1 00 02 00
	00		 and	 ecx, 512		; 00000200H
  01752	0f 84 cb 00 00
	00		 je	 $LN237@P_MovePlay

; 5964 : 			{
; 5965 : 				if (player->speed > 12*100/player->mo->scale)

  01758	8b 45 08	 mov	 eax, DWORD PTR _player$[ebp]
  0175b	8b 08		 mov	 ecx, DWORD PTR [eax]
  0175d	0f b7 89 cc 00
	00 00		 movzx	 ecx, WORD PTR [ecx+204]
  01764	b8 b0 04 00 00	 mov	 eax, 1200		; 000004b0H
  01769	99		 cdq
  0176a	f7 f9		 idiv	 ecx
  0176c	8b 55 08	 mov	 edx, DWORD PTR _player$[ebp]
  0176f	39 82 0c 01 00
	00		 cmp	 DWORD PTR [edx+268], eax
  01775	7e 2e		 jle	 SHORT $LN239@P_MovePlay

; 5966 : 					playerstatetics[player-players][player->mo->state->nextstate] = 2*NEWTICRATERATIO;

  01777	8b 45 08	 mov	 eax, DWORD PTR _player$[ebp]
  0177a	2d 00 00 00 00	 sub	 eax, OFFSET _players
  0177f	99		 cdq
  01780	b9 fc 01 00 00	 mov	 ecx, 508		; 000001fcH
  01785	f7 f9		 idiv	 ecx
  01787	69 d0 e8 00 00
	00		 imul	 edx, eax, 232
  0178d	8b 45 08	 mov	 eax, DWORD PTR _player$[ebp]
  01790	8b 08		 mov	 ecx, DWORD PTR [eax]
  01792	8b 41 5c	 mov	 eax, DWORD PTR [ecx+92]
  01795	8b 48 18	 mov	 ecx, DWORD PTR [eax+24]
  01798	c7 84 8a 00 00
	00 00 02 00 00
	00		 mov	 DWORD PTR _playerstatetics[edx+ecx*4], 2
  017a3	eb 79		 jmp	 SHORT $LN242@P_MovePlay
$LN239@P_MovePlay:

; 5967 : 				else if (player->speed > 6*100/player->mo->scale)

  017a5	8b 45 08	 mov	 eax, DWORD PTR _player$[ebp]
  017a8	8b 08		 mov	 ecx, DWORD PTR [eax]
  017aa	0f b7 89 cc 00
	00 00		 movzx	 ecx, WORD PTR [ecx+204]
  017b1	b8 58 02 00 00	 mov	 eax, 600		; 00000258H
  017b6	99		 cdq
  017b7	f7 f9		 idiv	 ecx
  017b9	8b 55 08	 mov	 edx, DWORD PTR _player$[ebp]
  017bc	39 82 0c 01 00
	00		 cmp	 DWORD PTR [edx+268], eax
  017c2	7e 2e		 jle	 SHORT $LN241@P_MovePlay

; 5968 : 					playerstatetics[player-players][player->mo->state->nextstate] = 3*NEWTICRATERATIO;

  017c4	8b 45 08	 mov	 eax, DWORD PTR _player$[ebp]
  017c7	2d 00 00 00 00	 sub	 eax, OFFSET _players
  017cc	99		 cdq
  017cd	b9 fc 01 00 00	 mov	 ecx, 508		; 000001fcH
  017d2	f7 f9		 idiv	 ecx
  017d4	69 d0 e8 00 00
	00		 imul	 edx, eax, 232
  017da	8b 45 08	 mov	 eax, DWORD PTR _player$[ebp]
  017dd	8b 08		 mov	 ecx, DWORD PTR [eax]
  017df	8b 41 5c	 mov	 eax, DWORD PTR [ecx+92]
  017e2	8b 48 18	 mov	 ecx, DWORD PTR [eax+24]
  017e5	c7 84 8a 00 00
	00 00 03 00 00
	00		 mov	 DWORD PTR _playerstatetics[edx+ecx*4], 3
  017f0	eb 2c		 jmp	 SHORT $LN242@P_MovePlay
$LN241@P_MovePlay:

; 5969 : 				else
; 5970 : 					playerstatetics[player-players][player->mo->state->nextstate] = 4*NEWTICRATERATIO;

  017f2	8b 45 08	 mov	 eax, DWORD PTR _player$[ebp]
  017f5	2d 00 00 00 00	 sub	 eax, OFFSET _players
  017fa	99		 cdq
  017fb	b9 fc 01 00 00	 mov	 ecx, 508		; 000001fcH
  01800	f7 f9		 idiv	 ecx
  01802	69 d0 e8 00 00
	00		 imul	 edx, eax, 232
  01808	8b 45 08	 mov	 eax, DWORD PTR _player$[ebp]
  0180b	8b 08		 mov	 ecx, DWORD PTR [eax]
  0180d	8b 41 5c	 mov	 eax, DWORD PTR [ecx+92]
  01810	8b 48 18	 mov	 ecx, DWORD PTR [eax+24]
  01813	c7 84 8a 00 00
	00 00 04 00 00
	00		 mov	 DWORD PTR _playerstatetics[edx+ecx*4], 4
$LN242@P_MovePlay:

; 5971 : 			}

  0181e	e9 8a 00 00 00	 jmp	 $LN245@P_MovePlay
$LN237@P_MovePlay:

; 5972 : 			else if (player->pflags & PF_RUNNINGANIM)

  01823	8b 45 08	 mov	 eax, DWORD PTR _player$[ebp]
  01826	8b 88 ac 00 00
	00		 mov	 ecx, DWORD PTR [eax+172]
  0182c	81 e1 00 04 00
	00		 and	 ecx, 1024		; 00000400H
  01832	74 79		 je	 SHORT $LN245@P_MovePlay

; 5973 : 			{
; 5974 : 				if (player->speed > 52*100/player->mo->scale)

  01834	8b 45 08	 mov	 eax, DWORD PTR _player$[ebp]
  01837	8b 08		 mov	 ecx, DWORD PTR [eax]
  01839	0f b7 89 cc 00
	00 00		 movzx	 ecx, WORD PTR [ecx+204]
  01840	b8 50 14 00 00	 mov	 eax, 5200		; 00001450H
  01845	99		 cdq
  01846	f7 f9		 idiv	 ecx
  01848	8b 55 08	 mov	 edx, DWORD PTR _player$[ebp]
  0184b	39 82 0c 01 00
	00		 cmp	 DWORD PTR [edx+268], eax
  01851	7e 2e		 jle	 SHORT $LN244@P_MovePlay

; 5975 : 					playerstatetics[player-players][player->mo->state->nextstate] = 1*NEWTICRATERATIO;

  01853	8b 45 08	 mov	 eax, DWORD PTR _player$[ebp]
  01856	2d 00 00 00 00	 sub	 eax, OFFSET _players
  0185b	99		 cdq
  0185c	b9 fc 01 00 00	 mov	 ecx, 508		; 000001fcH
  01861	f7 f9		 idiv	 ecx
  01863	69 d0 e8 00 00
	00		 imul	 edx, eax, 232
  01869	8b 45 08	 mov	 eax, DWORD PTR _player$[ebp]
  0186c	8b 08		 mov	 ecx, DWORD PTR [eax]
  0186e	8b 41 5c	 mov	 eax, DWORD PTR [ecx+92]
  01871	8b 48 18	 mov	 ecx, DWORD PTR [eax+24]
  01874	c7 84 8a 00 00
	00 00 01 00 00
	00		 mov	 DWORD PTR _playerstatetics[edx+ecx*4], 1
  0187f	eb 2c		 jmp	 SHORT $LN245@P_MovePlay
$LN244@P_MovePlay:

; 5976 : 				else
; 5977 : 					playerstatetics[player-players][player->mo->state->nextstate] = 2*NEWTICRATERATIO;

  01881	8b 45 08	 mov	 eax, DWORD PTR _player$[ebp]
  01884	2d 00 00 00 00	 sub	 eax, OFFSET _players
  01889	99		 cdq
  0188a	b9 fc 01 00 00	 mov	 ecx, 508		; 000001fcH
  0188f	f7 f9		 idiv	 ecx
  01891	69 d0 e8 00 00
	00		 imul	 edx, eax, 232
  01897	8b 45 08	 mov	 eax, DWORD PTR _player$[ebp]
  0189a	8b 08		 mov	 ecx, DWORD PTR [eax]
  0189c	8b 41 5c	 mov	 eax, DWORD PTR [ecx+92]
  0189f	8b 48 18	 mov	 ecx, DWORD PTR [eax+24]
  018a2	c7 84 8a 00 00
	00 00 02 00 00
	00		 mov	 DWORD PTR _playerstatetics[edx+ecx*4], 2
$LN245@P_MovePlay:

; 5978 : 			}
; 5979 : 		}

  018ad	e9 75 01 00 00	 jmp	 $LN253@P_MovePlay
$LN234@P_MovePlay:

; 5980 : 		else if (player->mo->state == &states[S_PLAY_FALL1] || player->mo->state == &states[S_PLAY_FALL2])

  018b2	8b 45 08	 mov	 eax, DWORD PTR _player$[ebp]
  018b5	8b 08		 mov	 ecx, DWORD PTR [eax]
  018b7	ba 1c 00 00 00	 mov	 edx, 28			; 0000001cH
  018bc	6b c2 27	 imul	 eax, edx, 39
  018bf	05 00 00 00 00	 add	 eax, OFFSET _states
  018c4	39 41 5c	 cmp	 DWORD PTR [ecx+92], eax
  018c7	74 1b		 je	 SHORT $LN247@P_MovePlay
  018c9	8b 45 08	 mov	 eax, DWORD PTR _player$[ebp]
  018cc	8b 08		 mov	 ecx, DWORD PTR [eax]
  018ce	ba 1c 00 00 00	 mov	 edx, 28			; 0000001cH
  018d3	6b c2 28	 imul	 eax, edx, 40
  018d6	05 00 00 00 00	 add	 eax, OFFSET _states
  018db	39 41 5c	 cmp	 DWORD PTR [ecx+92], eax
  018de	0f 85 43 01 00
	00		 jne	 $LN253@P_MovePlay
$LN247@P_MovePlay:

; 5981 : 		{
; 5982 : 			fixed_t speed;
; 5983 : 			speed = FIXEDUNSCALE(abs(player->mo->momz), player->mo->scale);

  018e4	8b 45 08	 mov	 eax, DWORD PTR _player$[ebp]
  018e7	8b 08		 mov	 ecx, DWORD PTR [eax]
  018e9	0f b7 91 cc 00
	00 00		 movzx	 edx, WORD PTR [ecx+204]
  018f0	85 d2		 test	 edx, edx
  018f2	75 0c		 jne	 SHORT $LN816@P_MovePlay
  018f4	c7 85 b0 fc ff
	ff 00 00 00 00	 mov	 DWORD PTR tv1175[ebp], 0
  018fe	eb 3e		 jmp	 SHORT $LN817@P_MovePlay
$LN816@P_MovePlay:
  01900	8b 45 08	 mov	 eax, DWORD PTR _player$[ebp]
  01903	8b 08		 mov	 ecx, DWORD PTR [eax]
  01905	8b 51 50	 mov	 edx, DWORD PTR [ecx+80]
  01908	52		 push	 edx
  01909	e8 00 00 00 00	 call	 _abs
  0190e	83 c4 04	 add	 esp, 4
  01911	50		 push	 eax
  01912	8b 45 08	 mov	 eax, DWORD PTR _player$[ebp]
  01915	8b 08		 mov	 ecx, DWORD PTR [eax]
  01917	0f b7 91 cc 00
	00 00		 movzx	 edx, WORD PTR [ecx+204]
  0191e	c1 e2 10	 shl	 edx, 16			; 00000010H
  01921	52		 push	 edx
  01922	68 00 00 64 00	 push	 6553600			; 00640000H
  01927	e8 00 00 00 00	 call	 _FixedDiv
  0192c	83 c4 08	 add	 esp, 8
  0192f	50		 push	 eax
  01930	e8 00 00 00 00	 call	 _FixedMul
  01935	83 c4 08	 add	 esp, 8
  01938	89 85 b0 fc ff
	ff		 mov	 DWORD PTR tv1175[ebp], eax
$LN817@P_MovePlay:
  0193e	8b 85 b0 fc ff
	ff		 mov	 eax, DWORD PTR tv1175[ebp]
  01944	89 85 a8 fe ff
	ff		 mov	 DWORD PTR _speed$94[ebp], eax

; 5984 : 			if (speed < 10*FRACUNIT)

  0194a	81 bd a8 fe ff
	ff 00 00 0a 00	 cmp	 DWORD PTR _speed$94[ebp], 655360 ; 000a0000H
  01954	7d 31		 jge	 SHORT $LN248@P_MovePlay

; 5985 : 				playerstatetics[player-players][player->mo->state->nextstate] = 4*NEWTICRATERATIO;

  01956	8b 45 08	 mov	 eax, DWORD PTR _player$[ebp]
  01959	2d 00 00 00 00	 sub	 eax, OFFSET _players
  0195e	99		 cdq
  0195f	b9 fc 01 00 00	 mov	 ecx, 508		; 000001fcH
  01964	f7 f9		 idiv	 ecx
  01966	69 d0 e8 00 00
	00		 imul	 edx, eax, 232
  0196c	8b 45 08	 mov	 eax, DWORD PTR _player$[ebp]
  0196f	8b 08		 mov	 ecx, DWORD PTR [eax]
  01971	8b 41 5c	 mov	 eax, DWORD PTR [ecx+92]
  01974	8b 48 18	 mov	 ecx, DWORD PTR [eax+24]
  01977	c7 84 8a 00 00
	00 00 04 00 00
	00		 mov	 DWORD PTR _playerstatetics[edx+ecx*4], 4
  01982	e9 a0 00 00 00	 jmp	 $LN253@P_MovePlay
$LN248@P_MovePlay:

; 5986 : 			else if (speed < 20*FRACUNIT)

  01987	81 bd a8 fe ff
	ff 00 00 14 00	 cmp	 DWORD PTR _speed$94[ebp], 1310720 ; 00140000H
  01991	7d 2e		 jge	 SHORT $LN250@P_MovePlay

; 5987 : 				playerstatetics[player-players][player->mo->state->nextstate] = 3*NEWTICRATERATIO;

  01993	8b 45 08	 mov	 eax, DWORD PTR _player$[ebp]
  01996	2d 00 00 00 00	 sub	 eax, OFFSET _players
  0199b	99		 cdq
  0199c	b9 fc 01 00 00	 mov	 ecx, 508		; 000001fcH
  019a1	f7 f9		 idiv	 ecx
  019a3	69 d0 e8 00 00
	00		 imul	 edx, eax, 232
  019a9	8b 45 08	 mov	 eax, DWORD PTR _player$[ebp]
  019ac	8b 08		 mov	 ecx, DWORD PTR [eax]
  019ae	8b 41 5c	 mov	 eax, DWORD PTR [ecx+92]
  019b1	8b 48 18	 mov	 ecx, DWORD PTR [eax+24]
  019b4	c7 84 8a 00 00
	00 00 03 00 00
	00		 mov	 DWORD PTR _playerstatetics[edx+ecx*4], 3
  019bf	eb 66		 jmp	 SHORT $LN253@P_MovePlay
$LN250@P_MovePlay:

; 5988 : 			else if (speed < 30*FRACUNIT)

  019c1	81 bd a8 fe ff
	ff 00 00 1e 00	 cmp	 DWORD PTR _speed$94[ebp], 1966080 ; 001e0000H
  019cb	7d 2e		 jge	 SHORT $LN252@P_MovePlay

; 5989 : 				playerstatetics[player-players][player->mo->state->nextstate] = 2*NEWTICRATERATIO;

  019cd	8b 45 08	 mov	 eax, DWORD PTR _player$[ebp]
  019d0	2d 00 00 00 00	 sub	 eax, OFFSET _players
  019d5	99		 cdq
  019d6	b9 fc 01 00 00	 mov	 ecx, 508		; 000001fcH
  019db	f7 f9		 idiv	 ecx
  019dd	69 d0 e8 00 00
	00		 imul	 edx, eax, 232
  019e3	8b 45 08	 mov	 eax, DWORD PTR _player$[ebp]
  019e6	8b 08		 mov	 ecx, DWORD PTR [eax]
  019e8	8b 41 5c	 mov	 eax, DWORD PTR [ecx+92]
  019eb	8b 48 18	 mov	 ecx, DWORD PTR [eax+24]
  019ee	c7 84 8a 00 00
	00 00 02 00 00
	00		 mov	 DWORD PTR _playerstatetics[edx+ecx*4], 2
  019f9	eb 2c		 jmp	 SHORT $LN253@P_MovePlay
$LN252@P_MovePlay:

; 5990 : 			else
; 5991 : 				playerstatetics[player-players][player->mo->state->nextstate] = 1*NEWTICRATERATIO;

  019fb	8b 45 08	 mov	 eax, DWORD PTR _player$[ebp]
  019fe	2d 00 00 00 00	 sub	 eax, OFFSET _players
  01a03	99		 cdq
  01a04	b9 fc 01 00 00	 mov	 ecx, 508		; 000001fcH
  01a09	f7 f9		 idiv	 ecx
  01a0b	69 d0 e8 00 00
	00		 imul	 edx, eax, 232
  01a11	8b 45 08	 mov	 eax, DWORD PTR _player$[ebp]
  01a14	8b 08		 mov	 ecx, DWORD PTR [eax]
  01a16	8b 41 5c	 mov	 eax, DWORD PTR [ecx+92]
  01a19	8b 48 18	 mov	 ecx, DWORD PTR [eax+24]
  01a1c	c7 84 8a 00 00
	00 00 01 00 00
	00		 mov	 DWORD PTR _playerstatetics[edx+ecx*4], 1
$LN253@P_MovePlay:

; 5992 : 		}
; 5993 : 
; 5994 : 		if (player->pflags & PF_SPINNINGANIM)

  01a27	8b 45 08	 mov	 eax, DWORD PTR _player$[ebp]
  01a2a	8b 88 ac 00 00
	00		 mov	 ecx, DWORD PTR [eax+172]
  01a30	81 e1 00 08 00
	00		 and	 ecx, 2048		; 00000800H
  01a36	74 79		 je	 SHORT $LN256@P_MovePlay

; 5995 : 		{
; 5996 : 			if (player->speed > 16*100/player->mo->scale)

  01a38	8b 45 08	 mov	 eax, DWORD PTR _player$[ebp]
  01a3b	8b 08		 mov	 ecx, DWORD PTR [eax]
  01a3d	0f b7 89 cc 00
	00 00		 movzx	 ecx, WORD PTR [ecx+204]
  01a44	b8 40 06 00 00	 mov	 eax, 1600		; 00000640H
  01a49	99		 cdq
  01a4a	f7 f9		 idiv	 ecx
  01a4c	8b 55 08	 mov	 edx, DWORD PTR _player$[ebp]
  01a4f	39 82 0c 01 00
	00		 cmp	 DWORD PTR [edx+268], eax
  01a55	7e 2e		 jle	 SHORT $LN255@P_MovePlay

; 5997 : 				playerstatetics[player-players][player->mo->state->nextstate] = 1*NEWTICRATERATIO;

  01a57	8b 45 08	 mov	 eax, DWORD PTR _player$[ebp]
  01a5a	2d 00 00 00 00	 sub	 eax, OFFSET _players
  01a5f	99		 cdq
  01a60	b9 fc 01 00 00	 mov	 ecx, 508		; 000001fcH
  01a65	f7 f9		 idiv	 ecx
  01a67	69 d0 e8 00 00
	00		 imul	 edx, eax, 232
  01a6d	8b 45 08	 mov	 eax, DWORD PTR _player$[ebp]
  01a70	8b 08		 mov	 ecx, DWORD PTR [eax]
  01a72	8b 41 5c	 mov	 eax, DWORD PTR [ecx+92]
  01a75	8b 48 18	 mov	 ecx, DWORD PTR [eax+24]
  01a78	c7 84 8a 00 00
	00 00 01 00 00
	00		 mov	 DWORD PTR _playerstatetics[edx+ecx*4], 1
  01a83	eb 2c		 jmp	 SHORT $LN256@P_MovePlay
$LN255@P_MovePlay:

; 5998 : 			else
; 5999 : 				playerstatetics[player-players][player->mo->state->nextstate] = 2*NEWTICRATERATIO;

  01a85	8b 45 08	 mov	 eax, DWORD PTR _player$[ebp]
  01a88	2d 00 00 00 00	 sub	 eax, OFFSET _players
  01a8d	99		 cdq
  01a8e	b9 fc 01 00 00	 mov	 ecx, 508		; 000001fcH
  01a93	f7 f9		 idiv	 ecx
  01a95	69 d0 e8 00 00
	00		 imul	 edx, eax, 232
  01a9b	8b 45 08	 mov	 eax, DWORD PTR _player$[ebp]
  01a9e	8b 08		 mov	 ecx, DWORD PTR [eax]
  01aa0	8b 41 5c	 mov	 eax, DWORD PTR [ecx+92]
  01aa3	8b 48 18	 mov	 ecx, DWORD PTR [eax+24]
  01aa6	c7 84 8a 00 00
	00 00 02 00 00
	00		 mov	 DWORD PTR _playerstatetics[edx+ecx*4], 2
$LN256@P_MovePlay:

; 6000 : 		}
; 6001 : 	}
; 6002 : 
; 6003 : 	// If your running animation is playing, and you're
; 6004 : 	// going too slow, switch back to the walking frames.
; 6005 : 	if ((player->pflags & PF_RUNNINGANIM) && !(player->speed > runspd))

  01ab1	8b 45 08	 mov	 eax, DWORD PTR _player$[ebp]
  01ab4	8b 88 ac 00 00
	00		 mov	 ecx, DWORD PTR [eax+172]
  01aba	81 e1 00 04 00
	00		 and	 ecx, 1024		; 00000400H
  01ac0	74 1e		 je	 SHORT $LN257@P_MovePlay
  01ac2	8b 45 08	 mov	 eax, DWORD PTR _player$[ebp]
  01ac5	8b 88 0c 01 00
	00		 mov	 ecx, DWORD PTR [eax+268]
  01acb	3b 4d dc	 cmp	 ecx, DWORD PTR _runspd$[ebp]
  01ace	7f 10		 jg	 SHORT $LN257@P_MovePlay

; 6006 : 		P_SetPlayerMobjState(player->mo, S_PLAY_RUN1);

  01ad0	6a 04		 push	 4
  01ad2	8b 45 08	 mov	 eax, DWORD PTR _player$[ebp]
  01ad5	8b 08		 mov	 ecx, DWORD PTR [eax]
  01ad7	51		 push	 ecx
  01ad8	e8 00 00 00 00	 call	 _P_SetPlayerMobjState
  01add	83 c4 08	 add	 esp, 8
$LN257@P_MovePlay:

; 6007 : 
; 6008 : 	// If Springing, but travelling DOWNWARD, change back!
; 6009 : 	if (player->mo->state == &states[S_PLAY_PLG1] && player->mo->momz < 0)

  01ae0	8b 45 08	 mov	 eax, DWORD PTR _player$[ebp]
  01ae3	8b 08		 mov	 ecx, DWORD PTR [eax]
  01ae5	ba 1c 00 00 00	 mov	 edx, 28			; 0000001cH
  01aea	c1 e2 04	 shl	 edx, 4
  01aed	81 c2 00 00 00
	00		 add	 edx, OFFSET _states
  01af3	39 51 5c	 cmp	 DWORD PTR [ecx+92], edx
  01af6	75 20		 jne	 SHORT $LN258@P_MovePlay
  01af8	8b 45 08	 mov	 eax, DWORD PTR _player$[ebp]
  01afb	8b 08		 mov	 ecx, DWORD PTR [eax]
  01afd	83 79 50 00	 cmp	 DWORD PTR [ecx+80], 0
  01b01	7d 15		 jge	 SHORT $LN258@P_MovePlay

; 6010 : 		P_SetPlayerMobjState(player->mo, S_PLAY_FALL1);

  01b03	6a 27		 push	 39			; 00000027H
  01b05	8b 45 08	 mov	 eax, DWORD PTR _player$[ebp]
  01b08	8b 08		 mov	 ecx, DWORD PTR [eax]
  01b0a	51		 push	 ecx
  01b0b	e8 00 00 00 00	 call	 _P_SetPlayerMobjState
  01b10	83 c4 08	 add	 esp, 8
  01b13	e9 81 00 00 00	 jmp	 $LN260@P_MovePlay
$LN258@P_MovePlay:

; 6011 : 	// If Springing but on the ground, change back!
; 6012 : 	else if (onground && (player->mo->state == &states[S_PLAY_PLG1] || player->mo->state == &states[S_PLAY_FALL1] || player->mo->state == &states[S_PLAY_FALL2] || player->mo->state == &states[S_PLAY_CARRY]) && !player->mo->momz)

  01b18	83 3d 00 00 00
	00 00		 cmp	 DWORD PTR _onground, 0
  01b1f	74 78		 je	 SHORT $LN260@P_MovePlay
  01b21	8b 45 08	 mov	 eax, DWORD PTR _player$[ebp]
  01b24	8b 08		 mov	 ecx, DWORD PTR [eax]
  01b26	ba 1c 00 00 00	 mov	 edx, 28			; 0000001cH
  01b2b	c1 e2 04	 shl	 edx, 4
  01b2e	81 c2 00 00 00
	00		 add	 edx, OFFSET _states
  01b34	39 51 5c	 cmp	 DWORD PTR [ecx+92], edx
  01b37	74 45		 je	 SHORT $LN261@P_MovePlay
  01b39	8b 45 08	 mov	 eax, DWORD PTR _player$[ebp]
  01b3c	8b 08		 mov	 ecx, DWORD PTR [eax]
  01b3e	ba 1c 00 00 00	 mov	 edx, 28			; 0000001cH
  01b43	6b c2 27	 imul	 eax, edx, 39
  01b46	05 00 00 00 00	 add	 eax, OFFSET _states
  01b4b	39 41 5c	 cmp	 DWORD PTR [ecx+92], eax
  01b4e	74 2e		 je	 SHORT $LN261@P_MovePlay
  01b50	8b 45 08	 mov	 eax, DWORD PTR _player$[ebp]
  01b53	8b 08		 mov	 ecx, DWORD PTR [eax]
  01b55	ba 1c 00 00 00	 mov	 edx, 28			; 0000001cH
  01b5a	6b c2 28	 imul	 eax, edx, 40
  01b5d	05 00 00 00 00	 add	 eax, OFFSET _states
  01b62	39 41 5c	 cmp	 DWORD PTR [ecx+92], eax
  01b65	74 17		 je	 SHORT $LN261@P_MovePlay
  01b67	8b 45 08	 mov	 eax, DWORD PTR _player$[ebp]
  01b6a	8b 08		 mov	 ecx, DWORD PTR [eax]
  01b6c	ba 1c 00 00 00	 mov	 edx, 28			; 0000001cH
  01b71	6b c2 29	 imul	 eax, edx, 41
  01b74	05 00 00 00 00	 add	 eax, OFFSET _states
  01b79	39 41 5c	 cmp	 DWORD PTR [ecx+92], eax
  01b7c	75 1b		 jne	 SHORT $LN260@P_MovePlay
$LN261@P_MovePlay:
  01b7e	8b 45 08	 mov	 eax, DWORD PTR _player$[ebp]
  01b81	8b 08		 mov	 ecx, DWORD PTR [eax]
  01b83	83 79 50 00	 cmp	 DWORD PTR [ecx+80], 0
  01b87	75 10		 jne	 SHORT $LN260@P_MovePlay

; 6013 : 		P_SetPlayerMobjState(player->mo, S_PLAY_STND);

  01b89	6a 01		 push	 1
  01b8b	8b 45 08	 mov	 eax, DWORD PTR _player$[ebp]
  01b8e	8b 08		 mov	 ecx, DWORD PTR [eax]
  01b90	51		 push	 ecx
  01b91	e8 00 00 00 00	 call	 _P_SetPlayerMobjState
  01b96	83 c4 08	 add	 esp, 8
$LN260@P_MovePlay:

; 6014 : 
; 6015 : 	// If you are stopped and are still walking, stand still!
; 6016 : 	if (!player->mo->momx && !player->mo->momy && !player->mo->momz && (player->pflags & PF_WALKINGANIM))

  01b99	8b 45 08	 mov	 eax, DWORD PTR _player$[ebp]
  01b9c	8b 08		 mov	 ecx, DWORD PTR [eax]
  01b9e	83 79 48 00	 cmp	 DWORD PTR [ecx+72], 0
  01ba2	75 37		 jne	 SHORT $LN262@P_MovePlay
  01ba4	8b 45 08	 mov	 eax, DWORD PTR _player$[ebp]
  01ba7	8b 08		 mov	 ecx, DWORD PTR [eax]
  01ba9	83 79 4c 00	 cmp	 DWORD PTR [ecx+76], 0
  01bad	75 2c		 jne	 SHORT $LN262@P_MovePlay
  01baf	8b 45 08	 mov	 eax, DWORD PTR _player$[ebp]
  01bb2	8b 08		 mov	 ecx, DWORD PTR [eax]
  01bb4	83 79 50 00	 cmp	 DWORD PTR [ecx+80], 0
  01bb8	75 21		 jne	 SHORT $LN262@P_MovePlay
  01bba	8b 45 08	 mov	 eax, DWORD PTR _player$[ebp]
  01bbd	8b 88 ac 00 00
	00		 mov	 ecx, DWORD PTR [eax+172]
  01bc3	81 e1 00 02 00
	00		 and	 ecx, 512		; 00000200H
  01bc9	74 10		 je	 SHORT $LN262@P_MovePlay

; 6017 : 		P_SetPlayerMobjState(player->mo, S_PLAY_STND);

  01bcb	6a 01		 push	 1
  01bcd	8b 45 08	 mov	 eax, DWORD PTR _player$[ebp]
  01bd0	8b 08		 mov	 ecx, DWORD PTR [eax]
  01bd2	51		 push	 ecx
  01bd3	e8 00 00 00 00	 call	 _P_SetPlayerMobjState
  01bd8	83 c4 08	 add	 esp, 8
$LN262@P_MovePlay:

; 6018 : 
; 6019 : 
; 6020 : //////////////////
; 6021 : //GAMEPLAY STUFF//
; 6022 : //////////////////
; 6023 : 
; 6024 : 	// Make sure you're not "jumping" on the ground
; 6025 : 	if (onground && (player->pflags & PF_JUMPED) && !player->mo->momz && !player->homing)

  01bdb	83 3d 00 00 00
	00 00		 cmp	 DWORD PTR _onground, 0
  01be2	74 74		 je	 SHORT $LN263@P_MovePlay
  01be4	8b 45 08	 mov	 eax, DWORD PTR _player$[ebp]
  01be7	8b 88 ac 00 00
	00		 mov	 ecx, DWORD PTR [eax+172]
  01bed	81 e1 00 10 00
	00		 and	 ecx, 4096		; 00001000H
  01bf3	74 63		 je	 SHORT $LN263@P_MovePlay
  01bf5	8b 45 08	 mov	 eax, DWORD PTR _player$[ebp]
  01bf8	8b 08		 mov	 ecx, DWORD PTR [eax]
  01bfa	83 79 50 00	 cmp	 DWORD PTR [ecx+80], 0
  01bfe	75 58		 jne	 SHORT $LN263@P_MovePlay
  01c00	8b 45 08	 mov	 eax, DWORD PTR _player$[ebp]
  01c03	0f b6 88 38 01
	00 00		 movzx	 ecx, BYTE PTR [eax+312]
  01c0a	85 c9		 test	 ecx, ecx
  01c0c	75 4a		 jne	 SHORT $LN263@P_MovePlay

; 6026 : 	{
; 6027 : 		player->pflags &= ~PF_JUMPED;

  01c0e	8b 45 08	 mov	 eax, DWORD PTR _player$[ebp]
  01c11	8b 88 ac 00 00
	00		 mov	 ecx, DWORD PTR [eax+172]
  01c17	81 e1 ff ef ff
	ff		 and	 ecx, -4097		; ffffefffH
  01c1d	8b 55 08	 mov	 edx, DWORD PTR _player$[ebp]
  01c20	89 8a ac 00 00
	00		 mov	 DWORD PTR [edx+172], ecx

; 6028 : 		player->secondjump = 0;

  01c26	8b 45 08	 mov	 eax, DWORD PTR _player$[ebp]
  01c29	c6 80 14 01 00
	00 00		 mov	 BYTE PTR [eax+276], 0

; 6029 : 		player->pflags &= ~PF_THOKKED;

  01c30	8b 45 08	 mov	 eax, DWORD PTR _player$[ebp]
  01c33	8b 88 ac 00 00
	00		 mov	 ecx, DWORD PTR [eax+172]
  01c39	81 e1 ff 7f ff
	ff		 and	 ecx, -32769		; ffff7fffH
  01c3f	8b 55 08	 mov	 edx, DWORD PTR _player$[ebp]
  01c42	89 8a ac 00 00
	00		 mov	 DWORD PTR [edx+172], ecx

; 6030 : 		P_SetPlayerMobjState(player->mo, S_PLAY_STND);

  01c48	6a 01		 push	 1
  01c4a	8b 45 08	 mov	 eax, DWORD PTR _player$[ebp]
  01c4d	8b 08		 mov	 ecx, DWORD PTR [eax]
  01c4f	51		 push	 ecx
  01c50	e8 00 00 00 00	 call	 _P_SetPlayerMobjState
  01c55	83 c4 08	 add	 esp, 8
$LN263@P_MovePlay:

; 6031 : 	}
; 6032 : 
; 6033 : 	// Cap the speed limit on a spindash
; 6034 : 	// Up the 60*FRACUNIT number to boost faster, you speed demon you!
; 6035 : 	// Note: You must change the MAXMOVE variable in p_local.h to see any effect over 60.
; 6036 : 	if (player->dashspeed > FIXEDSCALE(player->maxdash<<FRACBITS, player->mo->scale))

  01c58	8b 45 08	 mov	 eax, DWORD PTR _player$[ebp]
  01c5b	8b 88 f4 00 00
	00		 mov	 ecx, DWORD PTR [eax+244]
  01c61	c1 e1 10	 shl	 ecx, 16			; 00000010H
  01c64	51		 push	 ecx
  01c65	68 00 00 64 00	 push	 6553600			; 00640000H
  01c6a	8b 55 08	 mov	 edx, DWORD PTR _player$[ebp]
  01c6d	8b 02		 mov	 eax, DWORD PTR [edx]
  01c6f	0f b7 88 cc 00
	00 00		 movzx	 ecx, WORD PTR [eax+204]
  01c76	c1 e1 10	 shl	 ecx, 16			; 00000010H
  01c79	51		 push	 ecx
  01c7a	e8 00 00 00 00	 call	 _FixedDiv
  01c7f	83 c4 08	 add	 esp, 8
  01c82	50		 push	 eax
  01c83	e8 00 00 00 00	 call	 _FixedMul
  01c88	83 c4 08	 add	 esp, 8
  01c8b	8b 55 08	 mov	 edx, DWORD PTR _player$[ebp]
  01c8e	39 82 c0 00 00
	00		 cmp	 DWORD PTR [edx+192], eax
  01c94	7e 41		 jle	 SHORT $LN264@P_MovePlay

; 6037 : 		player->dashspeed = FIXEDSCALE(player->maxdash<<FRACBITS, player->mo->scale);

  01c96	8b 45 08	 mov	 eax, DWORD PTR _player$[ebp]
  01c99	8b 88 f4 00 00
	00		 mov	 ecx, DWORD PTR [eax+244]
  01c9f	c1 e1 10	 shl	 ecx, 16			; 00000010H
  01ca2	51		 push	 ecx
  01ca3	68 00 00 64 00	 push	 6553600			; 00640000H
  01ca8	8b 55 08	 mov	 edx, DWORD PTR _player$[ebp]
  01cab	8b 02		 mov	 eax, DWORD PTR [edx]
  01cad	0f b7 88 cc 00
	00 00		 movzx	 ecx, WORD PTR [eax+204]
  01cb4	c1 e1 10	 shl	 ecx, 16			; 00000010H
  01cb7	51		 push	 ecx
  01cb8	e8 00 00 00 00	 call	 _FixedDiv
  01cbd	83 c4 08	 add	 esp, 8
  01cc0	50		 push	 eax
  01cc1	e8 00 00 00 00	 call	 _FixedMul
  01cc6	83 c4 08	 add	 esp, 8
  01cc9	8b 55 08	 mov	 edx, DWORD PTR _player$[ebp]
  01ccc	89 82 c0 00 00
	00		 mov	 DWORD PTR [edx+192], eax
  01cd2	e9 86 00 00 00	 jmp	 $LN266@P_MovePlay
$LN264@P_MovePlay:

; 6038 : 	else if (player->dashspeed > 0 && player->dashspeed < FIXEDSCALE(player->mindash*FRACUNIT, player->mo->scale)/NEWTICRATERATIO)

  01cd7	8b 45 08	 mov	 eax, DWORD PTR _player$[ebp]
  01cda	83 b8 c0 00 00
	00 00		 cmp	 DWORD PTR [eax+192], 0
  01ce1	7e 7a		 jle	 SHORT $LN266@P_MovePlay
  01ce3	8b 45 08	 mov	 eax, DWORD PTR _player$[ebp]
  01ce6	8b 88 f0 00 00
	00		 mov	 ecx, DWORD PTR [eax+240]
  01cec	c1 e1 10	 shl	 ecx, 16			; 00000010H
  01cef	51		 push	 ecx
  01cf0	68 00 00 64 00	 push	 6553600			; 00640000H
  01cf5	8b 55 08	 mov	 edx, DWORD PTR _player$[ebp]
  01cf8	8b 02		 mov	 eax, DWORD PTR [edx]
  01cfa	0f b7 88 cc 00
	00 00		 movzx	 ecx, WORD PTR [eax+204]
  01d01	c1 e1 10	 shl	 ecx, 16			; 00000010H
  01d04	51		 push	 ecx
  01d05	e8 00 00 00 00	 call	 _FixedDiv
  01d0a	83 c4 08	 add	 esp, 8
  01d0d	50		 push	 eax
  01d0e	e8 00 00 00 00	 call	 _FixedMul
  01d13	83 c4 08	 add	 esp, 8
  01d16	8b 55 08	 mov	 edx, DWORD PTR _player$[ebp]
  01d19	39 82 c0 00 00
	00		 cmp	 DWORD PTR [edx+192], eax
  01d1f	7d 3c		 jge	 SHORT $LN266@P_MovePlay

; 6039 : 		player->dashspeed = FIXEDSCALE(player->mindash*FRACUNIT, player->mo->scale)/NEWTICRATERATIO;

  01d21	8b 45 08	 mov	 eax, DWORD PTR _player$[ebp]
  01d24	8b 88 f0 00 00
	00		 mov	 ecx, DWORD PTR [eax+240]
  01d2a	c1 e1 10	 shl	 ecx, 16			; 00000010H
  01d2d	51		 push	 ecx
  01d2e	68 00 00 64 00	 push	 6553600			; 00640000H
  01d33	8b 55 08	 mov	 edx, DWORD PTR _player$[ebp]
  01d36	8b 02		 mov	 eax, DWORD PTR [edx]
  01d38	0f b7 88 cc 00
	00 00		 movzx	 ecx, WORD PTR [eax+204]
  01d3f	c1 e1 10	 shl	 ecx, 16			; 00000010H
  01d42	51		 push	 ecx
  01d43	e8 00 00 00 00	 call	 _FixedDiv
  01d48	83 c4 08	 add	 esp, 8
  01d4b	50		 push	 eax
  01d4c	e8 00 00 00 00	 call	 _FixedMul
  01d51	83 c4 08	 add	 esp, 8
  01d54	8b 55 08	 mov	 edx, DWORD PTR _player$[ebp]
  01d57	89 82 c0 00 00
	00		 mov	 DWORD PTR [edx+192], eax
$LN266@P_MovePlay:

; 6040 : 
; 6041 : 	// Glide MOMZ
; 6042 : 	// AKA my own gravity. =)
; 6043 : 	if (player->pflags & PF_GLIDING)

  01d5d	8b 45 08	 mov	 eax, DWORD PTR _player$[ebp]
  01d60	8b 88 ac 00 00
	00		 mov	 ecx, DWORD PTR [eax+172]
  01d66	81 e1 00 00 01
	00		 and	 ecx, 65536		; 00010000H
  01d6c	0f 84 b6 01 00
	00		 je	 $LN267@P_MovePlay

; 6044 : 	{
; 6045 : 		fixed_t leeway;
; 6046 : 
; 6047 : 		if (player->mo->momz == (-2*FRACUNIT)/NEWTICRATERATIO)

  01d72	8b 45 08	 mov	 eax, DWORD PTR _player$[ebp]
  01d75	8b 08		 mov	 ecx, DWORD PTR [eax]
  01d77	81 79 50 00 00
	fe ff		 cmp	 DWORD PTR [ecx+80], -131072 ; fffe0000H
  01d7e	75 0e		 jne	 SHORT $LN269@P_MovePlay

; 6048 : 			player->mo->momz = (-2*FRACUNIT)/NEWTICRATERATIO;

  01d80	8b 45 08	 mov	 eax, DWORD PTR _player$[ebp]
  01d83	8b 08		 mov	 ecx, DWORD PTR [eax]
  01d85	c7 41 50 00 00
	fe ff		 mov	 DWORD PTR [ecx+80], -131072 ; fffe0000H
  01d8c	eb 24		 jmp	 SHORT $LN271@P_MovePlay
$LN269@P_MovePlay:

; 6049 : 		else if (player->mo->momz < (-2*FRACUNIT)/NEWTICRATERATIO)

  01d8e	8b 45 08	 mov	 eax, DWORD PTR _player$[ebp]
  01d91	8b 08		 mov	 ecx, DWORD PTR [eax]
  01d93	81 79 50 00 00
	fe ff		 cmp	 DWORD PTR [ecx+80], -131072 ; fffe0000H
  01d9a	7d 16		 jge	 SHORT $LN271@P_MovePlay

; 6050 : 			player->mo->momz += (3*(FRACUNIT/4))/NEWTICRATERATIO;

  01d9c	8b 45 08	 mov	 eax, DWORD PTR _player$[ebp]
  01d9f	8b 08		 mov	 ecx, DWORD PTR [eax]
  01da1	8b 51 50	 mov	 edx, DWORD PTR [ecx+80]
  01da4	81 c2 00 c0 00
	00		 add	 edx, 49152		; 0000c000H
  01daa	8b 45 08	 mov	 eax, DWORD PTR _player$[ebp]
  01dad	8b 08		 mov	 ecx, DWORD PTR [eax]
  01daf	89 51 50	 mov	 DWORD PTR [ecx+80], edx
$LN271@P_MovePlay:

; 6051 : 
; 6052 : 		// Strafing while gliding.
; 6053 : 		leeway = FixedAngle(cmd->sidemove*(FRACUNIT/2));

  01db2	8b 45 f8	 mov	 eax, DWORD PTR _cmd$[ebp]
  01db5	0f be 48 01	 movsx	 ecx, BYTE PTR [eax+1]
  01db9	c1 e1 0f	 shl	 ecx, 15			; 0000000fH
  01dbc	51		 push	 ecx
  01dbd	e8 00 00 00 00	 call	 _FixedAngle
  01dc2	83 c4 04	 add	 esp, 4
  01dc5	89 85 a4 fe ff
	ff		 mov	 DWORD PTR _leeway$93[ebp], eax

; 6054 : 
; 6055 : 		if ((player->mo->eflags & MFE_UNDERWATER))

  01dcb	8b 45 08	 mov	 eax, DWORD PTR _player$[ebp]
  01dce	8b 08		 mov	 ecx, DWORD PTR [eax]
  01dd0	8b 91 84 00 00
	00		 mov	 edx, DWORD PTR [ecx+132]
  01dd6	83 e2 08	 and	 edx, 8
  01dd9	74 40		 je	 SHORT $LN272@P_MovePlay

; 6056 : 			P_InstaThrust(player->mo, player->mo->angle-leeway, (((player->actionspd<<FRACBITS)/2) + player->glidetime*750)/NEWTICRATERATIO);

  01ddb	8b 45 08	 mov	 eax, DWORD PTR _player$[ebp]
  01dde	8b 80 ec 00 00
	00		 mov	 eax, DWORD PTR [eax+236]
  01de4	c1 e0 10	 shl	 eax, 16			; 00000010H
  01de7	99		 cdq
  01de8	2b c2		 sub	 eax, edx
  01dea	d1 f8		 sar	 eax, 1
  01dec	8b 4d 08	 mov	 ecx, DWORD PTR _player$[ebp]
  01def	69 91 20 01 00
	00 ee 02 00 00	 imul	 edx, DWORD PTR [ecx+288], 750
  01df9	03 c2		 add	 eax, edx
  01dfb	50		 push	 eax
  01dfc	8b 45 08	 mov	 eax, DWORD PTR _player$[ebp]
  01dff	8b 08		 mov	 ecx, DWORD PTR [eax]
  01e01	8b 51 24	 mov	 edx, DWORD PTR [ecx+36]
  01e04	2b 95 a4 fe ff
	ff		 sub	 edx, DWORD PTR _leeway$93[ebp]
  01e0a	52		 push	 edx
  01e0b	8b 45 08	 mov	 eax, DWORD PTR _player$[ebp]
  01e0e	8b 08		 mov	 ecx, DWORD PTR [eax]
  01e10	51		 push	 ecx
  01e11	e8 00 00 00 00	 call	 _P_InstaThrust
  01e16	83 c4 0c	 add	 esp, 12			; 0000000cH
  01e19	eb 39		 jmp	 SHORT $LN273@P_MovePlay
$LN272@P_MovePlay:

; 6057 : 		else
; 6058 : 			P_InstaThrust(player->mo, player->mo->angle-leeway, ((player->actionspd<<FRACBITS) + player->glidetime*1500)/NEWTICRATERATIO);

  01e1b	8b 45 08	 mov	 eax, DWORD PTR _player$[ebp]
  01e1e	8b 88 ec 00 00
	00		 mov	 ecx, DWORD PTR [eax+236]
  01e24	c1 e1 10	 shl	 ecx, 16			; 00000010H
  01e27	8b 55 08	 mov	 edx, DWORD PTR _player$[ebp]
  01e2a	69 82 20 01 00
	00 dc 05 00 00	 imul	 eax, DWORD PTR [edx+288], 1500
  01e34	03 c8		 add	 ecx, eax
  01e36	51		 push	 ecx
  01e37	8b 4d 08	 mov	 ecx, DWORD PTR _player$[ebp]
  01e3a	8b 11		 mov	 edx, DWORD PTR [ecx]
  01e3c	8b 42 24	 mov	 eax, DWORD PTR [edx+36]
  01e3f	2b 85 a4 fe ff
	ff		 sub	 eax, DWORD PTR _leeway$93[ebp]
  01e45	50		 push	 eax
  01e46	8b 4d 08	 mov	 ecx, DWORD PTR _player$[ebp]
  01e49	8b 11		 mov	 edx, DWORD PTR [ecx]
  01e4b	52		 push	 edx
  01e4c	e8 00 00 00 00	 call	 _P_InstaThrust
  01e51	83 c4 0c	 add	 esp, 12			; 0000000cH
$LN273@P_MovePlay:

; 6059 : 
; 6060 : 		player->glidetime++;

  01e54	8b 45 08	 mov	 eax, DWORD PTR _player$[ebp]
  01e57	8b 88 20 01 00
	00		 mov	 ecx, DWORD PTR [eax+288]
  01e5d	83 c1 01	 add	 ecx, 1
  01e60	8b 55 08	 mov	 edx, DWORD PTR _player$[ebp]
  01e63	89 8a 20 01 00
	00		 mov	 DWORD PTR [edx+288], ecx

; 6061 : 
; 6062 : 		if (!(player->pflags & PF_JUMPDOWN)) // If not holding the jump button

  01e69	8b 45 08	 mov	 eax, DWORD PTR _player$[ebp]
  01e6c	8b 88 ac 00 00
	00		 mov	 ecx, DWORD PTR [eax+172]
  01e72	83 e1 08	 and	 ecx, 8
  01e75	0f 85 ab 00 00
	00		 jne	 $LN276@P_MovePlay

; 6063 : 		{
; 6064 : 			P_ResetPlayer(player); // down, stop gliding.

  01e7b	8b 45 08	 mov	 eax, DWORD PTR _player$[ebp]
  01e7e	50		 push	 eax
  01e7f	e8 00 00 00 00	 call	 _P_ResetPlayer
  01e84	83 c4 04	 add	 esp, 4

; 6065 : 			if ((player->charability2 == CA2_MULTIABILITY)
; 6066 : 				|| (player->powers[pw_super] && ALL7EMERALDS(player->powers[pw_emeralds]) && player->charability == CA_GLIDEANDCLIMB))

  01e87	8b 45 08	 mov	 eax, DWORD PTR _player$[ebp]
  01e8a	83 b8 dc 00 00
	00 01		 cmp	 DWORD PTR [eax+220], 1
  01e91	74 35		 je	 SHORT $LN277@P_MovePlay
  01e93	b8 04 00 00 00	 mov	 eax, 4
  01e98	6b c8 0f	 imul	 ecx, eax, 15
  01e9b	8b 55 08	 mov	 edx, DWORD PTR _player$[ebp]
  01e9e	83 7c 0a 38 00	 cmp	 DWORD PTR [edx+ecx+56], 0
  01ea3	74 4d		 je	 SHORT $LN275@P_MovePlay
  01ea5	b8 04 00 00 00	 mov	 eax, 4
  01eaa	6b c8 18	 imul	 ecx, eax, 24
  01ead	8b 55 08	 mov	 edx, DWORD PTR _player$[ebp]
  01eb0	8b 44 0a 38	 mov	 eax, DWORD PTR [edx+ecx+56]
  01eb4	83 e0 7f	 and	 eax, 127		; 0000007fH
  01eb7	83 f8 7f	 cmp	 eax, 127		; 0000007fH
  01eba	75 36		 jne	 SHORT $LN275@P_MovePlay
  01ebc	8b 45 08	 mov	 eax, DWORD PTR _player$[ebp]
  01ebf	83 b8 d8 00 00
	00 02		 cmp	 DWORD PTR [eax+216], 2
  01ec6	75 2a		 jne	 SHORT $LN275@P_MovePlay
$LN277@P_MovePlay:

; 6067 : 			{
; 6068 : 				player->pflags |= PF_JUMPED;

  01ec8	8b 45 08	 mov	 eax, DWORD PTR _player$[ebp]
  01ecb	8b 88 ac 00 00
	00		 mov	 ecx, DWORD PTR [eax+172]
  01ed1	81 c9 00 10 00
	00		 or	 ecx, 4096		; 00001000H
  01ed7	8b 55 08	 mov	 edx, DWORD PTR _player$[ebp]
  01eda	89 8a ac 00 00
	00		 mov	 DWORD PTR [edx+172], ecx

; 6069 : 				P_SetPlayerMobjState(player->mo, S_PLAY_ATK1);

  01ee0	6a 0c		 push	 12			; 0000000cH
  01ee2	8b 45 08	 mov	 eax, DWORD PTR _player$[ebp]
  01ee5	8b 08		 mov	 ecx, DWORD PTR [eax]
  01ee7	51		 push	 ecx
  01ee8	e8 00 00 00 00	 call	 _P_SetPlayerMobjState
  01eed	83 c4 08	 add	 esp, 8

; 6070 : 			}

  01ef0	eb 34		 jmp	 SHORT $LN276@P_MovePlay
$LN275@P_MovePlay:

; 6071 : 			else
; 6072 : 			{
; 6073 : 				player->mo->momx >>= 1;

  01ef2	8b 45 08	 mov	 eax, DWORD PTR _player$[ebp]
  01ef5	8b 08		 mov	 ecx, DWORD PTR [eax]
  01ef7	8b 51 48	 mov	 edx, DWORD PTR [ecx+72]
  01efa	d1 fa		 sar	 edx, 1
  01efc	8b 45 08	 mov	 eax, DWORD PTR _player$[ebp]
  01eff	8b 08		 mov	 ecx, DWORD PTR [eax]
  01f01	89 51 48	 mov	 DWORD PTR [ecx+72], edx

; 6074 : 				player->mo->momy >>= 1;

  01f04	8b 45 08	 mov	 eax, DWORD PTR _player$[ebp]
  01f07	8b 08		 mov	 ecx, DWORD PTR [eax]
  01f09	8b 51 4c	 mov	 edx, DWORD PTR [ecx+76]
  01f0c	d1 fa		 sar	 edx, 1
  01f0e	8b 45 08	 mov	 eax, DWORD PTR _player$[ebp]
  01f11	8b 08		 mov	 ecx, DWORD PTR [eax]
  01f13	89 51 4c	 mov	 DWORD PTR [ecx+76], edx

; 6075 : 				P_SetPlayerMobjState(player->mo, S_PLAY_FALL1);

  01f16	6a 27		 push	 39			; 00000027H
  01f18	8b 45 08	 mov	 eax, DWORD PTR _player$[ebp]
  01f1b	8b 08		 mov	 ecx, DWORD PTR [eax]
  01f1d	51		 push	 ecx
  01f1e	e8 00 00 00 00	 call	 _P_SetPlayerMobjState
  01f23	83 c4 08	 add	 esp, 8
$LN276@P_MovePlay:

; 6076 : 			}
; 6077 : 		}
; 6078 : 	}

  01f26	eb 50		 jmp	 SHORT $LN281@P_MovePlay
$LN267@P_MovePlay:

; 6079 : 	else if (player->climbing) // 'Deceleration' for climbing on walls.

  01f28	8b 45 08	 mov	 eax, DWORD PTR _player$[ebp]
  01f2b	83 b8 24 01 00
	00 00		 cmp	 DWORD PTR [eax+292], 0
  01f32	74 44		 je	 SHORT $LN281@P_MovePlay

; 6080 : 	{
; 6081 : 		if (player->mo->momz > 0)

  01f34	8b 45 08	 mov	 eax, DWORD PTR _player$[ebp]
  01f37	8b 08		 mov	 ecx, DWORD PTR [eax]
  01f39	83 79 50 00	 cmp	 DWORD PTR [ecx+80], 0
  01f3d	7e 18		 jle	 SHORT $LN279@P_MovePlay

; 6082 : 			player->mo->momz -= FRACUNIT/(NEWTICRATERATIO*2);

  01f3f	8b 45 08	 mov	 eax, DWORD PTR _player$[ebp]
  01f42	8b 08		 mov	 ecx, DWORD PTR [eax]
  01f44	8b 51 50	 mov	 edx, DWORD PTR [ecx+80]
  01f47	81 ea 00 80 00
	00		 sub	 edx, 32768		; 00008000H
