; Listing generated by Microsoft (R) Optimizing Compiler Version 19.41.34123.0 

	TITLE	C:\Users\RafaTheFox\Downloads\SRB2-Public-master\objs\VC10\Win32\Debug\r_splats.obj
	.686P
	.XMM
	include listing.inc
	.model	flat

INCLUDELIB LIBCMTD
INCLUDELIB OLDNAMES

_DATA	SEGMENT
COMM	_ATTRPACK:DWORD
COMM	_prastertab:DWORD
_DATA	ENDS
PUBLIC	_R_ClearLevelSplats
; Function compile flags: /Odtp /ZI
; File C:\Users\RafaTheFox\Downloads\SRB2-Public-master\src\r_splats.c
;	COMDAT _R_ClearLevelSplats
_TEXT	SEGMENT
_R_ClearLevelSplats PROC				; COMDAT

; 56   : {

  00000	55		 push	 ebp
  00001	8b ec		 mov	 ebp, esp
  00003	83 ec 40	 sub	 esp, 64			; 00000040H
  00006	53		 push	 ebx
  00007	56		 push	 esi
  00008	57		 push	 edi

; 57   : #ifdef WALLSPLATS
; 58   : 	freewallsplat = 0;
; 59   : 	memset(wallsplats, 0, sizeof (wallsplats));
; 60   : #endif
; 61   : #ifdef FLOORSPLATS
; 62   : 	freefloorsplat = 0;
; 63   : 	memset(floorsplats, 0, sizeof (floorsplats));
; 64   : 
; 65   : 	// setup to draw floorsplats
; 66   : 	prastertab = rastertab;
; 67   : 	prepare_rastertab();
; 68   : #endif
; 69   : }

  00009	5f		 pop	 edi
  0000a	5e		 pop	 esi
  0000b	5b		 pop	 ebx
  0000c	8b e5		 mov	 esp, ebp
  0000e	5d		 pop	 ebp
  0000f	c3		 ret	 0
_R_ClearLevelSplats ENDP
_TEXT	ENDS
END
