; Listing generated by Microsoft (R) Optimizing Compiler Version 19.41.34123.0 

	TITLE	C:\Users\RafaTheFox\Desktop\SRB2-Public-master (1)\SRB2-Public-master\objs\VC10\Win32\Debug\sounds.obj
	.686P
	.XMM
	include listing.inc
	.model	flat

INCLUDELIB LIBCMTD
INCLUDELIB OLDNAMES

PUBLIC	_S_sfx
PUBLIC	_S_music
PUBLIC	??_C@_06LHFJFDHI@map01m@			; `string'
PUBLIC	??_C@_06LFBPONCB@map02m@			; `string'
PUBLIC	??_C@_06LENNIHBG@map03m@			; `string'
PUBLIC	??_C@_06LBJCJBJD@map04m@			; `string'
PUBLIC	??_C@_06LAFAPLKE@map05m@			; `string'
PUBLIC	??_C@_06LCBGEFPN@map06m@			; `string'
PUBLIC	??_C@_06LDNECPMK@map07m@			; `string'
PUBLIC	??_C@_06LIIIGIPH@map08m@			; `string'
PUBLIC	??_C@_06LJEKACMA@map09m@			; `string'
PUBLIC	??_C@_06OCHFOCK@map10m@				; `string'
PUBLIC	??_C@_06POFDEBN@map11m@				; `string'
PUBLIC	??_C@_06NKDIKEE@map12m@				; `string'
PUBLIC	??_C@_06MGBOAHD@map13m@				; `string'
PUBLIC	??_C@_06JCOPGPG@map14m@				; `string'
PUBLIC	??_C@_06IOMJMMB@map15m@				; `string'
PUBLIC	??_C@_06KKKCCJI@map16m@				; `string'
PUBLIC	??_C@_06LGIEIKP@map17m@				; `string'
PUBLIC	??_C@_06DEAPJC@map18m@				; `string'
PUBLIC	??_C@_06BPGGFKF@map19m@				; `string'
PUBLIC	??_C@_06BMJCPBME@map20m@			; `string'
PUBLIC	??_C@_06BNFAJLPD@map21m@			; `string'
PUBLIC	??_C@_06BPBGCFKK@map22m@			; `string'
PUBLIC	??_C@_06BONEEPJN@map23m@			; `string'
PUBLIC	??_C@_06BLJLFJBI@map24m@			; `string'
PUBLIC	??_C@_06BKFJDDCP@map25m@			; `string'
PUBLIC	??_C@_06BIBPINHG@map26m@			; `string'
PUBLIC	??_C@_06BJNNOHEB@map27m@			; `string'
PUBLIC	??_C@_06BCIBKAHM@map28m@			; `string'
PUBLIC	??_C@_06BDEDMKEL@map29m@			; `string'
PUBLIC	??_C@_06KECOJGKB@map30m@			; `string'
PUBLIC	??_C@_06KFOMPMJG@map31m@			; `string'
PUBLIC	??_C@_06KHKKECMP@map32m@			; `string'
PUBLIC	??_C@_06KGGICIPI@map33m@			; `string'
PUBLIC	??_C@_06KDCHDOHN@map34m@			; `string'
PUBLIC	??_C@_06KCOFFEEK@map35m@			; `string'
PUBLIC	??_C@_06KAKDOKBD@map36m@			; `string'
PUBLIC	??_C@_06KBGBIACE@map37m@			; `string'
PUBLIC	??_C@_06KKDNMHBJ@map38m@			; `string'
PUBLIC	??_C@_06KLPPKNCO@map39m@			; `string'
PUBLIC	??_C@_06DJPJKOBI@map40m@			; `string'
PUBLIC	??_C@_06DIDLMECP@map41m@			; `string'
PUBLIC	??_C@_06DKHNHKHG@map42m@			; `string'
PUBLIC	??_C@_06DLLPBAEB@map43m@			; `string'
PUBLIC	??_C@_06DOPAAGME@map44m@			; `string'
PUBLIC	??_C@_06DPDCGMPD@map45m@			; `string'
PUBLIC	??_C@_06DNHENCKK@map46m@			; `string'
PUBLIC	??_C@_06DMLGLIJN@map47m@			; `string'
PUBLIC	??_C@_06DHOKPPKA@map48m@			; `string'
PUBLIC	??_C@_06DGCIJFJH@map49m@			; `string'
PUBLIC	??_C@_06IBEFMJHN@map50m@			; `string'
PUBLIC	??_C@_06IAIHKDEK@map51m@			; `string'
PUBLIC	??_C@_06ICMBBNBD@map52m@			; `string'
PUBLIC	??_C@_06IDADHHCE@map53m@			; `string'
PUBLIC	??_C@_06IGEMGBKB@map54m@			; `string'
PUBLIC	??_C@_06IHIOALJG@map55m@			; `string'
PUBLIC	??_C@_06IFMILFMP@map56m@			; `string'
PUBLIC	??_C@_06IEAKNPPI@map57m@			; `string'
PUBLIC	??_C@_06IPFGJIMF@map58m@			; `string'
PUBLIC	??_C@_06IOJEPCPC@map59m@			; `string'
PUBLIC	??_C@_06JDPAGGJD@map60m@			; `string'
PUBLIC	??_C@_06JCDCAMKE@map61m@			; `string'
PUBLIC	??_C@_06JAHELCPN@map62m@			; `string'
PUBLIC	??_C@_06JBLGNIMK@map63m@			; `string'
PUBLIC	??_C@_06JEPJMOEP@map64m@			; `string'
PUBLIC	??_C@_06JFDLKEHI@map65m@			; `string'
PUBLIC	??_C@_06JHHNBKCB@map66m@			; `string'
PUBLIC	??_C@_06JGLPHABG@map67m@			; `string'
PUBLIC	??_C@_06JNODDHCL@map68m@			; `string'
PUBLIC	??_C@_06JMCBFNBM@map69m@			; `string'
PUBLIC	??_C@_06CLEMABPG@map70m@			; `string'
PUBLIC	??_C@_06CKIOGLMB@map71m@			; `string'
PUBLIC	??_C@_06CIMINFJI@map72m@			; `string'
PUBLIC	??_C@_06CJAKLPKP@map73m@			; `string'
PUBLIC	??_C@_06CMEFKJCK@map74m@			; `string'
PUBLIC	??_C@_06CNIHMDBN@map75m@			; `string'
PUBLIC	??_C@_06CPMBHNEE@map76m@			; `string'
PUBLIC	??_C@_06COADBHHD@map77m@			; `string'
PUBLIC	??_C@_06CFFPFAEO@map78m@			; `string'
PUBLIC	??_C@_06CEJNDKHJ@map79m@			; `string'
PUBLIC	??_C@_06HDCPBBKA@map80m@			; `string'
PUBLIC	??_C@_06HCONHLJH@map81m@			; `string'
PUBLIC	??_C@_06HAKLMFMO@map82m@			; `string'
PUBLIC	??_C@_06HBGJKPPJ@map83m@			; `string'
PUBLIC	??_C@_06HECGLJHM@map84m@			; `string'
PUBLIC	??_C@_06HFOENDEL@map85m@			; `string'
PUBLIC	??_C@_06HHKCGNBC@map86m@			; `string'
PUBLIC	??_C@_06HGGAAHCF@map87m@			; `string'
PUBLIC	??_C@_06HNDMEABI@map88m@			; `string'
PUBLIC	??_C@_06HMPOCKCP@map89m@			; `string'
PUBLIC	??_C@_06MLJDHGMF@map90m@			; `string'
PUBLIC	??_C@_06MKFBBMPC@map91m@			; `string'
PUBLIC	??_C@_06MIBHKCKL@map92m@			; `string'
PUBLIC	??_C@_06MJNFMIJM@map93m@			; `string'
PUBLIC	??_C@_06MMJKNOBJ@map94m@			; `string'
PUBLIC	??_C@_06MNFILECO@map95m@			; `string'
PUBLIC	??_C@_06MPBOAKHH@map96m@			; `string'
PUBLIC	??_C@_06MONMGAEA@map97m@			; `string'
PUBLIC	??_C@_06MFIACHHN@map98m@			; `string'
PUBLIC	??_C@_06MEECENEK@map99m@			; `string'
PUBLIC	??_C@_06MFCKFBII@mapa0m@			; `string'
PUBLIC	??_C@_06MEOIDLLP@mapa1m@			; `string'
PUBLIC	??_C@_06MGKOIFOG@mapa2m@			; `string'
PUBLIC	??_C@_06MHGMOPNB@mapa3m@			; `string'
PUBLIC	??_C@_06MCCDPJFE@mapa4m@			; `string'
PUBLIC	??_C@_06MDOBJDGD@mapa5m@			; `string'
PUBLIC	??_C@_06MBKHCNDK@mapa6m@			; `string'
PUBLIC	??_C@_06MAGFEHAN@mapa7m@			; `string'
PUBLIC	??_C@_06MLDJAADA@mapa8m@			; `string'
PUBLIC	??_C@_06MKPLGKAH@mapa9m@			; `string'
PUBLIC	??_C@_06KIFEBFAP@mapaam@			; `string'
PUBLIC	??_C@_06KKBCKLFG@mapabm@			; `string'
PUBLIC	??_C@_06KLNAMBGB@mapacm@			; `string'
PUBLIC	??_C@_06KOJPNHOE@mapadm@			; `string'
PUBLIC	??_C@_06KPFNLNND@mapaem@			; `string'
PUBLIC	??_C@_06KNBLADIK@mapafm@			; `string'
PUBLIC	??_C@_06KMNJGJLN@mapagm@			; `string'
PUBLIC	??_C@_06KHIFCOIA@mapahm@			; `string'
PUBLIC	??_C@_06KGEHEELH@mapaim@			; `string'
PUBLIC	??_C@_06KEABPKOO@mapajm@			; `string'
PUBLIC	??_C@_06KFMDJANJ@mapakm@			; `string'
PUBLIC	??_C@_06KAIMIGFM@mapalm@			; `string'
PUBLIC	??_C@_06KBEOOMGL@mapamm@			; `string'
PUBLIC	??_C@_06KDAIFCDC@mapanm@			; `string'
PUBLIC	??_C@_06KCMKDIAF@mapaom@			; `string'
PUBLIC	??_C@_06LFLANMEI@mapapm@			; `string'
PUBLIC	??_C@_06LEHCLGHP@mapaqm@			; `string'
PUBLIC	??_C@_06LGDEAICG@maparm@			; `string'
PUBLIC	??_C@_06LHPGGCBB@mapasm@			; `string'
PUBLIC	??_C@_06LCLJHEJE@mapatm@			; `string'
PUBLIC	??_C@_06LDHLBOKD@mapaum@			; `string'
PUBLIC	??_C@_06LBDNKAPK@mapavm@			; `string'
PUBLIC	??_C@_06LAPPMKMN@mapawm@			; `string'
PUBLIC	??_C@_06LLKDINPA@mapaxm@			; `string'
PUBLIC	??_C@_06LKGBOHMH@mapaym@			; `string'
PUBLIC	??_C@_06LICHFJJO@mapazm@			; `string'
PUBLIC	??_C@_06NHJPPOGG@mapb0m@			; `string'
PUBLIC	??_C@_06NGFNJEFB@mapb1m@			; `string'
PUBLIC	??_C@_06NEBLCKAI@mapb2m@			; `string'
PUBLIC	??_C@_06NFNJEADP@mapb3m@			; `string'
PUBLIC	??_C@_06NAJGFGLK@mapb4m@			; `string'
PUBLIC	??_C@_06NBFEDMIN@mapb5m@			; `string'
PUBLIC	??_C@_06NDBCICNE@mapb6m@			; `string'
PUBLIC	??_C@_06NCNAOIOD@mapb7m@			; `string'
PUBLIC	??_C@_06NJIMKPNO@mapb8m@			; `string'
PUBLIC	??_C@_06NIEOMFOJ@mapb9m@			; `string'
PUBLIC	??_C@_06LKOBLKOB@mapbam@			; `string'
PUBLIC	??_C@_06LIKHAELI@mapbbm@			; `string'
PUBLIC	??_C@_06LJGFGOIP@mapbcm@			; `string'
PUBLIC	??_C@_06LMCKHIAK@mapbdm@			; `string'
PUBLIC	??_C@_06LNOIBCDN@mapbem@			; `string'
PUBLIC	??_C@_06LPKOKMGE@mapbfm@			; `string'
PUBLIC	??_C@_06LOGMMGFD@mapbgm@			; `string'
PUBLIC	??_C@_06LFDAIBGO@mapbhm@			; `string'
PUBLIC	??_C@_06LEPCOLFJ@mapbim@			; `string'
PUBLIC	??_C@_06LGLEFFAA@mapbjm@			; `string'
PUBLIC	??_C@_06LHHGDPDH@mapbkm@			; `string'
PUBLIC	??_C@_06LCDJCJLC@mapblm@			; `string'
PUBLIC	??_C@_06LDPLEDIF@mapbmm@			; `string'
PUBLIC	??_C@_06LBLNPNNM@mapbnm@			; `string'
PUBLIC	??_C@_06LAHPJHOL@mapbom@			; `string'
PUBLIC	??_C@_06KHAFHDKG@mapbpm@			; `string'
PUBLIC	??_C@_06KGMHBJJB@mapbqm@			; `string'
PUBLIC	??_C@_06KEIBKHMI@mapbrm@			; `string'
PUBLIC	??_C@_06KFEDMNPP@mapbsm@			; `string'
PUBLIC	??_C@_06KAAMNLHK@mapbtm@			; `string'
PUBLIC	??_C@_06KBMOLBEN@mapbum@			; `string'
PUBLIC	??_C@_06KDIIAPBE@mapbvm@			; `string'
PUBLIC	??_C@_06KCEKGFCD@mapbwm@			; `string'
PUBLIC	??_C@_06KJBGCCBO@mapbxm@			; `string'
PUBLIC	??_C@_06KINEEICJ@mapbym@			; `string'
PUBLIC	??_C@_06KKJCPGHA@mapbzm@			; `string'
PUBLIC	??_C@_06GPCDJJAD@mapc0m@			; `string'
PUBLIC	??_C@_06GOOBPDDE@mapc1m@			; `string'
PUBLIC	??_C@_06GMKHENGN@mapc2m@			; `string'
PUBLIC	??_C@_06GNGFCHFK@mapc3m@			; `string'
PUBLIC	??_C@_06GICKDBNP@mapc4m@			; `string'
PUBLIC	??_C@_06GJOIFLOI@mapc5m@			; `string'
PUBLIC	??_C@_06GLKOOFLB@mapc6m@			; `string'
PUBLIC	??_C@_06GKGMIPIG@mapc7m@			; `string'
PUBLIC	??_C@_06GBDAMILL@mapc8m@			; `string'
PUBLIC	??_C@_06GAPCKCIM@mapc9m@			; `string'
PUBLIC	??_C@_06CFNNNIE@mapcam@				; `string'
PUBLIC	??_C@_06BLGDNN@mapcbm@				; `string'
PUBLIC	??_C@_06BNJAJOK@mapccm@				; `string'
PUBLIC	??_C@_06EJGBPGP@mapcdm@				; `string'
PUBLIC	??_C@_06FFEHFFI@mapcem@				; `string'
PUBLIC	??_C@_06HBCMLAB@mapcfm@				; `string'
PUBLIC	??_C@_06GNAKBDG@mapcgm@				; `string'
PUBLIC	??_C@_06NIMOGAL@mapchm@				; `string'
PUBLIC	??_C@_06MEOIMDM@mapcim@				; `string'
PUBLIC	??_C@_06OAIDCGF@mapcjm@				; `string'
PUBLIC	??_C@_06PMKFIFC@mapckm@				; `string'
PUBLIC	??_C@_06KIFEONH@mapclm@				; `string'
PUBLIC	??_C@_06LEHCEOA@mapcmm@				; `string'
PUBLIC	??_C@_06JABJKLJ@mapcnm@				; `string'
PUBLIC	??_C@_06IMDPAIO@mapcom@				; `string'
PUBLIC	??_C@_06BPLJBEMD@mapcpm@			; `string'
PUBLIC	??_C@_06BOHLHOPE@mapcqm@			; `string'
PUBLIC	??_C@_06BMDNMAKN@mapcrm@			; `string'
PUBLIC	??_C@_06BNPPKKJK@mapcsm@			; `string'
PUBLIC	??_C@_06BILALMBP@mapctm@			; `string'
PUBLIC	??_C@_06BJHCNGCI@mapcum@			; `string'
PUBLIC	??_C@_06BLDEGIHB@mapcvm@			; `string'
PUBLIC	??_C@_06BKPGACEG@mapcwm@			; `string'
PUBLIC	??_C@_06BBKKEFHL@mapcxm@			; `string'
PUBLIC	??_C@_06BAGICPEM@mapcym@			; `string'
PUBLIC	??_C@_06BCCOJBBF@mapczm@			; `string'
PUBLIC	??_C@_06PCPEKBLK@mapd0m@			; `string'
PUBLIC	??_C@_06PDDGMLIN@mapd1m@			; `string'
PUBLIC	??_C@_06PBHAHFNE@mapd2m@			; `string'
PUBLIC	??_C@_06PALCBPOD@mapd3m@			; `string'
PUBLIC	??_C@_06PFPNAJGG@mapd4m@			; `string'
PUBLIC	??_C@_06PEDPGDFB@mapd5m@			; `string'
PUBLIC	??_C@_06PGHJNNAI@mapd6m@			; `string'
PUBLIC	??_C@_06PHLLLHDP@mapd7m@			; `string'
PUBLIC	??_C@_06PMOHPAAC@mapd8m@			; `string'
PUBLIC	??_C@_06PNCFJKDF@mapd9m@			; `string'
PUBLIC	??_C@_06JPIKOFDN@mapdam@			; `string'
PUBLIC	??_C@_06JNMMFLGE@mapdbm@			; `string'
PUBLIC	??_C@_06JMAODBFD@mapdcm@			; `string'
PUBLIC	??_C@_06JJEBCHNG@mapddm@			; `string'
PUBLIC	??_C@_06JIIDENOB@mapdem@			; `string'
PUBLIC	??_C@_06JKMFPDLI@mapdfm@			; `string'
PUBLIC	??_C@_06JLAHJJIP@mapdgm@			; `string'
PUBLIC	??_C@_06JAFLNOLC@mapdhm@			; `string'
PUBLIC	??_C@_06JBJJLEIF@mapdim@			; `string'
PUBLIC	??_C@_06JDNPAKNM@mapdjm@			; `string'
PUBLIC	??_C@_06JCBNGAOL@mapdkm@			; `string'
PUBLIC	??_C@_06JHFCHGGO@mapdlm@			; `string'
PUBLIC	??_C@_06JGJABMFJ@mapdmm@			; `string'
PUBLIC	??_C@_06JENGKCAA@mapdnm@			; `string'
PUBLIC	??_C@_06JFBEMIDH@mapdom@			; `string'
PUBLIC	??_C@_06ICGOCMHK@mapdpm@			; `string'
PUBLIC	??_C@_06IDKMEGEN@mapdqm@			; `string'
PUBLIC	??_C@_06IBOKPIBE@mapdrm@			; `string'
PUBLIC	??_C@_06IACIJCCD@mapdsm@			; `string'
PUBLIC	??_C@_06IFGHIEKG@mapdtm@			; `string'
PUBLIC	??_C@_06IEKFOOJB@mapdum@			; `string'
PUBLIC	??_C@_06IGODFAMI@mapdvm@			; `string'
PUBLIC	??_C@_06IHCBDKPP@mapdwm@			; `string'
PUBLIC	??_C@_06IMHNHNMC@mapdxm@			; `string'
PUBLIC	??_C@_06INLPBHPF@mapdym@			; `string'
PUBLIC	??_C@_06IPPJKJKM@mapdzm@			; `string'
PUBLIC	??_C@_06EKEIMGNP@mape0m@			; `string'
PUBLIC	??_C@_06ELIKKMOI@mape1m@			; `string'
PUBLIC	??_C@_06EJMMBCLB@mape2m@			; `string'
PUBLIC	??_C@_06EIAOHIIG@mape3m@			; `string'
PUBLIC	??_C@_06ENEBGOAD@mape4m@			; `string'
PUBLIC	??_C@_06EMIDAEDE@mape5m@			; `string'
PUBLIC	??_C@_06EOMFLKGN@mape6m@			; `string'
PUBLIC	??_C@_06EPAHNAFK@mape7m@			; `string'
PUBLIC	??_C@_06EEFLJHGH@mape8m@			; `string'
PUBLIC	??_C@_06EFJJPNFA@mape9m@			; `string'
PUBLIC	??_C@_06CHDGICFI@mapeam@			; `string'
PUBLIC	??_C@_06CFHADMAB@mapebm@			; `string'
PUBLIC	??_C@_06CELCFGDG@mapecm@			; `string'
PUBLIC	??_C@_06CBPNEALD@mapedm@			; `string'
PUBLIC	??_C@_06CADPCKIE@mapeem@			; `string'
PUBLIC	??_C@_06CCHJJENN@mapefm@			; `string'
PUBLIC	??_C@_06CDLLPOOK@mapegm@			; `string'
PUBLIC	??_C@_06CIOHLJNH@mapehm@			; `string'
PUBLIC	??_C@_06CJCFNDOA@mapeim@			; `string'
PUBLIC	??_C@_06CLGDGNLJ@mapejm@			; `string'
PUBLIC	??_C@_06CKKBAHIO@mapekm@			; `string'
PUBLIC	??_C@_06CPOOBBAL@mapelm@			; `string'
PUBLIC	??_C@_06COCMHLDM@mapemm@			; `string'
PUBLIC	??_C@_06CMGKMFGF@mapenm@			; `string'
PUBLIC	??_C@_06CNKIKPFC@mapeom@			; `string'
PUBLIC	??_C@_06DKNCELBP@mapepm@			; `string'
PUBLIC	??_C@_06DLBACBCI@mapeqm@			; `string'
PUBLIC	??_C@_06DJFGJPHB@maperm@			; `string'
PUBLIC	??_C@_06DIJEPFEG@mapesm@			; `string'
PUBLIC	??_C@_06DNNLODMD@mapetm@			; `string'
PUBLIC	??_C@_06DMBJIJPE@mapeum@			; `string'
PUBLIC	??_C@_06DOFPDHKN@mapevm@			; `string'
PUBLIC	??_C@_06DPJNFNJK@mapewm@			; `string'
PUBLIC	??_C@_06DEMBBKKH@mapexm@			; `string'
PUBLIC	??_C@_06DFADHAJA@mapeym@			; `string'
PUBLIC	??_C@_06DHEFMOMJ@mapezm@			; `string'
PUBLIC	??_C@_06FIPNGJDB@mapf0m@			; `string'
PUBLIC	??_C@_06FJDPADAG@mapf1m@			; `string'
PUBLIC	??_C@_06FLHJLNFP@mapf2m@			; `string'
PUBLIC	??_C@_06FKLLNHGI@mapf3m@			; `string'
PUBLIC	??_C@_06FPPEMBON@mapf4m@			; `string'
PUBLIC	??_C@_06FODGKLNK@mapf5m@			; `string'
PUBLIC	??_C@_06FMHABFID@mapf6m@			; `string'
PUBLIC	??_C@_06FNLCHPLE@mapf7m@			; `string'
PUBLIC	??_C@_06FGOODIIJ@mapf8m@			; `string'
PUBLIC	??_C@_06FHCMFCLO@mapf9m@			; `string'
PUBLIC	??_C@_06DFIDCNLG@mapfam@			; `string'
PUBLIC	??_C@_06DHMFJDOP@mapfbm@			; `string'
PUBLIC	??_C@_06DGAHPJNI@mapfcm@			; `string'
PUBLIC	??_C@_06DDEIOPFN@mapfdm@			; `string'
PUBLIC	??_C@_06DCIKIFGK@mapfem@			; `string'
PUBLIC	??_C@_06DAMMDLDD@mapffm@			; `string'
PUBLIC	??_C@_06DBAOFBAE@mapfgm@			; `string'
PUBLIC	??_C@_06DKFCBGDJ@mapfhm@			; `string'
PUBLIC	??_C@_06DLJAHMAO@mapfim@			; `string'
PUBLIC	??_C@_06DJNGMCFH@mapfjm@			; `string'
PUBLIC	??_C@_06DIBEKIGA@mapfkm@			; `string'
PUBLIC	??_C@_06DNFLLOOF@mapflm@			; `string'
PUBLIC	??_C@_06DMJJNENC@mapfmm@			; `string'
PUBLIC	??_C@_06DONPGKIL@mapfnm@			; `string'
PUBLIC	??_C@_06DPBNAALM@mapfom@			; `string'
PUBLIC	??_C@_06CIGHOEPB@mapfpm@			; `string'
PUBLIC	??_C@_06CJKFIOMG@mapfqm@			; `string'
PUBLIC	??_C@_06CLODDAJP@mapfrm@			; `string'
PUBLIC	??_C@_06CKCBFKKI@mapfsm@			; `string'
PUBLIC	??_C@_06CPGOEMCN@mapftm@			; `string'
PUBLIC	??_C@_06COKMCGBK@mapfum@			; `string'
PUBLIC	??_C@_06CMOKJIED@mapfvm@			; `string'
PUBLIC	??_C@_06CNCIPCHE@mapfwm@			; `string'
PUBLIC	??_C@_06CGHELFEJ@mapfxm@			; `string'
PUBLIC	??_C@_06CHLGNPHO@mapfym@			; `string'
PUBLIC	??_C@_06CFPAGBCH@mapfzm@			; `string'
PUBLIC	??_C@_06OAEBAOFE@mapg0m@			; `string'
PUBLIC	??_C@_06OBIDGEGD@mapg1m@			; `string'
PUBLIC	??_C@_06ODMFNKDK@mapg2m@			; `string'
PUBLIC	??_C@_06OCAHLAAN@mapg3m@			; `string'
PUBLIC	??_C@_06OHEIKGII@mapg4m@			; `string'
PUBLIC	??_C@_06OGIKMMLP@mapg5m@			; `string'
PUBLIC	??_C@_06OEMMHCOG@mapg6m@			; `string'
PUBLIC	??_C@_06OFAOBINB@mapg7m@			; `string'
PUBLIC	??_C@_06OOFCFPOM@mapg8m@			; `string'
PUBLIC	??_C@_06OPJADFNL@mapg9m@			; `string'
PUBLIC	??_C@_06INDPEKND@mapgam@			; `string'
PUBLIC	??_C@_06IPHJPEIK@mapgbm@			; `string'
PUBLIC	??_C@_06IOLLJOLN@mapgcm@			; `string'
PUBLIC	??_C@_06ILPEIIDI@mapgdm@			; `string'
PUBLIC	??_C@_06IKDGOCAP@mapgem@			; `string'
PUBLIC	??_C@_06IIHAFMFG@mapgfm@			; `string'
PUBLIC	??_C@_06IJLCDGGB@mapggm@			; `string'
PUBLIC	??_C@_06ICOOHBFM@mapghm@			; `string'
PUBLIC	??_C@_06IDCMBLGL@mapgim@			; `string'
PUBLIC	??_C@_06IBGKKFDC@mapgjm@			; `string'
PUBLIC	??_C@_06IAKIMPAF@mapgkm@			; `string'
PUBLIC	??_C@_06IFOHNJIA@mapglm@			; `string'
PUBLIC	??_C@_06IECFLDLH@mapgmm@			; `string'
PUBLIC	??_C@_06IGGDANOO@mapgnm@			; `string'
PUBLIC	??_C@_06IHKBGHNJ@mapgom@			; `string'
PUBLIC	??_C@_06JANLIDJE@mapgpm@			; `string'
PUBLIC	??_C@_06JBBJOJKD@mapgqm@			; `string'
PUBLIC	??_C@_06JDFPFHPK@mapgrm@			; `string'
PUBLIC	??_C@_06JCJNDNMN@mapgsm@			; `string'
PUBLIC	??_C@_06JHNCCLEI@mapgtm@			; `string'
PUBLIC	??_C@_06JGBAEBHP@mapgum@			; `string'
PUBLIC	??_C@_06JEFGPPCG@mapgvm@			; `string'
PUBLIC	??_C@_06JFJEJFBB@mapgwm@			; `string'
PUBLIC	??_C@_06JOMINCCM@mapgxm@			; `string'
PUBLIC	??_C@_06JPAKLIBL@mapgym@			; `string'
PUBLIC	??_C@_06JNEMAGEC@mapgzm@			; `string'
PUBLIC	??_C@_06LICCBOAC@maph0m@			; `string'
PUBLIC	??_C@_06LJOAHEDF@maph1m@			; `string'
PUBLIC	??_C@_06LLKGMKGM@maph2m@			; `string'
PUBLIC	??_C@_06LKGEKAFL@maph3m@			; `string'
PUBLIC	??_C@_06LPCLLGNO@maph4m@			; `string'
PUBLIC	??_C@_06LOOJNMOJ@maph5m@			; `string'
PUBLIC	??_C@_06LMKPGCLA@maph6m@			; `string'
PUBLIC	??_C@_06LNGNAIIH@maph7m@			; `string'
PUBLIC	??_C@_06LGDBEPLK@maph8m@			; `string'
PUBLIC	??_C@_06LHPDCFIN@maph9m@			; `string'
PUBLIC	??_C@_06NFFMFKIF@mapham@			; `string'
PUBLIC	??_C@_06NHBKOENM@maphbm@			; `string'
PUBLIC	??_C@_06NGNIIOOL@maphcm@			; `string'
PUBLIC	??_C@_06NDJHJIGO@maphdm@			; `string'
PUBLIC	??_C@_06NCFFPCFJ@maphem@			; `string'
PUBLIC	??_C@_06NABDEMAA@maphfm@			; `string'
PUBLIC	??_C@_06NBNBCGDH@maphgm@			; `string'
PUBLIC	??_C@_06NKINGBAK@maphhm@			; `string'
PUBLIC	??_C@_06NLEPALDN@maphim@			; `string'
PUBLIC	??_C@_06NJAJLFGE@maphjm@			; `string'
PUBLIC	??_C@_06NIMLNPFD@maphkm@			; `string'
PUBLIC	??_C@_06NNIEMJNG@maphlm@			; `string'
PUBLIC	??_C@_06NMEGKDOB@maphmm@			; `string'
PUBLIC	??_C@_06NOAABNLI@maphnm@			; `string'
PUBLIC	??_C@_06NPMCHHIP@maphom@			; `string'
PUBLIC	??_C@_06MILIJDMC@maphpm@			; `string'
PUBLIC	??_C@_06MJHKPJPF@maphqm@			; `string'
PUBLIC	??_C@_06MLDMEHKM@maphrm@			; `string'
PUBLIC	??_C@_06MKPOCNJL@maphsm@			; `string'
PUBLIC	??_C@_06MPLBDLBO@maphtm@			; `string'
PUBLIC	??_C@_06MOHDFBCJ@maphum@			; `string'
PUBLIC	??_C@_06MMDFOPHA@maphvm@			; `string'
PUBLIC	??_C@_06MNPHIFEH@maphwm@			; `string'
PUBLIC	??_C@_06MGKLMCHK@maphxm@			; `string'
PUBLIC	??_C@_06MHGJKIEN@maphym@			; `string'
PUBLIC	??_C@_06MFCPBGBE@maphzm@			; `string'
PUBLIC	??_C@_06JOHJGH@mapi0m@				; `string'
PUBLIC	??_C@_06BFMBDFA@mapi1m@				; `string'
PUBLIC	??_C@_06DBKKNAJ@mapi2m@				; `string'
PUBLIC	??_C@_06CNIMHDO@mapi3m@				; `string'
PUBLIC	??_C@_06HJHNBLL@mapi4m@				; `string'
PUBLIC	??_C@_06GFFLLIM@mapi5m@				; `string'
PUBLIC	??_C@_06EBDAFNF@mapi6m@				; `string'
PUBLIC	??_C@_06FNBGPOC@mapi7m@				; `string'
PUBLIC	??_C@_06OINCINP@mapi8m@				; `string'
PUBLIC	??_C@_06PEPECOI@mapi9m@				; `string'
PUBLIC	??_C@_06GNOADNOA@mapiam@			; `string'
PUBLIC	??_C@_06GPKGIDLJ@mapibm@			; `string'
PUBLIC	??_C@_06GOGEOJIO@mapicm@			; `string'
PUBLIC	??_C@_06GLCLPPAL@mapidm@			; `string'
PUBLIC	??_C@_06GKOJJFDM@mapiem@			; `string'
PUBLIC	??_C@_06GIKPCLGF@mapifm@			; `string'
PUBLIC	??_C@_06GJGNEBFC@mapigm@			; `string'
PUBLIC	??_C@_06GCDBAGGP@mapihm@			; `string'
PUBLIC	??_C@_06GDPDGMFI@mapiim@			; `string'
PUBLIC	??_C@_06GBLFNCAB@mapijm@			; `string'
PUBLIC	??_C@_06GAHHLIDG@mapikm@			; `string'
PUBLIC	??_C@_06GFDIKOLD@mapilm@			; `string'
PUBLIC	??_C@_06GEPKMEIE@mapimm@			; `string'
PUBLIC	??_C@_06GGLMHKNN@mapinm@			; `string'
PUBLIC	??_C@_06GHHOBAOK@mapiom@			; `string'
PUBLIC	??_C@_06HAAEPEKH@mapipm@			; `string'
PUBLIC	??_C@_06HBMGJOJA@mapiqm@			; `string'
PUBLIC	??_C@_06HDIACAMJ@mapirm@			; `string'
PUBLIC	??_C@_06HCECEKPO@mapism@			; `string'
PUBLIC	??_C@_06HHANFMHL@mapitm@			; `string'
PUBLIC	??_C@_06HGMPDGEM@mapium@			; `string'
PUBLIC	??_C@_06HEIJIIBF@mapivm@			; `string'
PUBLIC	??_C@_06HFELOCCC@mapiwm@			; `string'
PUBLIC	??_C@_06HOBHKFBP@mapixm@			; `string'
PUBLIC	??_C@_06HPNFMPCI@mapiym@			; `string'
PUBLIC	??_C@_06HNJDHBHB@mapizm@			; `string'
PUBLIC	??_C@_06BCCLNGIJ@mapj0m@			; `string'
PUBLIC	??_C@_06BDOJLMLO@mapj1m@			; `string'
PUBLIC	??_C@_06BBKPACOH@mapj2m@			; `string'
PUBLIC	??_C@_06BAGNGINA@mapj3m@			; `string'
PUBLIC	??_C@_06BFCCHOFF@mapj4m@			; `string'
PUBLIC	??_C@_06BEOABEGC@mapj5m@			; `string'
PUBLIC	??_C@_06BGKGKKDL@mapj6m@			; `string'
PUBLIC	??_C@_06BHGEMAAM@mapj7m@			; `string'
PUBLIC	??_C@_06BMDIIHDB@mapj8m@			; `string'
PUBLIC	??_C@_06BNPKONAG@mapj9m@			; `string'
PUBLIC	??_C@_06HPFFJCAO@mapjam@			; `string'
PUBLIC	??_C@_06HNBDCMFH@mapjbm@			; `string'
PUBLIC	??_C@_06HMNBEGGA@mapjcm@			; `string'
PUBLIC	??_C@_06HJJOFAOF@mapjdm@			; `string'
PUBLIC	??_C@_06HIFMDKNC@mapjem@			; `string'
PUBLIC	??_C@_06HKBKIEIL@mapjfm@			; `string'
PUBLIC	??_C@_06HLNIOOLM@mapjgm@			; `string'
PUBLIC	??_C@_06HAIEKJIB@mapjhm@			; `string'
PUBLIC	??_C@_06HBEGMDLG@mapjim@			; `string'
PUBLIC	??_C@_06HDAAHNOP@mapjjm@			; `string'
PUBLIC	??_C@_06HCMCBHNI@mapjkm@			; `string'
PUBLIC	??_C@_06HHINABFN@mapjlm@			; `string'
PUBLIC	??_C@_06HGEPGLGK@mapjmm@			; `string'
PUBLIC	??_C@_06HEAJNFDD@mapjnm@			; `string'
PUBLIC	??_C@_06HFMLLPAE@mapjom@			; `string'
PUBLIC	??_C@_06GCLBFLEJ@mapjpm@			; `string'
PUBLIC	??_C@_06GDHDDBHO@mapjqm@			; `string'
PUBLIC	??_C@_06GBDFIPCH@mapjrm@			; `string'
PUBLIC	??_C@_06GAPHOFBA@mapjsm@			; `string'
PUBLIC	??_C@_06GFLIPDJF@mapjtm@			; `string'
PUBLIC	??_C@_06GEHKJJKC@mapjum@			; `string'
PUBLIC	??_C@_06GGDMCHPL@mapjvm@			; `string'
PUBLIC	??_C@_06GHPOENMM@mapjwm@			; `string'
PUBLIC	??_C@_06GMKCAKPB@mapjxm@			; `string'
PUBLIC	??_C@_06GNGAGAMG@mapjym@			; `string'
PUBLIC	??_C@_06GPCGNOJP@mapjzm@			; `string'
PUBLIC	??_C@_06KKJHLBOM@mapk0m@			; `string'
PUBLIC	??_C@_06KLFFNLNL@mapk1m@			; `string'
PUBLIC	??_C@_06KJBDGFIC@mapk2m@			; `string'
PUBLIC	??_C@_06KINBAPLF@mapk3m@			; `string'
PUBLIC	??_C@_06KNJOBJDA@mapk4m@			; `string'
PUBLIC	??_C@_06KMFMHDAH@mapk5m@			; `string'
PUBLIC	??_C@_06KOBKMNFO@mapk6m@			; `string'
PUBLIC	??_C@_06KPNIKHGJ@mapk7m@			; `string'
PUBLIC	??_C@_06KEIEOAFE@mapk8m@			; `string'
PUBLIC	??_C@_06KFEGIKGD@mapk9m@			; `string'
PUBLIC	??_C@_06MHOJPFGL@mapkam@			; `string'
PUBLIC	??_C@_06MFKPELDC@mapkbm@			; `string'
PUBLIC	??_C@_06MEGNCBAF@mapkcm@			; `string'
PUBLIC	??_C@_06MBCCDHIA@mapkdm@			; `string'
PUBLIC	??_C@_06MAOAFNLH@mapkem@			; `string'
PUBLIC	??_C@_06MCKGODOO@mapkfm@			; `string'
PUBLIC	??_C@_06MDGEIJNJ@mapkgm@			; `string'
PUBLIC	??_C@_06MIDIMOOE@mapkhm@			; `string'
PUBLIC	??_C@_06MJPKKEND@mapkim@			; `string'
PUBLIC	??_C@_06MLLMBKIK@mapkjm@			; `string'
PUBLIC	??_C@_06MKHOHALN@mapkkm@			; `string'
PUBLIC	??_C@_06MPDBGGDI@mapklm@			; `string'
PUBLIC	??_C@_06MOPDAMAP@mapkmm@			; `string'
PUBLIC	??_C@_06MMLFLCFG@mapknm@			; `string'
PUBLIC	??_C@_06MNHHNIGB@mapkom@			; `string'
PUBLIC	??_C@_06NKANDMCM@mapkpm@			; `string'
PUBLIC	??_C@_06NLMPFGBL@mapkqm@			; `string'
PUBLIC	??_C@_06NJIJOIEC@mapkrm@			; `string'
PUBLIC	??_C@_06NIELICHF@mapksm@			; `string'
PUBLIC	??_C@_06NNAEJEPA@mapktm@			; `string'
PUBLIC	??_C@_06NMMGPOMH@mapkum@			; `string'
PUBLIC	??_C@_06NOIAEAJO@mapkvm@			; `string'
PUBLIC	??_C@_06NPECCKKJ@mapkwm@			; `string'
PUBLIC	??_C@_06NEBOGNJE@mapkxm@			; `string'
PUBLIC	??_C@_06NFNMAHKD@mapkym@			; `string'
PUBLIC	??_C@_06NHJKLJPK@mapkzm@			; `string'
PUBLIC	??_C@_06DHEAIJFF@mapl0m@			; `string'
PUBLIC	??_C@_06DGICODGC@mapl1m@			; `string'
PUBLIC	??_C@_06DEMEFNDL@mapl2m@			; `string'
PUBLIC	??_C@_06DFAGDHAM@mapl3m@			; `string'
PUBLIC	??_C@_06DAEJCBIJ@mapl4m@			; `string'
PUBLIC	??_C@_06DBILELLO@mapl5m@			; `string'
PUBLIC	??_C@_06DDMNPFOH@mapl6m@			; `string'
PUBLIC	??_C@_06DCAPJPNA@mapl7m@			; `string'
PUBLIC	??_C@_06DJFDNION@mapl8m@			; `string'
PUBLIC	??_C@_06DIJBLCNK@mapl9m@			; `string'
PUBLIC	??_C@_06FKDOMNNC@maplam@			; `string'
PUBLIC	??_C@_06FIHIHDIL@maplbm@			; `string'
PUBLIC	??_C@_06FJLKBJLM@maplcm@			; `string'
PUBLIC	??_C@_06FMPFAPDJ@mapldm@			; `string'
PUBLIC	??_C@_06FNDHGFAO@maplem@			; `string'
PUBLIC	??_C@_06FPHBNLFH@maplfm@			; `string'
PUBLIC	??_C@_06FOLDLBGA@maplgm@			; `string'
PUBLIC	??_C@_06FFOPPGFN@maplhm@			; `string'
PUBLIC	??_C@_06FECNJMGK@maplim@			; `string'
PUBLIC	??_C@_06FGGLCCDD@mapljm@			; `string'
PUBLIC	??_C@_06FHKJEIAE@maplkm@			; `string'
PUBLIC	??_C@_06FCOGFOIB@mapllm@			; `string'
PUBLIC	??_C@_06FDCEDELG@maplmm@			; `string'
PUBLIC	??_C@_06FBGCIKOP@maplnm@			; `string'
PUBLIC	??_C@_06FAKAOANI@maplom@			; `string'
PUBLIC	??_C@_06EHNKAEJF@maplpm@			; `string'
PUBLIC	??_C@_06EGBIGOKC@maplqm@			; `string'
PUBLIC	??_C@_06EEFONAPL@maplrm@			; `string'
PUBLIC	??_C@_06EFJMLKMM@maplsm@			; `string'
PUBLIC	??_C@_06EANDKMEJ@mapltm@			; `string'
PUBLIC	??_C@_06EBBBMGHO@maplum@			; `string'
PUBLIC	??_C@_06EDFHHICH@maplvm@			; `string'
PUBLIC	??_C@_06ECJFBCBA@maplwm@			; `string'
PUBLIC	??_C@_06EJMJFFCN@maplxm@			; `string'
PUBLIC	??_C@_06EIALDPBK@maplym@			; `string'
PUBLIC	??_C@_06EKENIBED@maplzm@			; `string'
PUBLIC	??_C@_06IPPMOODA@mapm0m@			; `string'
PUBLIC	??_C@_06IODOIEAH@mapm1m@			; `string'
PUBLIC	??_C@_06IMHIDKFO@mapm2m@			; `string'
PUBLIC	??_C@_06INLKFAGJ@mapm3m@			; `string'
PUBLIC	??_C@_06IIPFEGOM@mapm4m@			; `string'
PUBLIC	??_C@_06IJDHCMNL@mapm5m@			; `string'
PUBLIC	??_C@_06ILHBJCIC@mapm6m@			; `string'
PUBLIC	??_C@_06IKLDPILF@mapm7m@			; `string'
PUBLIC	??_C@_06IBOPLPII@mapm8m@			; `string'
PUBLIC	??_C@_06IACNNFLP@mapm9m@			; `string'
PUBLIC	??_C@_06OCICKKLH@mapmam@			; `string'
PUBLIC	??_C@_06OAMEBEOO@mapmbm@			; `string'
PUBLIC	??_C@_06OBAGHONJ@mapmcm@			; `string'
PUBLIC	??_C@_06OEEJGIFM@mapmdm@			; `string'
PUBLIC	??_C@_06OFILACGL@mapmem@			; `string'
PUBLIC	??_C@_06OHMNLMDC@mapmfm@			; `string'
PUBLIC	??_C@_06OGAPNGAF@mapmgm@			; `string'
PUBLIC	??_C@_06ONFDJBDI@mapmhm@			; `string'
PUBLIC	??_C@_06OMJBPLAP@mapmim@			; `string'
PUBLIC	??_C@_06OONHEFFG@mapmjm@			; `string'
PUBLIC	??_C@_06OPBFCPGB@mapmkm@			; `string'
PUBLIC	??_C@_06OKFKDJOE@mapmlm@			; `string'
PUBLIC	??_C@_06OLJIFDND@mapmmm@			; `string'
PUBLIC	??_C@_06OJNOONIK@mapmnm@			; `string'
PUBLIC	??_C@_06OIBMIHLN@mapmom@			; `string'
PUBLIC	??_C@_06PPGGGDPA@mapmpm@			; `string'
PUBLIC	??_C@_06POKEAJMH@mapmqm@			; `string'
PUBLIC	??_C@_06PMOCLHJO@mapmrm@			; `string'
PUBLIC	??_C@_06PNCANNKJ@mapmsm@			; `string'
PUBLIC	??_C@_06PIGPMLCM@mapmtm@			; `string'
PUBLIC	??_C@_06PJKNKBBL@mapmum@			; `string'
PUBLIC	??_C@_06PLOLBPEC@mapmvm@			; `string'
PUBLIC	??_C@_06PKCJHFHF@mapmwm@			; `string'
PUBLIC	??_C@_06PBHFDCEI@mapmxm@			; `string'
PUBLIC	??_C@_06PALHFIHP@mapmym@			; `string'
PUBLIC	??_C@_06PCPBOGCG@mapmzm@			; `string'
PUBLIC	??_C@_06JNEJEBNO@mapn0m@			; `string'
PUBLIC	??_C@_06JMILCLOJ@mapn1m@			; `string'
PUBLIC	??_C@_06JOMNJFLA@mapn2m@			; `string'
PUBLIC	??_C@_06JPAPPPIH@mapn3m@			; `string'
PUBLIC	??_C@_06JKEAOJAC@mapn4m@			; `string'
PUBLIC	??_C@_06JLICIDDF@mapn5m@			; `string'
PUBLIC	??_C@_06JJMEDNGM@mapn6m@			; `string'
PUBLIC	??_C@_06JIAGFHFL@mapn7m@			; `string'
PUBLIC	??_C@_06JDFKBAGG@mapn8m@			; `string'
PUBLIC	??_C@_06JCJIHKFB@mapn9m@			; `string'
PUBLIC	??_C@_06PADHAFFJ@mapnam@			; `string'
PUBLIC	??_C@_06PCHBLLAA@mapnbm@			; `string'
PUBLIC	??_C@_06PDLDNBDH@mapncm@			; `string'
PUBLIC	??_C@_06PGPMMHLC@mapndm@			; `string'
PUBLIC	??_C@_06PHDOKNIF@mapnem@			; `string'
PUBLIC	??_C@_06PFHIBDNM@mapnfm@			; `string'
PUBLIC	??_C@_06PELKHJOL@mapngm@			; `string'
PUBLIC	??_C@_06PPOGDONG@mapnhm@			; `string'
PUBLIC	??_C@_06POCEFEOB@mapnim@			; `string'
PUBLIC	??_C@_06PMGCOKLI@mapnjm@			; `string'
PUBLIC	??_C@_06PNKAIAIP@mapnkm@			; `string'
PUBLIC	??_C@_06PIOPJGAK@mapnlm@			; `string'
PUBLIC	??_C@_06PJCNPMDN@mapnmm@			; `string'
PUBLIC	??_C@_06PLGLECGE@mapnnm@			; `string'
PUBLIC	??_C@_06PKKJCIFD@mapnom@			; `string'
PUBLIC	??_C@_06ONNDMMBO@mapnpm@			; `string'
PUBLIC	??_C@_06OMBBKGCJ@mapnqm@			; `string'
PUBLIC	??_C@_06OOFHBIHA@mapnrm@			; `string'
PUBLIC	??_C@_06OPJFHCEH@mapnsm@			; `string'
PUBLIC	??_C@_06OKNKGEMC@mapntm@			; `string'
PUBLIC	??_C@_06OLBIAOPF@mapnum@			; `string'
PUBLIC	??_C@_06OJFOLAKM@mapnvm@			; `string'
PUBLIC	??_C@_06OIJMNKJL@mapnwm@			; `string'
PUBLIC	??_C@_06ODMAJNKG@mapnxm@			; `string'
PUBLIC	??_C@_06OCACPHJB@mapnym@			; `string'
PUBLIC	??_C@_06OAEEEJMI@mapnzm@			; `string'
PUBLIC	??_C@_06CFPFCGLL@mapo0m@			; `string'
PUBLIC	??_C@_06CEDHEMIM@mapo1m@			; `string'
PUBLIC	??_C@_06CGHBPCNF@mapo2m@			; `string'
PUBLIC	??_C@_06CHLDJIOC@mapo3m@			; `string'
PUBLIC	??_C@_06CCPMIOGH@mapo4m@			; `string'
PUBLIC	??_C@_06CDDOOEFA@mapo5m@			; `string'
PUBLIC	??_C@_06CBHIFKAJ@mapo6m@			; `string'
PUBLIC	??_C@_06CALKDADO@mapo7m@			; `string'
PUBLIC	??_C@_06CLOGHHAD@mapo8m@			; `string'
PUBLIC	??_C@_06CKCEBNDE@mapo9m@			; `string'
PUBLIC	??_C@_06EIILGCDM@mapoam@			; `string'
PUBLIC	??_C@_06EKMNNMGF@mapobm@			; `string'
PUBLIC	??_C@_06ELAPLGFC@mapocm@			; `string'
PUBLIC	??_C@_06EOEAKANH@mapodm@			; `string'
PUBLIC	??_C@_06EPICMKOA@mapoem@			; `string'
PUBLIC	??_C@_06ENMEHELJ@mapofm@			; `string'
PUBLIC	??_C@_06EMAGBOIO@mapogm@			; `string'
PUBLIC	??_C@_06EHFKFJLD@mapohm@			; `string'
PUBLIC	??_C@_06EGJIDDIE@mapoim@			; `string'
PUBLIC	??_C@_06EENOINNN@mapojm@			; `string'
PUBLIC	??_C@_06EFBMOHOK@mapokm@			; `string'
PUBLIC	??_C@_06EAFDPBGP@mapolm@			; `string'
PUBLIC	??_C@_06EBJBJLFI@mapomm@			; `string'
PUBLIC	??_C@_06EDNHCFAB@maponm@			; `string'
PUBLIC	??_C@_06ECBFEPDG@mapoom@			; `string'
PUBLIC	??_C@_06FFGPKLHL@mapopm@			; `string'
PUBLIC	??_C@_06FEKNMBEM@mapoqm@			; `string'
PUBLIC	??_C@_06FGOLHPBF@maporm@			; `string'
PUBLIC	??_C@_06FHCJBFCC@maposm@			; `string'
PUBLIC	??_C@_06FCGGADKH@mapotm@			; `string'
PUBLIC	??_C@_06FDKEGJJA@mapoum@			; `string'
PUBLIC	??_C@_06FBOCNHMJ@mapovm@			; `string'
PUBLIC	??_C@_06FACALNPO@mapowm@			; `string'
PUBLIC	??_C@_06FLHMPKMD@mapoxm@			; `string'
PUBLIC	??_C@_06FKLOJAPE@mapoym@			; `string'
PUBLIC	??_C@_06FIPICOKN@mapozm@			; `string'
PUBLIC	??_C@_06CNIPGBHC@mapp0m@			; `string'
PUBLIC	??_C@_06CMENALEF@mapp1m@			; `string'
PUBLIC	??_C@_06COALLFBM@mapp2m@			; `string'
PUBLIC	??_C@_06CPMJNPCL@mapp3m@			; `string'
PUBLIC	??_C@_06CKIGMJKO@mapp4m@			; `string'
PUBLIC	??_C@_06CLEEKDJJ@mapp5m@			; `string'
PUBLIC	??_C@_06CJACBNMA@mapp6m@			; `string'
PUBLIC	??_C@_06CIMAHHPH@mapp7m@			; `string'
PUBLIC	??_C@_06CDJMDAMK@mapp8m@			; `string'
PUBLIC	??_C@_06CCFOFKPN@mapp9m@			; `string'
PUBLIC	??_C@_06EAPBCFPF@mappam@			; `string'
PUBLIC	??_C@_06ECLHJLKM@mappbm@			; `string'
PUBLIC	??_C@_06EDHFPBJL@mappcm@			; `string'
PUBLIC	??_C@_06EGDKOHBO@mappdm@			; `string'
PUBLIC	??_C@_06EHPIINCJ@mappem@			; `string'
PUBLIC	??_C@_06EFLODDHA@mappfm@			; `string'
PUBLIC	??_C@_06EEHMFJEH@mappgm@			; `string'
PUBLIC	??_C@_06EPCABOHK@mapphm@			; `string'
PUBLIC	??_C@_06EOOCHEEN@mappim@			; `string'
PUBLIC	??_C@_06EMKEMKBE@mappjm@			; `string'
PUBLIC	??_C@_06ENGGKACD@mappkm@			; `string'
PUBLIC	??_C@_06EICJLGKG@mapplm@			; `string'
PUBLIC	??_C@_06EJOLNMJB@mappmm@			; `string'
PUBLIC	??_C@_06ELKNGCMI@mappnm@			; `string'
PUBLIC	??_C@_06EKGPAIPP@mappom@			; `string'
PUBLIC	??_C@_06FNBFOMLC@mapppm@			; `string'
PUBLIC	??_C@_06FMNHIGIF@mappqm@			; `string'
PUBLIC	??_C@_06FOJBDINM@mapprm@			; `string'
PUBLIC	??_C@_06FPFDFCOL@mappsm@			; `string'
PUBLIC	??_C@_06FKBMEEGO@mapptm@			; `string'
PUBLIC	??_C@_06FLNOCOFJ@mappum@			; `string'
PUBLIC	??_C@_06FJJIJAAA@mappvm@			; `string'
PUBLIC	??_C@_06FIFKPKDH@mappwm@			; `string'
PUBLIC	??_C@_06FDAGLNAK@mappxm@			; `string'
PUBLIC	??_C@_06FCMENHDN@mappym@			; `string'
PUBLIC	??_C@_06FAICGJGE@mappzm@			; `string'
PUBLIC	??_C@_06JFDDAGBH@mapq0m@			; `string'
PUBLIC	??_C@_06JEPBGMCA@mapq1m@			; `string'
PUBLIC	??_C@_06JGLHNCHJ@mapq2m@			; `string'
PUBLIC	??_C@_06JHHFLIEO@mapq3m@			; `string'
PUBLIC	??_C@_06JCDKKOML@mapq4m@			; `string'
PUBLIC	??_C@_06JDPIMEPM@mapq5m@			; `string'
PUBLIC	??_C@_06JBLOHKKF@mapq6m@			; `string'
PUBLIC	??_C@_06JAHMBAJC@mapq7m@			; `string'
PUBLIC	??_C@_06JLCAFHKP@mapq8m@			; `string'
PUBLIC	??_C@_06JKOCDNJI@mapq9m@			; `string'
PUBLIC	??_C@_06PIENECJA@mapqam@			; `string'
PUBLIC	??_C@_06PKALPMMJ@mapqbm@			; `string'
PUBLIC	??_C@_06PLMJJGPO@mapqcm@			; `string'
PUBLIC	??_C@_06POIGIAHL@mapqdm@			; `string'
PUBLIC	??_C@_06PPEEOKEM@mapqem@			; `string'
PUBLIC	??_C@_06PNACFEBF@mapqfm@			; `string'
PUBLIC	??_C@_06PMMADOCC@mapqgm@			; `string'
PUBLIC	??_C@_06PHJMHJBP@mapqhm@			; `string'
PUBLIC	??_C@_06PGFOBDCI@mapqim@			; `string'
PUBLIC	??_C@_06PEBIKNHB@mapqjm@			; `string'
PUBLIC	??_C@_06PFNKMHEG@mapqkm@			; `string'
PUBLIC	??_C@_06PAJFNBMD@mapqlm@			; `string'
PUBLIC	??_C@_06PBFHLLPE@mapqmm@			; `string'
PUBLIC	??_C@_06PDBBAFKN@mapqnm@			; `string'
PUBLIC	??_C@_06PCNDGPJK@mapqom@			; `string'
PUBLIC	??_C@_06OFKJILNH@mapqpm@			; `string'
PUBLIC	??_C@_06OEGLOBOA@mapqqm@			; `string'
PUBLIC	??_C@_06OGCNFPLJ@mapqrm@			; `string'
PUBLIC	??_C@_06OHOPDFIO@mapqsm@			; `string'
PUBLIC	??_C@_06OCKACDAL@mapqtm@			; `string'
PUBLIC	??_C@_06ODGCEJDM@mapqum@			; `string'
PUBLIC	??_C@_06OBCEPHGF@mapqvm@			; `string'
PUBLIC	??_C@_06OAOGJNFC@mapqwm@			; `string'
PUBLIC	??_C@_06OLLKNKGP@mapqxm@			; `string'
PUBLIC	??_C@_06OKHILAFI@mapqym@			; `string'
PUBLIC	??_C@_06OIDOAOAB@mapqzm@			; `string'
PUBLIC	??_C@_06IHIGKJPJ@mapr0m@			; `string'
PUBLIC	??_C@_06IGEEMDMO@mapr1m@			; `string'
PUBLIC	??_C@_06IEACHNJH@mapr2m@			; `string'
PUBLIC	??_C@_06IFMABHKA@mapr3m@			; `string'
PUBLIC	??_C@_06IAIPABCF@mapr4m@			; `string'
PUBLIC	??_C@_06IBENGLBC@mapr5m@			; `string'
PUBLIC	??_C@_06IDALNFEL@mapr6m@			; `string'
PUBLIC	??_C@_06ICMJLPHM@mapr7m@			; `string'
PUBLIC	??_C@_06IJJFPIEB@mapr8m@			; `string'
PUBLIC	??_C@_06IIFHJCHG@mapr9m@			; `string'
PUBLIC	??_C@_06OKPIONHO@mapram@			; `string'
PUBLIC	??_C@_06OILOFDCH@maprbm@			; `string'
PUBLIC	??_C@_06OJHMDJBA@maprcm@			; `string'
PUBLIC	??_C@_06OMDDCPJF@maprdm@			; `string'
PUBLIC	??_C@_06ONPBEFKC@maprem@			; `string'
PUBLIC	??_C@_06OPLHPLPL@maprfm@			; `string'
PUBLIC	??_C@_06OOHFJBMM@maprgm@			; `string'
PUBLIC	??_C@_06OFCJNGPB@maprhm@			; `string'
PUBLIC	??_C@_06OEOLLMMG@maprim@			; `string'
PUBLIC	??_C@_06OGKNACJP@maprjm@			; `string'
PUBLIC	??_C@_06OHGPGIKI@maprkm@			; `string'
PUBLIC	??_C@_06OCCAHOCN@maprlm@			; `string'
PUBLIC	??_C@_06ODOCBEBK@maprmm@			; `string'
PUBLIC	??_C@_06OBKEKKED@maprnm@			; `string'
PUBLIC	??_C@_06OAGGMAHE@maprom@			; `string'
PUBLIC	??_C@_06PHBMCEDJ@maprpm@			; `string'
PUBLIC	??_C@_06PGNOEOAO@maprqm@			; `string'
PUBLIC	??_C@_06PEJIPAFH@maprrm@			; `string'
PUBLIC	??_C@_06PFFKJKGA@maprsm@			; `string'
PUBLIC	??_C@_06PABFIMOF@maprtm@			; `string'
PUBLIC	??_C@_06PBNHOGNC@maprum@			; `string'
PUBLIC	??_C@_06PDJBFIIL@maprvm@			; `string'
PUBLIC	??_C@_06PCFDDCLM@maprwm@			; `string'
PUBLIC	??_C@_06PJAPHFIB@maprxm@			; `string'
PUBLIC	??_C@_06PIMNBPLG@maprym@			; `string'
PUBLIC	??_C@_06PKILKBOP@maprzm@			; `string'
PUBLIC	??_C@_06DPDKMOJM@maps0m@			; `string'
PUBLIC	??_C@_06DOPIKEKL@maps1m@			; `string'
PUBLIC	??_C@_06DMLOBKPC@maps2m@			; `string'
PUBLIC	??_C@_06DNHMHAMF@maps3m@			; `string'
PUBLIC	??_C@_06DIDDGGEA@maps4m@			; `string'
PUBLIC	??_C@_06DJPBAMHH@maps5m@			; `string'
PUBLIC	??_C@_06DLLHLCCO@maps6m@			; `string'
PUBLIC	??_C@_06DKHFNIBJ@maps7m@			; `string'
PUBLIC	??_C@_06DBCJJPCE@maps8m@			; `string'
PUBLIC	??_C@_06DAOLPFBD@maps9m@			; `string'
PUBLIC	??_C@_06FCEEIKBL@mapsam@			; `string'
PUBLIC	??_C@_06FAACDEEC@mapsbm@			; `string'
PUBLIC	??_C@_06FBMAFOHF@mapscm@			; `string'
PUBLIC	??_C@_06FEIPEIPA@mapsdm@			; `string'
PUBLIC	??_C@_06FFENCCMH@mapsem@			; `string'
PUBLIC	??_C@_06FHALJMJO@mapsfm@			; `string'
PUBLIC	??_C@_06FGMJPGKJ@mapsgm@			; `string'
PUBLIC	??_C@_06FNJFLBJE@mapshm@			; `string'
PUBLIC	??_C@_06FMFHNLKD@mapsim@			; `string'
PUBLIC	??_C@_06FOBBGFPK@mapsjm@			; `string'
PUBLIC	??_C@_06FPNDAPMN@mapskm@			; `string'
PUBLIC	??_C@_06FKJMBJEI@mapslm@			; `string'
PUBLIC	??_C@_06FLFOHDHP@mapsmm@			; `string'
PUBLIC	??_C@_06FJBIMNCG@mapsnm@			; `string'
PUBLIC	??_C@_06FINKKHBB@mapsom@			; `string'
PUBLIC	??_C@_06EPKAEDFM@mapspm@			; `string'
PUBLIC	??_C@_06EOGCCJGL@mapsqm@			; `string'
PUBLIC	??_C@_06EMCEJHDC@mapsrm@			; `string'
PUBLIC	??_C@_06ENOGPNAF@mapssm@			; `string'
PUBLIC	??_C@_06EIKJOLIA@mapstm@			; `string'
PUBLIC	??_C@_06EJGLIBLH@mapsum@			; `string'
PUBLIC	??_C@_06ELCNDPOO@mapsvm@			; `string'
PUBLIC	??_C@_06EKOPFFNJ@mapswm@			; `string'
PUBLIC	??_C@_06EBLDBCOE@mapsxm@			; `string'
PUBLIC	??_C@_06EAHBHIND@mapsym@			; `string'
PUBLIC	??_C@_06ECDHMGIK@mapszm@			; `string'
PUBLIC	??_C@_06KCONPGCF@mapt0m@			; `string'
PUBLIC	??_C@_06KDCPJMBC@mapt1m@			; `string'
PUBLIC	??_C@_06KBGJCCEL@mapt2m@			; `string'
PUBLIC	??_C@_06KAKLEIHM@mapt3m@			; `string'
PUBLIC	??_C@_06KFOEFOPJ@mapt4m@			; `string'
PUBLIC	??_C@_06KECGDEMO@mapt5m@			; `string'
PUBLIC	??_C@_06KGGAIKJH@mapt6m@			; `string'
PUBLIC	??_C@_06KHKCOAKA@mapt7m@			; `string'
PUBLIC	??_C@_06KMPOKHJN@mapt8m@			; `string'
PUBLIC	??_C@_06KNDMMNKK@mapt9m@			; `string'
PUBLIC	??_C@_06MPJDLCKC@maptam@			; `string'
PUBLIC	??_C@_06MNNFAMPL@maptbm@			; `string'
PUBLIC	??_C@_06MMBHGGMM@maptcm@			; `string'
PUBLIC	??_C@_06MJFIHAEJ@maptdm@			; `string'
PUBLIC	??_C@_06MIJKBKHO@maptem@			; `string'
PUBLIC	??_C@_06MKNMKECH@maptfm@			; `string'
PUBLIC	??_C@_06MLBOMOBA@maptgm@			; `string'
PUBLIC	??_C@_06MAECIJCN@mapthm@			; `string'
PUBLIC	??_C@_06MBIAODBK@maptim@			; `string'
PUBLIC	??_C@_06MDMGFNED@maptjm@			; `string'
PUBLIC	??_C@_06MCAEDHHE@maptkm@			; `string'
PUBLIC	??_C@_06MHELCBPB@maptlm@			; `string'
PUBLIC	??_C@_06MGIJELMG@maptmm@			; `string'
PUBLIC	??_C@_06MEMPPFJP@maptnm@			; `string'
PUBLIC	??_C@_06MFANJPKI@maptom@			; `string'
PUBLIC	??_C@_06NCHHHLOF@maptpm@			; `string'
PUBLIC	??_C@_06NDLFBBNC@maptqm@			; `string'
PUBLIC	??_C@_06NBPDKPIL@maptrm@			; `string'
PUBLIC	??_C@_06NADBMFLM@maptsm@			; `string'
PUBLIC	??_C@_06NFHONDDJ@mapttm@			; `string'
PUBLIC	??_C@_06NELMLJAO@maptum@			; `string'
PUBLIC	??_C@_06NGPKAHFH@maptvm@			; `string'
PUBLIC	??_C@_06NHDIGNGA@maptwm@			; `string'
PUBLIC	??_C@_06NMGECKFN@maptxm@			; `string'
PUBLIC	??_C@_06NNKGEAGK@maptym@			; `string'
PUBLIC	??_C@_06NPOAPODD@maptzm@			; `string'
PUBLIC	??_C@_06BKFBJBEA@mapu0m@			; `string'
PUBLIC	??_C@_06BLJDPLHH@mapu1m@			; `string'
PUBLIC	??_C@_06BJNFEFCO@mapu2m@			; `string'
PUBLIC	??_C@_06BIBHCPBJ@mapu3m@			; `string'
PUBLIC	??_C@_06BNFIDJJM@mapu4m@			; `string'
PUBLIC	??_C@_06BMJKFDKL@mapu5m@			; `string'
PUBLIC	??_C@_06BONMONPC@mapu6m@			; `string'
PUBLIC	??_C@_06BPBOIHMF@mapu7m@			; `string'
PUBLIC	??_C@_06BEECMAPI@mapu8m@			; `string'
PUBLIC	??_C@_06BFIAKKMP@mapu9m@			; `string'
PUBLIC	??_C@_06HHCPNFMH@mapuam@			; `string'
PUBLIC	??_C@_06HFGJGLJO@mapubm@			; `string'
PUBLIC	??_C@_06HEKLABKJ@mapucm@			; `string'
PUBLIC	??_C@_06HBOEBHCM@mapudm@			; `string'
PUBLIC	??_C@_06HACGHNBL@mapuem@			; `string'
PUBLIC	??_C@_06HCGAMDEC@mapufm@			; `string'
PUBLIC	??_C@_06HDKCKJHF@mapugm@			; `string'
PUBLIC	??_C@_06HIPOOOEI@mapuhm@			; `string'
PUBLIC	??_C@_06HJDMIEHP@mapuim@			; `string'
PUBLIC	??_C@_06HLHKDKCG@mapujm@			; `string'
PUBLIC	??_C@_06HKLIFABB@mapukm@			; `string'
PUBLIC	??_C@_06HPPHEGJE@mapulm@			; `string'
PUBLIC	??_C@_06HODFCMKD@mapumm@			; `string'
PUBLIC	??_C@_06HMHDJCPK@mapunm@			; `string'
PUBLIC	??_C@_06HNLBPIMN@mapuom@			; `string'
PUBLIC	??_C@_06GKMLBMIA@mapupm@			; `string'
PUBLIC	??_C@_06GLAJHGLH@mapuqm@			; `string'
PUBLIC	??_C@_06GJEPMIOO@mapurm@			; `string'
PUBLIC	??_C@_06GIINKCNJ@mapusm@			; `string'
PUBLIC	??_C@_06GNMCLEFM@maputm@			; `string'
PUBLIC	??_C@_06GMAANOGL@mapuum@			; `string'
PUBLIC	??_C@_06GOEGGADC@mapuvm@			; `string'
PUBLIC	??_C@_06GPIEAKAF@mapuwm@			; `string'
PUBLIC	??_C@_06GENIENDI@mapuxm@			; `string'
PUBLIC	??_C@_06GFBKCHAP@mapuym@			; `string'
PUBLIC	??_C@_06GHFMJJFG@mapuzm@			; `string'
PUBLIC	??_C@_06IOEDOKO@mapv0m@				; `string'
PUBLIC	??_C@_06JCGFEJJ@mapv1m@				; `string'
PUBLIC	??_C@_06LGAOKMA@mapv2m@				; `string'
PUBLIC	??_C@_06KKCIAPH@mapv3m@				; `string'
PUBLIC	??_C@_06PONJGHC@mapv4m@				; `string'
PUBLIC	??_C@_06OCPPMEF@mapv5m@				; `string'
PUBLIC	??_C@_06MGJECBM@mapv6m@				; `string'
PUBLIC	??_C@_06NKLCICL@mapv7m@				; `string'
PUBLIC	??_C@_06GPHGPBG@mapv8m@				; `string'
PUBLIC	??_C@_06HDFAFCB@mapv9m@				; `string'
PUBLIC	??_C@_06GFJKHKCJ@mapvam@			; `string'
PUBLIC	??_C@_06GHNMMEHA@mapvbm@			; `string'
PUBLIC	??_C@_06GGBOKOEH@mapvcm@			; `string'
PUBLIC	??_C@_06GDFBLIMC@mapvdm@			; `string'
PUBLIC	??_C@_06GCJDNCPF@mapvem@			; `string'
PUBLIC	??_C@_06GANFGMKM@mapvfm@			; `string'
PUBLIC	??_C@_06GBBHAGJL@mapvgm@			; `string'
PUBLIC	??_C@_06GKELEBKG@mapvhm@			; `string'
PUBLIC	??_C@_06GLIJCLJB@mapvim@			; `string'
PUBLIC	??_C@_06GJMPJFMI@mapvjm@			; `string'
PUBLIC	??_C@_06GIANPPPP@mapvkm@			; `string'
PUBLIC	??_C@_06GNECOJHK@mapvlm@			; `string'
PUBLIC	??_C@_06GMIAIDEN@mapvmm@			; `string'
PUBLIC	??_C@_06GOMGDNBE@mapvnm@			; `string'
PUBLIC	??_C@_06GPAEFHCD@mapvom@			; `string'
PUBLIC	??_C@_06HIHOLDGO@mapvpm@			; `string'
PUBLIC	??_C@_06HJLMNJFJ@mapvqm@			; `string'
PUBLIC	??_C@_06HLPKGHAA@mapvrm@			; `string'
PUBLIC	??_C@_06HKDIANDH@mapvsm@			; `string'
PUBLIC	??_C@_06HPHHBLLC@mapvtm@			; `string'
PUBLIC	??_C@_06HOLFHBIF@mapvum@			; `string'
PUBLIC	??_C@_06HMPDMPNM@mapvvm@			; `string'
PUBLIC	??_C@_06HNDBKFOL@mapvwm@			; `string'
PUBLIC	??_C@_06HGGNOCNG@mapvxm@			; `string'
PUBLIC	??_C@_06HHKPIIOB@mapvym@			; `string'
PUBLIC	??_C@_06HFOJDGLI@mapvzm@			; `string'
PUBLIC	??_C@_06LAFIFJML@mapw0m@			; `string'
PUBLIC	??_C@_06LBJKDDPM@mapw1m@			; `string'
PUBLIC	??_C@_06LDNMINKF@mapw2m@			; `string'
PUBLIC	??_C@_06LCBOOHJC@mapw3m@			; `string'
PUBLIC	??_C@_06LHFBPBBH@mapw4m@			; `string'
PUBLIC	??_C@_06LGJDJLCA@mapw5m@			; `string'
PUBLIC	??_C@_06LENFCFHJ@mapw6m@			; `string'
PUBLIC	??_C@_06LFBHEPEO@mapw7m@			; `string'
PUBLIC	??_C@_06LOELAIHD@mapw8m@			; `string'
PUBLIC	??_C@_06LPIJGCEE@mapw9m@			; `string'
PUBLIC	??_C@_06NNCGBNEM@mapwam@			; `string'
PUBLIC	??_C@_06NPGAKDBF@mapwbm@			; `string'
PUBLIC	??_C@_06NOKCMJCC@mapwcm@			; `string'
PUBLIC	??_C@_06NLONNPKH@mapwdm@			; `string'
PUBLIC	??_C@_06NKCPLFJA@mapwem@			; `string'
PUBLIC	??_C@_06NIGJALMJ@mapwfm@			; `string'
PUBLIC	??_C@_06NJKLGBPO@mapwgm@			; `string'
PUBLIC	??_C@_06NCPHCGMD@mapwhm@			; `string'
PUBLIC	??_C@_06NDDFEMPE@mapwim@			; `string'
PUBLIC	??_C@_06NBHDPCKN@mapwjm@			; `string'
PUBLIC	??_C@_06NALBJIJK@mapwkm@			; `string'
PUBLIC	??_C@_06NFPOIOBP@mapwlm@			; `string'
PUBLIC	??_C@_06NEDMOECI@mapwmm@			; `string'
PUBLIC	??_C@_06NGHKFKHB@mapwnm@			; `string'
PUBLIC	??_C@_06NHLIDAEG@mapwom@			; `string'
PUBLIC	??_C@_06MAMCNEAL@mapwpm@			; `string'
PUBLIC	??_C@_06MBAALODM@mapwqm@			; `string'
PUBLIC	??_C@_06MDEGAAGF@mapwrm@			; `string'
PUBLIC	??_C@_06MCIEGKFC@mapwsm@			; `string'
PUBLIC	??_C@_06MHMLHMNH@mapwtm@			; `string'
PUBLIC	??_C@_06MGAJBGOA@mapwum@			; `string'
PUBLIC	??_C@_06MEEPKILJ@mapwvm@			; `string'
PUBLIC	??_C@_06MFINMCIO@mapwwm@			; `string'
PUBLIC	??_C@_06MONBIFLD@mapwxm@			; `string'
PUBLIC	??_C@_06MPBDOPIE@mapwym@			; `string'
PUBLIC	??_C@_06MNFFFBNN@mapwzm@			; `string'
PUBLIC	??_C@_06OIDLEJJN@mapx0m@			; `string'
PUBLIC	??_C@_06OJPJCDKK@mapx1m@			; `string'
PUBLIC	??_C@_06OLLPJNPD@mapx2m@			; `string'
PUBLIC	??_C@_06OKHNPHME@mapx3m@			; `string'
PUBLIC	??_C@_06OPDCOBEB@mapx4m@			; `string'
PUBLIC	??_C@_06OOPAILHG@mapx5m@			; `string'
PUBLIC	??_C@_06OMLGDFCP@mapx6m@			; `string'
PUBLIC	??_C@_06ONHEFPBI@mapx7m@			; `string'
PUBLIC	??_C@_06OGCIBICF@mapx8m@			; `string'
PUBLIC	??_C@_06OHOKHCBC@mapx9m@			; `string'
PUBLIC	??_C@_06IFEFANBK@mapxam@			; `string'
PUBLIC	??_C@_06IHADLDED@mapxbm@			; `string'
PUBLIC	??_C@_06IGMBNJHE@mapxcm@			; `string'
PUBLIC	??_C@_06IDIOMPPB@mapxdm@			; `string'
PUBLIC	??_C@_06ICEMKFMG@mapxem@			; `string'
PUBLIC	??_C@_06IAAKBLJP@mapxfm@			; `string'
PUBLIC	??_C@_06IBMIHBKI@mapxgm@			; `string'
PUBLIC	??_C@_06IKJEDGJF@mapxhm@			; `string'
PUBLIC	??_C@_06ILFGFMKC@mapxim@			; `string'
PUBLIC	??_C@_06IJBAOCPL@mapxjm@			; `string'
PUBLIC	??_C@_06IINCIIMM@mapxkm@			; `string'
PUBLIC	??_C@_06INJNJOEJ@mapxlm@			; `string'
PUBLIC	??_C@_06IMFPPEHO@mapxmm@			; `string'
PUBLIC	??_C@_06IOBJEKCH@mapxnm@			; `string'
PUBLIC	??_C@_06IPNLCABA@mapxom@			; `string'
PUBLIC	??_C@_06JIKBMEFN@mapxpm@			; `string'
PUBLIC	??_C@_06JJGDKOGK@mapxqm@			; `string'
PUBLIC	??_C@_06JLCFBADD@mapxrm@			; `string'
PUBLIC	??_C@_06JKOHHKAE@mapxsm@			; `string'
PUBLIC	??_C@_06JPKIGMIB@mapxtm@			; `string'
PUBLIC	??_C@_06JOGKAGLG@mapxum@			; `string'
PUBLIC	??_C@_06JMCMLIOP@mapxvm@			; `string'
PUBLIC	??_C@_06JNOONCNI@mapxwm@			; `string'
PUBLIC	??_C@_06JGLCJFOF@mapxxm@			; `string'
PUBLIC	??_C@_06JHHAPPNC@mapxym@			; `string'
PUBLIC	??_C@_06JFDGEBIL@mapxzm@			; `string'
PUBLIC	??_C@_06FAIHCOPI@mapy0m@			; `string'
PUBLIC	??_C@_06FBEFEEMP@mapy1m@			; `string'
PUBLIC	??_C@_06FDADPKJG@mapy2m@			; `string'
PUBLIC	??_C@_06FCMBJAKB@mapy3m@			; `string'
PUBLIC	??_C@_06FHIOIGCE@mapy4m@			; `string'
PUBLIC	??_C@_06FGEMOMBD@mapy5m@			; `string'
PUBLIC	??_C@_06FEAKFCEK@mapy6m@			; `string'
PUBLIC	??_C@_06FFMIDIHN@mapy7m@			; `string'
PUBLIC	??_C@_06FOJEHPEA@mapy8m@			; `string'
PUBLIC	??_C@_06FPFGBFHH@mapy9m@			; `string'
PUBLIC	??_C@_06DNPJGKHP@mapyam@			; `string'
PUBLIC	??_C@_06DPLPNECG@mapybm@			; `string'
PUBLIC	??_C@_06DOHNLOBB@mapycm@			; `string'
PUBLIC	??_C@_06DLDCKIJE@mapydm@			; `string'
PUBLIC	??_C@_06DKPAMCKD@mapyem@			; `string'
PUBLIC	??_C@_06DILGHMPK@mapyfm@			; `string'
PUBLIC	??_C@_06DJHEBGMN@mapygm@			; `string'
PUBLIC	??_C@_06DCCIFBPA@mapyhm@			; `string'
PUBLIC	??_C@_06DDOKDLMH@mapyim@			; `string'
PUBLIC	??_C@_06DBKMIFJO@mapyjm@			; `string'
PUBLIC	??_C@_06DAGOOPKJ@mapykm@			; `string'
PUBLIC	??_C@_06DFCBPJCM@mapylm@			; `string'
PUBLIC	??_C@_06DEODJDBL@mapymm@			; `string'
PUBLIC	??_C@_06DGKFCNEC@mapynm@			; `string'
PUBLIC	??_C@_06DHGHEHHF@mapyom@			; `string'
PUBLIC	??_C@_06CABNKDDI@mapypm@			; `string'
PUBLIC	??_C@_06CBNPMJAP@mapyqm@			; `string'
PUBLIC	??_C@_06CDJJHHFG@mapyrm@			; `string'
PUBLIC	??_C@_06CCFLBNGB@mapysm@			; `string'
PUBLIC	??_C@_06CHBEALOE@mapytm@			; `string'
PUBLIC	??_C@_06CGNGGBND@mapyum@			; `string'
PUBLIC	??_C@_06CEJANPIK@mapyvm@			; `string'
PUBLIC	??_C@_06CFFCLFLN@mapywm@			; `string'
PUBLIC	??_C@_06COAOPCIA@mapyxm@			; `string'
PUBLIC	??_C@_06CPMMJILH@mapyym@			; `string'
PUBLIC	??_C@_06CNIKCGOO@mapyzm@			; `string'
PUBLIC	??_C@_06ECDCIBBG@mapz0m@			; `string'
PUBLIC	??_C@_06EDPAOLCB@mapz1m@			; `string'
PUBLIC	??_C@_06EBLGFFHI@mapz2m@			; `string'
PUBLIC	??_C@_06EAHEDPEP@mapz3m@			; `string'
PUBLIC	??_C@_06EFDLCJMK@mapz4m@			; `string'
PUBLIC	??_C@_06EEPJEDPN@mapz5m@			; `string'
PUBLIC	??_C@_06EGLPPNKE@mapz6m@			; `string'
PUBLIC	??_C@_06EHHNJHJD@mapz7m@			; `string'
PUBLIC	??_C@_06EMCBNAKO@mapz8m@			; `string'
PUBLIC	??_C@_06ENODLKJJ@mapz9m@			; `string'
PUBLIC	??_C@_06CPEMMFJB@mapzam@			; `string'
PUBLIC	??_C@_06CNAKHLMI@mapzbm@			; `string'
PUBLIC	??_C@_06CMMIBBPP@mapzcm@			; `string'
PUBLIC	??_C@_06CJIHAHHK@mapzdm@			; `string'
PUBLIC	??_C@_06CIEFGNEN@mapzem@			; `string'
PUBLIC	??_C@_06CKADNDBE@mapzfm@			; `string'
PUBLIC	??_C@_06CLMBLJCD@mapzgm@			; `string'
PUBLIC	??_C@_06CAJNPOBO@mapzhm@			; `string'
PUBLIC	??_C@_06CBFPJECJ@mapzim@			; `string'
PUBLIC	??_C@_06CDBJCKHA@mapzjm@			; `string'
PUBLIC	??_C@_06CCNLEAEH@mapzkm@			; `string'
PUBLIC	??_C@_06CHJEFGMC@mapzlm@			; `string'
PUBLIC	??_C@_06CGFGDMPF@mapzmm@			; `string'
PUBLIC	??_C@_06CEBAICKM@mapznm@			; `string'
PUBLIC	??_C@_06CFNCOIJL@mapzom@			; `string'
PUBLIC	??_C@_06DCKIAMNG@mapzpm@			; `string'
PUBLIC	??_C@_06DDGKGGOB@mapzqm@			; `string'
PUBLIC	??_C@_06DBCMNILI@mapzrm@			; `string'
PUBLIC	??_C@_06DAOOLCIP@mapzsm@			; `string'
PUBLIC	??_C@_06DFKBKEAK@mapztm@			; `string'
PUBLIC	??_C@_06DEGDMODN@mapzum@			; `string'
PUBLIC	??_C@_06DGCFHAGE@mapzvm@			; `string'
PUBLIC	??_C@_06DHOHBKFD@mapzwm@			; `string'
PUBLIC	??_C@_06DMLLFNGO@mapzxm@			; `string'
PUBLIC	??_C@_06DNHJDHFJ@mapzym@			; `string'
PUBLIC	??_C@_06DPDPIJAA@mapzzm@			; `string'
PUBLIC	??_C@_06GCODKHGB@titles@			; `string'
PUBLIC	??_C@_06OGPIDNKE@read_m@			; `string'
PUBLIC	??_C@_06KEMDFMPK@lclear@			; `string'
PUBLIC	??_C@_06HCGGDEDF@invinc@			; `string'
PUBLIC	??_C@_05EDICNJBE@shoes@				; `string'
PUBLIC	??_C@_06MDMGLLBE@minvnc@			; `string'
PUBLIC	??_C@_05JHMPHPBG@drown@				; `string'
PUBLIC	??_C@_06JOMLEDAN@gmover@			; `string'
PUBLIC	??_C@_06GDJLPLKP@xtlife@			; `string'
PUBLIC	??_C@_06PLFHNLPM@contsc@			; `string'
PUBLIC	??_C@_06ECLBAHLA@supers@			; `string'
PUBLIC	??_C@_06EBKGGKHD@chrsel@			; `string'
PUBLIC	??_C@_06HHOEAOAH@credit@			; `string'
PUBLIC	??_C@_06BLMGNAI@racent@				; `string'
PUBLIC	??_C@_04CGFJFPFD@none@				; `string'
PUBLIC	??_C@_05NFOLCBFN@alarm@				; `string'
PUBLIC	??_C@_06JCJHJLH@altdi1@				; `string'
PUBLIC	??_C@_06CCAECKHE@altdi2@			; `string'
PUBLIC	??_C@_06DLBPBLDF@altdi3@			; `string'
PUBLIC	??_C@_06HEFOINPC@altdi4@			; `string'
PUBLIC	??_C@_06MIJAHAMM@altow1@			; `string'
PUBLIC	??_C@_06ODLNCDAP@altow2@			; `string'
PUBLIC	??_C@_06PKKGBCEO@altow3@			; `string'
PUBLIC	??_C@_06LFOHIEIJ@altow4@			; `string'
PUBLIC	??_C@_06PBNNFFKL@ambin2@			; `string'
PUBLIC	??_C@_06FHPOLNCI@ambint@			; `string'
PUBLIC	??_C@_06MFLPMLMM@amwtr1@			; `string'
PUBLIC	??_C@_06OOJCJIAP@amwtr2@			; `string'
PUBLIC	??_C@_06PHIJKJEO@amwtr3@			; `string'
PUBLIC	??_C@_06LIMIDPIJ@amwtr4@			; `string'
PUBLIC	??_C@_06KBNDAOMI@amwtr5@			; `string'
PUBLIC	??_C@_06IKPOFNAL@amwtr6@			; `string'
PUBLIC	??_C@_06JDOFGMEK@amwtr7@			; `string'
PUBLIC	??_C@_06BEHNHAIF@amwtr8@			; `string'
PUBLIC	??_C@_04HBCAMDHF@apl1@				; `string'
PUBLIC	??_C@_04FKANJALG@apl2@				; `string'
PUBLIC	??_C@_04EDBGKBPH@apl3@				; `string'
PUBLIC	??_C@_04MFHDHDA@apl4@				; `string'
PUBLIC	??_C@_04BFEMAGHB@apl5@				; `string'
PUBLIC	??_C@_04DOGBFFLC@apl6@				; `string'
PUBLIC	??_C@_06OFEGDHIM@appear@			; `string'
PUBLIC	??_C@_06KOFGKFLN@athun1@			; `string'
PUBLIC	??_C@_06IFHLPGHO@athun2@			; `string'
PUBLIC	??_C@_06JFIDONOE@beedee@			; `string'
PUBLIC	??_C@_05NBHPCCGB@beeel@				; `string'
PUBLIC	??_C@_06JECCGPFG@beejay@			; `string'
PUBLIC	??_C@_05LIIEGCLD@beeoh@				; `string'
PUBLIC	??_C@_06PGDCMFHC@bkpoof@			; `string'
PUBLIC	??_C@_05IMNBGPLF@bnce1@				; `string'
PUBLIC	??_C@_05KHPMDMHG@bnce2@				; `string'
PUBLIC	??_C@_06NABIMPGM@bubbl1@			; `string'
PUBLIC	??_C@_06PLDFJMKP@bubbl2@			; `string'
PUBLIC	??_C@_06OCCOKNOO@bubbl3@			; `string'
PUBLIC	??_C@_06KNGPDLCJ@bubbl4@			; `string'
PUBLIC	??_C@_06LEHEAKGI@bubbl5@			; `string'
PUBLIC	??_C@_04EJGGPKCK@cgot@				; `string'
PUBLIC	??_C@_06HEJPDCPF@chchng@			; `string'
PUBLIC	??_C@_06OEECKBLH@crumbl@			; `string'
PUBLIC	??_C@_06FNIKEPKK@cybdth@			; `string'
PUBLIC	??_C@_05NACCBGNC@deton@				; `string'
PUBLIC	??_C@_06GPDAJCNM@dmpain@			; `string'
PUBLIC	??_C@_06LBNENLNG@doora1@			; `string'
PUBLIC	??_C@_06LDJCGFIP@doorb1@			; `string'
PUBLIC	??_C@_06LCFAAPLI@doorc1@			; `string'
PUBLIC	??_C@_06JJHNFMHL@doorc2@			; `string'
PUBLIC	??_C@_06LHBPBJDN@doord1@			; `string'
PUBLIC	??_C@_06JMDCEKPO@doord2@			; `string'
PUBLIC	??_C@_06DJMCIMMM@drill1@			; `string'
PUBLIC	??_C@_06BCOPNPAP@drill2@			; `string'
PUBLIC	??_C@_05IKMIHHNE@drip1@				; `string'
PUBLIC	??_C@_05KBOFCEBH@drip2@				; `string'
PUBLIC	??_C@_05LIPOBFFG@drip3@				; `string'
PUBLIC	??_C@_05PHLPIDJB@drip4@				; `string'
PUBLIC	??_C@_06CILJEMCC@dwnind@			; `string'
PUBLIC	??_C@_06FEOFCNDK@eleva1@			; `string'
PUBLIC	??_C@_06HPMIHOPJ@eleva2@			; `string'
PUBLIC	??_C@_06GGNDEPLI@eleva3@			; `string'
PUBLIC	??_C@_06FGKDJDGD@elevb1@			; `string'
PUBLIC	??_C@_06HNIOMAKA@elevb2@			; `string'
PUBLIC	??_C@_06GEJFPBOB@elevb3@			; `string'
PUBLIC	??_C@_06BMPDCNKK@emfind@			; `string'
PUBLIC	??_C@_04CGHOBBFK@fire@				; `string'
PUBLIC	??_C@_06ELKJBCPM@fizzle@			; `string'
PUBLIC	??_C@_06EJNDBBOL@floush@			; `string'
PUBLIC	??_C@_04OINNJMCG@gasp@				; `string'
PUBLIC	??_C@_05NFOFDCJP@gbeep@				; `string'
PUBLIC	??_C@_06NDFIBLOM@gclose@			; `string'
PUBLIC	??_C@_04OAAIDAAO@ghit@				; `string'
PUBLIC	??_C@_05IPPOJEM@gloop@				; `string'
PUBLIC	??_C@_06CODIMGPF@gspray@			; `string'
PUBLIC	??_C@_06GHNLMLEL@gravch@			; `string'
PUBLIC	??_C@_06JIKFICKK@hidden@			; `string'
PUBLIC	??_C@_05EABBLLEA@hoop1@				; `string'
PUBLIC	??_C@_05GLDMOIID@hoop2@				; `string'
PUBLIC	??_C@_05HCCHNJMC@hoop3@				; `string'
PUBLIC	??_C@_05CGEKNPEL@ideya@				; `string'
PUBLIC	??_C@_06JJFGCMO@itemup@				; `string'
PUBLIC	??_C@_04NJIOBGCF@jump@				; `string'
PUBLIC	??_C@_06DDIOGJPH@koopfr@			; `string'
PUBLIC	??_C@_05LPMGNCEN@laser@				; `string'
PUBLIC	??_C@_06FNBAEEKK@litng1@			; `string'
PUBLIC	??_C@_06HGDNBHGJ@litng2@			; `string'
PUBLIC	??_C@_06GPCGCGCI@litng3@			; `string'
PUBLIC	??_C@_06CAGHLAOP@litng4@			; `string'
PUBLIC	??_C@_04EIGHDMBA@lose@				; `string'
PUBLIC	??_C@_06NLBDGEFJ@lvpass@			; `string'
PUBLIC	??_C@_06LLAFBNC@mario1@				; `string'
PUBLIC	??_C@_06CAJNACBB@mario2@			; `string'
PUBLIC	??_C@_06DJIGDDFA@mario3@			; `string'
PUBLIC	??_C@_06HGMHKFJH@mario4@			; `string'
PUBLIC	??_C@_06GPNMJENG@mario5@			; `string'
PUBLIC	??_C@_06EEPBMHBF@mario6@			; `string'
PUBLIC	??_C@_06FNOKPGFE@mario7@			; `string'
PUBLIC	??_C@_06NKHCOKJL@mario8@			; `string'
PUBLIC	??_C@_06MDGJNLNK@mario9@			; `string'
PUBLIC	??_C@_06LBALAMIG@marioa@			; `string'
PUBLIC	??_C@_05OEBLJHNM@menu1@				; `string'
PUBLIC	??_C@_05LNPLAMNK@mixup@				; `string'
PUBLIC	??_C@_06GAGNONNH@mswing@			; `string'
PUBLIC	??_C@_06KFKOLILH@nbmper@			; `string'
PUBLIC	??_C@_06NJEKFEBL@ncitem@			; `string'
PUBLIC	??_C@_06OCPLGBOB@ncspec@			; `string'
PUBLIC	??_C@_06PJNPGHML@ngdone@			; `string'
PUBLIC	??_C@_06EFGOEEDF@nghurt@			; `string'
PUBLIC	??_C@_06LICJJMMK@ngskid@			; `string'
PUBLIC	??_C@_06LNDDAALC@pksoc1@			; `string'
PUBLIC	??_C@_06JGBOFDHB@pksoc2@			; `string'
PUBLIC	??_C@_06IPAFGCDA@pksoc3@			; `string'
PUBLIC	??_C@_06MAEEPEPH@pksoc4@			; `string'
PUBLIC	??_C@_06NJFPMFLG@pksoc5@			; `string'
PUBLIC	??_C@_06PCHCJGHF@pksoc6@			; `string'
PUBLIC	??_C@_04MLHKFLF@pogo@				; `string'
PUBLIC	??_C@_03NJDAHFJE@pop@				; `string'
PUBLIC	??_C@_06JLCCNEJC@prloop@			; `string'
PUBLIC	??_C@_06JAKDFJGA@pstart@			; `string'
PUBLIC	??_C@_05HDIEALKC@pstop@				; `string'
PUBLIC	??_C@_06IBDCBJNB@pudpud@			; `string'
PUBLIC	??_C@_06KLBAJMAC@putput@			; `string'
PUBLIC	??_C@_05LNKCELPI@radio@				; `string'
PUBLIC	??_C@_06CJGPBOPG@rainin@			; `string'
PUBLIC	??_C@_06JCHIPOLP@rlaunc@			; `string'
PUBLIC	??_C@_06OLEBFMCD@rumble@			; `string'
PUBLIC	??_C@_06JBLDCMAL@s3k_13@			; `string'
PUBLIC	??_C@_06NOPCLKMM@s3k_14@			; `string'
PUBLIC	??_C@_06MHOJILIN@s3k_15@			; `string'
PUBLIC	??_C@_06OMMENIEO@s3k_16@			; `string'
PUBLIC	??_C@_06PFNPOJAP@s3k_17@			; `string'
PUBLIC	??_C@_06HCEHPFMA@s3k_18@			; `string'
PUBLIC	??_C@_06GLFMMEIB@s3k_19@			; `string'
PUBLIC	??_C@_06LINIMBJB@s3k_20@			; `string'
PUBLIC	??_C@_06KBMDPANA@s3k_21@			; `string'
PUBLIC	??_C@_06IKOOKDBD@s3k_22@			; `string'
PUBLIC	??_C@_06JDPFJCFC@s3k_23@			; `string'
PUBLIC	??_C@_06NMLEAEJF@s3k_24@			; `string'
PUBLIC	??_C@_06MFKPDFNE@s3k_25@			; `string'
PUBLIC	??_C@_06OOICGGBH@s3k_26@			; `string'
PUBLIC	??_C@_06PHJJFHFG@s3k_27@			; `string'
PUBLIC	??_C@_06HAABELJJ@s3k_28@			; `string'
PUBLIC	??_C@_06GJBKHKNI@s3k_29@			; `string'
PUBLIC	??_C@_06LJBKKLKG@s3k_30@			; `string'
PUBLIC	??_C@_06KAABJKOH@s3k_31@			; `string'
PUBLIC	??_C@_06ILCMMJCE@s3k_32@			; `string'
PUBLIC	??_C@_06JCDHPIGF@s3k_33@			; `string'
PUBLIC	??_C@_06NNHGGOKC@s3k_34@			; `string'
PUBLIC	??_C@_06MEGNFPOD@s3k_35@			; `string'
PUBLIC	??_C@_06OPEAAMCA@s3k_36@			; `string'
PUBLIC	??_C@_06PGFLDNGB@s3k_37@			; `string'
PUBLIC	??_C@_06HBMDCBKO@s3k_38@			; `string'
PUBLIC	??_C@_06GINIBAOP@s3k_39@			; `string'
PUBLIC	??_C@_06LMFFLNCD@s3k_40@			; `string'
PUBLIC	??_C@_06KFEOIMGC@s3k_41@			; `string'
PUBLIC	??_C@_06IOGDNPKB@s3k_42@			; `string'
PUBLIC	??_C@_06JHHIOOOA@s3k_43@			; `string'
PUBLIC	??_C@_06NIDJHICH@s3k_44@			; `string'
PUBLIC	??_C@_06MBCCEJGG@s3k_45@			; `string'
PUBLIC	??_C@_06OKAPBKKF@s3k_46@			; `string'
PUBLIC	??_C@_06PDBECLOE@s3k_47@			; `string'
PUBLIC	??_C@_06LNJHNHBE@s3k_50@			; `string'
PUBLIC	??_C@_06KEIMOGFF@s3k_51@			; `string'
PUBLIC	??_C@_06IPKBLFJG@s3k_52@			; `string'
PUBLIC	??_C@_06JGLKIENH@s3k_53@			; `string'
PUBLIC	??_C@_06NJPLBCBA@s3k_54@			; `string'
PUBLIC	??_C@_06MAOACDFB@s3k_55@			; `string'
PUBLIC	??_C@_06OLMNHAJC@s3k_56@			; `string'
PUBLIC	??_C@_06PCNGEBND@s3k_57@			; `string'
PUBLIC	??_C@_06HFEOFNBM@s3k_58@			; `string'
PUBLIC	??_C@_06GMFFGMFN@s3k_59@			; `string'
PUBLIC	??_C@_06LPNBGJEN@s3k_60@			; `string'
PUBLIC	??_C@_06KGMKFIAM@s3k_61@			; `string'
PUBLIC	??_C@_06INOHALMP@s3k_62@			; `string'
PUBLIC	??_C@_06JEPMDKIO@s3k_63@			; `string'
PUBLIC	??_C@_06NLLNKMEJ@s3k_64@			; `string'
PUBLIC	??_C@_06MCKGJNAI@s3k_65@			; `string'
PUBLIC	??_C@_06OJILMOML@s3k_66@			; `string'
PUBLIC	??_C@_06PAJAPPIK@s3k_67@			; `string'
PUBLIC	??_C@_06HHAIODEF@s3k_68@			; `string'
PUBLIC	??_C@_06GOBDNCAE@s3k_69@			; `string'
PUBLIC	??_C@_06LOBDADHK@s3k_70@			; `string'
PUBLIC	??_C@_06KHAIDCDL@s3k_71@			; `string'
PUBLIC	??_C@_06IMCFGBPI@s3k_72@			; `string'
PUBLIC	??_C@_06JFDOFALJ@s3k_73@			; `string'
PUBLIC	??_C@_06NKHPMGHO@s3k_74@			; `string'
PUBLIC	??_C@_06MDGEPHDP@s3k_75@			; `string'
PUBLIC	??_C@_06OIEJKEPM@s3k_76@			; `string'
PUBLIC	??_C@_06PBFCJFLN@s3k_77@			; `string'
PUBLIC	??_C@_06HGMKIJHC@s3k_78@			; `string'
PUBLIC	??_C@_06GPNBLIDD@s3k_79@			; `string'
PUBLIC	??_C@_06LFEPEEEH@s3k_80@			; `string'
PUBLIC	??_C@_06KMFEHFAG@s3k_81@			; `string'
PUBLIC	??_C@_06IHHJCGMF@s3k_82@			; `string'
PUBLIC	??_C@_06JOGCBHIE@s3k_83@			; `string'
PUBLIC	??_C@_06NBCDIBED@s3k_84@			; `string'
PUBLIC	??_C@_06MIDILAAC@s3k_85@			; `string'
PUBLIC	??_C@_06ODBFODMB@s3k_86@			; `string'
PUBLIC	??_C@_06PKAONCIA@s3k_87@			; `string'
PUBLIC	??_C@_06HNJGMOEP@s3k_88@			; `string'
PUBLIC	??_C@_06GEINPPAO@s3k_89@			; `string'
PUBLIC	??_C@_06LEINCOHA@s3k_90@			; `string'
PUBLIC	??_C@_06KNJGBPDB@s3k_91@			; `string'
PUBLIC	??_C@_06IGLLEMPC@s3k_92@			; `string'
PUBLIC	??_C@_06JPKAHNLD@s3k_93@			; `string'
PUBLIC	??_C@_06IDDCOJOK@shield@			; `string'
PUBLIC	??_C@_06PGONIFGJ@shldls@			; `string'
PUBLIC	??_C@_06PLDIJJFD@spdpad@			; `string'
PUBLIC	??_C@_04FAOIIEOH@spin@				; `string'
PUBLIC	??_C@_06BAELOANN@spkdth@			; `string'
PUBLIC	??_C@_06JAPKNKHK@splash@			; `string'
PUBLIC	??_C@_06FFEOPCJF@splish@			; `string'
PUBLIC	??_C@_06NNOEHJCI@spndsh@			; `string'
PUBLIC	??_C@_06BJPIPHJK@spring@			; `string'
PUBLIC	??_C@_06PLMIGBNP@statu1@			; `string'
PUBLIC	??_C@_06NAOFDCBM@statu2@			; `string'
PUBLIC	??_C@_06HLLKJCHK@steam1@			; `string'
PUBLIC	??_C@_06FAJHMBLJ@steam2@			; `string'
PUBLIC	??_C@_06NKGJNMCI@strpst@			; `string'
PUBLIC	??_C@_06NPAJBHH@supert@				; `string'
PUBLIC	??_C@_06MGHCCAPH@taunt1@			; `string'
PUBLIC	??_C@_06ONFPHDDE@taunt2@			; `string'
PUBLIC	??_C@_06PEEEECHF@taunt3@			; `string'
PUBLIC	??_C@_06LLAFNELC@taunt4@			; `string'
PUBLIC	??_C@_06GNBFADIP@telept@			; `string'
PUBLIC	??_C@_04OJPKPHA@thok@				; `string'
PUBLIC	??_C@_06NJJEKDIB@thwomp@			; `string'
PUBLIC	??_C@_04LHOBKCCC@tink@				; `string'
PUBLIC	??_C@_06CDPNGBML@trfire@			; `string'
PUBLIC	??_C@_06OKHOBKEI@trpowr@			; `string'
PUBLIC	??_C@_06FAIOGINF@turhit@			; `string'
PUBLIC	??_C@_06GJDHBKNI@victr1@			; `string'
PUBLIC	??_C@_06ECBKEJBL@victr2@			; `string'
PUBLIC	??_C@_06FLABHIFK@victr3@			; `string'
PUBLIC	??_C@_06BEEAOOJN@victr4@			; `string'
PUBLIC	??_C@_06EOJGMHJA@wbreak@			; `string'
PUBLIC	??_C@_06DIGKJNKP@wdjump@			; `string'
PUBLIC	??_C@_05PBLCGJGA@wslap@				; `string'
PUBLIC	??_C@_06IEEMEJEC@wtrdng@			; `string'
PUBLIC	??_C@_04HKCCIOCO@zoom@				; `string'
PUBLIC	??_C@_06IPKJOHKM@wdrip1@			; `string'
PUBLIC	??_C@_06KEIELEGP@wdrip2@			; `string'
PUBLIC	??_C@_06LNJPIFCO@wdrip3@			; `string'
PUBLIC	??_C@_06PCNOBDOJ@wdrip4@			; `string'
PUBLIC	??_C@_06OLMFCCKI@wdrip5@			; `string'
PUBLIC	??_C@_06MAOIHBGL@wdrip6@			; `string'
PUBLIC	??_C@_06NJPDEACK@wdrip7@			; `string'
PUBLIC	??_C@_06FOGLFMOF@wdrip8@			; `string'
PUBLIC	??_C@_05KBIKDFHO@buzz1@				; `string'
PUBLIC	??_C@_05IKKHGGLN@buzz2@				; `string'
PUBLIC	??_C@_05JDLMFHPM@buzz3@				; `string'
PUBLIC	??_C@_05NNCICCBB@grind@				; `string'
PUBLIC	??_C@_06PGBFDJG@lavbub@				; `string'
PUBLIC	??_C@_06ECJJPACI@rocks1@			; `string'
PUBLIC	??_C@_06GJLEKDOL@rocks2@			; `string'
PUBLIC	??_C@_06HAKPJCKK@rocks3@			; `string'
PUBLIC	??_C@_06DPOOAEGN@rocks4@			; `string'
PUBLIC	??_C@_06CLEAEFHI@rumbam@			; `string'
PUBLIC	??_C@_03IPGPICLN@jet@				; `string'
PUBLIC	??_C@_06FIPFPHIB@mindig@			; `string'
PUBLIC	??_C@_06JBGILNCO@flgcap@			; `string'
PUBLIC	??_C@_06LBPAHBIK@bebomb@			; `string'
PUBLIC	??_C@_06HLEKHAIL@bechrg@			; `string'
PUBLIC	??_C@_06MCLELBII@becrsh@			; `string'
PUBLIC	??_C@_06PDKLHKPK@bedeen@			; `string'
PUBLIC	??_C@_06IEFOIENJ@bedie1@			; `string'
PUBLIC	??_C@_06KPHDNHBK@bedie2@			; `string'
PUBLIC	??_C@_06ECJDJHKD@beeyow@			; `string'
PUBLIC	??_C@_06DLOOOHMA@befall@			; `string'
PUBLIC	??_C@_06DJCAPKBM@befire@			; `string'
PUBLIC	??_C@_06CHCLPBBD@beflap@			; `string'
PUBLIC	??_C@_06CGAFKEH@begoop@				; `string'
PUBLIC	??_C@_06IPHPGIGH@begrnd@			; `string'
PUBLIC	??_C@_06MPAGIPEK@behurt@			; `string'
PUBLIC	??_C@_06GMFMEMEH@bejet1@			; `string'
PUBLIC	??_C@_06EGANGNAO@belnch@			; `string'
PUBLIC	??_C@_06GFDDJKDP@beoutb@			; `string'
PUBLIC	??_C@_06MGLHPMGH@beragh@			; `string'
PUBLIC	??_C@_06GOLLJGLI@beshot@			; `string'
PUBLIC	??_C@_06BNIPDOEN@bestep@			; `string'
PUBLIC	??_C@_06MFCNHCFB@bestp2@			; `string'
PUBLIC	??_C@_06HPMDPEJB@bewar1@			; `string'
PUBLIC	??_C@_06FEOOKHFC@bewar2@			; `string'
PUBLIC	??_C@_06ENPFJGBD@bewar3@			; `string'
PUBLIC	??_C@_06CLEAANE@bewar4@				; `string'
PUBLIC	??_C@_06MEECHENB@bexpld@			; `string'
PUBLIC	??_C@_06IJIKNFNK@bgxpld@			; `string'
PUBLIC	??_C@_06FOGLCJCO@cannon@			; `string'
_DATA	SEGMENT
COMM	_ATTRPACK:DWORD
COMM	_freeslotnames:BYTE:033b5H
_DATA	ENDS
;	COMDAT ??_C@_06FOGLCJCO@cannon@
CONST	SEGMENT
??_C@_06FOGLCJCO@cannon@ DB 'cannon', 00H		; `string'
CONST	ENDS
;	COMDAT ??_C@_06IJIKNFNK@bgxpld@
CONST	SEGMENT
??_C@_06IJIKNFNK@bgxpld@ DB 'bgxpld', 00H		; `string'
CONST	ENDS
;	COMDAT ??_C@_06MEECHENB@bexpld@
CONST	SEGMENT
??_C@_06MEECHENB@bexpld@ DB 'bexpld', 00H		; `string'
CONST	ENDS
;	COMDAT ??_C@_06CLEAANE@bewar4@
CONST	SEGMENT
??_C@_06CLEAANE@bewar4@ DB 'bewar4', 00H		; `string'
CONST	ENDS
;	COMDAT ??_C@_06ENPFJGBD@bewar3@
CONST	SEGMENT
??_C@_06ENPFJGBD@bewar3@ DB 'bewar3', 00H		; `string'
CONST	ENDS
;	COMDAT ??_C@_06FEOOKHFC@bewar2@
CONST	SEGMENT
??_C@_06FEOOKHFC@bewar2@ DB 'bewar2', 00H		; `string'
CONST	ENDS
;	COMDAT ??_C@_06HPMDPEJB@bewar1@
CONST	SEGMENT
??_C@_06HPMDPEJB@bewar1@ DB 'bewar1', 00H		; `string'
CONST	ENDS
;	COMDAT ??_C@_06MFCNHCFB@bestp2@
CONST	SEGMENT
??_C@_06MFCNHCFB@bestp2@ DB 'bestp2', 00H		; `string'
CONST	ENDS
;	COMDAT ??_C@_06BNIPDOEN@bestep@
CONST	SEGMENT
??_C@_06BNIPDOEN@bestep@ DB 'bestep', 00H		; `string'
CONST	ENDS
;	COMDAT ??_C@_06GOLLJGLI@beshot@
CONST	SEGMENT
??_C@_06GOLLJGLI@beshot@ DB 'beshot', 00H		; `string'
CONST	ENDS
;	COMDAT ??_C@_06MGLHPMGH@beragh@
CONST	SEGMENT
??_C@_06MGLHPMGH@beragh@ DB 'beragh', 00H		; `string'
CONST	ENDS
;	COMDAT ??_C@_06GFDDJKDP@beoutb@
CONST	SEGMENT
??_C@_06GFDDJKDP@beoutb@ DB 'beoutb', 00H		; `string'
CONST	ENDS
;	COMDAT ??_C@_06EGANGNAO@belnch@
CONST	SEGMENT
??_C@_06EGANGNAO@belnch@ DB 'belnch', 00H		; `string'
CONST	ENDS
;	COMDAT ??_C@_06GMFMEMEH@bejet1@
CONST	SEGMENT
??_C@_06GMFMEMEH@bejet1@ DB 'bejet1', 00H		; `string'
CONST	ENDS
;	COMDAT ??_C@_06MPAGIPEK@behurt@
CONST	SEGMENT
??_C@_06MPAGIPEK@behurt@ DB 'behurt', 00H		; `string'
CONST	ENDS
;	COMDAT ??_C@_06IPHPGIGH@begrnd@
CONST	SEGMENT
??_C@_06IPHPGIGH@begrnd@ DB 'begrnd', 00H		; `string'
CONST	ENDS
;	COMDAT ??_C@_06CGAFKEH@begoop@
CONST	SEGMENT
??_C@_06CGAFKEH@begoop@ DB 'begoop', 00H		; `string'
CONST	ENDS
;	COMDAT ??_C@_06CHCLPBBD@beflap@
CONST	SEGMENT
??_C@_06CHCLPBBD@beflap@ DB 'beflap', 00H		; `string'
CONST	ENDS
;	COMDAT ??_C@_06DJCAPKBM@befire@
CONST	SEGMENT
??_C@_06DJCAPKBM@befire@ DB 'befire', 00H		; `string'
CONST	ENDS
;	COMDAT ??_C@_06DLOOOHMA@befall@
CONST	SEGMENT
??_C@_06DLOOOHMA@befall@ DB 'befall', 00H		; `string'
CONST	ENDS
;	COMDAT ??_C@_06ECJDJHKD@beeyow@
CONST	SEGMENT
??_C@_06ECJDJHKD@beeyow@ DB 'beeyow', 00H		; `string'
CONST	ENDS
;	COMDAT ??_C@_06KPHDNHBK@bedie2@
CONST	SEGMENT
??_C@_06KPHDNHBK@bedie2@ DB 'bedie2', 00H		; `string'
CONST	ENDS
;	COMDAT ??_C@_06IEFOIENJ@bedie1@
CONST	SEGMENT
??_C@_06IEFOIENJ@bedie1@ DB 'bedie1', 00H		; `string'
CONST	ENDS
;	COMDAT ??_C@_06PDKLHKPK@bedeen@
CONST	SEGMENT
??_C@_06PDKLHKPK@bedeen@ DB 'bedeen', 00H		; `string'
CONST	ENDS
;	COMDAT ??_C@_06MCLELBII@becrsh@
CONST	SEGMENT
??_C@_06MCLELBII@becrsh@ DB 'becrsh', 00H		; `string'
CONST	ENDS
;	COMDAT ??_C@_06HLEKHAIL@bechrg@
CONST	SEGMENT
??_C@_06HLEKHAIL@bechrg@ DB 'bechrg', 00H		; `string'
CONST	ENDS
;	COMDAT ??_C@_06LBPAHBIK@bebomb@
CONST	SEGMENT
??_C@_06LBPAHBIK@bebomb@ DB 'bebomb', 00H		; `string'
CONST	ENDS
;	COMDAT ??_C@_06JBGILNCO@flgcap@
CONST	SEGMENT
??_C@_06JBGILNCO@flgcap@ DB 'flgcap', 00H		; `string'
CONST	ENDS
;	COMDAT ??_C@_06FIPFPHIB@mindig@
CONST	SEGMENT
??_C@_06FIPFPHIB@mindig@ DB 'mindig', 00H		; `string'
CONST	ENDS
;	COMDAT ??_C@_03IPGPICLN@jet@
CONST	SEGMENT
??_C@_03IPGPICLN@jet@ DB 'jet', 00H			; `string'
CONST	ENDS
;	COMDAT ??_C@_06CLEAEFHI@rumbam@
CONST	SEGMENT
??_C@_06CLEAEFHI@rumbam@ DB 'rumbam', 00H		; `string'
CONST	ENDS
;	COMDAT ??_C@_06DPOOAEGN@rocks4@
CONST	SEGMENT
??_C@_06DPOOAEGN@rocks4@ DB 'rocks4', 00H		; `string'
CONST	ENDS
;	COMDAT ??_C@_06HAKPJCKK@rocks3@
CONST	SEGMENT
??_C@_06HAKPJCKK@rocks3@ DB 'rocks3', 00H		; `string'
CONST	ENDS
;	COMDAT ??_C@_06GJLEKDOL@rocks2@
CONST	SEGMENT
??_C@_06GJLEKDOL@rocks2@ DB 'rocks2', 00H		; `string'
CONST	ENDS
;	COMDAT ??_C@_06ECJJPACI@rocks1@
CONST	SEGMENT
??_C@_06ECJJPACI@rocks1@ DB 'rocks1', 00H		; `string'
CONST	ENDS
;	COMDAT ??_C@_06PGBFDJG@lavbub@
CONST	SEGMENT
??_C@_06PGBFDJG@lavbub@ DB 'lavbub', 00H		; `string'
CONST	ENDS
;	COMDAT ??_C@_05NNCICCBB@grind@
CONST	SEGMENT
??_C@_05NNCICCBB@grind@ DB 'grind', 00H			; `string'
CONST	ENDS
;	COMDAT ??_C@_05JDLMFHPM@buzz3@
CONST	SEGMENT
??_C@_05JDLMFHPM@buzz3@ DB 'buzz3', 00H			; `string'
CONST	ENDS
;	COMDAT ??_C@_05IKKHGGLN@buzz2@
CONST	SEGMENT
??_C@_05IKKHGGLN@buzz2@ DB 'buzz2', 00H			; `string'
CONST	ENDS
;	COMDAT ??_C@_05KBIKDFHO@buzz1@
CONST	SEGMENT
??_C@_05KBIKDFHO@buzz1@ DB 'buzz1', 00H			; `string'
CONST	ENDS
;	COMDAT ??_C@_06FOGLFMOF@wdrip8@
CONST	SEGMENT
??_C@_06FOGLFMOF@wdrip8@ DB 'wdrip8', 00H		; `string'
CONST	ENDS
;	COMDAT ??_C@_06NJPDEACK@wdrip7@
CONST	SEGMENT
??_C@_06NJPDEACK@wdrip7@ DB 'wdrip7', 00H		; `string'
CONST	ENDS
;	COMDAT ??_C@_06MAOIHBGL@wdrip6@
CONST	SEGMENT
??_C@_06MAOIHBGL@wdrip6@ DB 'wdrip6', 00H		; `string'
CONST	ENDS
;	COMDAT ??_C@_06OLMFCCKI@wdrip5@
CONST	SEGMENT
??_C@_06OLMFCCKI@wdrip5@ DB 'wdrip5', 00H		; `string'
CONST	ENDS
;	COMDAT ??_C@_06PCNOBDOJ@wdrip4@
CONST	SEGMENT
??_C@_06PCNOBDOJ@wdrip4@ DB 'wdrip4', 00H		; `string'
CONST	ENDS
;	COMDAT ??_C@_06LNJPIFCO@wdrip3@
CONST	SEGMENT
??_C@_06LNJPIFCO@wdrip3@ DB 'wdrip3', 00H		; `string'
CONST	ENDS
;	COMDAT ??_C@_06KEIELEGP@wdrip2@
CONST	SEGMENT
??_C@_06KEIELEGP@wdrip2@ DB 'wdrip2', 00H		; `string'
CONST	ENDS
;	COMDAT ??_C@_06IPKJOHKM@wdrip1@
CONST	SEGMENT
??_C@_06IPKJOHKM@wdrip1@ DB 'wdrip1', 00H		; `string'
CONST	ENDS
;	COMDAT ??_C@_04HKCCIOCO@zoom@
CONST	SEGMENT
??_C@_04HKCCIOCO@zoom@ DB 'zoom', 00H			; `string'
CONST	ENDS
;	COMDAT ??_C@_06IEEMEJEC@wtrdng@
CONST	SEGMENT
??_C@_06IEEMEJEC@wtrdng@ DB 'wtrdng', 00H		; `string'
CONST	ENDS
;	COMDAT ??_C@_05PBLCGJGA@wslap@
CONST	SEGMENT
??_C@_05PBLCGJGA@wslap@ DB 'wslap', 00H			; `string'
CONST	ENDS
;	COMDAT ??_C@_06DIGKJNKP@wdjump@
CONST	SEGMENT
??_C@_06DIGKJNKP@wdjump@ DB 'wdjump', 00H		; `string'
CONST	ENDS
;	COMDAT ??_C@_06EOJGMHJA@wbreak@
CONST	SEGMENT
??_C@_06EOJGMHJA@wbreak@ DB 'wbreak', 00H		; `string'
CONST	ENDS
;	COMDAT ??_C@_06BEEAOOJN@victr4@
CONST	SEGMENT
??_C@_06BEEAOOJN@victr4@ DB 'victr4', 00H		; `string'
CONST	ENDS
;	COMDAT ??_C@_06FLABHIFK@victr3@
CONST	SEGMENT
??_C@_06FLABHIFK@victr3@ DB 'victr3', 00H		; `string'
CONST	ENDS
;	COMDAT ??_C@_06ECBKEJBL@victr2@
CONST	SEGMENT
??_C@_06ECBKEJBL@victr2@ DB 'victr2', 00H		; `string'
CONST	ENDS
;	COMDAT ??_C@_06GJDHBKNI@victr1@
CONST	SEGMENT
??_C@_06GJDHBKNI@victr1@ DB 'victr1', 00H		; `string'
CONST	ENDS
;	COMDAT ??_C@_06FAIOGINF@turhit@
CONST	SEGMENT
??_C@_06FAIOGINF@turhit@ DB 'turhit', 00H		; `string'
CONST	ENDS
;	COMDAT ??_C@_06OKHOBKEI@trpowr@
CONST	SEGMENT
??_C@_06OKHOBKEI@trpowr@ DB 'trpowr', 00H		; `string'
CONST	ENDS
;	COMDAT ??_C@_06CDPNGBML@trfire@
CONST	SEGMENT
??_C@_06CDPNGBML@trfire@ DB 'trfire', 00H		; `string'
CONST	ENDS
;	COMDAT ??_C@_04LHOBKCCC@tink@
CONST	SEGMENT
??_C@_04LHOBKCCC@tink@ DB 'tink', 00H			; `string'
CONST	ENDS
;	COMDAT ??_C@_06NJJEKDIB@thwomp@
CONST	SEGMENT
??_C@_06NJJEKDIB@thwomp@ DB 'thwomp', 00H		; `string'
CONST	ENDS
;	COMDAT ??_C@_04OJPKPHA@thok@
CONST	SEGMENT
??_C@_04OJPKPHA@thok@ DB 'thok', 00H			; `string'
CONST	ENDS
;	COMDAT ??_C@_06GNBFADIP@telept@
CONST	SEGMENT
??_C@_06GNBFADIP@telept@ DB 'telept', 00H		; `string'
CONST	ENDS
;	COMDAT ??_C@_06LLAFNELC@taunt4@
CONST	SEGMENT
??_C@_06LLAFNELC@taunt4@ DB 'taunt4', 00H		; `string'
CONST	ENDS
;	COMDAT ??_C@_06PEEEECHF@taunt3@
CONST	SEGMENT
??_C@_06PEEEECHF@taunt3@ DB 'taunt3', 00H		; `string'
CONST	ENDS
;	COMDAT ??_C@_06ONFPHDDE@taunt2@
CONST	SEGMENT
??_C@_06ONFPHDDE@taunt2@ DB 'taunt2', 00H		; `string'
CONST	ENDS
;	COMDAT ??_C@_06MGHCCAPH@taunt1@
CONST	SEGMENT
??_C@_06MGHCCAPH@taunt1@ DB 'taunt1', 00H		; `string'
CONST	ENDS
;	COMDAT ??_C@_06NPAJBHH@supert@
CONST	SEGMENT
??_C@_06NPAJBHH@supert@ DB 'supert', 00H		; `string'
CONST	ENDS
;	COMDAT ??_C@_06NKGJNMCI@strpst@
CONST	SEGMENT
??_C@_06NKGJNMCI@strpst@ DB 'strpst', 00H		; `string'
CONST	ENDS
;	COMDAT ??_C@_06FAJHMBLJ@steam2@
CONST	SEGMENT
??_C@_06FAJHMBLJ@steam2@ DB 'steam2', 00H		; `string'
CONST	ENDS
;	COMDAT ??_C@_06HLLKJCHK@steam1@
CONST	SEGMENT
??_C@_06HLLKJCHK@steam1@ DB 'steam1', 00H		; `string'
CONST	ENDS
;	COMDAT ??_C@_06NAOFDCBM@statu2@
CONST	SEGMENT
??_C@_06NAOFDCBM@statu2@ DB 'statu2', 00H		; `string'
CONST	ENDS
;	COMDAT ??_C@_06PLMIGBNP@statu1@
CONST	SEGMENT
??_C@_06PLMIGBNP@statu1@ DB 'statu1', 00H		; `string'
CONST	ENDS
;	COMDAT ??_C@_06BJPIPHJK@spring@
CONST	SEGMENT
??_C@_06BJPIPHJK@spring@ DB 'spring', 00H		; `string'
CONST	ENDS
;	COMDAT ??_C@_06NNOEHJCI@spndsh@
CONST	SEGMENT
??_C@_06NNOEHJCI@spndsh@ DB 'spndsh', 00H		; `string'
CONST	ENDS
;	COMDAT ??_C@_06FFEOPCJF@splish@
CONST	SEGMENT
??_C@_06FFEOPCJF@splish@ DB 'splish', 00H		; `string'
CONST	ENDS
;	COMDAT ??_C@_06JAPKNKHK@splash@
CONST	SEGMENT
??_C@_06JAPKNKHK@splash@ DB 'splash', 00H		; `string'
CONST	ENDS
;	COMDAT ??_C@_06BAELOANN@spkdth@
CONST	SEGMENT
??_C@_06BAELOANN@spkdth@ DB 'spkdth', 00H		; `string'
CONST	ENDS
;	COMDAT ??_C@_04FAOIIEOH@spin@
CONST	SEGMENT
??_C@_04FAOIIEOH@spin@ DB 'spin', 00H			; `string'
CONST	ENDS
;	COMDAT ??_C@_06PLDIJJFD@spdpad@
CONST	SEGMENT
??_C@_06PLDIJJFD@spdpad@ DB 'spdpad', 00H		; `string'
CONST	ENDS
;	COMDAT ??_C@_06PGONIFGJ@shldls@
CONST	SEGMENT
??_C@_06PGONIFGJ@shldls@ DB 'shldls', 00H		; `string'
CONST	ENDS
;	COMDAT ??_C@_06IDDCOJOK@shield@
CONST	SEGMENT
??_C@_06IDDCOJOK@shield@ DB 'shield', 00H		; `string'
CONST	ENDS
;	COMDAT ??_C@_06JPKAHNLD@s3k_93@
CONST	SEGMENT
??_C@_06JPKAHNLD@s3k_93@ DB 's3k_93', 00H		; `string'
CONST	ENDS
;	COMDAT ??_C@_06IGLLEMPC@s3k_92@
CONST	SEGMENT
??_C@_06IGLLEMPC@s3k_92@ DB 's3k_92', 00H		; `string'
CONST	ENDS
;	COMDAT ??_C@_06KNJGBPDB@s3k_91@
CONST	SEGMENT
??_C@_06KNJGBPDB@s3k_91@ DB 's3k_91', 00H		; `string'
CONST	ENDS
;	COMDAT ??_C@_06LEINCOHA@s3k_90@
CONST	SEGMENT
??_C@_06LEINCOHA@s3k_90@ DB 's3k_90', 00H		; `string'
CONST	ENDS
;	COMDAT ??_C@_06GEINPPAO@s3k_89@
CONST	SEGMENT
??_C@_06GEINPPAO@s3k_89@ DB 's3k_89', 00H		; `string'
CONST	ENDS
;	COMDAT ??_C@_06HNJGMOEP@s3k_88@
CONST	SEGMENT
??_C@_06HNJGMOEP@s3k_88@ DB 's3k_88', 00H		; `string'
CONST	ENDS
;	COMDAT ??_C@_06PKAONCIA@s3k_87@
CONST	SEGMENT
??_C@_06PKAONCIA@s3k_87@ DB 's3k_87', 00H		; `string'
CONST	ENDS
;	COMDAT ??_C@_06ODBFODMB@s3k_86@
CONST	SEGMENT
??_C@_06ODBFODMB@s3k_86@ DB 's3k_86', 00H		; `string'
CONST	ENDS
;	COMDAT ??_C@_06MIDILAAC@s3k_85@
CONST	SEGMENT
??_C@_06MIDILAAC@s3k_85@ DB 's3k_85', 00H		; `string'
CONST	ENDS
;	COMDAT ??_C@_06NBCDIBED@s3k_84@
CONST	SEGMENT
??_C@_06NBCDIBED@s3k_84@ DB 's3k_84', 00H		; `string'
CONST	ENDS
;	COMDAT ??_C@_06JOGCBHIE@s3k_83@
CONST	SEGMENT
??_C@_06JOGCBHIE@s3k_83@ DB 's3k_83', 00H		; `string'
CONST	ENDS
;	COMDAT ??_C@_06IHHJCGMF@s3k_82@
CONST	SEGMENT
??_C@_06IHHJCGMF@s3k_82@ DB 's3k_82', 00H		; `string'
CONST	ENDS
;	COMDAT ??_C@_06KMFEHFAG@s3k_81@
CONST	SEGMENT
??_C@_06KMFEHFAG@s3k_81@ DB 's3k_81', 00H		; `string'
CONST	ENDS
;	COMDAT ??_C@_06LFEPEEEH@s3k_80@
CONST	SEGMENT
??_C@_06LFEPEEEH@s3k_80@ DB 's3k_80', 00H		; `string'
CONST	ENDS
;	COMDAT ??_C@_06GPNBLIDD@s3k_79@
CONST	SEGMENT
??_C@_06GPNBLIDD@s3k_79@ DB 's3k_79', 00H		; `string'
CONST	ENDS
;	COMDAT ??_C@_06HGMKIJHC@s3k_78@
CONST	SEGMENT
??_C@_06HGMKIJHC@s3k_78@ DB 's3k_78', 00H		; `string'
CONST	ENDS
;	COMDAT ??_C@_06PBFCJFLN@s3k_77@
CONST	SEGMENT
??_C@_06PBFCJFLN@s3k_77@ DB 's3k_77', 00H		; `string'
CONST	ENDS
;	COMDAT ??_C@_06OIEJKEPM@s3k_76@
CONST	SEGMENT
??_C@_06OIEJKEPM@s3k_76@ DB 's3k_76', 00H		; `string'
CONST	ENDS
;	COMDAT ??_C@_06MDGEPHDP@s3k_75@
CONST	SEGMENT
??_C@_06MDGEPHDP@s3k_75@ DB 's3k_75', 00H		; `string'
CONST	ENDS
;	COMDAT ??_C@_06NKHPMGHO@s3k_74@
CONST	SEGMENT
??_C@_06NKHPMGHO@s3k_74@ DB 's3k_74', 00H		; `string'
CONST	ENDS
;	COMDAT ??_C@_06JFDOFALJ@s3k_73@
CONST	SEGMENT
??_C@_06JFDOFALJ@s3k_73@ DB 's3k_73', 00H		; `string'
CONST	ENDS
;	COMDAT ??_C@_06IMCFGBPI@s3k_72@
CONST	SEGMENT
??_C@_06IMCFGBPI@s3k_72@ DB 's3k_72', 00H		; `string'
CONST	ENDS
;	COMDAT ??_C@_06KHAIDCDL@s3k_71@
CONST	SEGMENT
??_C@_06KHAIDCDL@s3k_71@ DB 's3k_71', 00H		; `string'
CONST	ENDS
;	COMDAT ??_C@_06LOBDADHK@s3k_70@
CONST	SEGMENT
??_C@_06LOBDADHK@s3k_70@ DB 's3k_70', 00H		; `string'
CONST	ENDS
;	COMDAT ??_C@_06GOBDNCAE@s3k_69@
CONST	SEGMENT
??_C@_06GOBDNCAE@s3k_69@ DB 's3k_69', 00H		; `string'
CONST	ENDS
;	COMDAT ??_C@_06HHAIODEF@s3k_68@
CONST	SEGMENT
??_C@_06HHAIODEF@s3k_68@ DB 's3k_68', 00H		; `string'
CONST	ENDS
;	COMDAT ??_C@_06PAJAPPIK@s3k_67@
CONST	SEGMENT
??_C@_06PAJAPPIK@s3k_67@ DB 's3k_67', 00H		; `string'
CONST	ENDS
;	COMDAT ??_C@_06OJILMOML@s3k_66@
CONST	SEGMENT
??_C@_06OJILMOML@s3k_66@ DB 's3k_66', 00H		; `string'
CONST	ENDS
;	COMDAT ??_C@_06MCKGJNAI@s3k_65@
CONST	SEGMENT
??_C@_06MCKGJNAI@s3k_65@ DB 's3k_65', 00H		; `string'
CONST	ENDS
;	COMDAT ??_C@_06NLLNKMEJ@s3k_64@
CONST	SEGMENT
??_C@_06NLLNKMEJ@s3k_64@ DB 's3k_64', 00H		; `string'
CONST	ENDS
;	COMDAT ??_C@_06JEPMDKIO@s3k_63@
CONST	SEGMENT
??_C@_06JEPMDKIO@s3k_63@ DB 's3k_63', 00H		; `string'
CONST	ENDS
;	COMDAT ??_C@_06INOHALMP@s3k_62@
CONST	SEGMENT
??_C@_06INOHALMP@s3k_62@ DB 's3k_62', 00H		; `string'
CONST	ENDS
;	COMDAT ??_C@_06KGMKFIAM@s3k_61@
CONST	SEGMENT
??_C@_06KGMKFIAM@s3k_61@ DB 's3k_61', 00H		; `string'
CONST	ENDS
;	COMDAT ??_C@_06LPNBGJEN@s3k_60@
CONST	SEGMENT
??_C@_06LPNBGJEN@s3k_60@ DB 's3k_60', 00H		; `string'
CONST	ENDS
;	COMDAT ??_C@_06GMFFGMFN@s3k_59@
CONST	SEGMENT
??_C@_06GMFFGMFN@s3k_59@ DB 's3k_59', 00H		; `string'
CONST	ENDS
;	COMDAT ??_C@_06HFEOFNBM@s3k_58@
CONST	SEGMENT
??_C@_06HFEOFNBM@s3k_58@ DB 's3k_58', 00H		; `string'
CONST	ENDS
;	COMDAT ??_C@_06PCNGEBND@s3k_57@
CONST	SEGMENT
??_C@_06PCNGEBND@s3k_57@ DB 's3k_57', 00H		; `string'
CONST	ENDS
;	COMDAT ??_C@_06OLMNHAJC@s3k_56@
CONST	SEGMENT
??_C@_06OLMNHAJC@s3k_56@ DB 's3k_56', 00H		; `string'
CONST	ENDS
;	COMDAT ??_C@_06MAOACDFB@s3k_55@
CONST	SEGMENT
??_C@_06MAOACDFB@s3k_55@ DB 's3k_55', 00H		; `string'
CONST	ENDS
;	COMDAT ??_C@_06NJPLBCBA@s3k_54@
CONST	SEGMENT
??_C@_06NJPLBCBA@s3k_54@ DB 's3k_54', 00H		; `string'
CONST	ENDS
;	COMDAT ??_C@_06JGLKIENH@s3k_53@
CONST	SEGMENT
??_C@_06JGLKIENH@s3k_53@ DB 's3k_53', 00H		; `string'
CONST	ENDS
;	COMDAT ??_C@_06IPKBLFJG@s3k_52@
CONST	SEGMENT
??_C@_06IPKBLFJG@s3k_52@ DB 's3k_52', 00H		; `string'
CONST	ENDS
;	COMDAT ??_C@_06KEIMOGFF@s3k_51@
CONST	SEGMENT
??_C@_06KEIMOGFF@s3k_51@ DB 's3k_51', 00H		; `string'
CONST	ENDS
;	COMDAT ??_C@_06LNJHNHBE@s3k_50@
CONST	SEGMENT
??_C@_06LNJHNHBE@s3k_50@ DB 's3k_50', 00H		; `string'
CONST	ENDS
;	COMDAT ??_C@_06PDBECLOE@s3k_47@
CONST	SEGMENT
??_C@_06PDBECLOE@s3k_47@ DB 's3k_47', 00H		; `string'
CONST	ENDS
;	COMDAT ??_C@_06OKAPBKKF@s3k_46@
CONST	SEGMENT
??_C@_06OKAPBKKF@s3k_46@ DB 's3k_46', 00H		; `string'
CONST	ENDS
;	COMDAT ??_C@_06MBCCEJGG@s3k_45@
CONST	SEGMENT
??_C@_06MBCCEJGG@s3k_45@ DB 's3k_45', 00H		; `string'
CONST	ENDS
;	COMDAT ??_C@_06NIDJHICH@s3k_44@
CONST	SEGMENT
??_C@_06NIDJHICH@s3k_44@ DB 's3k_44', 00H		; `string'
CONST	ENDS
;	COMDAT ??_C@_06JHHIOOOA@s3k_43@
CONST	SEGMENT
??_C@_06JHHIOOOA@s3k_43@ DB 's3k_43', 00H		; `string'
CONST	ENDS
;	COMDAT ??_C@_06IOGDNPKB@s3k_42@
CONST	SEGMENT
??_C@_06IOGDNPKB@s3k_42@ DB 's3k_42', 00H		; `string'
CONST	ENDS
;	COMDAT ??_C@_06KFEOIMGC@s3k_41@
CONST	SEGMENT
??_C@_06KFEOIMGC@s3k_41@ DB 's3k_41', 00H		; `string'
CONST	ENDS
;	COMDAT ??_C@_06LMFFLNCD@s3k_40@
CONST	SEGMENT
??_C@_06LMFFLNCD@s3k_40@ DB 's3k_40', 00H		; `string'
CONST	ENDS
;	COMDAT ??_C@_06GINIBAOP@s3k_39@
CONST	SEGMENT
??_C@_06GINIBAOP@s3k_39@ DB 's3k_39', 00H		; `string'
CONST	ENDS
;	COMDAT ??_C@_06HBMDCBKO@s3k_38@
CONST	SEGMENT
??_C@_06HBMDCBKO@s3k_38@ DB 's3k_38', 00H		; `string'
CONST	ENDS
;	COMDAT ??_C@_06PGFLDNGB@s3k_37@
CONST	SEGMENT
??_C@_06PGFLDNGB@s3k_37@ DB 's3k_37', 00H		; `string'
CONST	ENDS
;	COMDAT ??_C@_06OPEAAMCA@s3k_36@
CONST	SEGMENT
??_C@_06OPEAAMCA@s3k_36@ DB 's3k_36', 00H		; `string'
CONST	ENDS
;	COMDAT ??_C@_06MEGNFPOD@s3k_35@
CONST	SEGMENT
??_C@_06MEGNFPOD@s3k_35@ DB 's3k_35', 00H		; `string'
CONST	ENDS
;	COMDAT ??_C@_06NNHGGOKC@s3k_34@
CONST	SEGMENT
??_C@_06NNHGGOKC@s3k_34@ DB 's3k_34', 00H		; `string'
CONST	ENDS
;	COMDAT ??_C@_06JCDHPIGF@s3k_33@
CONST	SEGMENT
??_C@_06JCDHPIGF@s3k_33@ DB 's3k_33', 00H		; `string'
CONST	ENDS
;	COMDAT ??_C@_06ILCMMJCE@s3k_32@
CONST	SEGMENT
??_C@_06ILCMMJCE@s3k_32@ DB 's3k_32', 00H		; `string'
CONST	ENDS
;	COMDAT ??_C@_06KAABJKOH@s3k_31@
CONST	SEGMENT
??_C@_06KAABJKOH@s3k_31@ DB 's3k_31', 00H		; `string'
CONST	ENDS
;	COMDAT ??_C@_06LJBKKLKG@s3k_30@
CONST	SEGMENT
??_C@_06LJBKKLKG@s3k_30@ DB 's3k_30', 00H		; `string'
CONST	ENDS
;	COMDAT ??_C@_06GJBKHKNI@s3k_29@
CONST	SEGMENT
??_C@_06GJBKHKNI@s3k_29@ DB 's3k_29', 00H		; `string'
CONST	ENDS
;	COMDAT ??_C@_06HAABELJJ@s3k_28@
CONST	SEGMENT
??_C@_06HAABELJJ@s3k_28@ DB 's3k_28', 00H		; `string'
CONST	ENDS
;	COMDAT ??_C@_06PHJJFHFG@s3k_27@
CONST	SEGMENT
??_C@_06PHJJFHFG@s3k_27@ DB 's3k_27', 00H		; `string'
CONST	ENDS
;	COMDAT ??_C@_06OOICGGBH@s3k_26@
CONST	SEGMENT
??_C@_06OOICGGBH@s3k_26@ DB 's3k_26', 00H		; `string'
CONST	ENDS
;	COMDAT ??_C@_06MFKPDFNE@s3k_25@
CONST	SEGMENT
??_C@_06MFKPDFNE@s3k_25@ DB 's3k_25', 00H		; `string'
CONST	ENDS
;	COMDAT ??_C@_06NMLEAEJF@s3k_24@
CONST	SEGMENT
??_C@_06NMLEAEJF@s3k_24@ DB 's3k_24', 00H		; `string'
CONST	ENDS
;	COMDAT ??_C@_06JDPFJCFC@s3k_23@
CONST	SEGMENT
??_C@_06JDPFJCFC@s3k_23@ DB 's3k_23', 00H		; `string'
CONST	ENDS
;	COMDAT ??_C@_06IKOOKDBD@s3k_22@
CONST	SEGMENT
??_C@_06IKOOKDBD@s3k_22@ DB 's3k_22', 00H		; `string'
CONST	ENDS
;	COMDAT ??_C@_06KBMDPANA@s3k_21@
CONST	SEGMENT
??_C@_06KBMDPANA@s3k_21@ DB 's3k_21', 00H		; `string'
CONST	ENDS
;	COMDAT ??_C@_06LINIMBJB@s3k_20@
CONST	SEGMENT
??_C@_06LINIMBJB@s3k_20@ DB 's3k_20', 00H		; `string'
CONST	ENDS
;	COMDAT ??_C@_06GLFMMEIB@s3k_19@
CONST	SEGMENT
??_C@_06GLFMMEIB@s3k_19@ DB 's3k_19', 00H		; `string'
CONST	ENDS
;	COMDAT ??_C@_06HCEHPFMA@s3k_18@
CONST	SEGMENT
??_C@_06HCEHPFMA@s3k_18@ DB 's3k_18', 00H		; `string'
CONST	ENDS
;	COMDAT ??_C@_06PFNPOJAP@s3k_17@
CONST	SEGMENT
??_C@_06PFNPOJAP@s3k_17@ DB 's3k_17', 00H		; `string'
CONST	ENDS
;	COMDAT ??_C@_06OMMENIEO@s3k_16@
CONST	SEGMENT
??_C@_06OMMENIEO@s3k_16@ DB 's3k_16', 00H		; `string'
CONST	ENDS
;	COMDAT ??_C@_06MHOJILIN@s3k_15@
CONST	SEGMENT
??_C@_06MHOJILIN@s3k_15@ DB 's3k_15', 00H		; `string'
CONST	ENDS
;	COMDAT ??_C@_06NOPCLKMM@s3k_14@
CONST	SEGMENT
??_C@_06NOPCLKMM@s3k_14@ DB 's3k_14', 00H		; `string'
CONST	ENDS
;	COMDAT ??_C@_06JBLDCMAL@s3k_13@
CONST	SEGMENT
??_C@_06JBLDCMAL@s3k_13@ DB 's3k_13', 00H		; `string'
CONST	ENDS
;	COMDAT ??_C@_06OLEBFMCD@rumble@
CONST	SEGMENT
??_C@_06OLEBFMCD@rumble@ DB 'rumble', 00H		; `string'
CONST	ENDS
;	COMDAT ??_C@_06JCHIPOLP@rlaunc@
CONST	SEGMENT
??_C@_06JCHIPOLP@rlaunc@ DB 'rlaunc', 00H		; `string'
CONST	ENDS
;	COMDAT ??_C@_06CJGPBOPG@rainin@
CONST	SEGMENT
??_C@_06CJGPBOPG@rainin@ DB 'rainin', 00H		; `string'
CONST	ENDS
;	COMDAT ??_C@_05LNKCELPI@radio@
CONST	SEGMENT
??_C@_05LNKCELPI@radio@ DB 'radio', 00H			; `string'
CONST	ENDS
;	COMDAT ??_C@_06KLBAJMAC@putput@
CONST	SEGMENT
??_C@_06KLBAJMAC@putput@ DB 'putput', 00H		; `string'
CONST	ENDS
;	COMDAT ??_C@_06IBDCBJNB@pudpud@
CONST	SEGMENT
??_C@_06IBDCBJNB@pudpud@ DB 'pudpud', 00H		; `string'
CONST	ENDS
;	COMDAT ??_C@_05HDIEALKC@pstop@
CONST	SEGMENT
??_C@_05HDIEALKC@pstop@ DB 'pstop', 00H			; `string'
CONST	ENDS
;	COMDAT ??_C@_06JAKDFJGA@pstart@
CONST	SEGMENT
??_C@_06JAKDFJGA@pstart@ DB 'pstart', 00H		; `string'
CONST	ENDS
;	COMDAT ??_C@_06JLCCNEJC@prloop@
CONST	SEGMENT
??_C@_06JLCCNEJC@prloop@ DB 'prloop', 00H		; `string'
CONST	ENDS
;	COMDAT ??_C@_03NJDAHFJE@pop@
CONST	SEGMENT
??_C@_03NJDAHFJE@pop@ DB 'pop', 00H			; `string'
CONST	ENDS
;	COMDAT ??_C@_04MLHKFLF@pogo@
CONST	SEGMENT
??_C@_04MLHKFLF@pogo@ DB 'pogo', 00H			; `string'
CONST	ENDS
;	COMDAT ??_C@_06PCHCJGHF@pksoc6@
CONST	SEGMENT
??_C@_06PCHCJGHF@pksoc6@ DB 'pksoc6', 00H		; `string'
CONST	ENDS
;	COMDAT ??_C@_06NJFPMFLG@pksoc5@
CONST	SEGMENT
??_C@_06NJFPMFLG@pksoc5@ DB 'pksoc5', 00H		; `string'
CONST	ENDS
;	COMDAT ??_C@_06MAEEPEPH@pksoc4@
CONST	SEGMENT
??_C@_06MAEEPEPH@pksoc4@ DB 'pksoc4', 00H		; `string'
CONST	ENDS
;	COMDAT ??_C@_06IPAFGCDA@pksoc3@
CONST	SEGMENT
??_C@_06IPAFGCDA@pksoc3@ DB 'pksoc3', 00H		; `string'
CONST	ENDS
;	COMDAT ??_C@_06JGBOFDHB@pksoc2@
CONST	SEGMENT
??_C@_06JGBOFDHB@pksoc2@ DB 'pksoc2', 00H		; `string'
CONST	ENDS
;	COMDAT ??_C@_06LNDDAALC@pksoc1@
CONST	SEGMENT
??_C@_06LNDDAALC@pksoc1@ DB 'pksoc1', 00H		; `string'
CONST	ENDS
;	COMDAT ??_C@_06LICJJMMK@ngskid@
CONST	SEGMENT
??_C@_06LICJJMMK@ngskid@ DB 'ngskid', 00H		; `string'
CONST	ENDS
;	COMDAT ??_C@_06EFGOEEDF@nghurt@
CONST	SEGMENT
??_C@_06EFGOEEDF@nghurt@ DB 'nghurt', 00H		; `string'
CONST	ENDS
;	COMDAT ??_C@_06PJNPGHML@ngdone@
CONST	SEGMENT
??_C@_06PJNPGHML@ngdone@ DB 'ngdone', 00H		; `string'
CONST	ENDS
;	COMDAT ??_C@_06OCPLGBOB@ncspec@
CONST	SEGMENT
??_C@_06OCPLGBOB@ncspec@ DB 'ncspec', 00H		; `string'
CONST	ENDS
;	COMDAT ??_C@_06NJEKFEBL@ncitem@
CONST	SEGMENT
??_C@_06NJEKFEBL@ncitem@ DB 'ncitem', 00H		; `string'
CONST	ENDS
;	COMDAT ??_C@_06KFKOLILH@nbmper@
CONST	SEGMENT
??_C@_06KFKOLILH@nbmper@ DB 'nbmper', 00H		; `string'
CONST	ENDS
;	COMDAT ??_C@_06GAGNONNH@mswing@
CONST	SEGMENT
??_C@_06GAGNONNH@mswing@ DB 'mswing', 00H		; `string'
CONST	ENDS
;	COMDAT ??_C@_05LNPLAMNK@mixup@
CONST	SEGMENT
??_C@_05LNPLAMNK@mixup@ DB 'mixup', 00H			; `string'
CONST	ENDS
;	COMDAT ??_C@_05OEBLJHNM@menu1@
CONST	SEGMENT
??_C@_05OEBLJHNM@menu1@ DB 'menu1', 00H			; `string'
CONST	ENDS
;	COMDAT ??_C@_06LBALAMIG@marioa@
CONST	SEGMENT
??_C@_06LBALAMIG@marioa@ DB 'marioa', 00H		; `string'
CONST	ENDS
;	COMDAT ??_C@_06MDGJNLNK@mario9@
CONST	SEGMENT
??_C@_06MDGJNLNK@mario9@ DB 'mario9', 00H		; `string'
CONST	ENDS
;	COMDAT ??_C@_06NKHCOKJL@mario8@
CONST	SEGMENT
??_C@_06NKHCOKJL@mario8@ DB 'mario8', 00H		; `string'
CONST	ENDS
;	COMDAT ??_C@_06FNOKPGFE@mario7@
CONST	SEGMENT
??_C@_06FNOKPGFE@mario7@ DB 'mario7', 00H		; `string'
CONST	ENDS
;	COMDAT ??_C@_06EEPBMHBF@mario6@
CONST	SEGMENT
??_C@_06EEPBMHBF@mario6@ DB 'mario6', 00H		; `string'
CONST	ENDS
;	COMDAT ??_C@_06GPNMJENG@mario5@
CONST	SEGMENT
??_C@_06GPNMJENG@mario5@ DB 'mario5', 00H		; `string'
CONST	ENDS
;	COMDAT ??_C@_06HGMHKFJH@mario4@
CONST	SEGMENT
??_C@_06HGMHKFJH@mario4@ DB 'mario4', 00H		; `string'
CONST	ENDS
;	COMDAT ??_C@_06DJIGDDFA@mario3@
CONST	SEGMENT
??_C@_06DJIGDDFA@mario3@ DB 'mario3', 00H		; `string'
CONST	ENDS
;	COMDAT ??_C@_06CAJNACBB@mario2@
CONST	SEGMENT
??_C@_06CAJNACBB@mario2@ DB 'mario2', 00H		; `string'
CONST	ENDS
;	COMDAT ??_C@_06LLAFBNC@mario1@
CONST	SEGMENT
??_C@_06LLAFBNC@mario1@ DB 'mario1', 00H		; `string'
CONST	ENDS
;	COMDAT ??_C@_06NLBDGEFJ@lvpass@
CONST	SEGMENT
??_C@_06NLBDGEFJ@lvpass@ DB 'lvpass', 00H		; `string'
CONST	ENDS
;	COMDAT ??_C@_04EIGHDMBA@lose@
CONST	SEGMENT
??_C@_04EIGHDMBA@lose@ DB 'lose', 00H			; `string'
CONST	ENDS
;	COMDAT ??_C@_06CAGHLAOP@litng4@
CONST	SEGMENT
??_C@_06CAGHLAOP@litng4@ DB 'litng4', 00H		; `string'
CONST	ENDS
;	COMDAT ??_C@_06GPCGCGCI@litng3@
CONST	SEGMENT
??_C@_06GPCGCGCI@litng3@ DB 'litng3', 00H		; `string'
CONST	ENDS
;	COMDAT ??_C@_06HGDNBHGJ@litng2@
CONST	SEGMENT
??_C@_06HGDNBHGJ@litng2@ DB 'litng2', 00H		; `string'
CONST	ENDS
;	COMDAT ??_C@_06FNBAEEKK@litng1@
CONST	SEGMENT
??_C@_06FNBAEEKK@litng1@ DB 'litng1', 00H		; `string'
CONST	ENDS
;	COMDAT ??_C@_05LPMGNCEN@laser@
CONST	SEGMENT
??_C@_05LPMGNCEN@laser@ DB 'laser', 00H			; `string'
CONST	ENDS
;	COMDAT ??_C@_06DDIOGJPH@koopfr@
CONST	SEGMENT
??_C@_06DDIOGJPH@koopfr@ DB 'koopfr', 00H		; `string'
CONST	ENDS
;	COMDAT ??_C@_04NJIOBGCF@jump@
CONST	SEGMENT
??_C@_04NJIOBGCF@jump@ DB 'jump', 00H			; `string'
CONST	ENDS
;	COMDAT ??_C@_06JJFGCMO@itemup@
CONST	SEGMENT
??_C@_06JJFGCMO@itemup@ DB 'itemup', 00H		; `string'
CONST	ENDS
;	COMDAT ??_C@_05CGEKNPEL@ideya@
CONST	SEGMENT
??_C@_05CGEKNPEL@ideya@ DB 'ideya', 00H			; `string'
CONST	ENDS
;	COMDAT ??_C@_05HCCHNJMC@hoop3@
CONST	SEGMENT
??_C@_05HCCHNJMC@hoop3@ DB 'hoop3', 00H			; `string'
CONST	ENDS
;	COMDAT ??_C@_05GLDMOIID@hoop2@
CONST	SEGMENT
??_C@_05GLDMOIID@hoop2@ DB 'hoop2', 00H			; `string'
CONST	ENDS
;	COMDAT ??_C@_05EABBLLEA@hoop1@
CONST	SEGMENT
??_C@_05EABBLLEA@hoop1@ DB 'hoop1', 00H			; `string'
CONST	ENDS
;	COMDAT ??_C@_06JIKFICKK@hidden@
CONST	SEGMENT
??_C@_06JIKFICKK@hidden@ DB 'hidden', 00H		; `string'
CONST	ENDS
;	COMDAT ??_C@_06GHNLMLEL@gravch@
CONST	SEGMENT
??_C@_06GHNLMLEL@gravch@ DB 'gravch', 00H		; `string'
CONST	ENDS
;	COMDAT ??_C@_06CODIMGPF@gspray@
CONST	SEGMENT
??_C@_06CODIMGPF@gspray@ DB 'gspray', 00H		; `string'
CONST	ENDS
;	COMDAT ??_C@_05IPPOJEM@gloop@
CONST	SEGMENT
??_C@_05IPPOJEM@gloop@ DB 'gloop', 00H			; `string'
CONST	ENDS
;	COMDAT ??_C@_04OAAIDAAO@ghit@
CONST	SEGMENT
??_C@_04OAAIDAAO@ghit@ DB 'ghit', 00H			; `string'
CONST	ENDS
;	COMDAT ??_C@_06NDFIBLOM@gclose@
CONST	SEGMENT
??_C@_06NDFIBLOM@gclose@ DB 'gclose', 00H		; `string'
CONST	ENDS
;	COMDAT ??_C@_05NFOFDCJP@gbeep@
CONST	SEGMENT
??_C@_05NFOFDCJP@gbeep@ DB 'gbeep', 00H			; `string'
CONST	ENDS
;	COMDAT ??_C@_04OINNJMCG@gasp@
CONST	SEGMENT
??_C@_04OINNJMCG@gasp@ DB 'gasp', 00H			; `string'
CONST	ENDS
;	COMDAT ??_C@_06EJNDBBOL@floush@
CONST	SEGMENT
??_C@_06EJNDBBOL@floush@ DB 'floush', 00H		; `string'
CONST	ENDS
;	COMDAT ??_C@_06ELKJBCPM@fizzle@
CONST	SEGMENT
??_C@_06ELKJBCPM@fizzle@ DB 'fizzle', 00H		; `string'
CONST	ENDS
;	COMDAT ??_C@_04CGHOBBFK@fire@
CONST	SEGMENT
??_C@_04CGHOBBFK@fire@ DB 'fire', 00H			; `string'
CONST	ENDS
;	COMDAT ??_C@_06BMPDCNKK@emfind@
CONST	SEGMENT
??_C@_06BMPDCNKK@emfind@ DB 'emfind', 00H		; `string'
CONST	ENDS
;	COMDAT ??_C@_06GEJFPBOB@elevb3@
CONST	SEGMENT
??_C@_06GEJFPBOB@elevb3@ DB 'elevb3', 00H		; `string'
CONST	ENDS
;	COMDAT ??_C@_06HNIOMAKA@elevb2@
CONST	SEGMENT
??_C@_06HNIOMAKA@elevb2@ DB 'elevb2', 00H		; `string'
CONST	ENDS
;	COMDAT ??_C@_06FGKDJDGD@elevb1@
CONST	SEGMENT
??_C@_06FGKDJDGD@elevb1@ DB 'elevb1', 00H		; `string'
CONST	ENDS
;	COMDAT ??_C@_06GGNDEPLI@eleva3@
CONST	SEGMENT
??_C@_06GGNDEPLI@eleva3@ DB 'eleva3', 00H		; `string'
CONST	ENDS
;	COMDAT ??_C@_06HPMIHOPJ@eleva2@
CONST	SEGMENT
??_C@_06HPMIHOPJ@eleva2@ DB 'eleva2', 00H		; `string'
CONST	ENDS
;	COMDAT ??_C@_06FEOFCNDK@eleva1@
CONST	SEGMENT
??_C@_06FEOFCNDK@eleva1@ DB 'eleva1', 00H		; `string'
CONST	ENDS
;	COMDAT ??_C@_06CILJEMCC@dwnind@
CONST	SEGMENT
??_C@_06CILJEMCC@dwnind@ DB 'dwnind', 00H		; `string'
CONST	ENDS
;	COMDAT ??_C@_05PHLPIDJB@drip4@
CONST	SEGMENT
??_C@_05PHLPIDJB@drip4@ DB 'drip4', 00H			; `string'
CONST	ENDS
;	COMDAT ??_C@_05LIPOBFFG@drip3@
CONST	SEGMENT
??_C@_05LIPOBFFG@drip3@ DB 'drip3', 00H			; `string'
CONST	ENDS
;	COMDAT ??_C@_05KBOFCEBH@drip2@
CONST	SEGMENT
??_C@_05KBOFCEBH@drip2@ DB 'drip2', 00H			; `string'
CONST	ENDS
;	COMDAT ??_C@_05IKMIHHNE@drip1@
CONST	SEGMENT
??_C@_05IKMIHHNE@drip1@ DB 'drip1', 00H			; `string'
CONST	ENDS
;	COMDAT ??_C@_06BCOPNPAP@drill2@
CONST	SEGMENT
??_C@_06BCOPNPAP@drill2@ DB 'drill2', 00H		; `string'
CONST	ENDS
;	COMDAT ??_C@_06DJMCIMMM@drill1@
CONST	SEGMENT
??_C@_06DJMCIMMM@drill1@ DB 'drill1', 00H		; `string'
CONST	ENDS
;	COMDAT ??_C@_06JMDCEKPO@doord2@
CONST	SEGMENT
??_C@_06JMDCEKPO@doord2@ DB 'doord2', 00H		; `string'
CONST	ENDS
;	COMDAT ??_C@_06LHBPBJDN@doord1@
CONST	SEGMENT
??_C@_06LHBPBJDN@doord1@ DB 'doord1', 00H		; `string'
CONST	ENDS
;	COMDAT ??_C@_06JJHNFMHL@doorc2@
CONST	SEGMENT
??_C@_06JJHNFMHL@doorc2@ DB 'doorc2', 00H		; `string'
CONST	ENDS
;	COMDAT ??_C@_06LCFAAPLI@doorc1@
CONST	SEGMENT
??_C@_06LCFAAPLI@doorc1@ DB 'doorc1', 00H		; `string'
CONST	ENDS
;	COMDAT ??_C@_06LDJCGFIP@doorb1@
CONST	SEGMENT
??_C@_06LDJCGFIP@doorb1@ DB 'doorb1', 00H		; `string'
CONST	ENDS
;	COMDAT ??_C@_06LBNENLNG@doora1@
CONST	SEGMENT
??_C@_06LBNENLNG@doora1@ DB 'doora1', 00H		; `string'
CONST	ENDS
;	COMDAT ??_C@_06GPDAJCNM@dmpain@
CONST	SEGMENT
??_C@_06GPDAJCNM@dmpain@ DB 'dmpain', 00H		; `string'
CONST	ENDS
;	COMDAT ??_C@_05NACCBGNC@deton@
CONST	SEGMENT
??_C@_05NACCBGNC@deton@ DB 'deton', 00H			; `string'
CONST	ENDS
;	COMDAT ??_C@_06FNIKEPKK@cybdth@
CONST	SEGMENT
??_C@_06FNIKEPKK@cybdth@ DB 'cybdth', 00H		; `string'
CONST	ENDS
;	COMDAT ??_C@_06OEECKBLH@crumbl@
CONST	SEGMENT
??_C@_06OEECKBLH@crumbl@ DB 'crumbl', 00H		; `string'
CONST	ENDS
;	COMDAT ??_C@_06HEJPDCPF@chchng@
CONST	SEGMENT
??_C@_06HEJPDCPF@chchng@ DB 'chchng', 00H		; `string'
CONST	ENDS
;	COMDAT ??_C@_04EJGGPKCK@cgot@
CONST	SEGMENT
??_C@_04EJGGPKCK@cgot@ DB 'cgot', 00H			; `string'
CONST	ENDS
;	COMDAT ??_C@_06LEHEAKGI@bubbl5@
CONST	SEGMENT
??_C@_06LEHEAKGI@bubbl5@ DB 'bubbl5', 00H		; `string'
CONST	ENDS
;	COMDAT ??_C@_06KNGPDLCJ@bubbl4@
CONST	SEGMENT
??_C@_06KNGPDLCJ@bubbl4@ DB 'bubbl4', 00H		; `string'
CONST	ENDS
;	COMDAT ??_C@_06OCCOKNOO@bubbl3@
CONST	SEGMENT
??_C@_06OCCOKNOO@bubbl3@ DB 'bubbl3', 00H		; `string'
CONST	ENDS
;	COMDAT ??_C@_06PLDFJMKP@bubbl2@
CONST	SEGMENT
??_C@_06PLDFJMKP@bubbl2@ DB 'bubbl2', 00H		; `string'
CONST	ENDS
;	COMDAT ??_C@_06NABIMPGM@bubbl1@
CONST	SEGMENT
??_C@_06NABIMPGM@bubbl1@ DB 'bubbl1', 00H		; `string'
CONST	ENDS
;	COMDAT ??_C@_05KHPMDMHG@bnce2@
CONST	SEGMENT
??_C@_05KHPMDMHG@bnce2@ DB 'bnce2', 00H			; `string'
CONST	ENDS
;	COMDAT ??_C@_05IMNBGPLF@bnce1@
CONST	SEGMENT
??_C@_05IMNBGPLF@bnce1@ DB 'bnce1', 00H			; `string'
CONST	ENDS
;	COMDAT ??_C@_06PGDCMFHC@bkpoof@
CONST	SEGMENT
??_C@_06PGDCMFHC@bkpoof@ DB 'bkpoof', 00H		; `string'
CONST	ENDS
;	COMDAT ??_C@_05LIIEGCLD@beeoh@
CONST	SEGMENT
??_C@_05LIIEGCLD@beeoh@ DB 'beeoh', 00H			; `string'
CONST	ENDS
;	COMDAT ??_C@_06JECCGPFG@beejay@
CONST	SEGMENT
??_C@_06JECCGPFG@beejay@ DB 'beejay', 00H		; `string'
CONST	ENDS
;	COMDAT ??_C@_05NBHPCCGB@beeel@
CONST	SEGMENT
??_C@_05NBHPCCGB@beeel@ DB 'beeel', 00H			; `string'
CONST	ENDS
;	COMDAT ??_C@_06JFIDONOE@beedee@
CONST	SEGMENT
??_C@_06JFIDONOE@beedee@ DB 'beedee', 00H		; `string'
CONST	ENDS
;	COMDAT ??_C@_06IFHLPGHO@athun2@
CONST	SEGMENT
??_C@_06IFHLPGHO@athun2@ DB 'athun2', 00H		; `string'
CONST	ENDS
;	COMDAT ??_C@_06KOFGKFLN@athun1@
CONST	SEGMENT
??_C@_06KOFGKFLN@athun1@ DB 'athun1', 00H		; `string'
CONST	ENDS
;	COMDAT ??_C@_06OFEGDHIM@appear@
CONST	SEGMENT
??_C@_06OFEGDHIM@appear@ DB 'appear', 00H		; `string'
CONST	ENDS
;	COMDAT ??_C@_04DOGBFFLC@apl6@
CONST	SEGMENT
??_C@_04DOGBFFLC@apl6@ DB 'apl6', 00H			; `string'
CONST	ENDS
;	COMDAT ??_C@_04BFEMAGHB@apl5@
CONST	SEGMENT
??_C@_04BFEMAGHB@apl5@ DB 'apl5', 00H			; `string'
CONST	ENDS
;	COMDAT ??_C@_04MFHDHDA@apl4@
CONST	SEGMENT
??_C@_04MFHDHDA@apl4@ DB 'apl4', 00H			; `string'
CONST	ENDS
;	COMDAT ??_C@_04EDBGKBPH@apl3@
CONST	SEGMENT
??_C@_04EDBGKBPH@apl3@ DB 'apl3', 00H			; `string'
CONST	ENDS
;	COMDAT ??_C@_04FKANJALG@apl2@
CONST	SEGMENT
??_C@_04FKANJALG@apl2@ DB 'apl2', 00H			; `string'
CONST	ENDS
;	COMDAT ??_C@_04HBCAMDHF@apl1@
CONST	SEGMENT
??_C@_04HBCAMDHF@apl1@ DB 'apl1', 00H			; `string'
CONST	ENDS
;	COMDAT ??_C@_06BEHNHAIF@amwtr8@
CONST	SEGMENT
??_C@_06BEHNHAIF@amwtr8@ DB 'amwtr8', 00H		; `string'
CONST	ENDS
;	COMDAT ??_C@_06JDOFGMEK@amwtr7@
CONST	SEGMENT
??_C@_06JDOFGMEK@amwtr7@ DB 'amwtr7', 00H		; `string'
CONST	ENDS
;	COMDAT ??_C@_06IKPOFNAL@amwtr6@
CONST	SEGMENT
??_C@_06IKPOFNAL@amwtr6@ DB 'amwtr6', 00H		; `string'
CONST	ENDS
;	COMDAT ??_C@_06KBNDAOMI@amwtr5@
CONST	SEGMENT
??_C@_06KBNDAOMI@amwtr5@ DB 'amwtr5', 00H		; `string'
CONST	ENDS
;	COMDAT ??_C@_06LIMIDPIJ@amwtr4@
CONST	SEGMENT
??_C@_06LIMIDPIJ@amwtr4@ DB 'amwtr4', 00H		; `string'
CONST	ENDS
;	COMDAT ??_C@_06PHIJKJEO@amwtr3@
CONST	SEGMENT
??_C@_06PHIJKJEO@amwtr3@ DB 'amwtr3', 00H		; `string'
CONST	ENDS
;	COMDAT ??_C@_06OOJCJIAP@amwtr2@
CONST	SEGMENT
??_C@_06OOJCJIAP@amwtr2@ DB 'amwtr2', 00H		; `string'
CONST	ENDS
;	COMDAT ??_C@_06MFLPMLMM@amwtr1@
CONST	SEGMENT
??_C@_06MFLPMLMM@amwtr1@ DB 'amwtr1', 00H		; `string'
CONST	ENDS
;	COMDAT ??_C@_06FHPOLNCI@ambint@
CONST	SEGMENT
??_C@_06FHPOLNCI@ambint@ DB 'ambint', 00H		; `string'
CONST	ENDS
;	COMDAT ??_C@_06PBNNFFKL@ambin2@
CONST	SEGMENT
??_C@_06PBNNFFKL@ambin2@ DB 'ambin2', 00H		; `string'
CONST	ENDS
;	COMDAT ??_C@_06LFOHIEIJ@altow4@
CONST	SEGMENT
??_C@_06LFOHIEIJ@altow4@ DB 'altow4', 00H		; `string'
CONST	ENDS
;	COMDAT ??_C@_06PKKGBCEO@altow3@
CONST	SEGMENT
??_C@_06PKKGBCEO@altow3@ DB 'altow3', 00H		; `string'
CONST	ENDS
;	COMDAT ??_C@_06ODLNCDAP@altow2@
CONST	SEGMENT
??_C@_06ODLNCDAP@altow2@ DB 'altow2', 00H		; `string'
CONST	ENDS
;	COMDAT ??_C@_06MIJAHAMM@altow1@
CONST	SEGMENT
??_C@_06MIJAHAMM@altow1@ DB 'altow1', 00H		; `string'
CONST	ENDS
;	COMDAT ??_C@_06HEFOINPC@altdi4@
CONST	SEGMENT
??_C@_06HEFOINPC@altdi4@ DB 'altdi4', 00H		; `string'
CONST	ENDS
;	COMDAT ??_C@_06DLBPBLDF@altdi3@
CONST	SEGMENT
??_C@_06DLBPBLDF@altdi3@ DB 'altdi3', 00H		; `string'
CONST	ENDS
;	COMDAT ??_C@_06CCAECKHE@altdi2@
CONST	SEGMENT
??_C@_06CCAECKHE@altdi2@ DB 'altdi2', 00H		; `string'
CONST	ENDS
;	COMDAT ??_C@_06JCJHJLH@altdi1@
CONST	SEGMENT
??_C@_06JCJHJLH@altdi1@ DB 'altdi1', 00H		; `string'
CONST	ENDS
;	COMDAT ??_C@_05NFOLCBFN@alarm@
CONST	SEGMENT
??_C@_05NFOLCBFN@alarm@ DB 'alarm', 00H			; `string'
CONST	ENDS
;	COMDAT ??_C@_04CGFJFPFD@none@
CONST	SEGMENT
??_C@_04CGFJFPFD@none@ DB 'none', 00H			; `string'
CONST	ENDS
;	COMDAT ??_C@_06BLMGNAI@racent@
CONST	SEGMENT
??_C@_06BLMGNAI@racent@ DB 'racent', 00H		; `string'
CONST	ENDS
;	COMDAT ??_C@_06HHOEAOAH@credit@
CONST	SEGMENT
??_C@_06HHOEAOAH@credit@ DB 'credit', 00H		; `string'
CONST	ENDS
;	COMDAT ??_C@_06EBKGGKHD@chrsel@
CONST	SEGMENT
??_C@_06EBKGGKHD@chrsel@ DB 'chrsel', 00H		; `string'
CONST	ENDS
;	COMDAT ??_C@_06ECLBAHLA@supers@
CONST	SEGMENT
??_C@_06ECLBAHLA@supers@ DB 'supers', 00H		; `string'
CONST	ENDS
;	COMDAT ??_C@_06PLFHNLPM@contsc@
CONST	SEGMENT
??_C@_06PLFHNLPM@contsc@ DB 'contsc', 00H		; `string'
CONST	ENDS
;	COMDAT ??_C@_06GDJLPLKP@xtlife@
CONST	SEGMENT
??_C@_06GDJLPLKP@xtlife@ DB 'xtlife', 00H		; `string'
CONST	ENDS
;	COMDAT ??_C@_06JOMLEDAN@gmover@
CONST	SEGMENT
??_C@_06JOMLEDAN@gmover@ DB 'gmover', 00H		; `string'
CONST	ENDS
;	COMDAT ??_C@_05JHMPHPBG@drown@
CONST	SEGMENT
??_C@_05JHMPHPBG@drown@ DB 'drown', 00H			; `string'
CONST	ENDS
;	COMDAT ??_C@_06MDMGLLBE@minvnc@
CONST	SEGMENT
??_C@_06MDMGLLBE@minvnc@ DB 'minvnc', 00H		; `string'
CONST	ENDS
;	COMDAT ??_C@_05EDICNJBE@shoes@
CONST	SEGMENT
??_C@_05EDICNJBE@shoes@ DB 'shoes', 00H			; `string'
CONST	ENDS
;	COMDAT ??_C@_06HCGGDEDF@invinc@
CONST	SEGMENT
??_C@_06HCGGDEDF@invinc@ DB 'invinc', 00H		; `string'
CONST	ENDS
;	COMDAT ??_C@_06KEMDFMPK@lclear@
CONST	SEGMENT
??_C@_06KEMDFMPK@lclear@ DB 'lclear', 00H		; `string'
CONST	ENDS
;	COMDAT ??_C@_06OGPIDNKE@read_m@
CONST	SEGMENT
??_C@_06OGPIDNKE@read_m@ DB 'read_m', 00H		; `string'
CONST	ENDS
;	COMDAT ??_C@_06GCODKHGB@titles@
CONST	SEGMENT
??_C@_06GCODKHGB@titles@ DB 'titles', 00H		; `string'
CONST	ENDS
;	COMDAT ??_C@_06DPDPIJAA@mapzzm@
CONST	SEGMENT
??_C@_06DPDPIJAA@mapzzm@ DB 'mapzzm', 00H		; `string'
CONST	ENDS
;	COMDAT ??_C@_06DNHJDHFJ@mapzym@
CONST	SEGMENT
??_C@_06DNHJDHFJ@mapzym@ DB 'mapzym', 00H		; `string'
CONST	ENDS
;	COMDAT ??_C@_06DMLLFNGO@mapzxm@
CONST	SEGMENT
??_C@_06DMLLFNGO@mapzxm@ DB 'mapzxm', 00H		; `string'
CONST	ENDS
;	COMDAT ??_C@_06DHOHBKFD@mapzwm@
CONST	SEGMENT
??_C@_06DHOHBKFD@mapzwm@ DB 'mapzwm', 00H		; `string'
CONST	ENDS
;	COMDAT ??_C@_06DGCFHAGE@mapzvm@
CONST	SEGMENT
??_C@_06DGCFHAGE@mapzvm@ DB 'mapzvm', 00H		; `string'
CONST	ENDS
;	COMDAT ??_C@_06DEGDMODN@mapzum@
CONST	SEGMENT
??_C@_06DEGDMODN@mapzum@ DB 'mapzum', 00H		; `string'
CONST	ENDS
;	COMDAT ??_C@_06DFKBKEAK@mapztm@
CONST	SEGMENT
??_C@_06DFKBKEAK@mapztm@ DB 'mapztm', 00H		; `string'
CONST	ENDS
;	COMDAT ??_C@_06DAOOLCIP@mapzsm@
CONST	SEGMENT
??_C@_06DAOOLCIP@mapzsm@ DB 'mapzsm', 00H		; `string'
CONST	ENDS
;	COMDAT ??_C@_06DBCMNILI@mapzrm@
CONST	SEGMENT
??_C@_06DBCMNILI@mapzrm@ DB 'mapzrm', 00H		; `string'
CONST	ENDS
;	COMDAT ??_C@_06DDGKGGOB@mapzqm@
CONST	SEGMENT
??_C@_06DDGKGGOB@mapzqm@ DB 'mapzqm', 00H		; `string'
CONST	ENDS
;	COMDAT ??_C@_06DCKIAMNG@mapzpm@
CONST	SEGMENT
??_C@_06DCKIAMNG@mapzpm@ DB 'mapzpm', 00H		; `string'
CONST	ENDS
;	COMDAT ??_C@_06CFNCOIJL@mapzom@
CONST	SEGMENT
??_C@_06CFNCOIJL@mapzom@ DB 'mapzom', 00H		; `string'
CONST	ENDS
;	COMDAT ??_C@_06CEBAICKM@mapznm@
CONST	SEGMENT
??_C@_06CEBAICKM@mapznm@ DB 'mapznm', 00H		; `string'
CONST	ENDS
;	COMDAT ??_C@_06CGFGDMPF@mapzmm@
CONST	SEGMENT
??_C@_06CGFGDMPF@mapzmm@ DB 'mapzmm', 00H		; `string'
CONST	ENDS
;	COMDAT ??_C@_06CHJEFGMC@mapzlm@
CONST	SEGMENT
??_C@_06CHJEFGMC@mapzlm@ DB 'mapzlm', 00H		; `string'
CONST	ENDS
;	COMDAT ??_C@_06CCNLEAEH@mapzkm@
CONST	SEGMENT
??_C@_06CCNLEAEH@mapzkm@ DB 'mapzkm', 00H		; `string'
CONST	ENDS
;	COMDAT ??_C@_06CDBJCKHA@mapzjm@
CONST	SEGMENT
??_C@_06CDBJCKHA@mapzjm@ DB 'mapzjm', 00H		; `string'
CONST	ENDS
;	COMDAT ??_C@_06CBFPJECJ@mapzim@
CONST	SEGMENT
??_C@_06CBFPJECJ@mapzim@ DB 'mapzim', 00H		; `string'
CONST	ENDS
;	COMDAT ??_C@_06CAJNPOBO@mapzhm@
CONST	SEGMENT
??_C@_06CAJNPOBO@mapzhm@ DB 'mapzhm', 00H		; `string'
CONST	ENDS
;	COMDAT ??_C@_06CLMBLJCD@mapzgm@
CONST	SEGMENT
??_C@_06CLMBLJCD@mapzgm@ DB 'mapzgm', 00H		; `string'
CONST	ENDS
;	COMDAT ??_C@_06CKADNDBE@mapzfm@
CONST	SEGMENT
??_C@_06CKADNDBE@mapzfm@ DB 'mapzfm', 00H		; `string'
CONST	ENDS
;	COMDAT ??_C@_06CIEFGNEN@mapzem@
CONST	SEGMENT
??_C@_06CIEFGNEN@mapzem@ DB 'mapzem', 00H		; `string'
CONST	ENDS
;	COMDAT ??_C@_06CJIHAHHK@mapzdm@
CONST	SEGMENT
??_C@_06CJIHAHHK@mapzdm@ DB 'mapzdm', 00H		; `string'
CONST	ENDS
;	COMDAT ??_C@_06CMMIBBPP@mapzcm@
CONST	SEGMENT
??_C@_06CMMIBBPP@mapzcm@ DB 'mapzcm', 00H		; `string'
CONST	ENDS
;	COMDAT ??_C@_06CNAKHLMI@mapzbm@
CONST	SEGMENT
??_C@_06CNAKHLMI@mapzbm@ DB 'mapzbm', 00H		; `string'
CONST	ENDS
;	COMDAT ??_C@_06CPEMMFJB@mapzam@
CONST	SEGMENT
??_C@_06CPEMMFJB@mapzam@ DB 'mapzam', 00H		; `string'
CONST	ENDS
;	COMDAT ??_C@_06ENODLKJJ@mapz9m@
CONST	SEGMENT
??_C@_06ENODLKJJ@mapz9m@ DB 'mapz9m', 00H		; `string'
CONST	ENDS
;	COMDAT ??_C@_06EMCBNAKO@mapz8m@
CONST	SEGMENT
??_C@_06EMCBNAKO@mapz8m@ DB 'mapz8m', 00H		; `string'
CONST	ENDS
;	COMDAT ??_C@_06EHHNJHJD@mapz7m@
CONST	SEGMENT
??_C@_06EHHNJHJD@mapz7m@ DB 'mapz7m', 00H		; `string'
CONST	ENDS
;	COMDAT ??_C@_06EGLPPNKE@mapz6m@
CONST	SEGMENT
??_C@_06EGLPPNKE@mapz6m@ DB 'mapz6m', 00H		; `string'
CONST	ENDS
;	COMDAT ??_C@_06EEPJEDPN@mapz5m@
CONST	SEGMENT
??_C@_06EEPJEDPN@mapz5m@ DB 'mapz5m', 00H		; `string'
CONST	ENDS
;	COMDAT ??_C@_06EFDLCJMK@mapz4m@
CONST	SEGMENT
??_C@_06EFDLCJMK@mapz4m@ DB 'mapz4m', 00H		; `string'
CONST	ENDS
;	COMDAT ??_C@_06EAHEDPEP@mapz3m@
CONST	SEGMENT
??_C@_06EAHEDPEP@mapz3m@ DB 'mapz3m', 00H		; `string'
CONST	ENDS
;	COMDAT ??_C@_06EBLGFFHI@mapz2m@
CONST	SEGMENT
??_C@_06EBLGFFHI@mapz2m@ DB 'mapz2m', 00H		; `string'
CONST	ENDS
;	COMDAT ??_C@_06EDPAOLCB@mapz1m@
CONST	SEGMENT
??_C@_06EDPAOLCB@mapz1m@ DB 'mapz1m', 00H		; `string'
CONST	ENDS
;	COMDAT ??_C@_06ECDCIBBG@mapz0m@
CONST	SEGMENT
??_C@_06ECDCIBBG@mapz0m@ DB 'mapz0m', 00H		; `string'
CONST	ENDS
;	COMDAT ??_C@_06CNIKCGOO@mapyzm@
CONST	SEGMENT
??_C@_06CNIKCGOO@mapyzm@ DB 'mapyzm', 00H		; `string'
CONST	ENDS
;	COMDAT ??_C@_06CPMMJILH@mapyym@
CONST	SEGMENT
??_C@_06CPMMJILH@mapyym@ DB 'mapyym', 00H		; `string'
CONST	ENDS
;	COMDAT ??_C@_06COAOPCIA@mapyxm@
CONST	SEGMENT
??_C@_06COAOPCIA@mapyxm@ DB 'mapyxm', 00H		; `string'
CONST	ENDS
;	COMDAT ??_C@_06CFFCLFLN@mapywm@
CONST	SEGMENT
??_C@_06CFFCLFLN@mapywm@ DB 'mapywm', 00H		; `string'
CONST	ENDS
;	COMDAT ??_C@_06CEJANPIK@mapyvm@
CONST	SEGMENT
??_C@_06CEJANPIK@mapyvm@ DB 'mapyvm', 00H		; `string'
CONST	ENDS
;	COMDAT ??_C@_06CGNGGBND@mapyum@
CONST	SEGMENT
??_C@_06CGNGGBND@mapyum@ DB 'mapyum', 00H		; `string'
CONST	ENDS
;	COMDAT ??_C@_06CHBEALOE@mapytm@
CONST	SEGMENT
??_C@_06CHBEALOE@mapytm@ DB 'mapytm', 00H		; `string'
CONST	ENDS
;	COMDAT ??_C@_06CCFLBNGB@mapysm@
CONST	SEGMENT
??_C@_06CCFLBNGB@mapysm@ DB 'mapysm', 00H		; `string'
CONST	ENDS
;	COMDAT ??_C@_06CDJJHHFG@mapyrm@
CONST	SEGMENT
??_C@_06CDJJHHFG@mapyrm@ DB 'mapyrm', 00H		; `string'
CONST	ENDS
;	COMDAT ??_C@_06CBNPMJAP@mapyqm@
CONST	SEGMENT
??_C@_06CBNPMJAP@mapyqm@ DB 'mapyqm', 00H		; `string'
CONST	ENDS
;	COMDAT ??_C@_06CABNKDDI@mapypm@
CONST	SEGMENT
??_C@_06CABNKDDI@mapypm@ DB 'mapypm', 00H		; `string'
CONST	ENDS
;	COMDAT ??_C@_06DHGHEHHF@mapyom@
CONST	SEGMENT
??_C@_06DHGHEHHF@mapyom@ DB 'mapyom', 00H		; `string'
CONST	ENDS
;	COMDAT ??_C@_06DGKFCNEC@mapynm@
CONST	SEGMENT
??_C@_06DGKFCNEC@mapynm@ DB 'mapynm', 00H		; `string'
CONST	ENDS
;	COMDAT ??_C@_06DEODJDBL@mapymm@
CONST	SEGMENT
??_C@_06DEODJDBL@mapymm@ DB 'mapymm', 00H		; `string'
CONST	ENDS
;	COMDAT ??_C@_06DFCBPJCM@mapylm@
CONST	SEGMENT
??_C@_06DFCBPJCM@mapylm@ DB 'mapylm', 00H		; `string'
CONST	ENDS
;	COMDAT ??_C@_06DAGOOPKJ@mapykm@
CONST	SEGMENT
??_C@_06DAGOOPKJ@mapykm@ DB 'mapykm', 00H		; `string'
CONST	ENDS
;	COMDAT ??_C@_06DBKMIFJO@mapyjm@
CONST	SEGMENT
??_C@_06DBKMIFJO@mapyjm@ DB 'mapyjm', 00H		; `string'
CONST	ENDS
;	COMDAT ??_C@_06DDOKDLMH@mapyim@
CONST	SEGMENT
??_C@_06DDOKDLMH@mapyim@ DB 'mapyim', 00H		; `string'
CONST	ENDS
;	COMDAT ??_C@_06DCCIFBPA@mapyhm@
CONST	SEGMENT
??_C@_06DCCIFBPA@mapyhm@ DB 'mapyhm', 00H		; `string'
CONST	ENDS
;	COMDAT ??_C@_06DJHEBGMN@mapygm@
CONST	SEGMENT
??_C@_06DJHEBGMN@mapygm@ DB 'mapygm', 00H		; `string'
CONST	ENDS
;	COMDAT ??_C@_06DILGHMPK@mapyfm@
CONST	SEGMENT
??_C@_06DILGHMPK@mapyfm@ DB 'mapyfm', 00H		; `string'
CONST	ENDS
;	COMDAT ??_C@_06DKPAMCKD@mapyem@
CONST	SEGMENT
??_C@_06DKPAMCKD@mapyem@ DB 'mapyem', 00H		; `string'
CONST	ENDS
;	COMDAT ??_C@_06DLDCKIJE@mapydm@
CONST	SEGMENT
??_C@_06DLDCKIJE@mapydm@ DB 'mapydm', 00H		; `string'
CONST	ENDS
;	COMDAT ??_C@_06DOHNLOBB@mapycm@
CONST	SEGMENT
??_C@_06DOHNLOBB@mapycm@ DB 'mapycm', 00H		; `string'
CONST	ENDS
;	COMDAT ??_C@_06DPLPNECG@mapybm@
CONST	SEGMENT
??_C@_06DPLPNECG@mapybm@ DB 'mapybm', 00H		; `string'
CONST	ENDS
;	COMDAT ??_C@_06DNPJGKHP@mapyam@
CONST	SEGMENT
??_C@_06DNPJGKHP@mapyam@ DB 'mapyam', 00H		; `string'
CONST	ENDS
;	COMDAT ??_C@_06FPFGBFHH@mapy9m@
CONST	SEGMENT
??_C@_06FPFGBFHH@mapy9m@ DB 'mapy9m', 00H		; `string'
CONST	ENDS
;	COMDAT ??_C@_06FOJEHPEA@mapy8m@
CONST	SEGMENT
??_C@_06FOJEHPEA@mapy8m@ DB 'mapy8m', 00H		; `string'
CONST	ENDS
;	COMDAT ??_C@_06FFMIDIHN@mapy7m@
CONST	SEGMENT
??_C@_06FFMIDIHN@mapy7m@ DB 'mapy7m', 00H		; `string'
CONST	ENDS
;	COMDAT ??_C@_06FEAKFCEK@mapy6m@
CONST	SEGMENT
??_C@_06FEAKFCEK@mapy6m@ DB 'mapy6m', 00H		; `string'
CONST	ENDS
;	COMDAT ??_C@_06FGEMOMBD@mapy5m@
CONST	SEGMENT
??_C@_06FGEMOMBD@mapy5m@ DB 'mapy5m', 00H		; `string'
CONST	ENDS
;	COMDAT ??_C@_06FHIOIGCE@mapy4m@
CONST	SEGMENT
??_C@_06FHIOIGCE@mapy4m@ DB 'mapy4m', 00H		; `string'
CONST	ENDS
;	COMDAT ??_C@_06FCMBJAKB@mapy3m@
CONST	SEGMENT
??_C@_06FCMBJAKB@mapy3m@ DB 'mapy3m', 00H		; `string'
CONST	ENDS
;	COMDAT ??_C@_06FDADPKJG@mapy2m@
CONST	SEGMENT
??_C@_06FDADPKJG@mapy2m@ DB 'mapy2m', 00H		; `string'
CONST	ENDS
;	COMDAT ??_C@_06FBEFEEMP@mapy1m@
CONST	SEGMENT
??_C@_06FBEFEEMP@mapy1m@ DB 'mapy1m', 00H		; `string'
CONST	ENDS
;	COMDAT ??_C@_06FAIHCOPI@mapy0m@
CONST	SEGMENT
??_C@_06FAIHCOPI@mapy0m@ DB 'mapy0m', 00H		; `string'
CONST	ENDS
;	COMDAT ??_C@_06JFDGEBIL@mapxzm@
CONST	SEGMENT
??_C@_06JFDGEBIL@mapxzm@ DB 'mapxzm', 00H		; `string'
CONST	ENDS
;	COMDAT ??_C@_06JHHAPPNC@mapxym@
CONST	SEGMENT
??_C@_06JHHAPPNC@mapxym@ DB 'mapxym', 00H		; `string'
CONST	ENDS
;	COMDAT ??_C@_06JGLCJFOF@mapxxm@
CONST	SEGMENT
??_C@_06JGLCJFOF@mapxxm@ DB 'mapxxm', 00H		; `string'
CONST	ENDS
;	COMDAT ??_C@_06JNOONCNI@mapxwm@
CONST	SEGMENT
??_C@_06JNOONCNI@mapxwm@ DB 'mapxwm', 00H		; `string'
CONST	ENDS
;	COMDAT ??_C@_06JMCMLIOP@mapxvm@
CONST	SEGMENT
??_C@_06JMCMLIOP@mapxvm@ DB 'mapxvm', 00H		; `string'
CONST	ENDS
;	COMDAT ??_C@_06JOGKAGLG@mapxum@
CONST	SEGMENT
??_C@_06JOGKAGLG@mapxum@ DB 'mapxum', 00H		; `string'
CONST	ENDS
;	COMDAT ??_C@_06JPKIGMIB@mapxtm@
CONST	SEGMENT
??_C@_06JPKIGMIB@mapxtm@ DB 'mapxtm', 00H		; `string'
CONST	ENDS
;	COMDAT ??_C@_06JKOHHKAE@mapxsm@
CONST	SEGMENT
??_C@_06JKOHHKAE@mapxsm@ DB 'mapxsm', 00H		; `string'
CONST	ENDS
;	COMDAT ??_C@_06JLCFBADD@mapxrm@
CONST	SEGMENT
??_C@_06JLCFBADD@mapxrm@ DB 'mapxrm', 00H		; `string'
CONST	ENDS
;	COMDAT ??_C@_06JJGDKOGK@mapxqm@
CONST	SEGMENT
??_C@_06JJGDKOGK@mapxqm@ DB 'mapxqm', 00H		; `string'
CONST	ENDS
;	COMDAT ??_C@_06JIKBMEFN@mapxpm@
CONST	SEGMENT
??_C@_06JIKBMEFN@mapxpm@ DB 'mapxpm', 00H		; `string'
CONST	ENDS
;	COMDAT ??_C@_06IPNLCABA@mapxom@
CONST	SEGMENT
??_C@_06IPNLCABA@mapxom@ DB 'mapxom', 00H		; `string'
CONST	ENDS
;	COMDAT ??_C@_06IOBJEKCH@mapxnm@
CONST	SEGMENT
??_C@_06IOBJEKCH@mapxnm@ DB 'mapxnm', 00H		; `string'
CONST	ENDS
;	COMDAT ??_C@_06IMFPPEHO@mapxmm@
CONST	SEGMENT
??_C@_06IMFPPEHO@mapxmm@ DB 'mapxmm', 00H		; `string'
CONST	ENDS
;	COMDAT ??_C@_06INJNJOEJ@mapxlm@
CONST	SEGMENT
??_C@_06INJNJOEJ@mapxlm@ DB 'mapxlm', 00H		; `string'
CONST	ENDS
;	COMDAT ??_C@_06IINCIIMM@mapxkm@
CONST	SEGMENT
??_C@_06IINCIIMM@mapxkm@ DB 'mapxkm', 00H		; `string'
CONST	ENDS
;	COMDAT ??_C@_06IJBAOCPL@mapxjm@
CONST	SEGMENT
??_C@_06IJBAOCPL@mapxjm@ DB 'mapxjm', 00H		; `string'
CONST	ENDS
;	COMDAT ??_C@_06ILFGFMKC@mapxim@
CONST	SEGMENT
??_C@_06ILFGFMKC@mapxim@ DB 'mapxim', 00H		; `string'
CONST	ENDS
;	COMDAT ??_C@_06IKJEDGJF@mapxhm@
CONST	SEGMENT
??_C@_06IKJEDGJF@mapxhm@ DB 'mapxhm', 00H		; `string'
CONST	ENDS
;	COMDAT ??_C@_06IBMIHBKI@mapxgm@
CONST	SEGMENT
??_C@_06IBMIHBKI@mapxgm@ DB 'mapxgm', 00H		; `string'
CONST	ENDS
;	COMDAT ??_C@_06IAAKBLJP@mapxfm@
CONST	SEGMENT
??_C@_06IAAKBLJP@mapxfm@ DB 'mapxfm', 00H		; `string'
CONST	ENDS
;	COMDAT ??_C@_06ICEMKFMG@mapxem@
CONST	SEGMENT
??_C@_06ICEMKFMG@mapxem@ DB 'mapxem', 00H		; `string'
CONST	ENDS
;	COMDAT ??_C@_06IDIOMPPB@mapxdm@
CONST	SEGMENT
??_C@_06IDIOMPPB@mapxdm@ DB 'mapxdm', 00H		; `string'
CONST	ENDS
;	COMDAT ??_C@_06IGMBNJHE@mapxcm@
CONST	SEGMENT
??_C@_06IGMBNJHE@mapxcm@ DB 'mapxcm', 00H		; `string'
CONST	ENDS
;	COMDAT ??_C@_06IHADLDED@mapxbm@
CONST	SEGMENT
??_C@_06IHADLDED@mapxbm@ DB 'mapxbm', 00H		; `string'
CONST	ENDS
;	COMDAT ??_C@_06IFEFANBK@mapxam@
CONST	SEGMENT
??_C@_06IFEFANBK@mapxam@ DB 'mapxam', 00H		; `string'
CONST	ENDS
;	COMDAT ??_C@_06OHOKHCBC@mapx9m@
CONST	SEGMENT
??_C@_06OHOKHCBC@mapx9m@ DB 'mapx9m', 00H		; `string'
CONST	ENDS
;	COMDAT ??_C@_06OGCIBICF@mapx8m@
CONST	SEGMENT
??_C@_06OGCIBICF@mapx8m@ DB 'mapx8m', 00H		; `string'
CONST	ENDS
;	COMDAT ??_C@_06ONHEFPBI@mapx7m@
CONST	SEGMENT
??_C@_06ONHEFPBI@mapx7m@ DB 'mapx7m', 00H		; `string'
CONST	ENDS
;	COMDAT ??_C@_06OMLGDFCP@mapx6m@
CONST	SEGMENT
??_C@_06OMLGDFCP@mapx6m@ DB 'mapx6m', 00H		; `string'
CONST	ENDS
;	COMDAT ??_C@_06OOPAILHG@mapx5m@
CONST	SEGMENT
??_C@_06OOPAILHG@mapx5m@ DB 'mapx5m', 00H		; `string'
CONST	ENDS
;	COMDAT ??_C@_06OPDCOBEB@mapx4m@
CONST	SEGMENT
??_C@_06OPDCOBEB@mapx4m@ DB 'mapx4m', 00H		; `string'
CONST	ENDS
;	COMDAT ??_C@_06OKHNPHME@mapx3m@
CONST	SEGMENT
??_C@_06OKHNPHME@mapx3m@ DB 'mapx3m', 00H		; `string'
CONST	ENDS
;	COMDAT ??_C@_06OLLPJNPD@mapx2m@
CONST	SEGMENT
??_C@_06OLLPJNPD@mapx2m@ DB 'mapx2m', 00H		; `string'
CONST	ENDS
;	COMDAT ??_C@_06OJPJCDKK@mapx1m@
CONST	SEGMENT
??_C@_06OJPJCDKK@mapx1m@ DB 'mapx1m', 00H		; `string'
CONST	ENDS
;	COMDAT ??_C@_06OIDLEJJN@mapx0m@
CONST	SEGMENT
??_C@_06OIDLEJJN@mapx0m@ DB 'mapx0m', 00H		; `string'
CONST	ENDS
;	COMDAT ??_C@_06MNFFFBNN@mapwzm@
CONST	SEGMENT
??_C@_06MNFFFBNN@mapwzm@ DB 'mapwzm', 00H		; `string'
CONST	ENDS
;	COMDAT ??_C@_06MPBDOPIE@mapwym@
CONST	SEGMENT
??_C@_06MPBDOPIE@mapwym@ DB 'mapwym', 00H		; `string'
CONST	ENDS
;	COMDAT ??_C@_06MONBIFLD@mapwxm@
CONST	SEGMENT
??_C@_06MONBIFLD@mapwxm@ DB 'mapwxm', 00H		; `string'
CONST	ENDS
;	COMDAT ??_C@_06MFINMCIO@mapwwm@
CONST	SEGMENT
??_C@_06MFINMCIO@mapwwm@ DB 'mapwwm', 00H		; `string'
CONST	ENDS
;	COMDAT ??_C@_06MEEPKILJ@mapwvm@
CONST	SEGMENT
??_C@_06MEEPKILJ@mapwvm@ DB 'mapwvm', 00H		; `string'
CONST	ENDS
;	COMDAT ??_C@_06MGAJBGOA@mapwum@
CONST	SEGMENT
??_C@_06MGAJBGOA@mapwum@ DB 'mapwum', 00H		; `string'
CONST	ENDS
;	COMDAT ??_C@_06MHMLHMNH@mapwtm@
CONST	SEGMENT
??_C@_06MHMLHMNH@mapwtm@ DB 'mapwtm', 00H		; `string'
CONST	ENDS
;	COMDAT ??_C@_06MCIEGKFC@mapwsm@
CONST	SEGMENT
??_C@_06MCIEGKFC@mapwsm@ DB 'mapwsm', 00H		; `string'
CONST	ENDS
;	COMDAT ??_C@_06MDEGAAGF@mapwrm@
CONST	SEGMENT
??_C@_06MDEGAAGF@mapwrm@ DB 'mapwrm', 00H		; `string'
CONST	ENDS
;	COMDAT ??_C@_06MBAALODM@mapwqm@
CONST	SEGMENT
??_C@_06MBAALODM@mapwqm@ DB 'mapwqm', 00H		; `string'
CONST	ENDS
;	COMDAT ??_C@_06MAMCNEAL@mapwpm@
CONST	SEGMENT
??_C@_06MAMCNEAL@mapwpm@ DB 'mapwpm', 00H		; `string'
CONST	ENDS
;	COMDAT ??_C@_06NHLIDAEG@mapwom@
CONST	SEGMENT
??_C@_06NHLIDAEG@mapwom@ DB 'mapwom', 00H		; `string'
CONST	ENDS
;	COMDAT ??_C@_06NGHKFKHB@mapwnm@
CONST	SEGMENT
??_C@_06NGHKFKHB@mapwnm@ DB 'mapwnm', 00H		; `string'
CONST	ENDS
;	COMDAT ??_C@_06NEDMOECI@mapwmm@
CONST	SEGMENT
??_C@_06NEDMOECI@mapwmm@ DB 'mapwmm', 00H		; `string'
CONST	ENDS
;	COMDAT ??_C@_06NFPOIOBP@mapwlm@
CONST	SEGMENT
??_C@_06NFPOIOBP@mapwlm@ DB 'mapwlm', 00H		; `string'
CONST	ENDS
;	COMDAT ??_C@_06NALBJIJK@mapwkm@
CONST	SEGMENT
??_C@_06NALBJIJK@mapwkm@ DB 'mapwkm', 00H		; `string'
CONST	ENDS
;	COMDAT ??_C@_06NBHDPCKN@mapwjm@
CONST	SEGMENT
??_C@_06NBHDPCKN@mapwjm@ DB 'mapwjm', 00H		; `string'
CONST	ENDS
;	COMDAT ??_C@_06NDDFEMPE@mapwim@
CONST	SEGMENT
??_C@_06NDDFEMPE@mapwim@ DB 'mapwim', 00H		; `string'
CONST	ENDS
;	COMDAT ??_C@_06NCPHCGMD@mapwhm@
CONST	SEGMENT
??_C@_06NCPHCGMD@mapwhm@ DB 'mapwhm', 00H		; `string'
CONST	ENDS
;	COMDAT ??_C@_06NJKLGBPO@mapwgm@
CONST	SEGMENT
??_C@_06NJKLGBPO@mapwgm@ DB 'mapwgm', 00H		; `string'
CONST	ENDS
;	COMDAT ??_C@_06NIGJALMJ@mapwfm@
CONST	SEGMENT
??_C@_06NIGJALMJ@mapwfm@ DB 'mapwfm', 00H		; `string'
CONST	ENDS
;	COMDAT ??_C@_06NKCPLFJA@mapwem@
CONST	SEGMENT
??_C@_06NKCPLFJA@mapwem@ DB 'mapwem', 00H		; `string'
CONST	ENDS
;	COMDAT ??_C@_06NLONNPKH@mapwdm@
CONST	SEGMENT
??_C@_06NLONNPKH@mapwdm@ DB 'mapwdm', 00H		; `string'
CONST	ENDS
;	COMDAT ??_C@_06NOKCMJCC@mapwcm@
CONST	SEGMENT
??_C@_06NOKCMJCC@mapwcm@ DB 'mapwcm', 00H		; `string'
CONST	ENDS
;	COMDAT ??_C@_06NPGAKDBF@mapwbm@
CONST	SEGMENT
??_C@_06NPGAKDBF@mapwbm@ DB 'mapwbm', 00H		; `string'
CONST	ENDS
;	COMDAT ??_C@_06NNCGBNEM@mapwam@
CONST	SEGMENT
??_C@_06NNCGBNEM@mapwam@ DB 'mapwam', 00H		; `string'
CONST	ENDS
;	COMDAT ??_C@_06LPIJGCEE@mapw9m@
CONST	SEGMENT
??_C@_06LPIJGCEE@mapw9m@ DB 'mapw9m', 00H		; `string'
CONST	ENDS
;	COMDAT ??_C@_06LOELAIHD@mapw8m@
CONST	SEGMENT
??_C@_06LOELAIHD@mapw8m@ DB 'mapw8m', 00H		; `string'
CONST	ENDS
;	COMDAT ??_C@_06LFBHEPEO@mapw7m@
CONST	SEGMENT
??_C@_06LFBHEPEO@mapw7m@ DB 'mapw7m', 00H		; `string'
CONST	ENDS
;	COMDAT ??_C@_06LENFCFHJ@mapw6m@
CONST	SEGMENT
??_C@_06LENFCFHJ@mapw6m@ DB 'mapw6m', 00H		; `string'
CONST	ENDS
;	COMDAT ??_C@_06LGJDJLCA@mapw5m@
CONST	SEGMENT
??_C@_06LGJDJLCA@mapw5m@ DB 'mapw5m', 00H		; `string'
CONST	ENDS
;	COMDAT ??_C@_06LHFBPBBH@mapw4m@
CONST	SEGMENT
??_C@_06LHFBPBBH@mapw4m@ DB 'mapw4m', 00H		; `string'
CONST	ENDS
;	COMDAT ??_C@_06LCBOOHJC@mapw3m@
CONST	SEGMENT
??_C@_06LCBOOHJC@mapw3m@ DB 'mapw3m', 00H		; `string'
CONST	ENDS
;	COMDAT ??_C@_06LDNMINKF@mapw2m@
CONST	SEGMENT
??_C@_06LDNMINKF@mapw2m@ DB 'mapw2m', 00H		; `string'
CONST	ENDS
;	COMDAT ??_C@_06LBJKDDPM@mapw1m@
CONST	SEGMENT
??_C@_06LBJKDDPM@mapw1m@ DB 'mapw1m', 00H		; `string'
CONST	ENDS
;	COMDAT ??_C@_06LAFIFJML@mapw0m@
CONST	SEGMENT
??_C@_06LAFIFJML@mapw0m@ DB 'mapw0m', 00H		; `string'
CONST	ENDS
;	COMDAT ??_C@_06HFOJDGLI@mapvzm@
CONST	SEGMENT
??_C@_06HFOJDGLI@mapvzm@ DB 'mapvzm', 00H		; `string'
CONST	ENDS
;	COMDAT ??_C@_06HHKPIIOB@mapvym@
CONST	SEGMENT
??_C@_06HHKPIIOB@mapvym@ DB 'mapvym', 00H		; `string'
CONST	ENDS
;	COMDAT ??_C@_06HGGNOCNG@mapvxm@
CONST	SEGMENT
??_C@_06HGGNOCNG@mapvxm@ DB 'mapvxm', 00H		; `string'
CONST	ENDS
;	COMDAT ??_C@_06HNDBKFOL@mapvwm@
CONST	SEGMENT
??_C@_06HNDBKFOL@mapvwm@ DB 'mapvwm', 00H		; `string'
CONST	ENDS
;	COMDAT ??_C@_06HMPDMPNM@mapvvm@
CONST	SEGMENT
??_C@_06HMPDMPNM@mapvvm@ DB 'mapvvm', 00H		; `string'
CONST	ENDS
;	COMDAT ??_C@_06HOLFHBIF@mapvum@
CONST	SEGMENT
??_C@_06HOLFHBIF@mapvum@ DB 'mapvum', 00H		; `string'
CONST	ENDS
;	COMDAT ??_C@_06HPHHBLLC@mapvtm@
CONST	SEGMENT
??_C@_06HPHHBLLC@mapvtm@ DB 'mapvtm', 00H		; `string'
CONST	ENDS
;	COMDAT ??_C@_06HKDIANDH@mapvsm@
CONST	SEGMENT
??_C@_06HKDIANDH@mapvsm@ DB 'mapvsm', 00H		; `string'
CONST	ENDS
;	COMDAT ??_C@_06HLPKGHAA@mapvrm@
CONST	SEGMENT
??_C@_06HLPKGHAA@mapvrm@ DB 'mapvrm', 00H		; `string'
CONST	ENDS
;	COMDAT ??_C@_06HJLMNJFJ@mapvqm@
CONST	SEGMENT
??_C@_06HJLMNJFJ@mapvqm@ DB 'mapvqm', 00H		; `string'
CONST	ENDS
;	COMDAT ??_C@_06HIHOLDGO@mapvpm@
CONST	SEGMENT
??_C@_06HIHOLDGO@mapvpm@ DB 'mapvpm', 00H		; `string'
CONST	ENDS
;	COMDAT ??_C@_06GPAEFHCD@mapvom@
CONST	SEGMENT
??_C@_06GPAEFHCD@mapvom@ DB 'mapvom', 00H		; `string'
CONST	ENDS
;	COMDAT ??_C@_06GOMGDNBE@mapvnm@
CONST	SEGMENT
??_C@_06GOMGDNBE@mapvnm@ DB 'mapvnm', 00H		; `string'
CONST	ENDS
;	COMDAT ??_C@_06GMIAIDEN@mapvmm@
CONST	SEGMENT
??_C@_06GMIAIDEN@mapvmm@ DB 'mapvmm', 00H		; `string'
CONST	ENDS
;	COMDAT ??_C@_06GNECOJHK@mapvlm@
CONST	SEGMENT
??_C@_06GNECOJHK@mapvlm@ DB 'mapvlm', 00H		; `string'
CONST	ENDS
;	COMDAT ??_C@_06GIANPPPP@mapvkm@
CONST	SEGMENT
??_C@_06GIANPPPP@mapvkm@ DB 'mapvkm', 00H		; `string'
CONST	ENDS
;	COMDAT ??_C@_06GJMPJFMI@mapvjm@
CONST	SEGMENT
??_C@_06GJMPJFMI@mapvjm@ DB 'mapvjm', 00H		; `string'
CONST	ENDS
;	COMDAT ??_C@_06GLIJCLJB@mapvim@
CONST	SEGMENT
??_C@_06GLIJCLJB@mapvim@ DB 'mapvim', 00H		; `string'
CONST	ENDS
;	COMDAT ??_C@_06GKELEBKG@mapvhm@
CONST	SEGMENT
??_C@_06GKELEBKG@mapvhm@ DB 'mapvhm', 00H		; `string'
CONST	ENDS
;	COMDAT ??_C@_06GBBHAGJL@mapvgm@
CONST	SEGMENT
??_C@_06GBBHAGJL@mapvgm@ DB 'mapvgm', 00H		; `string'
CONST	ENDS
;	COMDAT ??_C@_06GANFGMKM@mapvfm@
CONST	SEGMENT
??_C@_06GANFGMKM@mapvfm@ DB 'mapvfm', 00H		; `string'
CONST	ENDS
;	COMDAT ??_C@_06GCJDNCPF@mapvem@
CONST	SEGMENT
??_C@_06GCJDNCPF@mapvem@ DB 'mapvem', 00H		; `string'
CONST	ENDS
;	COMDAT ??_C@_06GDFBLIMC@mapvdm@
CONST	SEGMENT
??_C@_06GDFBLIMC@mapvdm@ DB 'mapvdm', 00H		; `string'
CONST	ENDS
;	COMDAT ??_C@_06GGBOKOEH@mapvcm@
CONST	SEGMENT
??_C@_06GGBOKOEH@mapvcm@ DB 'mapvcm', 00H		; `string'
CONST	ENDS
;	COMDAT ??_C@_06GHNMMEHA@mapvbm@
CONST	SEGMENT
??_C@_06GHNMMEHA@mapvbm@ DB 'mapvbm', 00H		; `string'
CONST	ENDS
;	COMDAT ??_C@_06GFJKHKCJ@mapvam@
CONST	SEGMENT
??_C@_06GFJKHKCJ@mapvam@ DB 'mapvam', 00H		; `string'
CONST	ENDS
;	COMDAT ??_C@_06HDFAFCB@mapv9m@
CONST	SEGMENT
??_C@_06HDFAFCB@mapv9m@ DB 'mapv9m', 00H		; `string'
CONST	ENDS
;	COMDAT ??_C@_06GPHGPBG@mapv8m@
CONST	SEGMENT
??_C@_06GPHGPBG@mapv8m@ DB 'mapv8m', 00H		; `string'
CONST	ENDS
;	COMDAT ??_C@_06NKLCICL@mapv7m@
CONST	SEGMENT
??_C@_06NKLCICL@mapv7m@ DB 'mapv7m', 00H		; `string'
CONST	ENDS
;	COMDAT ??_C@_06MGJECBM@mapv6m@
CONST	SEGMENT
??_C@_06MGJECBM@mapv6m@ DB 'mapv6m', 00H		; `string'
CONST	ENDS
;	COMDAT ??_C@_06OCPPMEF@mapv5m@
CONST	SEGMENT
??_C@_06OCPPMEF@mapv5m@ DB 'mapv5m', 00H		; `string'
CONST	ENDS
;	COMDAT ??_C@_06PONJGHC@mapv4m@
CONST	SEGMENT
??_C@_06PONJGHC@mapv4m@ DB 'mapv4m', 00H		; `string'
CONST	ENDS
;	COMDAT ??_C@_06KKCIAPH@mapv3m@
CONST	SEGMENT
??_C@_06KKCIAPH@mapv3m@ DB 'mapv3m', 00H		; `string'
CONST	ENDS
;	COMDAT ??_C@_06LGAOKMA@mapv2m@
CONST	SEGMENT
??_C@_06LGAOKMA@mapv2m@ DB 'mapv2m', 00H		; `string'
CONST	ENDS
;	COMDAT ??_C@_06JCGFEJJ@mapv1m@
CONST	SEGMENT
??_C@_06JCGFEJJ@mapv1m@ DB 'mapv1m', 00H		; `string'
CONST	ENDS
;	COMDAT ??_C@_06IOEDOKO@mapv0m@
CONST	SEGMENT
??_C@_06IOEDOKO@mapv0m@ DB 'mapv0m', 00H		; `string'
CONST	ENDS
;	COMDAT ??_C@_06GHFMJJFG@mapuzm@
CONST	SEGMENT
??_C@_06GHFMJJFG@mapuzm@ DB 'mapuzm', 00H		; `string'
CONST	ENDS
;	COMDAT ??_C@_06GFBKCHAP@mapuym@
CONST	SEGMENT
??_C@_06GFBKCHAP@mapuym@ DB 'mapuym', 00H		; `string'
CONST	ENDS
;	COMDAT ??_C@_06GENIENDI@mapuxm@
CONST	SEGMENT
??_C@_06GENIENDI@mapuxm@ DB 'mapuxm', 00H		; `string'
CONST	ENDS
;	COMDAT ??_C@_06GPIEAKAF@mapuwm@
CONST	SEGMENT
??_C@_06GPIEAKAF@mapuwm@ DB 'mapuwm', 00H		; `string'
CONST	ENDS
;	COMDAT ??_C@_06GOEGGADC@mapuvm@
CONST	SEGMENT
??_C@_06GOEGGADC@mapuvm@ DB 'mapuvm', 00H		; `string'
CONST	ENDS
;	COMDAT ??_C@_06GMAANOGL@mapuum@
CONST	SEGMENT
??_C@_06GMAANOGL@mapuum@ DB 'mapuum', 00H		; `string'
CONST	ENDS
;	COMDAT ??_C@_06GNMCLEFM@maputm@
CONST	SEGMENT
??_C@_06GNMCLEFM@maputm@ DB 'maputm', 00H		; `string'
CONST	ENDS
;	COMDAT ??_C@_06GIINKCNJ@mapusm@
CONST	SEGMENT
??_C@_06GIINKCNJ@mapusm@ DB 'mapusm', 00H		; `string'
CONST	ENDS
;	COMDAT ??_C@_06GJEPMIOO@mapurm@
CONST	SEGMENT
??_C@_06GJEPMIOO@mapurm@ DB 'mapurm', 00H		; `string'
CONST	ENDS
;	COMDAT ??_C@_06GLAJHGLH@mapuqm@
CONST	SEGMENT
??_C@_06GLAJHGLH@mapuqm@ DB 'mapuqm', 00H		; `string'
CONST	ENDS
;	COMDAT ??_C@_06GKMLBMIA@mapupm@
CONST	SEGMENT
??_C@_06GKMLBMIA@mapupm@ DB 'mapupm', 00H		; `string'
CONST	ENDS
;	COMDAT ??_C@_06HNLBPIMN@mapuom@
CONST	SEGMENT
??_C@_06HNLBPIMN@mapuom@ DB 'mapuom', 00H		; `string'
CONST	ENDS
;	COMDAT ??_C@_06HMHDJCPK@mapunm@
CONST	SEGMENT
??_C@_06HMHDJCPK@mapunm@ DB 'mapunm', 00H		; `string'
CONST	ENDS
;	COMDAT ??_C@_06HODFCMKD@mapumm@
CONST	SEGMENT
??_C@_06HODFCMKD@mapumm@ DB 'mapumm', 00H		; `string'
CONST	ENDS
;	COMDAT ??_C@_06HPPHEGJE@mapulm@
CONST	SEGMENT
??_C@_06HPPHEGJE@mapulm@ DB 'mapulm', 00H		; `string'
CONST	ENDS
;	COMDAT ??_C@_06HKLIFABB@mapukm@
CONST	SEGMENT
??_C@_06HKLIFABB@mapukm@ DB 'mapukm', 00H		; `string'
CONST	ENDS
;	COMDAT ??_C@_06HLHKDKCG@mapujm@
CONST	SEGMENT
??_C@_06HLHKDKCG@mapujm@ DB 'mapujm', 00H		; `string'
CONST	ENDS
;	COMDAT ??_C@_06HJDMIEHP@mapuim@
CONST	SEGMENT
??_C@_06HJDMIEHP@mapuim@ DB 'mapuim', 00H		; `string'
CONST	ENDS
;	COMDAT ??_C@_06HIPOOOEI@mapuhm@
CONST	SEGMENT
??_C@_06HIPOOOEI@mapuhm@ DB 'mapuhm', 00H		; `string'
CONST	ENDS
;	COMDAT ??_C@_06HDKCKJHF@mapugm@
CONST	SEGMENT
??_C@_06HDKCKJHF@mapugm@ DB 'mapugm', 00H		; `string'
CONST	ENDS
;	COMDAT ??_C@_06HCGAMDEC@mapufm@
CONST	SEGMENT
??_C@_06HCGAMDEC@mapufm@ DB 'mapufm', 00H		; `string'
CONST	ENDS
;	COMDAT ??_C@_06HACGHNBL@mapuem@
CONST	SEGMENT
??_C@_06HACGHNBL@mapuem@ DB 'mapuem', 00H		; `string'
CONST	ENDS
;	COMDAT ??_C@_06HBOEBHCM@mapudm@
CONST	SEGMENT
??_C@_06HBOEBHCM@mapudm@ DB 'mapudm', 00H		; `string'
CONST	ENDS
;	COMDAT ??_C@_06HEKLABKJ@mapucm@
CONST	SEGMENT
??_C@_06HEKLABKJ@mapucm@ DB 'mapucm', 00H		; `string'
CONST	ENDS
;	COMDAT ??_C@_06HFGJGLJO@mapubm@
CONST	SEGMENT
??_C@_06HFGJGLJO@mapubm@ DB 'mapubm', 00H		; `string'
CONST	ENDS
;	COMDAT ??_C@_06HHCPNFMH@mapuam@
CONST	SEGMENT
??_C@_06HHCPNFMH@mapuam@ DB 'mapuam', 00H		; `string'
CONST	ENDS
;	COMDAT ??_C@_06BFIAKKMP@mapu9m@
CONST	SEGMENT
??_C@_06BFIAKKMP@mapu9m@ DB 'mapu9m', 00H		; `string'
CONST	ENDS
;	COMDAT ??_C@_06BEECMAPI@mapu8m@
CONST	SEGMENT
??_C@_06BEECMAPI@mapu8m@ DB 'mapu8m', 00H		; `string'
CONST	ENDS
;	COMDAT ??_C@_06BPBOIHMF@mapu7m@
CONST	SEGMENT
??_C@_06BPBOIHMF@mapu7m@ DB 'mapu7m', 00H		; `string'
CONST	ENDS
;	COMDAT ??_C@_06BONMONPC@mapu6m@
CONST	SEGMENT
??_C@_06BONMONPC@mapu6m@ DB 'mapu6m', 00H		; `string'
CONST	ENDS
;	COMDAT ??_C@_06BMJKFDKL@mapu5m@
CONST	SEGMENT
??_C@_06BMJKFDKL@mapu5m@ DB 'mapu5m', 00H		; `string'
CONST	ENDS
;	COMDAT ??_C@_06BNFIDJJM@mapu4m@
CONST	SEGMENT
??_C@_06BNFIDJJM@mapu4m@ DB 'mapu4m', 00H		; `string'
CONST	ENDS
;	COMDAT ??_C@_06BIBHCPBJ@mapu3m@
CONST	SEGMENT
??_C@_06BIBHCPBJ@mapu3m@ DB 'mapu3m', 00H		; `string'
CONST	ENDS
;	COMDAT ??_C@_06BJNFEFCO@mapu2m@
CONST	SEGMENT
??_C@_06BJNFEFCO@mapu2m@ DB 'mapu2m', 00H		; `string'
CONST	ENDS
;	COMDAT ??_C@_06BLJDPLHH@mapu1m@
CONST	SEGMENT
??_C@_06BLJDPLHH@mapu1m@ DB 'mapu1m', 00H		; `string'
CONST	ENDS
;	COMDAT ??_C@_06BKFBJBEA@mapu0m@
CONST	SEGMENT
??_C@_06BKFBJBEA@mapu0m@ DB 'mapu0m', 00H		; `string'
CONST	ENDS
;	COMDAT ??_C@_06NPOAPODD@maptzm@
CONST	SEGMENT
??_C@_06NPOAPODD@maptzm@ DB 'maptzm', 00H		; `string'
CONST	ENDS
;	COMDAT ??_C@_06NNKGEAGK@maptym@
CONST	SEGMENT
??_C@_06NNKGEAGK@maptym@ DB 'maptym', 00H		; `string'
CONST	ENDS
;	COMDAT ??_C@_06NMGECKFN@maptxm@
CONST	SEGMENT
??_C@_06NMGECKFN@maptxm@ DB 'maptxm', 00H		; `string'
CONST	ENDS
;	COMDAT ??_C@_06NHDIGNGA@maptwm@
CONST	SEGMENT
??_C@_06NHDIGNGA@maptwm@ DB 'maptwm', 00H		; `string'
CONST	ENDS
;	COMDAT ??_C@_06NGPKAHFH@maptvm@
CONST	SEGMENT
??_C@_06NGPKAHFH@maptvm@ DB 'maptvm', 00H		; `string'
CONST	ENDS
;	COMDAT ??_C@_06NELMLJAO@maptum@
CONST	SEGMENT
??_C@_06NELMLJAO@maptum@ DB 'maptum', 00H		; `string'
CONST	ENDS
;	COMDAT ??_C@_06NFHONDDJ@mapttm@
CONST	SEGMENT
??_C@_06NFHONDDJ@mapttm@ DB 'mapttm', 00H		; `string'
CONST	ENDS
;	COMDAT ??_C@_06NADBMFLM@maptsm@
CONST	SEGMENT
??_C@_06NADBMFLM@maptsm@ DB 'maptsm', 00H		; `string'
CONST	ENDS
;	COMDAT ??_C@_06NBPDKPIL@maptrm@
CONST	SEGMENT
??_C@_06NBPDKPIL@maptrm@ DB 'maptrm', 00H		; `string'
CONST	ENDS
;	COMDAT ??_C@_06NDLFBBNC@maptqm@
CONST	SEGMENT
??_C@_06NDLFBBNC@maptqm@ DB 'maptqm', 00H		; `string'
CONST	ENDS
;	COMDAT ??_C@_06NCHHHLOF@maptpm@
CONST	SEGMENT
??_C@_06NCHHHLOF@maptpm@ DB 'maptpm', 00H		; `string'
CONST	ENDS
;	COMDAT ??_C@_06MFANJPKI@maptom@
CONST	SEGMENT
??_C@_06MFANJPKI@maptom@ DB 'maptom', 00H		; `string'
CONST	ENDS
;	COMDAT ??_C@_06MEMPPFJP@maptnm@
CONST	SEGMENT
??_C@_06MEMPPFJP@maptnm@ DB 'maptnm', 00H		; `string'
CONST	ENDS
;	COMDAT ??_C@_06MGIJELMG@maptmm@
CONST	SEGMENT
??_C@_06MGIJELMG@maptmm@ DB 'maptmm', 00H		; `string'
CONST	ENDS
;	COMDAT ??_C@_06MHELCBPB@maptlm@
CONST	SEGMENT
??_C@_06MHELCBPB@maptlm@ DB 'maptlm', 00H		; `string'
CONST	ENDS
;	COMDAT ??_C@_06MCAEDHHE@maptkm@
CONST	SEGMENT
??_C@_06MCAEDHHE@maptkm@ DB 'maptkm', 00H		; `string'
CONST	ENDS
;	COMDAT ??_C@_06MDMGFNED@maptjm@
CONST	SEGMENT
??_C@_06MDMGFNED@maptjm@ DB 'maptjm', 00H		; `string'
CONST	ENDS
;	COMDAT ??_C@_06MBIAODBK@maptim@
CONST	SEGMENT
??_C@_06MBIAODBK@maptim@ DB 'maptim', 00H		; `string'
CONST	ENDS
;	COMDAT ??_C@_06MAECIJCN@mapthm@
CONST	SEGMENT
??_C@_06MAECIJCN@mapthm@ DB 'mapthm', 00H		; `string'
CONST	ENDS
;	COMDAT ??_C@_06MLBOMOBA@maptgm@
CONST	SEGMENT
??_C@_06MLBOMOBA@maptgm@ DB 'maptgm', 00H		; `string'
CONST	ENDS
;	COMDAT ??_C@_06MKNMKECH@maptfm@
CONST	SEGMENT
??_C@_06MKNMKECH@maptfm@ DB 'maptfm', 00H		; `string'
CONST	ENDS
;	COMDAT ??_C@_06MIJKBKHO@maptem@
CONST	SEGMENT
??_C@_06MIJKBKHO@maptem@ DB 'maptem', 00H		; `string'
CONST	ENDS
;	COMDAT ??_C@_06MJFIHAEJ@maptdm@
CONST	SEGMENT
??_C@_06MJFIHAEJ@maptdm@ DB 'maptdm', 00H		; `string'
CONST	ENDS
;	COMDAT ??_C@_06MMBHGGMM@maptcm@
CONST	SEGMENT
??_C@_06MMBHGGMM@maptcm@ DB 'maptcm', 00H		; `string'
CONST	ENDS
;	COMDAT ??_C@_06MNNFAMPL@maptbm@
CONST	SEGMENT
??_C@_06MNNFAMPL@maptbm@ DB 'maptbm', 00H		; `string'
CONST	ENDS
;	COMDAT ??_C@_06MPJDLCKC@maptam@
CONST	SEGMENT
??_C@_06MPJDLCKC@maptam@ DB 'maptam', 00H		; `string'
CONST	ENDS
;	COMDAT ??_C@_06KNDMMNKK@mapt9m@
CONST	SEGMENT
??_C@_06KNDMMNKK@mapt9m@ DB 'mapt9m', 00H		; `string'
CONST	ENDS
;	COMDAT ??_C@_06KMPOKHJN@mapt8m@
CONST	SEGMENT
??_C@_06KMPOKHJN@mapt8m@ DB 'mapt8m', 00H		; `string'
CONST	ENDS
;	COMDAT ??_C@_06KHKCOAKA@mapt7m@
CONST	SEGMENT
??_C@_06KHKCOAKA@mapt7m@ DB 'mapt7m', 00H		; `string'
CONST	ENDS
;	COMDAT ??_C@_06KGGAIKJH@mapt6m@
CONST	SEGMENT
??_C@_06KGGAIKJH@mapt6m@ DB 'mapt6m', 00H		; `string'
CONST	ENDS
;	COMDAT ??_C@_06KECGDEMO@mapt5m@
CONST	SEGMENT
??_C@_06KECGDEMO@mapt5m@ DB 'mapt5m', 00H		; `string'
CONST	ENDS
;	COMDAT ??_C@_06KFOEFOPJ@mapt4m@
CONST	SEGMENT
??_C@_06KFOEFOPJ@mapt4m@ DB 'mapt4m', 00H		; `string'
CONST	ENDS
;	COMDAT ??_C@_06KAKLEIHM@mapt3m@
CONST	SEGMENT
??_C@_06KAKLEIHM@mapt3m@ DB 'mapt3m', 00H		; `string'
CONST	ENDS
;	COMDAT ??_C@_06KBGJCCEL@mapt2m@
CONST	SEGMENT
??_C@_06KBGJCCEL@mapt2m@ DB 'mapt2m', 00H		; `string'
CONST	ENDS
;	COMDAT ??_C@_06KDCPJMBC@mapt1m@
CONST	SEGMENT
??_C@_06KDCPJMBC@mapt1m@ DB 'mapt1m', 00H		; `string'
CONST	ENDS
;	COMDAT ??_C@_06KCONPGCF@mapt0m@
CONST	SEGMENT
??_C@_06KCONPGCF@mapt0m@ DB 'mapt0m', 00H		; `string'
CONST	ENDS
;	COMDAT ??_C@_06ECDHMGIK@mapszm@
CONST	SEGMENT
??_C@_06ECDHMGIK@mapszm@ DB 'mapszm', 00H		; `string'
CONST	ENDS
;	COMDAT ??_C@_06EAHBHIND@mapsym@
CONST	SEGMENT
??_C@_06EAHBHIND@mapsym@ DB 'mapsym', 00H		; `string'
CONST	ENDS
;	COMDAT ??_C@_06EBLDBCOE@mapsxm@
CONST	SEGMENT
??_C@_06EBLDBCOE@mapsxm@ DB 'mapsxm', 00H		; `string'
CONST	ENDS
;	COMDAT ??_C@_06EKOPFFNJ@mapswm@
CONST	SEGMENT
??_C@_06EKOPFFNJ@mapswm@ DB 'mapswm', 00H		; `string'
CONST	ENDS
;	COMDAT ??_C@_06ELCNDPOO@mapsvm@
CONST	SEGMENT
??_C@_06ELCNDPOO@mapsvm@ DB 'mapsvm', 00H		; `string'
CONST	ENDS
;	COMDAT ??_C@_06EJGLIBLH@mapsum@
CONST	SEGMENT
??_C@_06EJGLIBLH@mapsum@ DB 'mapsum', 00H		; `string'
CONST	ENDS
;	COMDAT ??_C@_06EIKJOLIA@mapstm@
CONST	SEGMENT
??_C@_06EIKJOLIA@mapstm@ DB 'mapstm', 00H		; `string'
CONST	ENDS
;	COMDAT ??_C@_06ENOGPNAF@mapssm@
CONST	SEGMENT
??_C@_06ENOGPNAF@mapssm@ DB 'mapssm', 00H		; `string'
CONST	ENDS
;	COMDAT ??_C@_06EMCEJHDC@mapsrm@
CONST	SEGMENT
??_C@_06EMCEJHDC@mapsrm@ DB 'mapsrm', 00H		; `string'
CONST	ENDS
;	COMDAT ??_C@_06EOGCCJGL@mapsqm@
CONST	SEGMENT
??_C@_06EOGCCJGL@mapsqm@ DB 'mapsqm', 00H		; `string'
CONST	ENDS
;	COMDAT ??_C@_06EPKAEDFM@mapspm@
CONST	SEGMENT
??_C@_06EPKAEDFM@mapspm@ DB 'mapspm', 00H		; `string'
CONST	ENDS
;	COMDAT ??_C@_06FINKKHBB@mapsom@
CONST	SEGMENT
??_C@_06FINKKHBB@mapsom@ DB 'mapsom', 00H		; `string'
CONST	ENDS
;	COMDAT ??_C@_06FJBIMNCG@mapsnm@
CONST	SEGMENT
??_C@_06FJBIMNCG@mapsnm@ DB 'mapsnm', 00H		; `string'
CONST	ENDS
;	COMDAT ??_C@_06FLFOHDHP@mapsmm@
CONST	SEGMENT
??_C@_06FLFOHDHP@mapsmm@ DB 'mapsmm', 00H		; `string'
CONST	ENDS
;	COMDAT ??_C@_06FKJMBJEI@mapslm@
CONST	SEGMENT
??_C@_06FKJMBJEI@mapslm@ DB 'mapslm', 00H		; `string'
CONST	ENDS
;	COMDAT ??_C@_06FPNDAPMN@mapskm@
CONST	SEGMENT
??_C@_06FPNDAPMN@mapskm@ DB 'mapskm', 00H		; `string'
CONST	ENDS
;	COMDAT ??_C@_06FOBBGFPK@mapsjm@
CONST	SEGMENT
??_C@_06FOBBGFPK@mapsjm@ DB 'mapsjm', 00H		; `string'
CONST	ENDS
;	COMDAT ??_C@_06FMFHNLKD@mapsim@
CONST	SEGMENT
??_C@_06FMFHNLKD@mapsim@ DB 'mapsim', 00H		; `string'
CONST	ENDS
;	COMDAT ??_C@_06FNJFLBJE@mapshm@
CONST	SEGMENT
??_C@_06FNJFLBJE@mapshm@ DB 'mapshm', 00H		; `string'
CONST	ENDS
;	COMDAT ??_C@_06FGMJPGKJ@mapsgm@
CONST	SEGMENT
??_C@_06FGMJPGKJ@mapsgm@ DB 'mapsgm', 00H		; `string'
CONST	ENDS
;	COMDAT ??_C@_06FHALJMJO@mapsfm@
CONST	SEGMENT
??_C@_06FHALJMJO@mapsfm@ DB 'mapsfm', 00H		; `string'
CONST	ENDS
;	COMDAT ??_C@_06FFENCCMH@mapsem@
CONST	SEGMENT
??_C@_06FFENCCMH@mapsem@ DB 'mapsem', 00H		; `string'
CONST	ENDS
;	COMDAT ??_C@_06FEIPEIPA@mapsdm@
CONST	SEGMENT
??_C@_06FEIPEIPA@mapsdm@ DB 'mapsdm', 00H		; `string'
CONST	ENDS
;	COMDAT ??_C@_06FBMAFOHF@mapscm@
CONST	SEGMENT
??_C@_06FBMAFOHF@mapscm@ DB 'mapscm', 00H		; `string'
CONST	ENDS
;	COMDAT ??_C@_06FAACDEEC@mapsbm@
CONST	SEGMENT
??_C@_06FAACDEEC@mapsbm@ DB 'mapsbm', 00H		; `string'
CONST	ENDS
;	COMDAT ??_C@_06FCEEIKBL@mapsam@
CONST	SEGMENT
??_C@_06FCEEIKBL@mapsam@ DB 'mapsam', 00H		; `string'
CONST	ENDS
;	COMDAT ??_C@_06DAOLPFBD@maps9m@
CONST	SEGMENT
??_C@_06DAOLPFBD@maps9m@ DB 'maps9m', 00H		; `string'
CONST	ENDS
;	COMDAT ??_C@_06DBCJJPCE@maps8m@
CONST	SEGMENT
??_C@_06DBCJJPCE@maps8m@ DB 'maps8m', 00H		; `string'
CONST	ENDS
;	COMDAT ??_C@_06DKHFNIBJ@maps7m@
CONST	SEGMENT
??_C@_06DKHFNIBJ@maps7m@ DB 'maps7m', 00H		; `string'
CONST	ENDS
;	COMDAT ??_C@_06DLLHLCCO@maps6m@
CONST	SEGMENT
??_C@_06DLLHLCCO@maps6m@ DB 'maps6m', 00H		; `string'
CONST	ENDS
;	COMDAT ??_C@_06DJPBAMHH@maps5m@
CONST	SEGMENT
??_C@_06DJPBAMHH@maps5m@ DB 'maps5m', 00H		; `string'
CONST	ENDS
;	COMDAT ??_C@_06DIDDGGEA@maps4m@
CONST	SEGMENT
??_C@_06DIDDGGEA@maps4m@ DB 'maps4m', 00H		; `string'
CONST	ENDS
;	COMDAT ??_C@_06DNHMHAMF@maps3m@
CONST	SEGMENT
??_C@_06DNHMHAMF@maps3m@ DB 'maps3m', 00H		; `string'
CONST	ENDS
;	COMDAT ??_C@_06DMLOBKPC@maps2m@
CONST	SEGMENT
??_C@_06DMLOBKPC@maps2m@ DB 'maps2m', 00H		; `string'
CONST	ENDS
;	COMDAT ??_C@_06DOPIKEKL@maps1m@
CONST	SEGMENT
??_C@_06DOPIKEKL@maps1m@ DB 'maps1m', 00H		; `string'
CONST	ENDS
;	COMDAT ??_C@_06DPDKMOJM@maps0m@
CONST	SEGMENT
??_C@_06DPDKMOJM@maps0m@ DB 'maps0m', 00H		; `string'
CONST	ENDS
;	COMDAT ??_C@_06PKILKBOP@maprzm@
CONST	SEGMENT
??_C@_06PKILKBOP@maprzm@ DB 'maprzm', 00H		; `string'
CONST	ENDS
;	COMDAT ??_C@_06PIMNBPLG@maprym@
CONST	SEGMENT
??_C@_06PIMNBPLG@maprym@ DB 'maprym', 00H		; `string'
CONST	ENDS
;	COMDAT ??_C@_06PJAPHFIB@maprxm@
CONST	SEGMENT
??_C@_06PJAPHFIB@maprxm@ DB 'maprxm', 00H		; `string'
CONST	ENDS
;	COMDAT ??_C@_06PCFDDCLM@maprwm@
CONST	SEGMENT
??_C@_06PCFDDCLM@maprwm@ DB 'maprwm', 00H		; `string'
CONST	ENDS
;	COMDAT ??_C@_06PDJBFIIL@maprvm@
CONST	SEGMENT
??_C@_06PDJBFIIL@maprvm@ DB 'maprvm', 00H		; `string'
CONST	ENDS
;	COMDAT ??_C@_06PBNHOGNC@maprum@
CONST	SEGMENT
??_C@_06PBNHOGNC@maprum@ DB 'maprum', 00H		; `string'
CONST	ENDS
;	COMDAT ??_C@_06PABFIMOF@maprtm@
CONST	SEGMENT
??_C@_06PABFIMOF@maprtm@ DB 'maprtm', 00H		; `string'
CONST	ENDS
;	COMDAT ??_C@_06PFFKJKGA@maprsm@
CONST	SEGMENT
??_C@_06PFFKJKGA@maprsm@ DB 'maprsm', 00H		; `string'
CONST	ENDS
;	COMDAT ??_C@_06PEJIPAFH@maprrm@
CONST	SEGMENT
??_C@_06PEJIPAFH@maprrm@ DB 'maprrm', 00H		; `string'
CONST	ENDS
;	COMDAT ??_C@_06PGNOEOAO@maprqm@
CONST	SEGMENT
??_C@_06PGNOEOAO@maprqm@ DB 'maprqm', 00H		; `string'
CONST	ENDS
;	COMDAT ??_C@_06PHBMCEDJ@maprpm@
CONST	SEGMENT
??_C@_06PHBMCEDJ@maprpm@ DB 'maprpm', 00H		; `string'
CONST	ENDS
;	COMDAT ??_C@_06OAGGMAHE@maprom@
CONST	SEGMENT
??_C@_06OAGGMAHE@maprom@ DB 'maprom', 00H		; `string'
CONST	ENDS
;	COMDAT ??_C@_06OBKEKKED@maprnm@
CONST	SEGMENT
??_C@_06OBKEKKED@maprnm@ DB 'maprnm', 00H		; `string'
CONST	ENDS
;	COMDAT ??_C@_06ODOCBEBK@maprmm@
CONST	SEGMENT
??_C@_06ODOCBEBK@maprmm@ DB 'maprmm', 00H		; `string'
CONST	ENDS
;	COMDAT ??_C@_06OCCAHOCN@maprlm@
CONST	SEGMENT
??_C@_06OCCAHOCN@maprlm@ DB 'maprlm', 00H		; `string'
CONST	ENDS
;	COMDAT ??_C@_06OHGPGIKI@maprkm@
CONST	SEGMENT
??_C@_06OHGPGIKI@maprkm@ DB 'maprkm', 00H		; `string'
CONST	ENDS
;	COMDAT ??_C@_06OGKNACJP@maprjm@
CONST	SEGMENT
??_C@_06OGKNACJP@maprjm@ DB 'maprjm', 00H		; `string'
CONST	ENDS
;	COMDAT ??_C@_06OEOLLMMG@maprim@
CONST	SEGMENT
??_C@_06OEOLLMMG@maprim@ DB 'maprim', 00H		; `string'
CONST	ENDS
;	COMDAT ??_C@_06OFCJNGPB@maprhm@
CONST	SEGMENT
??_C@_06OFCJNGPB@maprhm@ DB 'maprhm', 00H		; `string'
CONST	ENDS
;	COMDAT ??_C@_06OOHFJBMM@maprgm@
CONST	SEGMENT
??_C@_06OOHFJBMM@maprgm@ DB 'maprgm', 00H		; `string'
CONST	ENDS
;	COMDAT ??_C@_06OPLHPLPL@maprfm@
CONST	SEGMENT
??_C@_06OPLHPLPL@maprfm@ DB 'maprfm', 00H		; `string'
CONST	ENDS
;	COMDAT ??_C@_06ONPBEFKC@maprem@
CONST	SEGMENT
??_C@_06ONPBEFKC@maprem@ DB 'maprem', 00H		; `string'
CONST	ENDS
;	COMDAT ??_C@_06OMDDCPJF@maprdm@
CONST	SEGMENT
??_C@_06OMDDCPJF@maprdm@ DB 'maprdm', 00H		; `string'
CONST	ENDS
;	COMDAT ??_C@_06OJHMDJBA@maprcm@
CONST	SEGMENT
??_C@_06OJHMDJBA@maprcm@ DB 'maprcm', 00H		; `string'
CONST	ENDS
;	COMDAT ??_C@_06OILOFDCH@maprbm@
CONST	SEGMENT
??_C@_06OILOFDCH@maprbm@ DB 'maprbm', 00H		; `string'
CONST	ENDS
;	COMDAT ??_C@_06OKPIONHO@mapram@
CONST	SEGMENT
??_C@_06OKPIONHO@mapram@ DB 'mapram', 00H		; `string'
CONST	ENDS
;	COMDAT ??_C@_06IIFHJCHG@mapr9m@
CONST	SEGMENT
??_C@_06IIFHJCHG@mapr9m@ DB 'mapr9m', 00H		; `string'
CONST	ENDS
;	COMDAT ??_C@_06IJJFPIEB@mapr8m@
CONST	SEGMENT
??_C@_06IJJFPIEB@mapr8m@ DB 'mapr8m', 00H		; `string'
CONST	ENDS
;	COMDAT ??_C@_06ICMJLPHM@mapr7m@
CONST	SEGMENT
??_C@_06ICMJLPHM@mapr7m@ DB 'mapr7m', 00H		; `string'
CONST	ENDS
;	COMDAT ??_C@_06IDALNFEL@mapr6m@
CONST	SEGMENT
??_C@_06IDALNFEL@mapr6m@ DB 'mapr6m', 00H		; `string'
CONST	ENDS
;	COMDAT ??_C@_06IBENGLBC@mapr5m@
CONST	SEGMENT
??_C@_06IBENGLBC@mapr5m@ DB 'mapr5m', 00H		; `string'
CONST	ENDS
;	COMDAT ??_C@_06IAIPABCF@mapr4m@
CONST	SEGMENT
??_C@_06IAIPABCF@mapr4m@ DB 'mapr4m', 00H		; `string'
CONST	ENDS
;	COMDAT ??_C@_06IFMABHKA@mapr3m@
CONST	SEGMENT
??_C@_06IFMABHKA@mapr3m@ DB 'mapr3m', 00H		; `string'
CONST	ENDS
;	COMDAT ??_C@_06IEACHNJH@mapr2m@
CONST	SEGMENT
??_C@_06IEACHNJH@mapr2m@ DB 'mapr2m', 00H		; `string'
CONST	ENDS
;	COMDAT ??_C@_06IGEEMDMO@mapr1m@
CONST	SEGMENT
??_C@_06IGEEMDMO@mapr1m@ DB 'mapr1m', 00H		; `string'
CONST	ENDS
;	COMDAT ??_C@_06IHIGKJPJ@mapr0m@
CONST	SEGMENT
??_C@_06IHIGKJPJ@mapr0m@ DB 'mapr0m', 00H		; `string'
CONST	ENDS
;	COMDAT ??_C@_06OIDOAOAB@mapqzm@
CONST	SEGMENT
??_C@_06OIDOAOAB@mapqzm@ DB 'mapqzm', 00H		; `string'
CONST	ENDS
;	COMDAT ??_C@_06OKHILAFI@mapqym@
CONST	SEGMENT
??_C@_06OKHILAFI@mapqym@ DB 'mapqym', 00H		; `string'
CONST	ENDS
;	COMDAT ??_C@_06OLLKNKGP@mapqxm@
CONST	SEGMENT
??_C@_06OLLKNKGP@mapqxm@ DB 'mapqxm', 00H		; `string'
CONST	ENDS
;	COMDAT ??_C@_06OAOGJNFC@mapqwm@
CONST	SEGMENT
??_C@_06OAOGJNFC@mapqwm@ DB 'mapqwm', 00H		; `string'
CONST	ENDS
;	COMDAT ??_C@_06OBCEPHGF@mapqvm@
CONST	SEGMENT
??_C@_06OBCEPHGF@mapqvm@ DB 'mapqvm', 00H		; `string'
CONST	ENDS
;	COMDAT ??_C@_06ODGCEJDM@mapqum@
CONST	SEGMENT
??_C@_06ODGCEJDM@mapqum@ DB 'mapqum', 00H		; `string'
CONST	ENDS
;	COMDAT ??_C@_06OCKACDAL@mapqtm@
CONST	SEGMENT
??_C@_06OCKACDAL@mapqtm@ DB 'mapqtm', 00H		; `string'
CONST	ENDS
;	COMDAT ??_C@_06OHOPDFIO@mapqsm@
CONST	SEGMENT
??_C@_06OHOPDFIO@mapqsm@ DB 'mapqsm', 00H		; `string'
CONST	ENDS
;	COMDAT ??_C@_06OGCNFPLJ@mapqrm@
CONST	SEGMENT
??_C@_06OGCNFPLJ@mapqrm@ DB 'mapqrm', 00H		; `string'
CONST	ENDS
;	COMDAT ??_C@_06OEGLOBOA@mapqqm@
CONST	SEGMENT
??_C@_06OEGLOBOA@mapqqm@ DB 'mapqqm', 00H		; `string'
CONST	ENDS
;	COMDAT ??_C@_06OFKJILNH@mapqpm@
CONST	SEGMENT
??_C@_06OFKJILNH@mapqpm@ DB 'mapqpm', 00H		; `string'
CONST	ENDS
;	COMDAT ??_C@_06PCNDGPJK@mapqom@
CONST	SEGMENT
??_C@_06PCNDGPJK@mapqom@ DB 'mapqom', 00H		; `string'
CONST	ENDS
;	COMDAT ??_C@_06PDBBAFKN@mapqnm@
CONST	SEGMENT
??_C@_06PDBBAFKN@mapqnm@ DB 'mapqnm', 00H		; `string'
CONST	ENDS
;	COMDAT ??_C@_06PBFHLLPE@mapqmm@
CONST	SEGMENT
??_C@_06PBFHLLPE@mapqmm@ DB 'mapqmm', 00H		; `string'
CONST	ENDS
;	COMDAT ??_C@_06PAJFNBMD@mapqlm@
CONST	SEGMENT
??_C@_06PAJFNBMD@mapqlm@ DB 'mapqlm', 00H		; `string'
CONST	ENDS
;	COMDAT ??_C@_06PFNKMHEG@mapqkm@
CONST	SEGMENT
??_C@_06PFNKMHEG@mapqkm@ DB 'mapqkm', 00H		; `string'
CONST	ENDS
;	COMDAT ??_C@_06PEBIKNHB@mapqjm@
CONST	SEGMENT
??_C@_06PEBIKNHB@mapqjm@ DB 'mapqjm', 00H		; `string'
CONST	ENDS
;	COMDAT ??_C@_06PGFOBDCI@mapqim@
CONST	SEGMENT
??_C@_06PGFOBDCI@mapqim@ DB 'mapqim', 00H		; `string'
CONST	ENDS
;	COMDAT ??_C@_06PHJMHJBP@mapqhm@
CONST	SEGMENT
??_C@_06PHJMHJBP@mapqhm@ DB 'mapqhm', 00H		; `string'
CONST	ENDS
;	COMDAT ??_C@_06PMMADOCC@mapqgm@
CONST	SEGMENT
??_C@_06PMMADOCC@mapqgm@ DB 'mapqgm', 00H		; `string'
CONST	ENDS
;	COMDAT ??_C@_06PNACFEBF@mapqfm@
CONST	SEGMENT
??_C@_06PNACFEBF@mapqfm@ DB 'mapqfm', 00H		; `string'
CONST	ENDS
;	COMDAT ??_C@_06PPEEOKEM@mapqem@
CONST	SEGMENT
??_C@_06PPEEOKEM@mapqem@ DB 'mapqem', 00H		; `string'
CONST	ENDS
;	COMDAT ??_C@_06POIGIAHL@mapqdm@
CONST	SEGMENT
??_C@_06POIGIAHL@mapqdm@ DB 'mapqdm', 00H		; `string'
CONST	ENDS
;	COMDAT ??_C@_06PLMJJGPO@mapqcm@
CONST	SEGMENT
??_C@_06PLMJJGPO@mapqcm@ DB 'mapqcm', 00H		; `string'
CONST	ENDS
;	COMDAT ??_C@_06PKALPMMJ@mapqbm@
CONST	SEGMENT
??_C@_06PKALPMMJ@mapqbm@ DB 'mapqbm', 00H		; `string'
CONST	ENDS
;	COMDAT ??_C@_06PIENECJA@mapqam@
CONST	SEGMENT
??_C@_06PIENECJA@mapqam@ DB 'mapqam', 00H		; `string'
CONST	ENDS
;	COMDAT ??_C@_06JKOCDNJI@mapq9m@
CONST	SEGMENT
??_C@_06JKOCDNJI@mapq9m@ DB 'mapq9m', 00H		; `string'
CONST	ENDS
;	COMDAT ??_C@_06JLCAFHKP@mapq8m@
CONST	SEGMENT
??_C@_06JLCAFHKP@mapq8m@ DB 'mapq8m', 00H		; `string'
CONST	ENDS
;	COMDAT ??_C@_06JAHMBAJC@mapq7m@
CONST	SEGMENT
??_C@_06JAHMBAJC@mapq7m@ DB 'mapq7m', 00H		; `string'
CONST	ENDS
;	COMDAT ??_C@_06JBLOHKKF@mapq6m@
CONST	SEGMENT
??_C@_06JBLOHKKF@mapq6m@ DB 'mapq6m', 00H		; `string'
CONST	ENDS
;	COMDAT ??_C@_06JDPIMEPM@mapq5m@
CONST	SEGMENT
??_C@_06JDPIMEPM@mapq5m@ DB 'mapq5m', 00H		; `string'
CONST	ENDS
;	COMDAT ??_C@_06JCDKKOML@mapq4m@
CONST	SEGMENT
??_C@_06JCDKKOML@mapq4m@ DB 'mapq4m', 00H		; `string'
CONST	ENDS
;	COMDAT ??_C@_06JHHFLIEO@mapq3m@
CONST	SEGMENT
??_C@_06JHHFLIEO@mapq3m@ DB 'mapq3m', 00H		; `string'
CONST	ENDS
;	COMDAT ??_C@_06JGLHNCHJ@mapq2m@
CONST	SEGMENT
??_C@_06JGLHNCHJ@mapq2m@ DB 'mapq2m', 00H		; `string'
CONST	ENDS
;	COMDAT ??_C@_06JEPBGMCA@mapq1m@
CONST	SEGMENT
??_C@_06JEPBGMCA@mapq1m@ DB 'mapq1m', 00H		; `string'
CONST	ENDS
;	COMDAT ??_C@_06JFDDAGBH@mapq0m@
CONST	SEGMENT
??_C@_06JFDDAGBH@mapq0m@ DB 'mapq0m', 00H		; `string'
CONST	ENDS
;	COMDAT ??_C@_06FAICGJGE@mappzm@
CONST	SEGMENT
??_C@_06FAICGJGE@mappzm@ DB 'mappzm', 00H		; `string'
CONST	ENDS
;	COMDAT ??_C@_06FCMENHDN@mappym@
CONST	SEGMENT
??_C@_06FCMENHDN@mappym@ DB 'mappym', 00H		; `string'
CONST	ENDS
;	COMDAT ??_C@_06FDAGLNAK@mappxm@
CONST	SEGMENT
??_C@_06FDAGLNAK@mappxm@ DB 'mappxm', 00H		; `string'
CONST	ENDS
;	COMDAT ??_C@_06FIFKPKDH@mappwm@
CONST	SEGMENT
??_C@_06FIFKPKDH@mappwm@ DB 'mappwm', 00H		; `string'
CONST	ENDS
;	COMDAT ??_C@_06FJJIJAAA@mappvm@
CONST	SEGMENT
??_C@_06FJJIJAAA@mappvm@ DB 'mappvm', 00H		; `string'
CONST	ENDS
;	COMDAT ??_C@_06FLNOCOFJ@mappum@
CONST	SEGMENT
??_C@_06FLNOCOFJ@mappum@ DB 'mappum', 00H		; `string'
CONST	ENDS
;	COMDAT ??_C@_06FKBMEEGO@mapptm@
CONST	SEGMENT
??_C@_06FKBMEEGO@mapptm@ DB 'mapptm', 00H		; `string'
CONST	ENDS
;	COMDAT ??_C@_06FPFDFCOL@mappsm@
CONST	SEGMENT
??_C@_06FPFDFCOL@mappsm@ DB 'mappsm', 00H		; `string'
CONST	ENDS
;	COMDAT ??_C@_06FOJBDINM@mapprm@
CONST	SEGMENT
??_C@_06FOJBDINM@mapprm@ DB 'mapprm', 00H		; `string'
CONST	ENDS
;	COMDAT ??_C@_06FMNHIGIF@mappqm@
CONST	SEGMENT
??_C@_06FMNHIGIF@mappqm@ DB 'mappqm', 00H		; `string'
CONST	ENDS
;	COMDAT ??_C@_06FNBFOMLC@mapppm@
CONST	SEGMENT
??_C@_06FNBFOMLC@mapppm@ DB 'mapppm', 00H		; `string'
CONST	ENDS
;	COMDAT ??_C@_06EKGPAIPP@mappom@
CONST	SEGMENT
??_C@_06EKGPAIPP@mappom@ DB 'mappom', 00H		; `string'
CONST	ENDS
;	COMDAT ??_C@_06ELKNGCMI@mappnm@
CONST	SEGMENT
??_C@_06ELKNGCMI@mappnm@ DB 'mappnm', 00H		; `string'
CONST	ENDS
;	COMDAT ??_C@_06EJOLNMJB@mappmm@
CONST	SEGMENT
??_C@_06EJOLNMJB@mappmm@ DB 'mappmm', 00H		; `string'
CONST	ENDS
;	COMDAT ??_C@_06EICJLGKG@mapplm@
CONST	SEGMENT
??_C@_06EICJLGKG@mapplm@ DB 'mapplm', 00H		; `string'
CONST	ENDS
;	COMDAT ??_C@_06ENGGKACD@mappkm@
CONST	SEGMENT
??_C@_06ENGGKACD@mappkm@ DB 'mappkm', 00H		; `string'
CONST	ENDS
;	COMDAT ??_C@_06EMKEMKBE@mappjm@
CONST	SEGMENT
??_C@_06EMKEMKBE@mappjm@ DB 'mappjm', 00H		; `string'
CONST	ENDS
;	COMDAT ??_C@_06EOOCHEEN@mappim@
CONST	SEGMENT
??_C@_06EOOCHEEN@mappim@ DB 'mappim', 00H		; `string'
CONST	ENDS
;	COMDAT ??_C@_06EPCABOHK@mapphm@
CONST	SEGMENT
??_C@_06EPCABOHK@mapphm@ DB 'mapphm', 00H		; `string'
CONST	ENDS
;	COMDAT ??_C@_06EEHMFJEH@mappgm@
CONST	SEGMENT
??_C@_06EEHMFJEH@mappgm@ DB 'mappgm', 00H		; `string'
CONST	ENDS
;	COMDAT ??_C@_06EFLODDHA@mappfm@
CONST	SEGMENT
??_C@_06EFLODDHA@mappfm@ DB 'mappfm', 00H		; `string'
CONST	ENDS
;	COMDAT ??_C@_06EHPIINCJ@mappem@
CONST	SEGMENT
??_C@_06EHPIINCJ@mappem@ DB 'mappem', 00H		; `string'
CONST	ENDS
;	COMDAT ??_C@_06EGDKOHBO@mappdm@
CONST	SEGMENT
??_C@_06EGDKOHBO@mappdm@ DB 'mappdm', 00H		; `string'
CONST	ENDS
;	COMDAT ??_C@_06EDHFPBJL@mappcm@
CONST	SEGMENT
??_C@_06EDHFPBJL@mappcm@ DB 'mappcm', 00H		; `string'
CONST	ENDS
;	COMDAT ??_C@_06ECLHJLKM@mappbm@
CONST	SEGMENT
??_C@_06ECLHJLKM@mappbm@ DB 'mappbm', 00H		; `string'
CONST	ENDS
;	COMDAT ??_C@_06EAPBCFPF@mappam@
CONST	SEGMENT
??_C@_06EAPBCFPF@mappam@ DB 'mappam', 00H		; `string'
CONST	ENDS
;	COMDAT ??_C@_06CCFOFKPN@mapp9m@
CONST	SEGMENT
??_C@_06CCFOFKPN@mapp9m@ DB 'mapp9m', 00H		; `string'
CONST	ENDS
;	COMDAT ??_C@_06CDJMDAMK@mapp8m@
CONST	SEGMENT
??_C@_06CDJMDAMK@mapp8m@ DB 'mapp8m', 00H		; `string'
CONST	ENDS
;	COMDAT ??_C@_06CIMAHHPH@mapp7m@
CONST	SEGMENT
??_C@_06CIMAHHPH@mapp7m@ DB 'mapp7m', 00H		; `string'
CONST	ENDS
;	COMDAT ??_C@_06CJACBNMA@mapp6m@
CONST	SEGMENT
??_C@_06CJACBNMA@mapp6m@ DB 'mapp6m', 00H		; `string'
CONST	ENDS
;	COMDAT ??_C@_06CLEEKDJJ@mapp5m@
CONST	SEGMENT
??_C@_06CLEEKDJJ@mapp5m@ DB 'mapp5m', 00H		; `string'
CONST	ENDS
;	COMDAT ??_C@_06CKIGMJKO@mapp4m@
CONST	SEGMENT
??_C@_06CKIGMJKO@mapp4m@ DB 'mapp4m', 00H		; `string'
CONST	ENDS
;	COMDAT ??_C@_06CPMJNPCL@mapp3m@
CONST	SEGMENT
??_C@_06CPMJNPCL@mapp3m@ DB 'mapp3m', 00H		; `string'
CONST	ENDS
;	COMDAT ??_C@_06COALLFBM@mapp2m@
CONST	SEGMENT
??_C@_06COALLFBM@mapp2m@ DB 'mapp2m', 00H		; `string'
CONST	ENDS
;	COMDAT ??_C@_06CMENALEF@mapp1m@
CONST	SEGMENT
??_C@_06CMENALEF@mapp1m@ DB 'mapp1m', 00H		; `string'
CONST	ENDS
;	COMDAT ??_C@_06CNIPGBHC@mapp0m@
CONST	SEGMENT
??_C@_06CNIPGBHC@mapp0m@ DB 'mapp0m', 00H		; `string'
CONST	ENDS
;	COMDAT ??_C@_06FIPICOKN@mapozm@
CONST	SEGMENT
??_C@_06FIPICOKN@mapozm@ DB 'mapozm', 00H		; `string'
CONST	ENDS
;	COMDAT ??_C@_06FKLOJAPE@mapoym@
CONST	SEGMENT
??_C@_06FKLOJAPE@mapoym@ DB 'mapoym', 00H		; `string'
CONST	ENDS
;	COMDAT ??_C@_06FLHMPKMD@mapoxm@
CONST	SEGMENT
??_C@_06FLHMPKMD@mapoxm@ DB 'mapoxm', 00H		; `string'
CONST	ENDS
;	COMDAT ??_C@_06FACALNPO@mapowm@
CONST	SEGMENT
??_C@_06FACALNPO@mapowm@ DB 'mapowm', 00H		; `string'
CONST	ENDS
;	COMDAT ??_C@_06FBOCNHMJ@mapovm@
CONST	SEGMENT
??_C@_06FBOCNHMJ@mapovm@ DB 'mapovm', 00H		; `string'
CONST	ENDS
;	COMDAT ??_C@_06FDKEGJJA@mapoum@
CONST	SEGMENT
??_C@_06FDKEGJJA@mapoum@ DB 'mapoum', 00H		; `string'
CONST	ENDS
;	COMDAT ??_C@_06FCGGADKH@mapotm@
CONST	SEGMENT
??_C@_06FCGGADKH@mapotm@ DB 'mapotm', 00H		; `string'
CONST	ENDS
;	COMDAT ??_C@_06FHCJBFCC@maposm@
CONST	SEGMENT
??_C@_06FHCJBFCC@maposm@ DB 'maposm', 00H		; `string'
CONST	ENDS
;	COMDAT ??_C@_06FGOLHPBF@maporm@
CONST	SEGMENT
??_C@_06FGOLHPBF@maporm@ DB 'maporm', 00H		; `string'
CONST	ENDS
;	COMDAT ??_C@_06FEKNMBEM@mapoqm@
CONST	SEGMENT
??_C@_06FEKNMBEM@mapoqm@ DB 'mapoqm', 00H		; `string'
CONST	ENDS
;	COMDAT ??_C@_06FFGPKLHL@mapopm@
CONST	SEGMENT
??_C@_06FFGPKLHL@mapopm@ DB 'mapopm', 00H		; `string'
CONST	ENDS
;	COMDAT ??_C@_06ECBFEPDG@mapoom@
CONST	SEGMENT
??_C@_06ECBFEPDG@mapoom@ DB 'mapoom', 00H		; `string'
CONST	ENDS
;	COMDAT ??_C@_06EDNHCFAB@maponm@
CONST	SEGMENT
??_C@_06EDNHCFAB@maponm@ DB 'maponm', 00H		; `string'
CONST	ENDS
;	COMDAT ??_C@_06EBJBJLFI@mapomm@
CONST	SEGMENT
??_C@_06EBJBJLFI@mapomm@ DB 'mapomm', 00H		; `string'
CONST	ENDS
;	COMDAT ??_C@_06EAFDPBGP@mapolm@
CONST	SEGMENT
??_C@_06EAFDPBGP@mapolm@ DB 'mapolm', 00H		; `string'
CONST	ENDS
;	COMDAT ??_C@_06EFBMOHOK@mapokm@
CONST	SEGMENT
??_C@_06EFBMOHOK@mapokm@ DB 'mapokm', 00H		; `string'
CONST	ENDS
;	COMDAT ??_C@_06EENOINNN@mapojm@
CONST	SEGMENT
??_C@_06EENOINNN@mapojm@ DB 'mapojm', 00H		; `string'
CONST	ENDS
;	COMDAT ??_C@_06EGJIDDIE@mapoim@
CONST	SEGMENT
??_C@_06EGJIDDIE@mapoim@ DB 'mapoim', 00H		; `string'
CONST	ENDS
;	COMDAT ??_C@_06EHFKFJLD@mapohm@
CONST	SEGMENT
??_C@_06EHFKFJLD@mapohm@ DB 'mapohm', 00H		; `string'
CONST	ENDS
;	COMDAT ??_C@_06EMAGBOIO@mapogm@
CONST	SEGMENT
??_C@_06EMAGBOIO@mapogm@ DB 'mapogm', 00H		; `string'
CONST	ENDS
;	COMDAT ??_C@_06ENMEHELJ@mapofm@
CONST	SEGMENT
??_C@_06ENMEHELJ@mapofm@ DB 'mapofm', 00H		; `string'
CONST	ENDS
;	COMDAT ??_C@_06EPICMKOA@mapoem@
CONST	SEGMENT
??_C@_06EPICMKOA@mapoem@ DB 'mapoem', 00H		; `string'
CONST	ENDS
;	COMDAT ??_C@_06EOEAKANH@mapodm@
CONST	SEGMENT
??_C@_06EOEAKANH@mapodm@ DB 'mapodm', 00H		; `string'
CONST	ENDS
;	COMDAT ??_C@_06ELAPLGFC@mapocm@
CONST	SEGMENT
??_C@_06ELAPLGFC@mapocm@ DB 'mapocm', 00H		; `string'
CONST	ENDS
;	COMDAT ??_C@_06EKMNNMGF@mapobm@
CONST	SEGMENT
??_C@_06EKMNNMGF@mapobm@ DB 'mapobm', 00H		; `string'
CONST	ENDS
;	COMDAT ??_C@_06EIILGCDM@mapoam@
CONST	SEGMENT
??_C@_06EIILGCDM@mapoam@ DB 'mapoam', 00H		; `string'
CONST	ENDS
;	COMDAT ??_C@_06CKCEBNDE@mapo9m@
CONST	SEGMENT
??_C@_06CKCEBNDE@mapo9m@ DB 'mapo9m', 00H		; `string'
CONST	ENDS
;	COMDAT ??_C@_06CLOGHHAD@mapo8m@
CONST	SEGMENT
??_C@_06CLOGHHAD@mapo8m@ DB 'mapo8m', 00H		; `string'
CONST	ENDS
;	COMDAT ??_C@_06CALKDADO@mapo7m@
CONST	SEGMENT
??_C@_06CALKDADO@mapo7m@ DB 'mapo7m', 00H		; `string'
CONST	ENDS
;	COMDAT ??_C@_06CBHIFKAJ@mapo6m@
CONST	SEGMENT
??_C@_06CBHIFKAJ@mapo6m@ DB 'mapo6m', 00H		; `string'
CONST	ENDS
;	COMDAT ??_C@_06CDDOOEFA@mapo5m@
CONST	SEGMENT
??_C@_06CDDOOEFA@mapo5m@ DB 'mapo5m', 00H		; `string'
CONST	ENDS
;	COMDAT ??_C@_06CCPMIOGH@mapo4m@
CONST	SEGMENT
??_C@_06CCPMIOGH@mapo4m@ DB 'mapo4m', 00H		; `string'
CONST	ENDS
;	COMDAT ??_C@_06CHLDJIOC@mapo3m@
CONST	SEGMENT
??_C@_06CHLDJIOC@mapo3m@ DB 'mapo3m', 00H		; `string'
CONST	ENDS
;	COMDAT ??_C@_06CGHBPCNF@mapo2m@
CONST	SEGMENT
??_C@_06CGHBPCNF@mapo2m@ DB 'mapo2m', 00H		; `string'
CONST	ENDS
;	COMDAT ??_C@_06CEDHEMIM@mapo1m@
CONST	SEGMENT
??_C@_06CEDHEMIM@mapo1m@ DB 'mapo1m', 00H		; `string'
CONST	ENDS
;	COMDAT ??_C@_06CFPFCGLL@mapo0m@
CONST	SEGMENT
??_C@_06CFPFCGLL@mapo0m@ DB 'mapo0m', 00H		; `string'
CONST	ENDS
;	COMDAT ??_C@_06OAEEEJMI@mapnzm@
CONST	SEGMENT
??_C@_06OAEEEJMI@mapnzm@ DB 'mapnzm', 00H		; `string'
CONST	ENDS
;	COMDAT ??_C@_06OCACPHJB@mapnym@
CONST	SEGMENT
??_C@_06OCACPHJB@mapnym@ DB 'mapnym', 00H		; `string'
CONST	ENDS
;	COMDAT ??_C@_06ODMAJNKG@mapnxm@
CONST	SEGMENT
??_C@_06ODMAJNKG@mapnxm@ DB 'mapnxm', 00H		; `string'
CONST	ENDS
;	COMDAT ??_C@_06OIJMNKJL@mapnwm@
CONST	SEGMENT
??_C@_06OIJMNKJL@mapnwm@ DB 'mapnwm', 00H		; `string'
CONST	ENDS
;	COMDAT ??_C@_06OJFOLAKM@mapnvm@
CONST	SEGMENT
??_C@_06OJFOLAKM@mapnvm@ DB 'mapnvm', 00H		; `string'
CONST	ENDS
;	COMDAT ??_C@_06OLBIAOPF@mapnum@
CONST	SEGMENT
??_C@_06OLBIAOPF@mapnum@ DB 'mapnum', 00H		; `string'
CONST	ENDS
;	COMDAT ??_C@_06OKNKGEMC@mapntm@
CONST	SEGMENT
??_C@_06OKNKGEMC@mapntm@ DB 'mapntm', 00H		; `string'
CONST	ENDS
;	COMDAT ??_C@_06OPJFHCEH@mapnsm@
CONST	SEGMENT
??_C@_06OPJFHCEH@mapnsm@ DB 'mapnsm', 00H		; `string'
CONST	ENDS
;	COMDAT ??_C@_06OOFHBIHA@mapnrm@
CONST	SEGMENT
??_C@_06OOFHBIHA@mapnrm@ DB 'mapnrm', 00H		; `string'
CONST	ENDS
;	COMDAT ??_C@_06OMBBKGCJ@mapnqm@
CONST	SEGMENT
??_C@_06OMBBKGCJ@mapnqm@ DB 'mapnqm', 00H		; `string'
CONST	ENDS
;	COMDAT ??_C@_06ONNDMMBO@mapnpm@
CONST	SEGMENT
??_C@_06ONNDMMBO@mapnpm@ DB 'mapnpm', 00H		; `string'
CONST	ENDS
;	COMDAT ??_C@_06PKKJCIFD@mapnom@
CONST	SEGMENT
??_C@_06PKKJCIFD@mapnom@ DB 'mapnom', 00H		; `string'
CONST	ENDS
;	COMDAT ??_C@_06PLGLECGE@mapnnm@
CONST	SEGMENT
??_C@_06PLGLECGE@mapnnm@ DB 'mapnnm', 00H		; `string'
CONST	ENDS
;	COMDAT ??_C@_06PJCNPMDN@mapnmm@
CONST	SEGMENT
??_C@_06PJCNPMDN@mapnmm@ DB 'mapnmm', 00H		; `string'
CONST	ENDS
;	COMDAT ??_C@_06PIOPJGAK@mapnlm@
CONST	SEGMENT
??_C@_06PIOPJGAK@mapnlm@ DB 'mapnlm', 00H		; `string'
CONST	ENDS
;	COMDAT ??_C@_06PNKAIAIP@mapnkm@
CONST	SEGMENT
??_C@_06PNKAIAIP@mapnkm@ DB 'mapnkm', 00H		; `string'
CONST	ENDS
;	COMDAT ??_C@_06PMGCOKLI@mapnjm@
CONST	SEGMENT
??_C@_06PMGCOKLI@mapnjm@ DB 'mapnjm', 00H		; `string'
CONST	ENDS
;	COMDAT ??_C@_06POCEFEOB@mapnim@
CONST	SEGMENT
??_C@_06POCEFEOB@mapnim@ DB 'mapnim', 00H		; `string'
CONST	ENDS
;	COMDAT ??_C@_06PPOGDONG@mapnhm@
CONST	SEGMENT
??_C@_06PPOGDONG@mapnhm@ DB 'mapnhm', 00H		; `string'
CONST	ENDS
;	COMDAT ??_C@_06PELKHJOL@mapngm@
CONST	SEGMENT
??_C@_06PELKHJOL@mapngm@ DB 'mapngm', 00H		; `string'
CONST	ENDS
;	COMDAT ??_C@_06PFHIBDNM@mapnfm@
CONST	SEGMENT
??_C@_06PFHIBDNM@mapnfm@ DB 'mapnfm', 00H		; `string'
CONST	ENDS
;	COMDAT ??_C@_06PHDOKNIF@mapnem@
CONST	SEGMENT
??_C@_06PHDOKNIF@mapnem@ DB 'mapnem', 00H		; `string'
CONST	ENDS
;	COMDAT ??_C@_06PGPMMHLC@mapndm@
CONST	SEGMENT
??_C@_06PGPMMHLC@mapndm@ DB 'mapndm', 00H		; `string'
CONST	ENDS
;	COMDAT ??_C@_06PDLDNBDH@mapncm@
CONST	SEGMENT
??_C@_06PDLDNBDH@mapncm@ DB 'mapncm', 00H		; `string'
CONST	ENDS
;	COMDAT ??_C@_06PCHBLLAA@mapnbm@
CONST	SEGMENT
??_C@_06PCHBLLAA@mapnbm@ DB 'mapnbm', 00H		; `string'
CONST	ENDS
;	COMDAT ??_C@_06PADHAFFJ@mapnam@
CONST	SEGMENT
??_C@_06PADHAFFJ@mapnam@ DB 'mapnam', 00H		; `string'
CONST	ENDS
;	COMDAT ??_C@_06JCJIHKFB@mapn9m@
CONST	SEGMENT
??_C@_06JCJIHKFB@mapn9m@ DB 'mapn9m', 00H		; `string'
CONST	ENDS
;	COMDAT ??_C@_06JDFKBAGG@mapn8m@
CONST	SEGMENT
??_C@_06JDFKBAGG@mapn8m@ DB 'mapn8m', 00H		; `string'
CONST	ENDS
;	COMDAT ??_C@_06JIAGFHFL@mapn7m@
CONST	SEGMENT
??_C@_06JIAGFHFL@mapn7m@ DB 'mapn7m', 00H		; `string'
CONST	ENDS
;	COMDAT ??_C@_06JJMEDNGM@mapn6m@
CONST	SEGMENT
??_C@_06JJMEDNGM@mapn6m@ DB 'mapn6m', 00H		; `string'
CONST	ENDS
;	COMDAT ??_C@_06JLICIDDF@mapn5m@
CONST	SEGMENT
??_C@_06JLICIDDF@mapn5m@ DB 'mapn5m', 00H		; `string'
CONST	ENDS
;	COMDAT ??_C@_06JKEAOJAC@mapn4m@
CONST	SEGMENT
??_C@_06JKEAOJAC@mapn4m@ DB 'mapn4m', 00H		; `string'
CONST	ENDS
;	COMDAT ??_C@_06JPAPPPIH@mapn3m@
CONST	SEGMENT
??_C@_06JPAPPPIH@mapn3m@ DB 'mapn3m', 00H		; `string'
CONST	ENDS
;	COMDAT ??_C@_06JOMNJFLA@mapn2m@
CONST	SEGMENT
??_C@_06JOMNJFLA@mapn2m@ DB 'mapn2m', 00H		; `string'
CONST	ENDS
;	COMDAT ??_C@_06JMILCLOJ@mapn1m@
CONST	SEGMENT
??_C@_06JMILCLOJ@mapn1m@ DB 'mapn1m', 00H		; `string'
CONST	ENDS
;	COMDAT ??_C@_06JNEJEBNO@mapn0m@
CONST	SEGMENT
??_C@_06JNEJEBNO@mapn0m@ DB 'mapn0m', 00H		; `string'
CONST	ENDS
;	COMDAT ??_C@_06PCPBOGCG@mapmzm@
CONST	SEGMENT
??_C@_06PCPBOGCG@mapmzm@ DB 'mapmzm', 00H		; `string'
CONST	ENDS
;	COMDAT ??_C@_06PALHFIHP@mapmym@
CONST	SEGMENT
??_C@_06PALHFIHP@mapmym@ DB 'mapmym', 00H		; `string'
CONST	ENDS
;	COMDAT ??_C@_06PBHFDCEI@mapmxm@
CONST	SEGMENT
??_C@_06PBHFDCEI@mapmxm@ DB 'mapmxm', 00H		; `string'
CONST	ENDS
;	COMDAT ??_C@_06PKCJHFHF@mapmwm@
CONST	SEGMENT
??_C@_06PKCJHFHF@mapmwm@ DB 'mapmwm', 00H		; `string'
CONST	ENDS
;	COMDAT ??_C@_06PLOLBPEC@mapmvm@
CONST	SEGMENT
??_C@_06PLOLBPEC@mapmvm@ DB 'mapmvm', 00H		; `string'
CONST	ENDS
;	COMDAT ??_C@_06PJKNKBBL@mapmum@
CONST	SEGMENT
??_C@_06PJKNKBBL@mapmum@ DB 'mapmum', 00H		; `string'
CONST	ENDS
;	COMDAT ??_C@_06PIGPMLCM@mapmtm@
CONST	SEGMENT
??_C@_06PIGPMLCM@mapmtm@ DB 'mapmtm', 00H		; `string'
CONST	ENDS
;	COMDAT ??_C@_06PNCANNKJ@mapmsm@
CONST	SEGMENT
??_C@_06PNCANNKJ@mapmsm@ DB 'mapmsm', 00H		; `string'
CONST	ENDS
;	COMDAT ??_C@_06PMOCLHJO@mapmrm@
CONST	SEGMENT
??_C@_06PMOCLHJO@mapmrm@ DB 'mapmrm', 00H		; `string'
CONST	ENDS
;	COMDAT ??_C@_06POKEAJMH@mapmqm@
CONST	SEGMENT
??_C@_06POKEAJMH@mapmqm@ DB 'mapmqm', 00H		; `string'
CONST	ENDS
;	COMDAT ??_C@_06PPGGGDPA@mapmpm@
CONST	SEGMENT
??_C@_06PPGGGDPA@mapmpm@ DB 'mapmpm', 00H		; `string'
CONST	ENDS
;	COMDAT ??_C@_06OIBMIHLN@mapmom@
CONST	SEGMENT
??_C@_06OIBMIHLN@mapmom@ DB 'mapmom', 00H		; `string'
CONST	ENDS
;	COMDAT ??_C@_06OJNOONIK@mapmnm@
CONST	SEGMENT
??_C@_06OJNOONIK@mapmnm@ DB 'mapmnm', 00H		; `string'
CONST	ENDS
;	COMDAT ??_C@_06OLJIFDND@mapmmm@
CONST	SEGMENT
??_C@_06OLJIFDND@mapmmm@ DB 'mapmmm', 00H		; `string'
CONST	ENDS
;	COMDAT ??_C@_06OKFKDJOE@mapmlm@
CONST	SEGMENT
??_C@_06OKFKDJOE@mapmlm@ DB 'mapmlm', 00H		; `string'
CONST	ENDS
;	COMDAT ??_C@_06OPBFCPGB@mapmkm@
CONST	SEGMENT
??_C@_06OPBFCPGB@mapmkm@ DB 'mapmkm', 00H		; `string'
CONST	ENDS
;	COMDAT ??_C@_06OONHEFFG@mapmjm@
CONST	SEGMENT
??_C@_06OONHEFFG@mapmjm@ DB 'mapmjm', 00H		; `string'
CONST	ENDS
;	COMDAT ??_C@_06OMJBPLAP@mapmim@
CONST	SEGMENT
??_C@_06OMJBPLAP@mapmim@ DB 'mapmim', 00H		; `string'
CONST	ENDS
;	COMDAT ??_C@_06ONFDJBDI@mapmhm@
CONST	SEGMENT
??_C@_06ONFDJBDI@mapmhm@ DB 'mapmhm', 00H		; `string'
CONST	ENDS
;	COMDAT ??_C@_06OGAPNGAF@mapmgm@
CONST	SEGMENT
??_C@_06OGAPNGAF@mapmgm@ DB 'mapmgm', 00H		; `string'
CONST	ENDS
;	COMDAT ??_C@_06OHMNLMDC@mapmfm@
CONST	SEGMENT
??_C@_06OHMNLMDC@mapmfm@ DB 'mapmfm', 00H		; `string'
CONST	ENDS
;	COMDAT ??_C@_06OFILACGL@mapmem@
CONST	SEGMENT
??_C@_06OFILACGL@mapmem@ DB 'mapmem', 00H		; `string'
CONST	ENDS
;	COMDAT ??_C@_06OEEJGIFM@mapmdm@
CONST	SEGMENT
??_C@_06OEEJGIFM@mapmdm@ DB 'mapmdm', 00H		; `string'
CONST	ENDS
;	COMDAT ??_C@_06OBAGHONJ@mapmcm@
CONST	SEGMENT
??_C@_06OBAGHONJ@mapmcm@ DB 'mapmcm', 00H		; `string'
CONST	ENDS
;	COMDAT ??_C@_06OAMEBEOO@mapmbm@
CONST	SEGMENT
??_C@_06OAMEBEOO@mapmbm@ DB 'mapmbm', 00H		; `string'
CONST	ENDS
;	COMDAT ??_C@_06OCICKKLH@mapmam@
CONST	SEGMENT
??_C@_06OCICKKLH@mapmam@ DB 'mapmam', 00H		; `string'
CONST	ENDS
;	COMDAT ??_C@_06IACNNFLP@mapm9m@
CONST	SEGMENT
??_C@_06IACNNFLP@mapm9m@ DB 'mapm9m', 00H		; `string'
CONST	ENDS
;	COMDAT ??_C@_06IBOPLPII@mapm8m@
CONST	SEGMENT
??_C@_06IBOPLPII@mapm8m@ DB 'mapm8m', 00H		; `string'
CONST	ENDS
;	COMDAT ??_C@_06IKLDPILF@mapm7m@
CONST	SEGMENT
??_C@_06IKLDPILF@mapm7m@ DB 'mapm7m', 00H		; `string'
CONST	ENDS
;	COMDAT ??_C@_06ILHBJCIC@mapm6m@
CONST	SEGMENT
??_C@_06ILHBJCIC@mapm6m@ DB 'mapm6m', 00H		; `string'
CONST	ENDS
;	COMDAT ??_C@_06IJDHCMNL@mapm5m@
CONST	SEGMENT
??_C@_06IJDHCMNL@mapm5m@ DB 'mapm5m', 00H		; `string'
CONST	ENDS
;	COMDAT ??_C@_06IIPFEGOM@mapm4m@
CONST	SEGMENT
??_C@_06IIPFEGOM@mapm4m@ DB 'mapm4m', 00H		; `string'
CONST	ENDS
;	COMDAT ??_C@_06INLKFAGJ@mapm3m@
CONST	SEGMENT
??_C@_06INLKFAGJ@mapm3m@ DB 'mapm3m', 00H		; `string'
CONST	ENDS
;	COMDAT ??_C@_06IMHIDKFO@mapm2m@
CONST	SEGMENT
??_C@_06IMHIDKFO@mapm2m@ DB 'mapm2m', 00H		; `string'
CONST	ENDS
;	COMDAT ??_C@_06IODOIEAH@mapm1m@
CONST	SEGMENT
??_C@_06IODOIEAH@mapm1m@ DB 'mapm1m', 00H		; `string'
CONST	ENDS
;	COMDAT ??_C@_06IPPMOODA@mapm0m@
CONST	SEGMENT
??_C@_06IPPMOODA@mapm0m@ DB 'mapm0m', 00H		; `string'
CONST	ENDS
;	COMDAT ??_C@_06EKENIBED@maplzm@
CONST	SEGMENT
??_C@_06EKENIBED@maplzm@ DB 'maplzm', 00H		; `string'
CONST	ENDS
;	COMDAT ??_C@_06EIALDPBK@maplym@
CONST	SEGMENT
??_C@_06EIALDPBK@maplym@ DB 'maplym', 00H		; `string'
CONST	ENDS
;	COMDAT ??_C@_06EJMJFFCN@maplxm@
CONST	SEGMENT
??_C@_06EJMJFFCN@maplxm@ DB 'maplxm', 00H		; `string'
CONST	ENDS
;	COMDAT ??_C@_06ECJFBCBA@maplwm@
CONST	SEGMENT
??_C@_06ECJFBCBA@maplwm@ DB 'maplwm', 00H		; `string'
CONST	ENDS
;	COMDAT ??_C@_06EDFHHICH@maplvm@
CONST	SEGMENT
??_C@_06EDFHHICH@maplvm@ DB 'maplvm', 00H		; `string'
CONST	ENDS
;	COMDAT ??_C@_06EBBBMGHO@maplum@
CONST	SEGMENT
??_C@_06EBBBMGHO@maplum@ DB 'maplum', 00H		; `string'
CONST	ENDS
;	COMDAT ??_C@_06EANDKMEJ@mapltm@
CONST	SEGMENT
??_C@_06EANDKMEJ@mapltm@ DB 'mapltm', 00H		; `string'
CONST	ENDS
;	COMDAT ??_C@_06EFJMLKMM@maplsm@
CONST	SEGMENT
??_C@_06EFJMLKMM@maplsm@ DB 'maplsm', 00H		; `string'
CONST	ENDS
;	COMDAT ??_C@_06EEFONAPL@maplrm@
CONST	SEGMENT
??_C@_06EEFONAPL@maplrm@ DB 'maplrm', 00H		; `string'
CONST	ENDS
;	COMDAT ??_C@_06EGBIGOKC@maplqm@
CONST	SEGMENT
??_C@_06EGBIGOKC@maplqm@ DB 'maplqm', 00H		; `string'
CONST	ENDS
;	COMDAT ??_C@_06EHNKAEJF@maplpm@
CONST	SEGMENT
??_C@_06EHNKAEJF@maplpm@ DB 'maplpm', 00H		; `string'
CONST	ENDS
;	COMDAT ??_C@_06FAKAOANI@maplom@
CONST	SEGMENT
??_C@_06FAKAOANI@maplom@ DB 'maplom', 00H		; `string'
CONST	ENDS
;	COMDAT ??_C@_06FBGCIKOP@maplnm@
CONST	SEGMENT
??_C@_06FBGCIKOP@maplnm@ DB 'maplnm', 00H		; `string'
CONST	ENDS
;	COMDAT ??_C@_06FDCEDELG@maplmm@
CONST	SEGMENT
??_C@_06FDCEDELG@maplmm@ DB 'maplmm', 00H		; `string'
CONST	ENDS
;	COMDAT ??_C@_06FCOGFOIB@mapllm@
CONST	SEGMENT
??_C@_06FCOGFOIB@mapllm@ DB 'mapllm', 00H		; `string'
CONST	ENDS
;	COMDAT ??_C@_06FHKJEIAE@maplkm@
CONST	SEGMENT
??_C@_06FHKJEIAE@maplkm@ DB 'maplkm', 00H		; `string'
CONST	ENDS
;	COMDAT ??_C@_06FGGLCCDD@mapljm@
CONST	SEGMENT
??_C@_06FGGLCCDD@mapljm@ DB 'mapljm', 00H		; `string'
CONST	ENDS
;	COMDAT ??_C@_06FECNJMGK@maplim@
CONST	SEGMENT
??_C@_06FECNJMGK@maplim@ DB 'maplim', 00H		; `string'
CONST	ENDS
;	COMDAT ??_C@_06FFOPPGFN@maplhm@
CONST	SEGMENT
??_C@_06FFOPPGFN@maplhm@ DB 'maplhm', 00H		; `string'
CONST	ENDS
;	COMDAT ??_C@_06FOLDLBGA@maplgm@
CONST	SEGMENT
??_C@_06FOLDLBGA@maplgm@ DB 'maplgm', 00H		; `string'
CONST	ENDS
;	COMDAT ??_C@_06FPHBNLFH@maplfm@
CONST	SEGMENT
??_C@_06FPHBNLFH@maplfm@ DB 'maplfm', 00H		; `string'
CONST	ENDS
;	COMDAT ??_C@_06FNDHGFAO@maplem@
CONST	SEGMENT
??_C@_06FNDHGFAO@maplem@ DB 'maplem', 00H		; `string'
CONST	ENDS
;	COMDAT ??_C@_06FMPFAPDJ@mapldm@
CONST	SEGMENT
??_C@_06FMPFAPDJ@mapldm@ DB 'mapldm', 00H		; `string'
CONST	ENDS
;	COMDAT ??_C@_06FJLKBJLM@maplcm@
CONST	SEGMENT
??_C@_06FJLKBJLM@maplcm@ DB 'maplcm', 00H		; `string'
CONST	ENDS
;	COMDAT ??_C@_06FIHIHDIL@maplbm@
CONST	SEGMENT
??_C@_06FIHIHDIL@maplbm@ DB 'maplbm', 00H		; `string'
CONST	ENDS
;	COMDAT ??_C@_06FKDOMNNC@maplam@
CONST	SEGMENT
??_C@_06FKDOMNNC@maplam@ DB 'maplam', 00H		; `string'
CONST	ENDS
;	COMDAT ??_C@_06DIJBLCNK@mapl9m@
CONST	SEGMENT
??_C@_06DIJBLCNK@mapl9m@ DB 'mapl9m', 00H		; `string'
CONST	ENDS
;	COMDAT ??_C@_06DJFDNION@mapl8m@
CONST	SEGMENT
??_C@_06DJFDNION@mapl8m@ DB 'mapl8m', 00H		; `string'
CONST	ENDS
;	COMDAT ??_C@_06DCAPJPNA@mapl7m@
CONST	SEGMENT
??_C@_06DCAPJPNA@mapl7m@ DB 'mapl7m', 00H		; `string'
CONST	ENDS
;	COMDAT ??_C@_06DDMNPFOH@mapl6m@
CONST	SEGMENT
??_C@_06DDMNPFOH@mapl6m@ DB 'mapl6m', 00H		; `string'
CONST	ENDS
;	COMDAT ??_C@_06DBILELLO@mapl5m@
CONST	SEGMENT
??_C@_06DBILELLO@mapl5m@ DB 'mapl5m', 00H		; `string'
CONST	ENDS
;	COMDAT ??_C@_06DAEJCBIJ@mapl4m@
CONST	SEGMENT
??_C@_06DAEJCBIJ@mapl4m@ DB 'mapl4m', 00H		; `string'
CONST	ENDS
;	COMDAT ??_C@_06DFAGDHAM@mapl3m@
CONST	SEGMENT
??_C@_06DFAGDHAM@mapl3m@ DB 'mapl3m', 00H		; `string'
CONST	ENDS
;	COMDAT ??_C@_06DEMEFNDL@mapl2m@
CONST	SEGMENT
??_C@_06DEMEFNDL@mapl2m@ DB 'mapl2m', 00H		; `string'
CONST	ENDS
;	COMDAT ??_C@_06DGICODGC@mapl1m@
CONST	SEGMENT
??_C@_06DGICODGC@mapl1m@ DB 'mapl1m', 00H		; `string'
CONST	ENDS
;	COMDAT ??_C@_06DHEAIJFF@mapl0m@
CONST	SEGMENT
??_C@_06DHEAIJFF@mapl0m@ DB 'mapl0m', 00H		; `string'
CONST	ENDS
;	COMDAT ??_C@_06NHJKLJPK@mapkzm@
CONST	SEGMENT
??_C@_06NHJKLJPK@mapkzm@ DB 'mapkzm', 00H		; `string'
CONST	ENDS
;	COMDAT ??_C@_06NFNMAHKD@mapkym@
CONST	SEGMENT
??_C@_06NFNMAHKD@mapkym@ DB 'mapkym', 00H		; `string'
CONST	ENDS
;	COMDAT ??_C@_06NEBOGNJE@mapkxm@
CONST	SEGMENT
??_C@_06NEBOGNJE@mapkxm@ DB 'mapkxm', 00H		; `string'
CONST	ENDS
;	COMDAT ??_C@_06NPECCKKJ@mapkwm@
CONST	SEGMENT
??_C@_06NPECCKKJ@mapkwm@ DB 'mapkwm', 00H		; `string'
CONST	ENDS
;	COMDAT ??_C@_06NOIAEAJO@mapkvm@
CONST	SEGMENT
??_C@_06NOIAEAJO@mapkvm@ DB 'mapkvm', 00H		; `string'
CONST	ENDS
;	COMDAT ??_C@_06NMMGPOMH@mapkum@
CONST	SEGMENT
??_C@_06NMMGPOMH@mapkum@ DB 'mapkum', 00H		; `string'
CONST	ENDS
;	COMDAT ??_C@_06NNAEJEPA@mapktm@
CONST	SEGMENT
??_C@_06NNAEJEPA@mapktm@ DB 'mapktm', 00H		; `string'
CONST	ENDS
;	COMDAT ??_C@_06NIELICHF@mapksm@
CONST	SEGMENT
??_C@_06NIELICHF@mapksm@ DB 'mapksm', 00H		; `string'
CONST	ENDS
;	COMDAT ??_C@_06NJIJOIEC@mapkrm@
CONST	SEGMENT
??_C@_06NJIJOIEC@mapkrm@ DB 'mapkrm', 00H		; `string'
CONST	ENDS
;	COMDAT ??_C@_06NLMPFGBL@mapkqm@
CONST	SEGMENT
??_C@_06NLMPFGBL@mapkqm@ DB 'mapkqm', 00H		; `string'
CONST	ENDS
;	COMDAT ??_C@_06NKANDMCM@mapkpm@
CONST	SEGMENT
??_C@_06NKANDMCM@mapkpm@ DB 'mapkpm', 00H		; `string'
CONST	ENDS
;	COMDAT ??_C@_06MNHHNIGB@mapkom@
CONST	SEGMENT
??_C@_06MNHHNIGB@mapkom@ DB 'mapkom', 00H		; `string'
CONST	ENDS
;	COMDAT ??_C@_06MMLFLCFG@mapknm@
CONST	SEGMENT
??_C@_06MMLFLCFG@mapknm@ DB 'mapknm', 00H		; `string'
CONST	ENDS
;	COMDAT ??_C@_06MOPDAMAP@mapkmm@
CONST	SEGMENT
??_C@_06MOPDAMAP@mapkmm@ DB 'mapkmm', 00H		; `string'
CONST	ENDS
;	COMDAT ??_C@_06MPDBGGDI@mapklm@
CONST	SEGMENT
??_C@_06MPDBGGDI@mapklm@ DB 'mapklm', 00H		; `string'
CONST	ENDS
;	COMDAT ??_C@_06MKHOHALN@mapkkm@
CONST	SEGMENT
??_C@_06MKHOHALN@mapkkm@ DB 'mapkkm', 00H		; `string'
CONST	ENDS
;	COMDAT ??_C@_06MLLMBKIK@mapkjm@
CONST	SEGMENT
??_C@_06MLLMBKIK@mapkjm@ DB 'mapkjm', 00H		; `string'
CONST	ENDS
;	COMDAT ??_C@_06MJPKKEND@mapkim@
CONST	SEGMENT
??_C@_06MJPKKEND@mapkim@ DB 'mapkim', 00H		; `string'
CONST	ENDS
;	COMDAT ??_C@_06MIDIMOOE@mapkhm@
CONST	SEGMENT
??_C@_06MIDIMOOE@mapkhm@ DB 'mapkhm', 00H		; `string'
CONST	ENDS
;	COMDAT ??_C@_06MDGEIJNJ@mapkgm@
CONST	SEGMENT
??_C@_06MDGEIJNJ@mapkgm@ DB 'mapkgm', 00H		; `string'
CONST	ENDS
;	COMDAT ??_C@_06MCKGODOO@mapkfm@
CONST	SEGMENT
??_C@_06MCKGODOO@mapkfm@ DB 'mapkfm', 00H		; `string'
CONST	ENDS
;	COMDAT ??_C@_06MAOAFNLH@mapkem@
CONST	SEGMENT
??_C@_06MAOAFNLH@mapkem@ DB 'mapkem', 00H		; `string'
CONST	ENDS
;	COMDAT ??_C@_06MBCCDHIA@mapkdm@
CONST	SEGMENT
??_C@_06MBCCDHIA@mapkdm@ DB 'mapkdm', 00H		; `string'
CONST	ENDS
;	COMDAT ??_C@_06MEGNCBAF@mapkcm@
CONST	SEGMENT
??_C@_06MEGNCBAF@mapkcm@ DB 'mapkcm', 00H		; `string'
CONST	ENDS
;	COMDAT ??_C@_06MFKPELDC@mapkbm@
CONST	SEGMENT
??_C@_06MFKPELDC@mapkbm@ DB 'mapkbm', 00H		; `string'
CONST	ENDS
;	COMDAT ??_C@_06MHOJPFGL@mapkam@
CONST	SEGMENT
??_C@_06MHOJPFGL@mapkam@ DB 'mapkam', 00H		; `string'
CONST	ENDS
;	COMDAT ??_C@_06KFEGIKGD@mapk9m@
CONST	SEGMENT
??_C@_06KFEGIKGD@mapk9m@ DB 'mapk9m', 00H		; `string'
CONST	ENDS
;	COMDAT ??_C@_06KEIEOAFE@mapk8m@
CONST	SEGMENT
??_C@_06KEIEOAFE@mapk8m@ DB 'mapk8m', 00H		; `string'
CONST	ENDS
;	COMDAT ??_C@_06KPNIKHGJ@mapk7m@
CONST	SEGMENT
??_C@_06KPNIKHGJ@mapk7m@ DB 'mapk7m', 00H		; `string'
CONST	ENDS
;	COMDAT ??_C@_06KOBKMNFO@mapk6m@
CONST	SEGMENT
??_C@_06KOBKMNFO@mapk6m@ DB 'mapk6m', 00H		; `string'
CONST	ENDS
;	COMDAT ??_C@_06KMFMHDAH@mapk5m@
CONST	SEGMENT
??_C@_06KMFMHDAH@mapk5m@ DB 'mapk5m', 00H		; `string'
CONST	ENDS
;	COMDAT ??_C@_06KNJOBJDA@mapk4m@
CONST	SEGMENT
??_C@_06KNJOBJDA@mapk4m@ DB 'mapk4m', 00H		; `string'
CONST	ENDS
;	COMDAT ??_C@_06KINBAPLF@mapk3m@
CONST	SEGMENT
??_C@_06KINBAPLF@mapk3m@ DB 'mapk3m', 00H		; `string'
CONST	ENDS
;	COMDAT ??_C@_06KJBDGFIC@mapk2m@
CONST	SEGMENT
??_C@_06KJBDGFIC@mapk2m@ DB 'mapk2m', 00H		; `string'
CONST	ENDS
;	COMDAT ??_C@_06KLFFNLNL@mapk1m@
CONST	SEGMENT
??_C@_06KLFFNLNL@mapk1m@ DB 'mapk1m', 00H		; `string'
CONST	ENDS
;	COMDAT ??_C@_06KKJHLBOM@mapk0m@
CONST	SEGMENT
??_C@_06KKJHLBOM@mapk0m@ DB 'mapk0m', 00H		; `string'
CONST	ENDS
;	COMDAT ??_C@_06GPCGNOJP@mapjzm@
CONST	SEGMENT
??_C@_06GPCGNOJP@mapjzm@ DB 'mapjzm', 00H		; `string'
CONST	ENDS
;	COMDAT ??_C@_06GNGAGAMG@mapjym@
CONST	SEGMENT
??_C@_06GNGAGAMG@mapjym@ DB 'mapjym', 00H		; `string'
CONST	ENDS
;	COMDAT ??_C@_06GMKCAKPB@mapjxm@
CONST	SEGMENT
??_C@_06GMKCAKPB@mapjxm@ DB 'mapjxm', 00H		; `string'
CONST	ENDS
;	COMDAT ??_C@_06GHPOENMM@mapjwm@
CONST	SEGMENT
??_C@_06GHPOENMM@mapjwm@ DB 'mapjwm', 00H		; `string'
CONST	ENDS
;	COMDAT ??_C@_06GGDMCHPL@mapjvm@
CONST	SEGMENT
??_C@_06GGDMCHPL@mapjvm@ DB 'mapjvm', 00H		; `string'
CONST	ENDS
;	COMDAT ??_C@_06GEHKJJKC@mapjum@
CONST	SEGMENT
??_C@_06GEHKJJKC@mapjum@ DB 'mapjum', 00H		; `string'
CONST	ENDS
;	COMDAT ??_C@_06GFLIPDJF@mapjtm@
CONST	SEGMENT
??_C@_06GFLIPDJF@mapjtm@ DB 'mapjtm', 00H		; `string'
CONST	ENDS
;	COMDAT ??_C@_06GAPHOFBA@mapjsm@
CONST	SEGMENT
??_C@_06GAPHOFBA@mapjsm@ DB 'mapjsm', 00H		; `string'
CONST	ENDS
;	COMDAT ??_C@_06GBDFIPCH@mapjrm@
CONST	SEGMENT
??_C@_06GBDFIPCH@mapjrm@ DB 'mapjrm', 00H		; `string'
CONST	ENDS
;	COMDAT ??_C@_06GDHDDBHO@mapjqm@
CONST	SEGMENT
??_C@_06GDHDDBHO@mapjqm@ DB 'mapjqm', 00H		; `string'
CONST	ENDS
;	COMDAT ??_C@_06GCLBFLEJ@mapjpm@
CONST	SEGMENT
??_C@_06GCLBFLEJ@mapjpm@ DB 'mapjpm', 00H		; `string'
CONST	ENDS
;	COMDAT ??_C@_06HFMLLPAE@mapjom@
CONST	SEGMENT
??_C@_06HFMLLPAE@mapjom@ DB 'mapjom', 00H		; `string'
CONST	ENDS
;	COMDAT ??_C@_06HEAJNFDD@mapjnm@
CONST	SEGMENT
??_C@_06HEAJNFDD@mapjnm@ DB 'mapjnm', 00H		; `string'
CONST	ENDS
;	COMDAT ??_C@_06HGEPGLGK@mapjmm@
CONST	SEGMENT
??_C@_06HGEPGLGK@mapjmm@ DB 'mapjmm', 00H		; `string'
CONST	ENDS
;	COMDAT ??_C@_06HHINABFN@mapjlm@
CONST	SEGMENT
??_C@_06HHINABFN@mapjlm@ DB 'mapjlm', 00H		; `string'
CONST	ENDS
;	COMDAT ??_C@_06HCMCBHNI@mapjkm@
CONST	SEGMENT
??_C@_06HCMCBHNI@mapjkm@ DB 'mapjkm', 00H		; `string'
CONST	ENDS
;	COMDAT ??_C@_06HDAAHNOP@mapjjm@
CONST	SEGMENT
??_C@_06HDAAHNOP@mapjjm@ DB 'mapjjm', 00H		; `string'
CONST	ENDS
;	COMDAT ??_C@_06HBEGMDLG@mapjim@
CONST	SEGMENT
??_C@_06HBEGMDLG@mapjim@ DB 'mapjim', 00H		; `string'
CONST	ENDS
;	COMDAT ??_C@_06HAIEKJIB@mapjhm@
CONST	SEGMENT
??_C@_06HAIEKJIB@mapjhm@ DB 'mapjhm', 00H		; `string'
CONST	ENDS
;	COMDAT ??_C@_06HLNIOOLM@mapjgm@
CONST	SEGMENT
??_C@_06HLNIOOLM@mapjgm@ DB 'mapjgm', 00H		; `string'
CONST	ENDS
;	COMDAT ??_C@_06HKBKIEIL@mapjfm@
CONST	SEGMENT
??_C@_06HKBKIEIL@mapjfm@ DB 'mapjfm', 00H		; `string'
CONST	ENDS
;	COMDAT ??_C@_06HIFMDKNC@mapjem@
CONST	SEGMENT
??_C@_06HIFMDKNC@mapjem@ DB 'mapjem', 00H		; `string'
CONST	ENDS
;	COMDAT ??_C@_06HJJOFAOF@mapjdm@
CONST	SEGMENT
??_C@_06HJJOFAOF@mapjdm@ DB 'mapjdm', 00H		; `string'
CONST	ENDS
;	COMDAT ??_C@_06HMNBEGGA@mapjcm@
CONST	SEGMENT
??_C@_06HMNBEGGA@mapjcm@ DB 'mapjcm', 00H		; `string'
CONST	ENDS
;	COMDAT ??_C@_06HNBDCMFH@mapjbm@
CONST	SEGMENT
??_C@_06HNBDCMFH@mapjbm@ DB 'mapjbm', 00H		; `string'
CONST	ENDS
;	COMDAT ??_C@_06HPFFJCAO@mapjam@
CONST	SEGMENT
??_C@_06HPFFJCAO@mapjam@ DB 'mapjam', 00H		; `string'
CONST	ENDS
;	COMDAT ??_C@_06BNPKONAG@mapj9m@
CONST	SEGMENT
??_C@_06BNPKONAG@mapj9m@ DB 'mapj9m', 00H		; `string'
CONST	ENDS
;	COMDAT ??_C@_06BMDIIHDB@mapj8m@
CONST	SEGMENT
??_C@_06BMDIIHDB@mapj8m@ DB 'mapj8m', 00H		; `string'
CONST	ENDS
;	COMDAT ??_C@_06BHGEMAAM@mapj7m@
CONST	SEGMENT
??_C@_06BHGEMAAM@mapj7m@ DB 'mapj7m', 00H		; `string'
CONST	ENDS
;	COMDAT ??_C@_06BGKGKKDL@mapj6m@
CONST	SEGMENT
??_C@_06BGKGKKDL@mapj6m@ DB 'mapj6m', 00H		; `string'
CONST	ENDS
;	COMDAT ??_C@_06BEOABEGC@mapj5m@
CONST	SEGMENT
??_C@_06BEOABEGC@mapj5m@ DB 'mapj5m', 00H		; `string'
CONST	ENDS
;	COMDAT ??_C@_06BFCCHOFF@mapj4m@
CONST	SEGMENT
??_C@_06BFCCHOFF@mapj4m@ DB 'mapj4m', 00H		; `string'
CONST	ENDS
;	COMDAT ??_C@_06BAGNGINA@mapj3m@
CONST	SEGMENT
??_C@_06BAGNGINA@mapj3m@ DB 'mapj3m', 00H		; `string'
CONST	ENDS
;	COMDAT ??_C@_06BBKPACOH@mapj2m@
CONST	SEGMENT
??_C@_06BBKPACOH@mapj2m@ DB 'mapj2m', 00H		; `string'
CONST	ENDS
;	COMDAT ??_C@_06BDOJLMLO@mapj1m@
CONST	SEGMENT
??_C@_06BDOJLMLO@mapj1m@ DB 'mapj1m', 00H		; `string'
CONST	ENDS
;	COMDAT ??_C@_06BCCLNGIJ@mapj0m@
CONST	SEGMENT
??_C@_06BCCLNGIJ@mapj0m@ DB 'mapj0m', 00H		; `string'
CONST	ENDS
;	COMDAT ??_C@_06HNJDHBHB@mapizm@
CONST	SEGMENT
??_C@_06HNJDHBHB@mapizm@ DB 'mapizm', 00H		; `string'
CONST	ENDS
;	COMDAT ??_C@_06HPNFMPCI@mapiym@
CONST	SEGMENT
??_C@_06HPNFMPCI@mapiym@ DB 'mapiym', 00H		; `string'
CONST	ENDS
;	COMDAT ??_C@_06HOBHKFBP@mapixm@
CONST	SEGMENT
??_C@_06HOBHKFBP@mapixm@ DB 'mapixm', 00H		; `string'
CONST	ENDS
;	COMDAT ??_C@_06HFELOCCC@mapiwm@
CONST	SEGMENT
??_C@_06HFELOCCC@mapiwm@ DB 'mapiwm', 00H		; `string'
CONST	ENDS
;	COMDAT ??_C@_06HEIJIIBF@mapivm@
CONST	SEGMENT
??_C@_06HEIJIIBF@mapivm@ DB 'mapivm', 00H		; `string'
CONST	ENDS
;	COMDAT ??_C@_06HGMPDGEM@mapium@
CONST	SEGMENT
??_C@_06HGMPDGEM@mapium@ DB 'mapium', 00H		; `string'
CONST	ENDS
;	COMDAT ??_C@_06HHANFMHL@mapitm@
CONST	SEGMENT
??_C@_06HHANFMHL@mapitm@ DB 'mapitm', 00H		; `string'
CONST	ENDS
;	COMDAT ??_C@_06HCECEKPO@mapism@
CONST	SEGMENT
??_C@_06HCECEKPO@mapism@ DB 'mapism', 00H		; `string'
CONST	ENDS
;	COMDAT ??_C@_06HDIACAMJ@mapirm@
CONST	SEGMENT
??_C@_06HDIACAMJ@mapirm@ DB 'mapirm', 00H		; `string'
CONST	ENDS
;	COMDAT ??_C@_06HBMGJOJA@mapiqm@
CONST	SEGMENT
??_C@_06HBMGJOJA@mapiqm@ DB 'mapiqm', 00H		; `string'
CONST	ENDS
;	COMDAT ??_C@_06HAAEPEKH@mapipm@
CONST	SEGMENT
??_C@_06HAAEPEKH@mapipm@ DB 'mapipm', 00H		; `string'
CONST	ENDS
;	COMDAT ??_C@_06GHHOBAOK@mapiom@
CONST	SEGMENT
??_C@_06GHHOBAOK@mapiom@ DB 'mapiom', 00H		; `string'
CONST	ENDS
;	COMDAT ??_C@_06GGLMHKNN@mapinm@
CONST	SEGMENT
??_C@_06GGLMHKNN@mapinm@ DB 'mapinm', 00H		; `string'
CONST	ENDS
;	COMDAT ??_C@_06GEPKMEIE@mapimm@
CONST	SEGMENT
??_C@_06GEPKMEIE@mapimm@ DB 'mapimm', 00H		; `string'
CONST	ENDS
;	COMDAT ??_C@_06GFDIKOLD@mapilm@
CONST	SEGMENT
??_C@_06GFDIKOLD@mapilm@ DB 'mapilm', 00H		; `string'
CONST	ENDS
;	COMDAT ??_C@_06GAHHLIDG@mapikm@
CONST	SEGMENT
??_C@_06GAHHLIDG@mapikm@ DB 'mapikm', 00H		; `string'
CONST	ENDS
;	COMDAT ??_C@_06GBLFNCAB@mapijm@
CONST	SEGMENT
??_C@_06GBLFNCAB@mapijm@ DB 'mapijm', 00H		; `string'
CONST	ENDS
;	COMDAT ??_C@_06GDPDGMFI@mapiim@
CONST	SEGMENT
??_C@_06GDPDGMFI@mapiim@ DB 'mapiim', 00H		; `string'
CONST	ENDS
;	COMDAT ??_C@_06GCDBAGGP@mapihm@
CONST	SEGMENT
??_C@_06GCDBAGGP@mapihm@ DB 'mapihm', 00H		; `string'
CONST	ENDS
;	COMDAT ??_C@_06GJGNEBFC@mapigm@
CONST	SEGMENT
??_C@_06GJGNEBFC@mapigm@ DB 'mapigm', 00H		; `string'
CONST	ENDS
;	COMDAT ??_C@_06GIKPCLGF@mapifm@
CONST	SEGMENT
??_C@_06GIKPCLGF@mapifm@ DB 'mapifm', 00H		; `string'
CONST	ENDS
;	COMDAT ??_C@_06GKOJJFDM@mapiem@
CONST	SEGMENT
??_C@_06GKOJJFDM@mapiem@ DB 'mapiem', 00H		; `string'
CONST	ENDS
;	COMDAT ??_C@_06GLCLPPAL@mapidm@
CONST	SEGMENT
??_C@_06GLCLPPAL@mapidm@ DB 'mapidm', 00H		; `string'
CONST	ENDS
;	COMDAT ??_C@_06GOGEOJIO@mapicm@
CONST	SEGMENT
??_C@_06GOGEOJIO@mapicm@ DB 'mapicm', 00H		; `string'
CONST	ENDS
;	COMDAT ??_C@_06GPKGIDLJ@mapibm@
CONST	SEGMENT
??_C@_06GPKGIDLJ@mapibm@ DB 'mapibm', 00H		; `string'
CONST	ENDS
;	COMDAT ??_C@_06GNOADNOA@mapiam@
CONST	SEGMENT
??_C@_06GNOADNOA@mapiam@ DB 'mapiam', 00H		; `string'
CONST	ENDS
;	COMDAT ??_C@_06PEPECOI@mapi9m@
CONST	SEGMENT
??_C@_06PEPECOI@mapi9m@ DB 'mapi9m', 00H		; `string'
CONST	ENDS
;	COMDAT ??_C@_06OINCINP@mapi8m@
CONST	SEGMENT
??_C@_06OINCINP@mapi8m@ DB 'mapi8m', 00H		; `string'
CONST	ENDS
;	COMDAT ??_C@_06FNBGPOC@mapi7m@
CONST	SEGMENT
??_C@_06FNBGPOC@mapi7m@ DB 'mapi7m', 00H		; `string'
CONST	ENDS
;	COMDAT ??_C@_06EBDAFNF@mapi6m@
CONST	SEGMENT
??_C@_06EBDAFNF@mapi6m@ DB 'mapi6m', 00H		; `string'
CONST	ENDS
;	COMDAT ??_C@_06GFFLLIM@mapi5m@
CONST	SEGMENT
??_C@_06GFFLLIM@mapi5m@ DB 'mapi5m', 00H		; `string'
CONST	ENDS
;	COMDAT ??_C@_06HJHNBLL@mapi4m@
CONST	SEGMENT
??_C@_06HJHNBLL@mapi4m@ DB 'mapi4m', 00H		; `string'
CONST	ENDS
;	COMDAT ??_C@_06CNIMHDO@mapi3m@
CONST	SEGMENT
??_C@_06CNIMHDO@mapi3m@ DB 'mapi3m', 00H		; `string'
CONST	ENDS
;	COMDAT ??_C@_06DBKKNAJ@mapi2m@
CONST	SEGMENT
??_C@_06DBKKNAJ@mapi2m@ DB 'mapi2m', 00H		; `string'
CONST	ENDS
;	COMDAT ??_C@_06BFMBDFA@mapi1m@
CONST	SEGMENT
??_C@_06BFMBDFA@mapi1m@ DB 'mapi1m', 00H		; `string'
CONST	ENDS
;	COMDAT ??_C@_06JOHJGH@mapi0m@
CONST	SEGMENT
??_C@_06JOHJGH@mapi0m@ DB 'mapi0m', 00H			; `string'
CONST	ENDS
;	COMDAT ??_C@_06MFCPBGBE@maphzm@
CONST	SEGMENT
??_C@_06MFCPBGBE@maphzm@ DB 'maphzm', 00H		; `string'
CONST	ENDS
;	COMDAT ??_C@_06MHGJKIEN@maphym@
CONST	SEGMENT
??_C@_06MHGJKIEN@maphym@ DB 'maphym', 00H		; `string'
CONST	ENDS
;	COMDAT ??_C@_06MGKLMCHK@maphxm@
CONST	SEGMENT
??_C@_06MGKLMCHK@maphxm@ DB 'maphxm', 00H		; `string'
CONST	ENDS
;	COMDAT ??_C@_06MNPHIFEH@maphwm@
CONST	SEGMENT
??_C@_06MNPHIFEH@maphwm@ DB 'maphwm', 00H		; `string'
CONST	ENDS
;	COMDAT ??_C@_06MMDFOPHA@maphvm@
CONST	SEGMENT
??_C@_06MMDFOPHA@maphvm@ DB 'maphvm', 00H		; `string'
CONST	ENDS
;	COMDAT ??_C@_06MOHDFBCJ@maphum@
CONST	SEGMENT
??_C@_06MOHDFBCJ@maphum@ DB 'maphum', 00H		; `string'
CONST	ENDS
;	COMDAT ??_C@_06MPLBDLBO@maphtm@
CONST	SEGMENT
??_C@_06MPLBDLBO@maphtm@ DB 'maphtm', 00H		; `string'
CONST	ENDS
;	COMDAT ??_C@_06MKPOCNJL@maphsm@
CONST	SEGMENT
??_C@_06MKPOCNJL@maphsm@ DB 'maphsm', 00H		; `string'
CONST	ENDS
;	COMDAT ??_C@_06MLDMEHKM@maphrm@
CONST	SEGMENT
??_C@_06MLDMEHKM@maphrm@ DB 'maphrm', 00H		; `string'
CONST	ENDS
;	COMDAT ??_C@_06MJHKPJPF@maphqm@
CONST	SEGMENT
??_C@_06MJHKPJPF@maphqm@ DB 'maphqm', 00H		; `string'
CONST	ENDS
;	COMDAT ??_C@_06MILIJDMC@maphpm@
CONST	SEGMENT
??_C@_06MILIJDMC@maphpm@ DB 'maphpm', 00H		; `string'
CONST	ENDS
;	COMDAT ??_C@_06NPMCHHIP@maphom@
CONST	SEGMENT
??_C@_06NPMCHHIP@maphom@ DB 'maphom', 00H		; `string'
CONST	ENDS
;	COMDAT ??_C@_06NOAABNLI@maphnm@
CONST	SEGMENT
??_C@_06NOAABNLI@maphnm@ DB 'maphnm', 00H		; `string'
CONST	ENDS
;	COMDAT ??_C@_06NMEGKDOB@maphmm@
CONST	SEGMENT
??_C@_06NMEGKDOB@maphmm@ DB 'maphmm', 00H		; `string'
CONST	ENDS
;	COMDAT ??_C@_06NNIEMJNG@maphlm@
CONST	SEGMENT
??_C@_06NNIEMJNG@maphlm@ DB 'maphlm', 00H		; `string'
CONST	ENDS
;	COMDAT ??_C@_06NIMLNPFD@maphkm@
CONST	SEGMENT
??_C@_06NIMLNPFD@maphkm@ DB 'maphkm', 00H		; `string'
CONST	ENDS
;	COMDAT ??_C@_06NJAJLFGE@maphjm@
CONST	SEGMENT
??_C@_06NJAJLFGE@maphjm@ DB 'maphjm', 00H		; `string'
CONST	ENDS
;	COMDAT ??_C@_06NLEPALDN@maphim@
CONST	SEGMENT
??_C@_06NLEPALDN@maphim@ DB 'maphim', 00H		; `string'
CONST	ENDS
;	COMDAT ??_C@_06NKINGBAK@maphhm@
CONST	SEGMENT
??_C@_06NKINGBAK@maphhm@ DB 'maphhm', 00H		; `string'
CONST	ENDS
;	COMDAT ??_C@_06NBNBCGDH@maphgm@
CONST	SEGMENT
??_C@_06NBNBCGDH@maphgm@ DB 'maphgm', 00H		; `string'
CONST	ENDS
;	COMDAT ??_C@_06NABDEMAA@maphfm@
CONST	SEGMENT
??_C@_06NABDEMAA@maphfm@ DB 'maphfm', 00H		; `string'
CONST	ENDS
;	COMDAT ??_C@_06NCFFPCFJ@maphem@
CONST	SEGMENT
??_C@_06NCFFPCFJ@maphem@ DB 'maphem', 00H		; `string'
CONST	ENDS
;	COMDAT ??_C@_06NDJHJIGO@maphdm@
CONST	SEGMENT
??_C@_06NDJHJIGO@maphdm@ DB 'maphdm', 00H		; `string'
CONST	ENDS
;	COMDAT ??_C@_06NGNIIOOL@maphcm@
CONST	SEGMENT
??_C@_06NGNIIOOL@maphcm@ DB 'maphcm', 00H		; `string'
CONST	ENDS
;	COMDAT ??_C@_06NHBKOENM@maphbm@
CONST	SEGMENT
??_C@_06NHBKOENM@maphbm@ DB 'maphbm', 00H		; `string'
CONST	ENDS
;	COMDAT ??_C@_06NFFMFKIF@mapham@
CONST	SEGMENT
??_C@_06NFFMFKIF@mapham@ DB 'mapham', 00H		; `string'
CONST	ENDS
;	COMDAT ??_C@_06LHPDCFIN@maph9m@
CONST	SEGMENT
??_C@_06LHPDCFIN@maph9m@ DB 'maph9m', 00H		; `string'
CONST	ENDS
;	COMDAT ??_C@_06LGDBEPLK@maph8m@
CONST	SEGMENT
??_C@_06LGDBEPLK@maph8m@ DB 'maph8m', 00H		; `string'
CONST	ENDS
;	COMDAT ??_C@_06LNGNAIIH@maph7m@
CONST	SEGMENT
??_C@_06LNGNAIIH@maph7m@ DB 'maph7m', 00H		; `string'
CONST	ENDS
;	COMDAT ??_C@_06LMKPGCLA@maph6m@
CONST	SEGMENT
??_C@_06LMKPGCLA@maph6m@ DB 'maph6m', 00H		; `string'
CONST	ENDS
;	COMDAT ??_C@_06LOOJNMOJ@maph5m@
CONST	SEGMENT
??_C@_06LOOJNMOJ@maph5m@ DB 'maph5m', 00H		; `string'
CONST	ENDS
;	COMDAT ??_C@_06LPCLLGNO@maph4m@
CONST	SEGMENT
??_C@_06LPCLLGNO@maph4m@ DB 'maph4m', 00H		; `string'
CONST	ENDS
;	COMDAT ??_C@_06LKGEKAFL@maph3m@
CONST	SEGMENT
??_C@_06LKGEKAFL@maph3m@ DB 'maph3m', 00H		; `string'
CONST	ENDS
;	COMDAT ??_C@_06LLKGMKGM@maph2m@
CONST	SEGMENT
??_C@_06LLKGMKGM@maph2m@ DB 'maph2m', 00H		; `string'
CONST	ENDS
;	COMDAT ??_C@_06LJOAHEDF@maph1m@
CONST	SEGMENT
??_C@_06LJOAHEDF@maph1m@ DB 'maph1m', 00H		; `string'
CONST	ENDS
;	COMDAT ??_C@_06LICCBOAC@maph0m@
CONST	SEGMENT
??_C@_06LICCBOAC@maph0m@ DB 'maph0m', 00H		; `string'
CONST	ENDS
;	COMDAT ??_C@_06JNEMAGEC@mapgzm@
CONST	SEGMENT
??_C@_06JNEMAGEC@mapgzm@ DB 'mapgzm', 00H		; `string'
CONST	ENDS
;	COMDAT ??_C@_06JPAKLIBL@mapgym@
CONST	SEGMENT
??_C@_06JPAKLIBL@mapgym@ DB 'mapgym', 00H		; `string'
CONST	ENDS
;	COMDAT ??_C@_06JOMINCCM@mapgxm@
CONST	SEGMENT
??_C@_06JOMINCCM@mapgxm@ DB 'mapgxm', 00H		; `string'
CONST	ENDS
;	COMDAT ??_C@_06JFJEJFBB@mapgwm@
CONST	SEGMENT
??_C@_06JFJEJFBB@mapgwm@ DB 'mapgwm', 00H		; `string'
CONST	ENDS
;	COMDAT ??_C@_06JEFGPPCG@mapgvm@
CONST	SEGMENT
??_C@_06JEFGPPCG@mapgvm@ DB 'mapgvm', 00H		; `string'
CONST	ENDS
;	COMDAT ??_C@_06JGBAEBHP@mapgum@
CONST	SEGMENT
??_C@_06JGBAEBHP@mapgum@ DB 'mapgum', 00H		; `string'
CONST	ENDS
;	COMDAT ??_C@_06JHNCCLEI@mapgtm@
CONST	SEGMENT
??_C@_06JHNCCLEI@mapgtm@ DB 'mapgtm', 00H		; `string'
CONST	ENDS
;	COMDAT ??_C@_06JCJNDNMN@mapgsm@
CONST	SEGMENT
??_C@_06JCJNDNMN@mapgsm@ DB 'mapgsm', 00H		; `string'
CONST	ENDS
;	COMDAT ??_C@_06JDFPFHPK@mapgrm@
CONST	SEGMENT
??_C@_06JDFPFHPK@mapgrm@ DB 'mapgrm', 00H		; `string'
CONST	ENDS
;	COMDAT ??_C@_06JBBJOJKD@mapgqm@
CONST	SEGMENT
??_C@_06JBBJOJKD@mapgqm@ DB 'mapgqm', 00H		; `string'
CONST	ENDS
;	COMDAT ??_C@_06JANLIDJE@mapgpm@
CONST	SEGMENT
??_C@_06JANLIDJE@mapgpm@ DB 'mapgpm', 00H		; `string'
CONST	ENDS
;	COMDAT ??_C@_06IHKBGHNJ@mapgom@
CONST	SEGMENT
??_C@_06IHKBGHNJ@mapgom@ DB 'mapgom', 00H		; `string'
CONST	ENDS
;	COMDAT ??_C@_06IGGDANOO@mapgnm@
CONST	SEGMENT
??_C@_06IGGDANOO@mapgnm@ DB 'mapgnm', 00H		; `string'
CONST	ENDS
;	COMDAT ??_C@_06IECFLDLH@mapgmm@
CONST	SEGMENT
??_C@_06IECFLDLH@mapgmm@ DB 'mapgmm', 00H		; `string'
CONST	ENDS
;	COMDAT ??_C@_06IFOHNJIA@mapglm@
CONST	SEGMENT
??_C@_06IFOHNJIA@mapglm@ DB 'mapglm', 00H		; `string'
CONST	ENDS
;	COMDAT ??_C@_06IAKIMPAF@mapgkm@
CONST	SEGMENT
??_C@_06IAKIMPAF@mapgkm@ DB 'mapgkm', 00H		; `string'
CONST	ENDS
;	COMDAT ??_C@_06IBGKKFDC@mapgjm@
CONST	SEGMENT
??_C@_06IBGKKFDC@mapgjm@ DB 'mapgjm', 00H		; `string'
CONST	ENDS
;	COMDAT ??_C@_06IDCMBLGL@mapgim@
CONST	SEGMENT
??_C@_06IDCMBLGL@mapgim@ DB 'mapgim', 00H		; `string'
CONST	ENDS
;	COMDAT ??_C@_06ICOOHBFM@mapghm@
CONST	SEGMENT
??_C@_06ICOOHBFM@mapghm@ DB 'mapghm', 00H		; `string'
CONST	ENDS
;	COMDAT ??_C@_06IJLCDGGB@mapggm@
CONST	SEGMENT
??_C@_06IJLCDGGB@mapggm@ DB 'mapggm', 00H		; `string'
CONST	ENDS
;	COMDAT ??_C@_06IIHAFMFG@mapgfm@
CONST	SEGMENT
??_C@_06IIHAFMFG@mapgfm@ DB 'mapgfm', 00H		; `string'
CONST	ENDS
;	COMDAT ??_C@_06IKDGOCAP@mapgem@
CONST	SEGMENT
??_C@_06IKDGOCAP@mapgem@ DB 'mapgem', 00H		; `string'
CONST	ENDS
;	COMDAT ??_C@_06ILPEIIDI@mapgdm@
CONST	SEGMENT
??_C@_06ILPEIIDI@mapgdm@ DB 'mapgdm', 00H		; `string'
CONST	ENDS
;	COMDAT ??_C@_06IOLLJOLN@mapgcm@
CONST	SEGMENT
??_C@_06IOLLJOLN@mapgcm@ DB 'mapgcm', 00H		; `string'
CONST	ENDS
;	COMDAT ??_C@_06IPHJPEIK@mapgbm@
CONST	SEGMENT
??_C@_06IPHJPEIK@mapgbm@ DB 'mapgbm', 00H		; `string'
CONST	ENDS
;	COMDAT ??_C@_06INDPEKND@mapgam@
CONST	SEGMENT
??_C@_06INDPEKND@mapgam@ DB 'mapgam', 00H		; `string'
CONST	ENDS
;	COMDAT ??_C@_06OPJADFNL@mapg9m@
CONST	SEGMENT
??_C@_06OPJADFNL@mapg9m@ DB 'mapg9m', 00H		; `string'
CONST	ENDS
;	COMDAT ??_C@_06OOFCFPOM@mapg8m@
CONST	SEGMENT
??_C@_06OOFCFPOM@mapg8m@ DB 'mapg8m', 00H		; `string'
CONST	ENDS
;	COMDAT ??_C@_06OFAOBINB@mapg7m@
CONST	SEGMENT
??_C@_06OFAOBINB@mapg7m@ DB 'mapg7m', 00H		; `string'
CONST	ENDS
;	COMDAT ??_C@_06OEMMHCOG@mapg6m@
CONST	SEGMENT
??_C@_06OEMMHCOG@mapg6m@ DB 'mapg6m', 00H		; `string'
CONST	ENDS
;	COMDAT ??_C@_06OGIKMMLP@mapg5m@
CONST	SEGMENT
??_C@_06OGIKMMLP@mapg5m@ DB 'mapg5m', 00H		; `string'
CONST	ENDS
;	COMDAT ??_C@_06OHEIKGII@mapg4m@
CONST	SEGMENT
??_C@_06OHEIKGII@mapg4m@ DB 'mapg4m', 00H		; `string'
CONST	ENDS
;	COMDAT ??_C@_06OCAHLAAN@mapg3m@
CONST	SEGMENT
??_C@_06OCAHLAAN@mapg3m@ DB 'mapg3m', 00H		; `string'
CONST	ENDS
;	COMDAT ??_C@_06ODMFNKDK@mapg2m@
CONST	SEGMENT
??_C@_06ODMFNKDK@mapg2m@ DB 'mapg2m', 00H		; `string'
CONST	ENDS
;	COMDAT ??_C@_06OBIDGEGD@mapg1m@
CONST	SEGMENT
??_C@_06OBIDGEGD@mapg1m@ DB 'mapg1m', 00H		; `string'
CONST	ENDS
;	COMDAT ??_C@_06OAEBAOFE@mapg0m@
CONST	SEGMENT
??_C@_06OAEBAOFE@mapg0m@ DB 'mapg0m', 00H		; `string'
CONST	ENDS
;	COMDAT ??_C@_06CFPAGBCH@mapfzm@
CONST	SEGMENT
??_C@_06CFPAGBCH@mapfzm@ DB 'mapfzm', 00H		; `string'
CONST	ENDS
;	COMDAT ??_C@_06CHLGNPHO@mapfym@
CONST	SEGMENT
??_C@_06CHLGNPHO@mapfym@ DB 'mapfym', 00H		; `string'
CONST	ENDS
;	COMDAT ??_C@_06CGHELFEJ@mapfxm@
CONST	SEGMENT
??_C@_06CGHELFEJ@mapfxm@ DB 'mapfxm', 00H		; `string'
CONST	ENDS
;	COMDAT ??_C@_06CNCIPCHE@mapfwm@
CONST	SEGMENT
??_C@_06CNCIPCHE@mapfwm@ DB 'mapfwm', 00H		; `string'
CONST	ENDS
;	COMDAT ??_C@_06CMOKJIED@mapfvm@
CONST	SEGMENT
??_C@_06CMOKJIED@mapfvm@ DB 'mapfvm', 00H		; `string'
CONST	ENDS
;	COMDAT ??_C@_06COKMCGBK@mapfum@
CONST	SEGMENT
??_C@_06COKMCGBK@mapfum@ DB 'mapfum', 00H		; `string'
CONST	ENDS
;	COMDAT ??_C@_06CPGOEMCN@mapftm@
CONST	SEGMENT
??_C@_06CPGOEMCN@mapftm@ DB 'mapftm', 00H		; `string'
CONST	ENDS
;	COMDAT ??_C@_06CKCBFKKI@mapfsm@
CONST	SEGMENT
??_C@_06CKCBFKKI@mapfsm@ DB 'mapfsm', 00H		; `string'
CONST	ENDS
;	COMDAT ??_C@_06CLODDAJP@mapfrm@
CONST	SEGMENT
??_C@_06CLODDAJP@mapfrm@ DB 'mapfrm', 00H		; `string'
CONST	ENDS
;	COMDAT ??_C@_06CJKFIOMG@mapfqm@
CONST	SEGMENT
??_C@_06CJKFIOMG@mapfqm@ DB 'mapfqm', 00H		; `string'
CONST	ENDS
;	COMDAT ??_C@_06CIGHOEPB@mapfpm@
CONST	SEGMENT
??_C@_06CIGHOEPB@mapfpm@ DB 'mapfpm', 00H		; `string'
CONST	ENDS
;	COMDAT ??_C@_06DPBNAALM@mapfom@
CONST	SEGMENT
??_C@_06DPBNAALM@mapfom@ DB 'mapfom', 00H		; `string'
CONST	ENDS
;	COMDAT ??_C@_06DONPGKIL@mapfnm@
CONST	SEGMENT
??_C@_06DONPGKIL@mapfnm@ DB 'mapfnm', 00H		; `string'
CONST	ENDS
;	COMDAT ??_C@_06DMJJNENC@mapfmm@
CONST	SEGMENT
??_C@_06DMJJNENC@mapfmm@ DB 'mapfmm', 00H		; `string'
CONST	ENDS
;	COMDAT ??_C@_06DNFLLOOF@mapflm@
CONST	SEGMENT
??_C@_06DNFLLOOF@mapflm@ DB 'mapflm', 00H		; `string'
CONST	ENDS
;	COMDAT ??_C@_06DIBEKIGA@mapfkm@
CONST	SEGMENT
??_C@_06DIBEKIGA@mapfkm@ DB 'mapfkm', 00H		; `string'
CONST	ENDS
;	COMDAT ??_C@_06DJNGMCFH@mapfjm@
CONST	SEGMENT
??_C@_06DJNGMCFH@mapfjm@ DB 'mapfjm', 00H		; `string'
CONST	ENDS
;	COMDAT ??_C@_06DLJAHMAO@mapfim@
CONST	SEGMENT
??_C@_06DLJAHMAO@mapfim@ DB 'mapfim', 00H		; `string'
CONST	ENDS
;	COMDAT ??_C@_06DKFCBGDJ@mapfhm@
CONST	SEGMENT
??_C@_06DKFCBGDJ@mapfhm@ DB 'mapfhm', 00H		; `string'
CONST	ENDS
;	COMDAT ??_C@_06DBAOFBAE@mapfgm@
CONST	SEGMENT
??_C@_06DBAOFBAE@mapfgm@ DB 'mapfgm', 00H		; `string'
CONST	ENDS
;	COMDAT ??_C@_06DAMMDLDD@mapffm@
CONST	SEGMENT
??_C@_06DAMMDLDD@mapffm@ DB 'mapffm', 00H		; `string'
CONST	ENDS
;	COMDAT ??_C@_06DCIKIFGK@mapfem@
CONST	SEGMENT
??_C@_06DCIKIFGK@mapfem@ DB 'mapfem', 00H		; `string'
CONST	ENDS
;	COMDAT ??_C@_06DDEIOPFN@mapfdm@
CONST	SEGMENT
??_C@_06DDEIOPFN@mapfdm@ DB 'mapfdm', 00H		; `string'
CONST	ENDS
;	COMDAT ??_C@_06DGAHPJNI@mapfcm@
CONST	SEGMENT
??_C@_06DGAHPJNI@mapfcm@ DB 'mapfcm', 00H		; `string'
CONST	ENDS
;	COMDAT ??_C@_06DHMFJDOP@mapfbm@
CONST	SEGMENT
??_C@_06DHMFJDOP@mapfbm@ DB 'mapfbm', 00H		; `string'
CONST	ENDS
;	COMDAT ??_C@_06DFIDCNLG@mapfam@
CONST	SEGMENT
??_C@_06DFIDCNLG@mapfam@ DB 'mapfam', 00H		; `string'
CONST	ENDS
;	COMDAT ??_C@_06FHCMFCLO@mapf9m@
CONST	SEGMENT
??_C@_06FHCMFCLO@mapf9m@ DB 'mapf9m', 00H		; `string'
CONST	ENDS
;	COMDAT ??_C@_06FGOODIIJ@mapf8m@
CONST	SEGMENT
??_C@_06FGOODIIJ@mapf8m@ DB 'mapf8m', 00H		; `string'
CONST	ENDS
;	COMDAT ??_C@_06FNLCHPLE@mapf7m@
CONST	SEGMENT
??_C@_06FNLCHPLE@mapf7m@ DB 'mapf7m', 00H		; `string'
CONST	ENDS
;	COMDAT ??_C@_06FMHABFID@mapf6m@
CONST	SEGMENT
??_C@_06FMHABFID@mapf6m@ DB 'mapf6m', 00H		; `string'
CONST	ENDS
;	COMDAT ??_C@_06FODGKLNK@mapf5m@
CONST	SEGMENT
??_C@_06FODGKLNK@mapf5m@ DB 'mapf5m', 00H		; `string'
CONST	ENDS
;	COMDAT ??_C@_06FPPEMBON@mapf4m@
CONST	SEGMENT
??_C@_06FPPEMBON@mapf4m@ DB 'mapf4m', 00H		; `string'
CONST	ENDS
;	COMDAT ??_C@_06FKLLNHGI@mapf3m@
CONST	SEGMENT
??_C@_06FKLLNHGI@mapf3m@ DB 'mapf3m', 00H		; `string'
CONST	ENDS
;	COMDAT ??_C@_06FLHJLNFP@mapf2m@
CONST	SEGMENT
??_C@_06FLHJLNFP@mapf2m@ DB 'mapf2m', 00H		; `string'
CONST	ENDS
;	COMDAT ??_C@_06FJDPADAG@mapf1m@
CONST	SEGMENT
??_C@_06FJDPADAG@mapf1m@ DB 'mapf1m', 00H		; `string'
CONST	ENDS
;	COMDAT ??_C@_06FIPNGJDB@mapf0m@
CONST	SEGMENT
??_C@_06FIPNGJDB@mapf0m@ DB 'mapf0m', 00H		; `string'
CONST	ENDS
;	COMDAT ??_C@_06DHEFMOMJ@mapezm@
CONST	SEGMENT
??_C@_06DHEFMOMJ@mapezm@ DB 'mapezm', 00H		; `string'
CONST	ENDS
;	COMDAT ??_C@_06DFADHAJA@mapeym@
CONST	SEGMENT
??_C@_06DFADHAJA@mapeym@ DB 'mapeym', 00H		; `string'
CONST	ENDS
;	COMDAT ??_C@_06DEMBBKKH@mapexm@
CONST	SEGMENT
??_C@_06DEMBBKKH@mapexm@ DB 'mapexm', 00H		; `string'
CONST	ENDS
;	COMDAT ??_C@_06DPJNFNJK@mapewm@
CONST	SEGMENT
??_C@_06DPJNFNJK@mapewm@ DB 'mapewm', 00H		; `string'
CONST	ENDS
;	COMDAT ??_C@_06DOFPDHKN@mapevm@
CONST	SEGMENT
??_C@_06DOFPDHKN@mapevm@ DB 'mapevm', 00H		; `string'
CONST	ENDS
;	COMDAT ??_C@_06DMBJIJPE@mapeum@
CONST	SEGMENT
??_C@_06DMBJIJPE@mapeum@ DB 'mapeum', 00H		; `string'
CONST	ENDS
;	COMDAT ??_C@_06DNNLODMD@mapetm@
CONST	SEGMENT
??_C@_06DNNLODMD@mapetm@ DB 'mapetm', 00H		; `string'
CONST	ENDS
;	COMDAT ??_C@_06DIJEPFEG@mapesm@
CONST	SEGMENT
??_C@_06DIJEPFEG@mapesm@ DB 'mapesm', 00H		; `string'
CONST	ENDS
;	COMDAT ??_C@_06DJFGJPHB@maperm@
CONST	SEGMENT
??_C@_06DJFGJPHB@maperm@ DB 'maperm', 00H		; `string'
CONST	ENDS
;	COMDAT ??_C@_06DLBACBCI@mapeqm@
CONST	SEGMENT
??_C@_06DLBACBCI@mapeqm@ DB 'mapeqm', 00H		; `string'
CONST	ENDS
;	COMDAT ??_C@_06DKNCELBP@mapepm@
CONST	SEGMENT
??_C@_06DKNCELBP@mapepm@ DB 'mapepm', 00H		; `string'
CONST	ENDS
;	COMDAT ??_C@_06CNKIKPFC@mapeom@
CONST	SEGMENT
??_C@_06CNKIKPFC@mapeom@ DB 'mapeom', 00H		; `string'
CONST	ENDS
;	COMDAT ??_C@_06CMGKMFGF@mapenm@
CONST	SEGMENT
??_C@_06CMGKMFGF@mapenm@ DB 'mapenm', 00H		; `string'
CONST	ENDS
;	COMDAT ??_C@_06COCMHLDM@mapemm@
CONST	SEGMENT
??_C@_06COCMHLDM@mapemm@ DB 'mapemm', 00H		; `string'
CONST	ENDS
;	COMDAT ??_C@_06CPOOBBAL@mapelm@
CONST	SEGMENT
??_C@_06CPOOBBAL@mapelm@ DB 'mapelm', 00H		; `string'
CONST	ENDS
;	COMDAT ??_C@_06CKKBAHIO@mapekm@
CONST	SEGMENT
??_C@_06CKKBAHIO@mapekm@ DB 'mapekm', 00H		; `string'
CONST	ENDS
;	COMDAT ??_C@_06CLGDGNLJ@mapejm@
CONST	SEGMENT
??_C@_06CLGDGNLJ@mapejm@ DB 'mapejm', 00H		; `string'
CONST	ENDS
;	COMDAT ??_C@_06CJCFNDOA@mapeim@
CONST	SEGMENT
??_C@_06CJCFNDOA@mapeim@ DB 'mapeim', 00H		; `string'
CONST	ENDS
;	COMDAT ??_C@_06CIOHLJNH@mapehm@
CONST	SEGMENT
??_C@_06CIOHLJNH@mapehm@ DB 'mapehm', 00H		; `string'
CONST	ENDS
;	COMDAT ??_C@_06CDLLPOOK@mapegm@
CONST	SEGMENT
??_C@_06CDLLPOOK@mapegm@ DB 'mapegm', 00H		; `string'
CONST	ENDS
;	COMDAT ??_C@_06CCHJJENN@mapefm@
CONST	SEGMENT
??_C@_06CCHJJENN@mapefm@ DB 'mapefm', 00H		; `string'
CONST	ENDS
;	COMDAT ??_C@_06CADPCKIE@mapeem@
CONST	SEGMENT
??_C@_06CADPCKIE@mapeem@ DB 'mapeem', 00H		; `string'
CONST	ENDS
;	COMDAT ??_C@_06CBPNEALD@mapedm@
CONST	SEGMENT
??_C@_06CBPNEALD@mapedm@ DB 'mapedm', 00H		; `string'
CONST	ENDS
;	COMDAT ??_C@_06CELCFGDG@mapecm@
CONST	SEGMENT
??_C@_06CELCFGDG@mapecm@ DB 'mapecm', 00H		; `string'
CONST	ENDS
;	COMDAT ??_C@_06CFHADMAB@mapebm@
CONST	SEGMENT
??_C@_06CFHADMAB@mapebm@ DB 'mapebm', 00H		; `string'
CONST	ENDS
;	COMDAT ??_C@_06CHDGICFI@mapeam@
CONST	SEGMENT
??_C@_06CHDGICFI@mapeam@ DB 'mapeam', 00H		; `string'
CONST	ENDS
;	COMDAT ??_C@_06EFJJPNFA@mape9m@
CONST	SEGMENT
??_C@_06EFJJPNFA@mape9m@ DB 'mape9m', 00H		; `string'
CONST	ENDS
;	COMDAT ??_C@_06EEFLJHGH@mape8m@
CONST	SEGMENT
??_C@_06EEFLJHGH@mape8m@ DB 'mape8m', 00H		; `string'
CONST	ENDS
;	COMDAT ??_C@_06EPAHNAFK@mape7m@
CONST	SEGMENT
??_C@_06EPAHNAFK@mape7m@ DB 'mape7m', 00H		; `string'
CONST	ENDS
;	COMDAT ??_C@_06EOMFLKGN@mape6m@
CONST	SEGMENT
??_C@_06EOMFLKGN@mape6m@ DB 'mape6m', 00H		; `string'
CONST	ENDS
;	COMDAT ??_C@_06EMIDAEDE@mape5m@
CONST	SEGMENT
??_C@_06EMIDAEDE@mape5m@ DB 'mape5m', 00H		; `string'
CONST	ENDS
;	COMDAT ??_C@_06ENEBGOAD@mape4m@
CONST	SEGMENT
??_C@_06ENEBGOAD@mape4m@ DB 'mape4m', 00H		; `string'
CONST	ENDS
;	COMDAT ??_C@_06EIAOHIIG@mape3m@
CONST	SEGMENT
??_C@_06EIAOHIIG@mape3m@ DB 'mape3m', 00H		; `string'
CONST	ENDS
;	COMDAT ??_C@_06EJMMBCLB@mape2m@
CONST	SEGMENT
??_C@_06EJMMBCLB@mape2m@ DB 'mape2m', 00H		; `string'
CONST	ENDS
;	COMDAT ??_C@_06ELIKKMOI@mape1m@
CONST	SEGMENT
??_C@_06ELIKKMOI@mape1m@ DB 'mape1m', 00H		; `string'
CONST	ENDS
;	COMDAT ??_C@_06EKEIMGNP@mape0m@
CONST	SEGMENT
??_C@_06EKEIMGNP@mape0m@ DB 'mape0m', 00H		; `string'
CONST	ENDS
;	COMDAT ??_C@_06IPPJKJKM@mapdzm@
CONST	SEGMENT
??_C@_06IPPJKJKM@mapdzm@ DB 'mapdzm', 00H		; `string'
CONST	ENDS
;	COMDAT ??_C@_06INLPBHPF@mapdym@
CONST	SEGMENT
??_C@_06INLPBHPF@mapdym@ DB 'mapdym', 00H		; `string'
CONST	ENDS
;	COMDAT ??_C@_06IMHNHNMC@mapdxm@
CONST	SEGMENT
??_C@_06IMHNHNMC@mapdxm@ DB 'mapdxm', 00H		; `string'
CONST	ENDS
;	COMDAT ??_C@_06IHCBDKPP@mapdwm@
CONST	SEGMENT
??_C@_06IHCBDKPP@mapdwm@ DB 'mapdwm', 00H		; `string'
CONST	ENDS
;	COMDAT ??_C@_06IGODFAMI@mapdvm@
CONST	SEGMENT
??_C@_06IGODFAMI@mapdvm@ DB 'mapdvm', 00H		; `string'
CONST	ENDS
;	COMDAT ??_C@_06IEKFOOJB@mapdum@
CONST	SEGMENT
??_C@_06IEKFOOJB@mapdum@ DB 'mapdum', 00H		; `string'
CONST	ENDS
;	COMDAT ??_C@_06IFGHIEKG@mapdtm@
CONST	SEGMENT
??_C@_06IFGHIEKG@mapdtm@ DB 'mapdtm', 00H		; `string'
CONST	ENDS
;	COMDAT ??_C@_06IACIJCCD@mapdsm@
CONST	SEGMENT
??_C@_06IACIJCCD@mapdsm@ DB 'mapdsm', 00H		; `string'
CONST	ENDS
;	COMDAT ??_C@_06IBOKPIBE@mapdrm@
CONST	SEGMENT
??_C@_06IBOKPIBE@mapdrm@ DB 'mapdrm', 00H		; `string'
CONST	ENDS
;	COMDAT ??_C@_06IDKMEGEN@mapdqm@
CONST	SEGMENT
??_C@_06IDKMEGEN@mapdqm@ DB 'mapdqm', 00H		; `string'
CONST	ENDS
;	COMDAT ??_C@_06ICGOCMHK@mapdpm@
CONST	SEGMENT
??_C@_06ICGOCMHK@mapdpm@ DB 'mapdpm', 00H		; `string'
CONST	ENDS
;	COMDAT ??_C@_06JFBEMIDH@mapdom@
CONST	SEGMENT
??_C@_06JFBEMIDH@mapdom@ DB 'mapdom', 00H		; `string'
CONST	ENDS
;	COMDAT ??_C@_06JENGKCAA@mapdnm@
CONST	SEGMENT
??_C@_06JENGKCAA@mapdnm@ DB 'mapdnm', 00H		; `string'
CONST	ENDS
;	COMDAT ??_C@_06JGJABMFJ@mapdmm@
CONST	SEGMENT
??_C@_06JGJABMFJ@mapdmm@ DB 'mapdmm', 00H		; `string'
CONST	ENDS
;	COMDAT ??_C@_06JHFCHGGO@mapdlm@
CONST	SEGMENT
??_C@_06JHFCHGGO@mapdlm@ DB 'mapdlm', 00H		; `string'
CONST	ENDS
;	COMDAT ??_C@_06JCBNGAOL@mapdkm@
CONST	SEGMENT
??_C@_06JCBNGAOL@mapdkm@ DB 'mapdkm', 00H		; `string'
CONST	ENDS
;	COMDAT ??_C@_06JDNPAKNM@mapdjm@
CONST	SEGMENT
??_C@_06JDNPAKNM@mapdjm@ DB 'mapdjm', 00H		; `string'
CONST	ENDS
;	COMDAT ??_C@_06JBJJLEIF@mapdim@
CONST	SEGMENT
??_C@_06JBJJLEIF@mapdim@ DB 'mapdim', 00H		; `string'
CONST	ENDS
;	COMDAT ??_C@_06JAFLNOLC@mapdhm@
CONST	SEGMENT
??_C@_06JAFLNOLC@mapdhm@ DB 'mapdhm', 00H		; `string'
CONST	ENDS
;	COMDAT ??_C@_06JLAHJJIP@mapdgm@
CONST	SEGMENT
??_C@_06JLAHJJIP@mapdgm@ DB 'mapdgm', 00H		; `string'
CONST	ENDS
;	COMDAT ??_C@_06JKMFPDLI@mapdfm@
CONST	SEGMENT
??_C@_06JKMFPDLI@mapdfm@ DB 'mapdfm', 00H		; `string'
CONST	ENDS
;	COMDAT ??_C@_06JIIDENOB@mapdem@
CONST	SEGMENT
??_C@_06JIIDENOB@mapdem@ DB 'mapdem', 00H		; `string'
CONST	ENDS
;	COMDAT ??_C@_06JJEBCHNG@mapddm@
CONST	SEGMENT
??_C@_06JJEBCHNG@mapddm@ DB 'mapddm', 00H		; `string'
CONST	ENDS
;	COMDAT ??_C@_06JMAODBFD@mapdcm@
CONST	SEGMENT
??_C@_06JMAODBFD@mapdcm@ DB 'mapdcm', 00H		; `string'
CONST	ENDS
;	COMDAT ??_C@_06JNMMFLGE@mapdbm@
CONST	SEGMENT
??_C@_06JNMMFLGE@mapdbm@ DB 'mapdbm', 00H		; `string'
CONST	ENDS
;	COMDAT ??_C@_06JPIKOFDN@mapdam@
CONST	SEGMENT
??_C@_06JPIKOFDN@mapdam@ DB 'mapdam', 00H		; `string'
CONST	ENDS
;	COMDAT ??_C@_06PNCFJKDF@mapd9m@
CONST	SEGMENT
??_C@_06PNCFJKDF@mapd9m@ DB 'mapd9m', 00H		; `string'
CONST	ENDS
;	COMDAT ??_C@_06PMOHPAAC@mapd8m@
CONST	SEGMENT
??_C@_06PMOHPAAC@mapd8m@ DB 'mapd8m', 00H		; `string'
CONST	ENDS
;	COMDAT ??_C@_06PHLLLHDP@mapd7m@
CONST	SEGMENT
??_C@_06PHLLLHDP@mapd7m@ DB 'mapd7m', 00H		; `string'
CONST	ENDS
;	COMDAT ??_C@_06PGHJNNAI@mapd6m@
CONST	SEGMENT
??_C@_06PGHJNNAI@mapd6m@ DB 'mapd6m', 00H		; `string'
CONST	ENDS
;	COMDAT ??_C@_06PEDPGDFB@mapd5m@
CONST	SEGMENT
??_C@_06PEDPGDFB@mapd5m@ DB 'mapd5m', 00H		; `string'
CONST	ENDS
;	COMDAT ??_C@_06PFPNAJGG@mapd4m@
CONST	SEGMENT
??_C@_06PFPNAJGG@mapd4m@ DB 'mapd4m', 00H		; `string'
CONST	ENDS
;	COMDAT ??_C@_06PALCBPOD@mapd3m@
CONST	SEGMENT
??_C@_06PALCBPOD@mapd3m@ DB 'mapd3m', 00H		; `string'
CONST	ENDS
;	COMDAT ??_C@_06PBHAHFNE@mapd2m@
CONST	SEGMENT
??_C@_06PBHAHFNE@mapd2m@ DB 'mapd2m', 00H		; `string'
CONST	ENDS
;	COMDAT ??_C@_06PDDGMLIN@mapd1m@
CONST	SEGMENT
??_C@_06PDDGMLIN@mapd1m@ DB 'mapd1m', 00H		; `string'
CONST	ENDS
;	COMDAT ??_C@_06PCPEKBLK@mapd0m@
CONST	SEGMENT
??_C@_06PCPEKBLK@mapd0m@ DB 'mapd0m', 00H		; `string'
CONST	ENDS
;	COMDAT ??_C@_06BCCOJBBF@mapczm@
CONST	SEGMENT
??_C@_06BCCOJBBF@mapczm@ DB 'mapczm', 00H		; `string'
CONST	ENDS
;	COMDAT ??_C@_06BAGICPEM@mapcym@
CONST	SEGMENT
??_C@_06BAGICPEM@mapcym@ DB 'mapcym', 00H		; `string'
CONST	ENDS
;	COMDAT ??_C@_06BBKKEFHL@mapcxm@
CONST	SEGMENT
??_C@_06BBKKEFHL@mapcxm@ DB 'mapcxm', 00H		; `string'
CONST	ENDS
;	COMDAT ??_C@_06BKPGACEG@mapcwm@
CONST	SEGMENT
??_C@_06BKPGACEG@mapcwm@ DB 'mapcwm', 00H		; `string'
CONST	ENDS
;	COMDAT ??_C@_06BLDEGIHB@mapcvm@
CONST	SEGMENT
??_C@_06BLDEGIHB@mapcvm@ DB 'mapcvm', 00H		; `string'
CONST	ENDS
;	COMDAT ??_C@_06BJHCNGCI@mapcum@
CONST	SEGMENT
??_C@_06BJHCNGCI@mapcum@ DB 'mapcum', 00H		; `string'
CONST	ENDS
;	COMDAT ??_C@_06BILALMBP@mapctm@
CONST	SEGMENT
??_C@_06BILALMBP@mapctm@ DB 'mapctm', 00H		; `string'
CONST	ENDS
;	COMDAT ??_C@_06BNPPKKJK@mapcsm@
CONST	SEGMENT
??_C@_06BNPPKKJK@mapcsm@ DB 'mapcsm', 00H		; `string'
CONST	ENDS
;	COMDAT ??_C@_06BMDNMAKN@mapcrm@
CONST	SEGMENT
??_C@_06BMDNMAKN@mapcrm@ DB 'mapcrm', 00H		; `string'
CONST	ENDS
;	COMDAT ??_C@_06BOHLHOPE@mapcqm@
CONST	SEGMENT
??_C@_06BOHLHOPE@mapcqm@ DB 'mapcqm', 00H		; `string'
CONST	ENDS
;	COMDAT ??_C@_06BPLJBEMD@mapcpm@
CONST	SEGMENT
??_C@_06BPLJBEMD@mapcpm@ DB 'mapcpm', 00H		; `string'
CONST	ENDS
;	COMDAT ??_C@_06IMDPAIO@mapcom@
CONST	SEGMENT
??_C@_06IMDPAIO@mapcom@ DB 'mapcom', 00H		; `string'
CONST	ENDS
;	COMDAT ??_C@_06JABJKLJ@mapcnm@
CONST	SEGMENT
??_C@_06JABJKLJ@mapcnm@ DB 'mapcnm', 00H		; `string'
CONST	ENDS
;	COMDAT ??_C@_06LEHCEOA@mapcmm@
CONST	SEGMENT
??_C@_06LEHCEOA@mapcmm@ DB 'mapcmm', 00H		; `string'
CONST	ENDS
;	COMDAT ??_C@_06KIFEONH@mapclm@
CONST	SEGMENT
??_C@_06KIFEONH@mapclm@ DB 'mapclm', 00H		; `string'
CONST	ENDS
;	COMDAT ??_C@_06PMKFIFC@mapckm@
CONST	SEGMENT
??_C@_06PMKFIFC@mapckm@ DB 'mapckm', 00H		; `string'
CONST	ENDS
;	COMDAT ??_C@_06OAIDCGF@mapcjm@
CONST	SEGMENT
??_C@_06OAIDCGF@mapcjm@ DB 'mapcjm', 00H		; `string'
CONST	ENDS
;	COMDAT ??_C@_06MEOIMDM@mapcim@
CONST	SEGMENT
??_C@_06MEOIMDM@mapcim@ DB 'mapcim', 00H		; `string'
CONST	ENDS
;	COMDAT ??_C@_06NIMOGAL@mapchm@
CONST	SEGMENT
??_C@_06NIMOGAL@mapchm@ DB 'mapchm', 00H		; `string'
CONST	ENDS
;	COMDAT ??_C@_06GNAKBDG@mapcgm@
CONST	SEGMENT
??_C@_06GNAKBDG@mapcgm@ DB 'mapcgm', 00H		; `string'
CONST	ENDS
;	COMDAT ??_C@_06HBCMLAB@mapcfm@
CONST	SEGMENT
??_C@_06HBCMLAB@mapcfm@ DB 'mapcfm', 00H		; `string'
CONST	ENDS
;	COMDAT ??_C@_06FFEHFFI@mapcem@
CONST	SEGMENT
??_C@_06FFEHFFI@mapcem@ DB 'mapcem', 00H		; `string'
CONST	ENDS
;	COMDAT ??_C@_06EJGBPGP@mapcdm@
CONST	SEGMENT
??_C@_06EJGBPGP@mapcdm@ DB 'mapcdm', 00H		; `string'
CONST	ENDS
;	COMDAT ??_C@_06BNJAJOK@mapccm@
CONST	SEGMENT
??_C@_06BNJAJOK@mapccm@ DB 'mapccm', 00H		; `string'
CONST	ENDS
;	COMDAT ??_C@_06BLGDNN@mapcbm@
CONST	SEGMENT
??_C@_06BLGDNN@mapcbm@ DB 'mapcbm', 00H			; `string'
CONST	ENDS
;	COMDAT ??_C@_06CFNNNIE@mapcam@
CONST	SEGMENT
??_C@_06CFNNNIE@mapcam@ DB 'mapcam', 00H		; `string'
CONST	ENDS
;	COMDAT ??_C@_06GAPCKCIM@mapc9m@
CONST	SEGMENT
??_C@_06GAPCKCIM@mapc9m@ DB 'mapc9m', 00H		; `string'
CONST	ENDS
;	COMDAT ??_C@_06GBDAMILL@mapc8m@
CONST	SEGMENT
??_C@_06GBDAMILL@mapc8m@ DB 'mapc8m', 00H		; `string'
CONST	ENDS
;	COMDAT ??_C@_06GKGMIPIG@mapc7m@
CONST	SEGMENT
??_C@_06GKGMIPIG@mapc7m@ DB 'mapc7m', 00H		; `string'
CONST	ENDS
;	COMDAT ??_C@_06GLKOOFLB@mapc6m@
CONST	SEGMENT
??_C@_06GLKOOFLB@mapc6m@ DB 'mapc6m', 00H		; `string'
CONST	ENDS
;	COMDAT ??_C@_06GJOIFLOI@mapc5m@
CONST	SEGMENT
??_C@_06GJOIFLOI@mapc5m@ DB 'mapc5m', 00H		; `string'
CONST	ENDS
;	COMDAT ??_C@_06GICKDBNP@mapc4m@
CONST	SEGMENT
??_C@_06GICKDBNP@mapc4m@ DB 'mapc4m', 00H		; `string'
CONST	ENDS
;	COMDAT ??_C@_06GNGFCHFK@mapc3m@
CONST	SEGMENT
??_C@_06GNGFCHFK@mapc3m@ DB 'mapc3m', 00H		; `string'
CONST	ENDS
;	COMDAT ??_C@_06GMKHENGN@mapc2m@
CONST	SEGMENT
??_C@_06GMKHENGN@mapc2m@ DB 'mapc2m', 00H		; `string'
CONST	ENDS
;	COMDAT ??_C@_06GOOBPDDE@mapc1m@
CONST	SEGMENT
??_C@_06GOOBPDDE@mapc1m@ DB 'mapc1m', 00H		; `string'
CONST	ENDS
;	COMDAT ??_C@_06GPCDJJAD@mapc0m@
CONST	SEGMENT
??_C@_06GPCDJJAD@mapc0m@ DB 'mapc0m', 00H		; `string'
CONST	ENDS
;	COMDAT ??_C@_06KKJCPGHA@mapbzm@
CONST	SEGMENT
??_C@_06KKJCPGHA@mapbzm@ DB 'mapbzm', 00H		; `string'
CONST	ENDS
;	COMDAT ??_C@_06KINEEICJ@mapbym@
CONST	SEGMENT
??_C@_06KINEEICJ@mapbym@ DB 'mapbym', 00H		; `string'
CONST	ENDS
;	COMDAT ??_C@_06KJBGCCBO@mapbxm@
CONST	SEGMENT
??_C@_06KJBGCCBO@mapbxm@ DB 'mapbxm', 00H		; `string'
CONST	ENDS
;	COMDAT ??_C@_06KCEKGFCD@mapbwm@
CONST	SEGMENT
??_C@_06KCEKGFCD@mapbwm@ DB 'mapbwm', 00H		; `string'
CONST	ENDS
;	COMDAT ??_C@_06KDIIAPBE@mapbvm@
CONST	SEGMENT
??_C@_06KDIIAPBE@mapbvm@ DB 'mapbvm', 00H		; `string'
CONST	ENDS
;	COMDAT ??_C@_06KBMOLBEN@mapbum@
CONST	SEGMENT
??_C@_06KBMOLBEN@mapbum@ DB 'mapbum', 00H		; `string'
CONST	ENDS
;	COMDAT ??_C@_06KAAMNLHK@mapbtm@
CONST	SEGMENT
??_C@_06KAAMNLHK@mapbtm@ DB 'mapbtm', 00H		; `string'
CONST	ENDS
;	COMDAT ??_C@_06KFEDMNPP@mapbsm@
CONST	SEGMENT
??_C@_06KFEDMNPP@mapbsm@ DB 'mapbsm', 00H		; `string'
CONST	ENDS
;	COMDAT ??_C@_06KEIBKHMI@mapbrm@
CONST	SEGMENT
??_C@_06KEIBKHMI@mapbrm@ DB 'mapbrm', 00H		; `string'
CONST	ENDS
;	COMDAT ??_C@_06KGMHBJJB@mapbqm@
CONST	SEGMENT
??_C@_06KGMHBJJB@mapbqm@ DB 'mapbqm', 00H		; `string'
CONST	ENDS
;	COMDAT ??_C@_06KHAFHDKG@mapbpm@
CONST	SEGMENT
??_C@_06KHAFHDKG@mapbpm@ DB 'mapbpm', 00H		; `string'
CONST	ENDS
;	COMDAT ??_C@_06LAHPJHOL@mapbom@
CONST	SEGMENT
??_C@_06LAHPJHOL@mapbom@ DB 'mapbom', 00H		; `string'
CONST	ENDS
;	COMDAT ??_C@_06LBLNPNNM@mapbnm@
CONST	SEGMENT
??_C@_06LBLNPNNM@mapbnm@ DB 'mapbnm', 00H		; `string'
CONST	ENDS
;	COMDAT ??_C@_06LDPLEDIF@mapbmm@
CONST	SEGMENT
??_C@_06LDPLEDIF@mapbmm@ DB 'mapbmm', 00H		; `string'
CONST	ENDS
;	COMDAT ??_C@_06LCDJCJLC@mapblm@
CONST	SEGMENT
??_C@_06LCDJCJLC@mapblm@ DB 'mapblm', 00H		; `string'
CONST	ENDS
;	COMDAT ??_C@_06LHHGDPDH@mapbkm@
CONST	SEGMENT
??_C@_06LHHGDPDH@mapbkm@ DB 'mapbkm', 00H		; `string'
CONST	ENDS
;	COMDAT ??_C@_06LGLEFFAA@mapbjm@
CONST	SEGMENT
??_C@_06LGLEFFAA@mapbjm@ DB 'mapbjm', 00H		; `string'
CONST	ENDS
;	COMDAT ??_C@_06LEPCOLFJ@mapbim@
CONST	SEGMENT
??_C@_06LEPCOLFJ@mapbim@ DB 'mapbim', 00H		; `string'
CONST	ENDS
;	COMDAT ??_C@_06LFDAIBGO@mapbhm@
CONST	SEGMENT
??_C@_06LFDAIBGO@mapbhm@ DB 'mapbhm', 00H		; `string'
CONST	ENDS
;	COMDAT ??_C@_06LOGMMGFD@mapbgm@
CONST	SEGMENT
??_C@_06LOGMMGFD@mapbgm@ DB 'mapbgm', 00H		; `string'
CONST	ENDS
;	COMDAT ??_C@_06LPKOKMGE@mapbfm@
CONST	SEGMENT
??_C@_06LPKOKMGE@mapbfm@ DB 'mapbfm', 00H		; `string'
CONST	ENDS
;	COMDAT ??_C@_06LNOIBCDN@mapbem@
CONST	SEGMENT
??_C@_06LNOIBCDN@mapbem@ DB 'mapbem', 00H		; `string'
CONST	ENDS
;	COMDAT ??_C@_06LMCKHIAK@mapbdm@
CONST	SEGMENT
??_C@_06LMCKHIAK@mapbdm@ DB 'mapbdm', 00H		; `string'
CONST	ENDS
;	COMDAT ??_C@_06LJGFGOIP@mapbcm@
CONST	SEGMENT
??_C@_06LJGFGOIP@mapbcm@ DB 'mapbcm', 00H		; `string'
CONST	ENDS
;	COMDAT ??_C@_06LIKHAELI@mapbbm@
CONST	SEGMENT
??_C@_06LIKHAELI@mapbbm@ DB 'mapbbm', 00H		; `string'
CONST	ENDS
;	COMDAT ??_C@_06LKOBLKOB@mapbam@
CONST	SEGMENT
??_C@_06LKOBLKOB@mapbam@ DB 'mapbam', 00H		; `string'
CONST	ENDS
;	COMDAT ??_C@_06NIEOMFOJ@mapb9m@
CONST	SEGMENT
??_C@_06NIEOMFOJ@mapb9m@ DB 'mapb9m', 00H		; `string'
CONST	ENDS
;	COMDAT ??_C@_06NJIMKPNO@mapb8m@
CONST	SEGMENT
??_C@_06NJIMKPNO@mapb8m@ DB 'mapb8m', 00H		; `string'
CONST	ENDS
;	COMDAT ??_C@_06NCNAOIOD@mapb7m@
CONST	SEGMENT
??_C@_06NCNAOIOD@mapb7m@ DB 'mapb7m', 00H		; `string'
CONST	ENDS
;	COMDAT ??_C@_06NDBCICNE@mapb6m@
CONST	SEGMENT
??_C@_06NDBCICNE@mapb6m@ DB 'mapb6m', 00H		; `string'
CONST	ENDS
;	COMDAT ??_C@_06NBFEDMIN@mapb5m@
CONST	SEGMENT
??_C@_06NBFEDMIN@mapb5m@ DB 'mapb5m', 00H		; `string'
CONST	ENDS
;	COMDAT ??_C@_06NAJGFGLK@mapb4m@
CONST	SEGMENT
??_C@_06NAJGFGLK@mapb4m@ DB 'mapb4m', 00H		; `string'
CONST	ENDS
;	COMDAT ??_C@_06NFNJEADP@mapb3m@
CONST	SEGMENT
??_C@_06NFNJEADP@mapb3m@ DB 'mapb3m', 00H		; `string'
CONST	ENDS
;	COMDAT ??_C@_06NEBLCKAI@mapb2m@
CONST	SEGMENT
??_C@_06NEBLCKAI@mapb2m@ DB 'mapb2m', 00H		; `string'
CONST	ENDS
;	COMDAT ??_C@_06NGFNJEFB@mapb1m@
CONST	SEGMENT
??_C@_06NGFNJEFB@mapb1m@ DB 'mapb1m', 00H		; `string'
CONST	ENDS
;	COMDAT ??_C@_06NHJPPOGG@mapb0m@
CONST	SEGMENT
??_C@_06NHJPPOGG@mapb0m@ DB 'mapb0m', 00H		; `string'
CONST	ENDS
;	COMDAT ??_C@_06LICHFJJO@mapazm@
CONST	SEGMENT
??_C@_06LICHFJJO@mapazm@ DB 'mapazm', 00H		; `string'
CONST	ENDS
;	COMDAT ??_C@_06LKGBOHMH@mapaym@
CONST	SEGMENT
??_C@_06LKGBOHMH@mapaym@ DB 'mapaym', 00H		; `string'
CONST	ENDS
;	COMDAT ??_C@_06LLKDINPA@mapaxm@
CONST	SEGMENT
??_C@_06LLKDINPA@mapaxm@ DB 'mapaxm', 00H		; `string'
CONST	ENDS
;	COMDAT ??_C@_06LAPPMKMN@mapawm@
CONST	SEGMENT
??_C@_06LAPPMKMN@mapawm@ DB 'mapawm', 00H		; `string'
CONST	ENDS
;	COMDAT ??_C@_06LBDNKAPK@mapavm@
CONST	SEGMENT
??_C@_06LBDNKAPK@mapavm@ DB 'mapavm', 00H		; `string'
CONST	ENDS
;	COMDAT ??_C@_06LDHLBOKD@mapaum@
CONST	SEGMENT
??_C@_06LDHLBOKD@mapaum@ DB 'mapaum', 00H		; `string'
CONST	ENDS
;	COMDAT ??_C@_06LCLJHEJE@mapatm@
CONST	SEGMENT
??_C@_06LCLJHEJE@mapatm@ DB 'mapatm', 00H		; `string'
CONST	ENDS
;	COMDAT ??_C@_06LHPGGCBB@mapasm@
CONST	SEGMENT
??_C@_06LHPGGCBB@mapasm@ DB 'mapasm', 00H		; `string'
CONST	ENDS
;	COMDAT ??_C@_06LGDEAICG@maparm@
CONST	SEGMENT
??_C@_06LGDEAICG@maparm@ DB 'maparm', 00H		; `string'
CONST	ENDS
;	COMDAT ??_C@_06LEHCLGHP@mapaqm@
CONST	SEGMENT
??_C@_06LEHCLGHP@mapaqm@ DB 'mapaqm', 00H		; `string'
CONST	ENDS
;	COMDAT ??_C@_06LFLANMEI@mapapm@
CONST	SEGMENT
??_C@_06LFLANMEI@mapapm@ DB 'mapapm', 00H		; `string'
CONST	ENDS
;	COMDAT ??_C@_06KCMKDIAF@mapaom@
CONST	SEGMENT
??_C@_06KCMKDIAF@mapaom@ DB 'mapaom', 00H		; `string'
CONST	ENDS
;	COMDAT ??_C@_06KDAIFCDC@mapanm@
CONST	SEGMENT
??_C@_06KDAIFCDC@mapanm@ DB 'mapanm', 00H		; `string'
CONST	ENDS
;	COMDAT ??_C@_06KBEOOMGL@mapamm@
CONST	SEGMENT
??_C@_06KBEOOMGL@mapamm@ DB 'mapamm', 00H		; `string'
CONST	ENDS
;	COMDAT ??_C@_06KAIMIGFM@mapalm@
CONST	SEGMENT
??_C@_06KAIMIGFM@mapalm@ DB 'mapalm', 00H		; `string'
CONST	ENDS
;	COMDAT ??_C@_06KFMDJANJ@mapakm@
CONST	SEGMENT
??_C@_06KFMDJANJ@mapakm@ DB 'mapakm', 00H		; `string'
CONST	ENDS
;	COMDAT ??_C@_06KEABPKOO@mapajm@
CONST	SEGMENT
??_C@_06KEABPKOO@mapajm@ DB 'mapajm', 00H		; `string'
CONST	ENDS
;	COMDAT ??_C@_06KGEHEELH@mapaim@
CONST	SEGMENT
??_C@_06KGEHEELH@mapaim@ DB 'mapaim', 00H		; `string'
CONST	ENDS
;	COMDAT ??_C@_06KHIFCOIA@mapahm@
CONST	SEGMENT
??_C@_06KHIFCOIA@mapahm@ DB 'mapahm', 00H		; `string'
CONST	ENDS
;	COMDAT ??_C@_06KMNJGJLN@mapagm@
CONST	SEGMENT
??_C@_06KMNJGJLN@mapagm@ DB 'mapagm', 00H		; `string'
CONST	ENDS
;	COMDAT ??_C@_06KNBLADIK@mapafm@
CONST	SEGMENT
??_C@_06KNBLADIK@mapafm@ DB 'mapafm', 00H		; `string'
CONST	ENDS
;	COMDAT ??_C@_06KPFNLNND@mapaem@
CONST	SEGMENT
??_C@_06KPFNLNND@mapaem@ DB 'mapaem', 00H		; `string'
CONST	ENDS
;	COMDAT ??_C@_06KOJPNHOE@mapadm@
CONST	SEGMENT
??_C@_06KOJPNHOE@mapadm@ DB 'mapadm', 00H		; `string'
CONST	ENDS
;	COMDAT ??_C@_06KLNAMBGB@mapacm@
CONST	SEGMENT
??_C@_06KLNAMBGB@mapacm@ DB 'mapacm', 00H		; `string'
CONST	ENDS
;	COMDAT ??_C@_06KKBCKLFG@mapabm@
CONST	SEGMENT
??_C@_06KKBCKLFG@mapabm@ DB 'mapabm', 00H		; `string'
CONST	ENDS
;	COMDAT ??_C@_06KIFEBFAP@mapaam@
CONST	SEGMENT
??_C@_06KIFEBFAP@mapaam@ DB 'mapaam', 00H		; `string'
CONST	ENDS
;	COMDAT ??_C@_06MKPLGKAH@mapa9m@
CONST	SEGMENT
??_C@_06MKPLGKAH@mapa9m@ DB 'mapa9m', 00H		; `string'
CONST	ENDS
;	COMDAT ??_C@_06MLDJAADA@mapa8m@
CONST	SEGMENT
??_C@_06MLDJAADA@mapa8m@ DB 'mapa8m', 00H		; `string'
CONST	ENDS
;	COMDAT ??_C@_06MAGFEHAN@mapa7m@
CONST	SEGMENT
??_C@_06MAGFEHAN@mapa7m@ DB 'mapa7m', 00H		; `string'
CONST	ENDS
;	COMDAT ??_C@_06MBKHCNDK@mapa6m@
CONST	SEGMENT
??_C@_06MBKHCNDK@mapa6m@ DB 'mapa6m', 00H		; `string'
CONST	ENDS
;	COMDAT ??_C@_06MDOBJDGD@mapa5m@
CONST	SEGMENT
??_C@_06MDOBJDGD@mapa5m@ DB 'mapa5m', 00H		; `string'
CONST	ENDS
;	COMDAT ??_C@_06MCCDPJFE@mapa4m@
CONST	SEGMENT
??_C@_06MCCDPJFE@mapa4m@ DB 'mapa4m', 00H		; `string'
CONST	ENDS
;	COMDAT ??_C@_06MHGMOPNB@mapa3m@
CONST	SEGMENT
??_C@_06MHGMOPNB@mapa3m@ DB 'mapa3m', 00H		; `string'
CONST	ENDS
;	COMDAT ??_C@_06MGKOIFOG@mapa2m@
CONST	SEGMENT
??_C@_06MGKOIFOG@mapa2m@ DB 'mapa2m', 00H		; `string'
CONST	ENDS
;	COMDAT ??_C@_06MEOIDLLP@mapa1m@
CONST	SEGMENT
??_C@_06MEOIDLLP@mapa1m@ DB 'mapa1m', 00H		; `string'
CONST	ENDS
;	COMDAT ??_C@_06MFCKFBII@mapa0m@
CONST	SEGMENT
??_C@_06MFCKFBII@mapa0m@ DB 'mapa0m', 00H		; `string'
CONST	ENDS
;	COMDAT ??_C@_06MEECENEK@map99m@
CONST	SEGMENT
??_C@_06MEECENEK@map99m@ DB 'map99m', 00H		; `string'
CONST	ENDS
;	COMDAT ??_C@_06MFIACHHN@map98m@
CONST	SEGMENT
??_C@_06MFIACHHN@map98m@ DB 'map98m', 00H		; `string'
CONST	ENDS
;	COMDAT ??_C@_06MONMGAEA@map97m@
CONST	SEGMENT
??_C@_06MONMGAEA@map97m@ DB 'map97m', 00H		; `string'
CONST	ENDS
;	COMDAT ??_C@_06MPBOAKHH@map96m@
CONST	SEGMENT
??_C@_06MPBOAKHH@map96m@ DB 'map96m', 00H		; `string'
CONST	ENDS
;	COMDAT ??_C@_06MNFILECO@map95m@
CONST	SEGMENT
??_C@_06MNFILECO@map95m@ DB 'map95m', 00H		; `string'
CONST	ENDS
;	COMDAT ??_C@_06MMJKNOBJ@map94m@
CONST	SEGMENT
??_C@_06MMJKNOBJ@map94m@ DB 'map94m', 00H		; `string'
CONST	ENDS
;	COMDAT ??_C@_06MJNFMIJM@map93m@
CONST	SEGMENT
??_C@_06MJNFMIJM@map93m@ DB 'map93m', 00H		; `string'
CONST	ENDS
;	COMDAT ??_C@_06MIBHKCKL@map92m@
CONST	SEGMENT
??_C@_06MIBHKCKL@map92m@ DB 'map92m', 00H		; `string'
CONST	ENDS
;	COMDAT ??_C@_06MKFBBMPC@map91m@
CONST	SEGMENT
??_C@_06MKFBBMPC@map91m@ DB 'map91m', 00H		; `string'
CONST	ENDS
;	COMDAT ??_C@_06MLJDHGMF@map90m@
CONST	SEGMENT
??_C@_06MLJDHGMF@map90m@ DB 'map90m', 00H		; `string'
CONST	ENDS
;	COMDAT ??_C@_06HMPOCKCP@map89m@
CONST	SEGMENT
??_C@_06HMPOCKCP@map89m@ DB 'map89m', 00H		; `string'
CONST	ENDS
;	COMDAT ??_C@_06HNDMEABI@map88m@
CONST	SEGMENT
??_C@_06HNDMEABI@map88m@ DB 'map88m', 00H		; `string'
CONST	ENDS
;	COMDAT ??_C@_06HGGAAHCF@map87m@
CONST	SEGMENT
??_C@_06HGGAAHCF@map87m@ DB 'map87m', 00H		; `string'
CONST	ENDS
;	COMDAT ??_C@_06HHKCGNBC@map86m@
CONST	SEGMENT
??_C@_06HHKCGNBC@map86m@ DB 'map86m', 00H		; `string'
CONST	ENDS
;	COMDAT ??_C@_06HFOENDEL@map85m@
CONST	SEGMENT
??_C@_06HFOENDEL@map85m@ DB 'map85m', 00H		; `string'
CONST	ENDS
;	COMDAT ??_C@_06HECGLJHM@map84m@
CONST	SEGMENT
??_C@_06HECGLJHM@map84m@ DB 'map84m', 00H		; `string'
CONST	ENDS
;	COMDAT ??_C@_06HBGJKPPJ@map83m@
CONST	SEGMENT
??_C@_06HBGJKPPJ@map83m@ DB 'map83m', 00H		; `string'
CONST	ENDS
;	COMDAT ??_C@_06HAKLMFMO@map82m@
CONST	SEGMENT
??_C@_06HAKLMFMO@map82m@ DB 'map82m', 00H		; `string'
CONST	ENDS
;	COMDAT ??_C@_06HCONHLJH@map81m@
CONST	SEGMENT
??_C@_06HCONHLJH@map81m@ DB 'map81m', 00H		; `string'
CONST	ENDS
;	COMDAT ??_C@_06HDCPBBKA@map80m@
CONST	SEGMENT
??_C@_06HDCPBBKA@map80m@ DB 'map80m', 00H		; `string'
CONST	ENDS
;	COMDAT ??_C@_06CEJNDKHJ@map79m@
CONST	SEGMENT
??_C@_06CEJNDKHJ@map79m@ DB 'map79m', 00H		; `string'
CONST	ENDS
;	COMDAT ??_C@_06CFFPFAEO@map78m@
CONST	SEGMENT
??_C@_06CFFPFAEO@map78m@ DB 'map78m', 00H		; `string'
CONST	ENDS
;	COMDAT ??_C@_06COADBHHD@map77m@
CONST	SEGMENT
??_C@_06COADBHHD@map77m@ DB 'map77m', 00H		; `string'
CONST	ENDS
;	COMDAT ??_C@_06CPMBHNEE@map76m@
CONST	SEGMENT
??_C@_06CPMBHNEE@map76m@ DB 'map76m', 00H		; `string'
CONST	ENDS
;	COMDAT ??_C@_06CNIHMDBN@map75m@
CONST	SEGMENT
??_C@_06CNIHMDBN@map75m@ DB 'map75m', 00H		; `string'
CONST	ENDS
;	COMDAT ??_C@_06CMEFKJCK@map74m@
CONST	SEGMENT
??_C@_06CMEFKJCK@map74m@ DB 'map74m', 00H		; `string'
CONST	ENDS
;	COMDAT ??_C@_06CJAKLPKP@map73m@
CONST	SEGMENT
??_C@_06CJAKLPKP@map73m@ DB 'map73m', 00H		; `string'
CONST	ENDS
;	COMDAT ??_C@_06CIMINFJI@map72m@
CONST	SEGMENT
??_C@_06CIMINFJI@map72m@ DB 'map72m', 00H		; `string'
CONST	ENDS
;	COMDAT ??_C@_06CKIOGLMB@map71m@
CONST	SEGMENT
??_C@_06CKIOGLMB@map71m@ DB 'map71m', 00H		; `string'
CONST	ENDS
;	COMDAT ??_C@_06CLEMABPG@map70m@
CONST	SEGMENT
??_C@_06CLEMABPG@map70m@ DB 'map70m', 00H		; `string'
CONST	ENDS
;	COMDAT ??_C@_06JMCBFNBM@map69m@
CONST	SEGMENT
??_C@_06JMCBFNBM@map69m@ DB 'map69m', 00H		; `string'
CONST	ENDS
;	COMDAT ??_C@_06JNODDHCL@map68m@
CONST	SEGMENT
??_C@_06JNODDHCL@map68m@ DB 'map68m', 00H		; `string'
CONST	ENDS
;	COMDAT ??_C@_06JGLPHABG@map67m@
CONST	SEGMENT
??_C@_06JGLPHABG@map67m@ DB 'map67m', 00H		; `string'
CONST	ENDS
;	COMDAT ??_C@_06JHHNBKCB@map66m@
CONST	SEGMENT
??_C@_06JHHNBKCB@map66m@ DB 'map66m', 00H		; `string'
CONST	ENDS
;	COMDAT ??_C@_06JFDLKEHI@map65m@
CONST	SEGMENT
??_C@_06JFDLKEHI@map65m@ DB 'map65m', 00H		; `string'
CONST	ENDS
;	COMDAT ??_C@_06JEPJMOEP@map64m@
CONST	SEGMENT
??_C@_06JEPJMOEP@map64m@ DB 'map64m', 00H		; `string'
CONST	ENDS
;	COMDAT ??_C@_06JBLGNIMK@map63m@
CONST	SEGMENT
??_C@_06JBLGNIMK@map63m@ DB 'map63m', 00H		; `string'
CONST	ENDS
;	COMDAT ??_C@_06JAHELCPN@map62m@
CONST	SEGMENT
??_C@_06JAHELCPN@map62m@ DB 'map62m', 00H		; `string'
CONST	ENDS
;	COMDAT ??_C@_06JCDCAMKE@map61m@
CONST	SEGMENT
??_C@_06JCDCAMKE@map61m@ DB 'map61m', 00H		; `string'
CONST	ENDS
;	COMDAT ??_C@_06JDPAGGJD@map60m@
CONST	SEGMENT
??_C@_06JDPAGGJD@map60m@ DB 'map60m', 00H		; `string'
CONST	ENDS
;	COMDAT ??_C@_06IOJEPCPC@map59m@
CONST	SEGMENT
??_C@_06IOJEPCPC@map59m@ DB 'map59m', 00H		; `string'
CONST	ENDS
;	COMDAT ??_C@_06IPFGJIMF@map58m@
CONST	SEGMENT
??_C@_06IPFGJIMF@map58m@ DB 'map58m', 00H		; `string'
CONST	ENDS
;	COMDAT ??_C@_06IEAKNPPI@map57m@
CONST	SEGMENT
??_C@_06IEAKNPPI@map57m@ DB 'map57m', 00H		; `string'
CONST	ENDS
;	COMDAT ??_C@_06IFMILFMP@map56m@
CONST	SEGMENT
??_C@_06IFMILFMP@map56m@ DB 'map56m', 00H		; `string'
CONST	ENDS
;	COMDAT ??_C@_06IHIOALJG@map55m@
CONST	SEGMENT
??_C@_06IHIOALJG@map55m@ DB 'map55m', 00H		; `string'
CONST	ENDS
;	COMDAT ??_C@_06IGEMGBKB@map54m@
CONST	SEGMENT
??_C@_06IGEMGBKB@map54m@ DB 'map54m', 00H		; `string'
CONST	ENDS
;	COMDAT ??_C@_06IDADHHCE@map53m@
CONST	SEGMENT
??_C@_06IDADHHCE@map53m@ DB 'map53m', 00H		; `string'
CONST	ENDS
;	COMDAT ??_C@_06ICMBBNBD@map52m@
CONST	SEGMENT
??_C@_06ICMBBNBD@map52m@ DB 'map52m', 00H		; `string'
CONST	ENDS
;	COMDAT ??_C@_06IAIHKDEK@map51m@
CONST	SEGMENT
??_C@_06IAIHKDEK@map51m@ DB 'map51m', 00H		; `string'
CONST	ENDS
;	COMDAT ??_C@_06IBEFMJHN@map50m@
CONST	SEGMENT
??_C@_06IBEFMJHN@map50m@ DB 'map50m', 00H		; `string'
CONST	ENDS
;	COMDAT ??_C@_06DGCIJFJH@map49m@
CONST	SEGMENT
??_C@_06DGCIJFJH@map49m@ DB 'map49m', 00H		; `string'
CONST	ENDS
;	COMDAT ??_C@_06DHOKPPKA@map48m@
CONST	SEGMENT
??_C@_06DHOKPPKA@map48m@ DB 'map48m', 00H		; `string'
CONST	ENDS
;	COMDAT ??_C@_06DMLGLIJN@map47m@
CONST	SEGMENT
??_C@_06DMLGLIJN@map47m@ DB 'map47m', 00H		; `string'
CONST	ENDS
;	COMDAT ??_C@_06DNHENCKK@map46m@
CONST	SEGMENT
??_C@_06DNHENCKK@map46m@ DB 'map46m', 00H		; `string'
CONST	ENDS
;	COMDAT ??_C@_06DPDCGMPD@map45m@
CONST	SEGMENT
??_C@_06DPDCGMPD@map45m@ DB 'map45m', 00H		; `string'
CONST	ENDS
;	COMDAT ??_C@_06DOPAAGME@map44m@
CONST	SEGMENT
??_C@_06DOPAAGME@map44m@ DB 'map44m', 00H		; `string'
CONST	ENDS
;	COMDAT ??_C@_06DLLPBAEB@map43m@
CONST	SEGMENT
??_C@_06DLLPBAEB@map43m@ DB 'map43m', 00H		; `string'
CONST	ENDS
;	COMDAT ??_C@_06DKHNHKHG@map42m@
CONST	SEGMENT
??_C@_06DKHNHKHG@map42m@ DB 'map42m', 00H		; `string'
CONST	ENDS
;	COMDAT ??_C@_06DIDLMECP@map41m@
CONST	SEGMENT
??_C@_06DIDLMECP@map41m@ DB 'map41m', 00H		; `string'
CONST	ENDS
;	COMDAT ??_C@_06DJPJKOBI@map40m@
CONST	SEGMENT
??_C@_06DJPJKOBI@map40m@ DB 'map40m', 00H		; `string'
CONST	ENDS
;	COMDAT ??_C@_06KLPPKNCO@map39m@
CONST	SEGMENT
??_C@_06KLPPKNCO@map39m@ DB 'map39m', 00H		; `string'
CONST	ENDS
;	COMDAT ??_C@_06KKDNMHBJ@map38m@
CONST	SEGMENT
??_C@_06KKDNMHBJ@map38m@ DB 'map38m', 00H		; `string'
CONST	ENDS
;	COMDAT ??_C@_06KBGBIACE@map37m@
CONST	SEGMENT
??_C@_06KBGBIACE@map37m@ DB 'map37m', 00H		; `string'
CONST	ENDS
;	COMDAT ??_C@_06KAKDOKBD@map36m@
CONST	SEGMENT
??_C@_06KAKDOKBD@map36m@ DB 'map36m', 00H		; `string'
CONST	ENDS
;	COMDAT ??_C@_06KCOFFEEK@map35m@
CONST	SEGMENT
??_C@_06KCOFFEEK@map35m@ DB 'map35m', 00H		; `string'
CONST	ENDS
;	COMDAT ??_C@_06KDCHDOHN@map34m@
CONST	SEGMENT
??_C@_06KDCHDOHN@map34m@ DB 'map34m', 00H		; `string'
CONST	ENDS
;	COMDAT ??_C@_06KGGICIPI@map33m@
CONST	SEGMENT
??_C@_06KGGICIPI@map33m@ DB 'map33m', 00H		; `string'
CONST	ENDS
;	COMDAT ??_C@_06KHKKECMP@map32m@
CONST	SEGMENT
??_C@_06KHKKECMP@map32m@ DB 'map32m', 00H		; `string'
CONST	ENDS
;	COMDAT ??_C@_06KFOMPMJG@map31m@
CONST	SEGMENT
??_C@_06KFOMPMJG@map31m@ DB 'map31m', 00H		; `string'
CONST	ENDS
;	COMDAT ??_C@_06KECOJGKB@map30m@
CONST	SEGMENT
??_C@_06KECOJGKB@map30m@ DB 'map30m', 00H		; `string'
CONST	ENDS
;	COMDAT ??_C@_06BDEDMKEL@map29m@
CONST	SEGMENT
??_C@_06BDEDMKEL@map29m@ DB 'map29m', 00H		; `string'
CONST	ENDS
;	COMDAT ??_C@_06BCIBKAHM@map28m@
CONST	SEGMENT
??_C@_06BCIBKAHM@map28m@ DB 'map28m', 00H		; `string'
CONST	ENDS
;	COMDAT ??_C@_06BJNNOHEB@map27m@
CONST	SEGMENT
??_C@_06BJNNOHEB@map27m@ DB 'map27m', 00H		; `string'
CONST	ENDS
;	COMDAT ??_C@_06BIBPINHG@map26m@
CONST	SEGMENT
??_C@_06BIBPINHG@map26m@ DB 'map26m', 00H		; `string'
CONST	ENDS
;	COMDAT ??_C@_06BKFJDDCP@map25m@
CONST	SEGMENT
??_C@_06BKFJDDCP@map25m@ DB 'map25m', 00H		; `string'
CONST	ENDS
;	COMDAT ??_C@_06BLJLFJBI@map24m@
CONST	SEGMENT
??_C@_06BLJLFJBI@map24m@ DB 'map24m', 00H		; `string'
CONST	ENDS
;	COMDAT ??_C@_06BONEEPJN@map23m@
CONST	SEGMENT
??_C@_06BONEEPJN@map23m@ DB 'map23m', 00H		; `string'
CONST	ENDS
;	COMDAT ??_C@_06BPBGCFKK@map22m@
CONST	SEGMENT
??_C@_06BPBGCFKK@map22m@ DB 'map22m', 00H		; `string'
CONST	ENDS
;	COMDAT ??_C@_06BNFAJLPD@map21m@
CONST	SEGMENT
??_C@_06BNFAJLPD@map21m@ DB 'map21m', 00H		; `string'
CONST	ENDS
;	COMDAT ??_C@_06BMJCPBME@map20m@
CONST	SEGMENT
??_C@_06BMJCPBME@map20m@ DB 'map20m', 00H		; `string'
CONST	ENDS
;	COMDAT ??_C@_06BPGGFKF@map19m@
CONST	SEGMENT
??_C@_06BPGGFKF@map19m@ DB 'map19m', 00H		; `string'
CONST	ENDS
;	COMDAT ??_C@_06DEAPJC@map18m@
CONST	SEGMENT
??_C@_06DEAPJC@map18m@ DB 'map18m', 00H			; `string'
CONST	ENDS
;	COMDAT ??_C@_06LGIEIKP@map17m@
CONST	SEGMENT
??_C@_06LGIEIKP@map17m@ DB 'map17m', 00H		; `string'
CONST	ENDS
;	COMDAT ??_C@_06KKKCCJI@map16m@
CONST	SEGMENT
??_C@_06KKKCCJI@map16m@ DB 'map16m', 00H		; `string'
CONST	ENDS
;	COMDAT ??_C@_06IOMJMMB@map15m@
CONST	SEGMENT
??_C@_06IOMJMMB@map15m@ DB 'map15m', 00H		; `string'
CONST	ENDS
;	COMDAT ??_C@_06JCOPGPG@map14m@
CONST	SEGMENT
??_C@_06JCOPGPG@map14m@ DB 'map14m', 00H		; `string'
CONST	ENDS
;	COMDAT ??_C@_06MGBOAHD@map13m@
CONST	SEGMENT
??_C@_06MGBOAHD@map13m@ DB 'map13m', 00H		; `string'
CONST	ENDS
;	COMDAT ??_C@_06NKDIKEE@map12m@
CONST	SEGMENT
??_C@_06NKDIKEE@map12m@ DB 'map12m', 00H		; `string'
CONST	ENDS
;	COMDAT ??_C@_06POFDEBN@map11m@
CONST	SEGMENT
??_C@_06POFDEBN@map11m@ DB 'map11m', 00H		; `string'
CONST	ENDS
;	COMDAT ??_C@_06OCHFOCK@map10m@
CONST	SEGMENT
??_C@_06OCHFOCK@map10m@ DB 'map10m', 00H		; `string'
CONST	ENDS
;	COMDAT ??_C@_06LJEKACMA@map09m@
CONST	SEGMENT
??_C@_06LJEKACMA@map09m@ DB 'map09m', 00H		; `string'
CONST	ENDS
;	COMDAT ??_C@_06LIIIGIPH@map08m@
CONST	SEGMENT
??_C@_06LIIIGIPH@map08m@ DB 'map08m', 00H		; `string'
CONST	ENDS
;	COMDAT ??_C@_06LDNECPMK@map07m@
CONST	SEGMENT
??_C@_06LDNECPMK@map07m@ DB 'map07m', 00H		; `string'
CONST	ENDS
;	COMDAT ??_C@_06LCBGEFPN@map06m@
CONST	SEGMENT
??_C@_06LCBGEFPN@map06m@ DB 'map06m', 00H		; `string'
CONST	ENDS
;	COMDAT ??_C@_06LAFAPLKE@map05m@
CONST	SEGMENT
??_C@_06LAFAPLKE@map05m@ DB 'map05m', 00H		; `string'
CONST	ENDS
;	COMDAT ??_C@_06LBJCJBJD@map04m@
CONST	SEGMENT
??_C@_06LBJCJBJD@map04m@ DB 'map04m', 00H		; `string'
CONST	ENDS
;	COMDAT ??_C@_06LENNIHBG@map03m@
CONST	SEGMENT
??_C@_06LENNIHBG@map03m@ DB 'map03m', 00H		; `string'
CONST	ENDS
;	COMDAT ??_C@_06LFBPONCB@map02m@
CONST	SEGMENT
??_C@_06LFBPONCB@map02m@ DB 'map02m', 00H		; `string'
CONST	ENDS
;	COMDAT ??_C@_06LHFJFDHI@map01m@
CONST	SEGMENT
??_C@_06LHFJFDHI@map01m@ DB 'map01m', 00H		; `string'
CONST	ENDS
_DATA	SEGMENT
_S_sfx	DD	FLAT:??_C@_04CGFJFPFD@none@
	DD	00H
	DD	00H
	DD	00H
	DD	0ffffffffH
	DD	00H
	DD	00H
	DD	0ffffffffH
	DD	0ffffffffH
	DD	0ffffffffH
	DD	00H
	DD	FLAT:??_C@_05NFOLCBFN@alarm@
	DD	00H
	DD	07fH
	DD	00H
	DD	0ffffffffH
	DD	00H
	DD	00H
	DD	0ffffffffH
	DD	0ffffffffH
	DD	0ffffffffH
	DD	00H
	DD	FLAT:??_C@_06JCJHJLH@altdi1@
	DD	00H
	DD	040H
	DD	010H
	DD	0ffffffffH
	DD	00H
	DD	00H
	DD	07H
	DD	0ffffffffH
	DD	0ffffffffH
	DD	00H
	DD	FLAT:??_C@_06CCAECKHE@altdi2@
	DD	00H
	DD	040H
	DD	010H
	DD	0ffffffffH
	DD	00H
	DD	00H
	DD	08H
	DD	0ffffffffH
	DD	0ffffffffH
	DD	00H
	DD	FLAT:??_C@_06DLBPBLDF@altdi3@
	DD	00H
	DD	040H
	DD	010H
	DD	0ffffffffH
	DD	00H
	DD	00H
	DD	09H
	DD	0ffffffffH
	DD	0ffffffffH
	DD	00H
	DD	FLAT:??_C@_06HEFOINPC@altdi4@
	DD	00H
	DD	040H
	DD	010H
	DD	0ffffffffH
	DD	00H
	DD	00H
	DD	0aH
	DD	0ffffffffH
	DD	0ffffffffH
	DD	00H
	DD	FLAT:??_C@_06MIJAHAMM@altow1@
	DD	00H
	DD	040H
	DD	010H
	DD	0ffffffffH
	DD	00H
	DD	00H
	DD	03H
	DD	0ffffffffH
	DD	0ffffffffH
	DD	00H
	DD	FLAT:??_C@_06ODLNCDAP@altow2@
	DD	00H
	DD	040H
	DD	010H
	DD	0ffffffffH
	DD	00H
	DD	00H
	DD	04H
	DD	0ffffffffH
	DD	0ffffffffH
	DD	00H
	DD	FLAT:??_C@_06PKKGBCEO@altow3@
	DD	00H
	DD	040H
	DD	010H
	DD	0ffffffffH
	DD	00H
	DD	00H
	DD	05H
	DD	0ffffffffH
	DD	0ffffffffH
	DD	00H
	DD	FLAT:??_C@_06LFOHIEIJ@altow4@
	DD	00H
	DD	040H
	DD	010H
	DD	0ffffffffH
	DD	00H
	DD	00H
	DD	06H
	DD	0ffffffffH
	DD	0ffffffffH
	DD	00H
	DD	FLAT:??_C@_06PBNNFFKL@ambin2@
	DD	00H
	DD	040H
	DD	00H
	DD	0ffffffffH
	DD	00H
	DD	00H
	DD	0ffffffffH
	DD	0ffffffffH
	DD	0ffffffffH
	DD	00H
	DD	FLAT:??_C@_06FHPOLNCI@ambint@
	DD	01H
	DD	07fH
	DD	00H
	DD	0ffffffffH
	DD	00H
	DD	00H
	DD	0ffffffffH
	DD	0ffffffffH
	DD	0ffffffffH
	DD	00H
	DD	FLAT:??_C@_06MFLPMLMM@amwtr1@
	DD	00H
	DD	040H
	DD	00H
	DD	0ffffffffH
	DD	00H
	DD	00H
	DD	0ffffffffH
	DD	0ffffffffH
	DD	0ffffffffH
	DD	00H
	DD	FLAT:??_C@_06OOJCJIAP@amwtr2@
	DD	00H
	DD	040H
	DD	00H
	DD	0ffffffffH
	DD	00H
	DD	00H
	DD	0ffffffffH
	DD	0ffffffffH
	DD	0ffffffffH
	DD	00H
	DD	FLAT:??_C@_06PHIJKJEO@amwtr3@
	DD	00H
	DD	040H
	DD	00H
	DD	0ffffffffH
	DD	00H
	DD	00H
	DD	0ffffffffH
	DD	0ffffffffH
	DD	0ffffffffH
	DD	00H
	DD	FLAT:??_C@_06LIMIDPIJ@amwtr4@
	DD	00H
	DD	040H
	DD	00H
	DD	0ffffffffH
	DD	00H
	DD	00H
	DD	0ffffffffH
	DD	0ffffffffH
	DD	0ffffffffH
	DD	00H
	DD	FLAT:??_C@_06KBNDAOMI@amwtr5@
	DD	00H
	DD	040H
	DD	00H
	DD	0ffffffffH
	DD	00H
	DD	00H
	DD	0ffffffffH
	DD	0ffffffffH
	DD	0ffffffffH
	DD	00H
	DD	FLAT:??_C@_06IKPOFNAL@amwtr6@
	DD	00H
	DD	040H
	DD	00H
	DD	0ffffffffH
	DD	00H
	DD	00H
	DD	0ffffffffH
	DD	0ffffffffH
	DD	0ffffffffH
	DD	00H
	DD	FLAT:??_C@_06JDOFGMEK@amwtr7@
	DD	00H
	DD	040H
	DD	00H
	DD	0ffffffffH
	DD	00H
	DD	00H
	DD	0ffffffffH
	DD	0ffffffffH
	DD	0ffffffffH
	DD	00H
	DD	FLAT:??_C@_06BEHNHAIF@amwtr8@
	DD	00H
	DD	040H
	DD	00H
	DD	0ffffffffH
	DD	00H
	DD	00H
	DD	0ffffffffH
	DD	0ffffffffH
	DD	0ffffffffH
	DD	00H
	DD	FLAT:??_C@_04HBCAMDHF@apl1@
	DD	00H
	DD	07fH
	DD	00H
	DD	0ffffffffH
	DD	00H
	DD	00H
	DD	0ffffffffH
	DD	0ffffffffH
	DD	0ffffffffH
	DD	00H
	DD	FLAT:??_C@_04FKANJALG@apl2@
	DD	00H
	DD	07fH
	DD	00H
	DD	0ffffffffH
	DD	00H
	DD	00H
	DD	0ffffffffH
	DD	0ffffffffH
	DD	0ffffffffH
	DD	00H
	DD	FLAT:??_C@_04EDBGKBPH@apl3@
	DD	00H
	DD	07fH
	DD	00H
	DD	0ffffffffH
	DD	00H
	DD	00H
	DD	0ffffffffH
	DD	0ffffffffH
	DD	0ffffffffH
	DD	00H
	DD	FLAT:??_C@_04MFHDHDA@apl4@
	DD	00H
	DD	07fH
	DD	00H
	DD	0ffffffffH
	DD	00H
	DD	00H
	DD	0ffffffffH
	DD	0ffffffffH
	DD	0ffffffffH
	DD	00H
	DD	FLAT:??_C@_04BFEMAGHB@apl5@
	DD	00H
	DD	07fH
	DD	00H
	DD	0ffffffffH
	DD	00H
	DD	00H
	DD	0ffffffffH
	DD	0ffffffffH
	DD	0ffffffffH
	DD	00H
	DD	FLAT:??_C@_04DOGBFFLC@apl6@
	DD	00H
	DD	07fH
	DD	00H
	DD	0ffffffffH
	DD	00H
	DD	00H
	DD	0ffffffffH
	DD	0ffffffffH
	DD	0ffffffffH
	DD	00H
	DD	FLAT:??_C@_06OFEGDHIM@appear@
	DD	00H
	DD	07fH
	DD	00H
	DD	0ffffffffH
	DD	00H
	DD	00H
	DD	0ffffffffH
	DD	0ffffffffH
	DD	0ffffffffH
	DD	00H
	DD	FLAT:??_C@_06KOFGKFLN@athun1@
	DD	00H
	DD	07eH
	DD	02H
	DD	0ffffffffH
	DD	00H
	DD	00H
	DD	0ffffffffH
	DD	0ffffffffH
	DD	0ffffffffH
	DD	00H
	DD	FLAT:??_C@_06IFHLPGHO@athun2@
	DD	00H
	DD	07eH
	DD	02H
	DD	0ffffffffH
	DD	00H
	DD	00H
	DD	0ffffffffH
	DD	0ffffffffH
	DD	0ffffffffH
	DD	00H
	DD	FLAT:??_C@_06JFIDONOE@beedee@
	DD	00H
	DD	07fH
	DD	00H
	DD	0ffffffffH
	DD	00H
	DD	00H
	DD	0ffffffffH
	DD	0ffffffffH
	DD	0ffffffffH
	DD	00H
	DD	FLAT:??_C@_05NBHPCCGB@beeel@
	DD	00H
	DD	07fH
	DD	00H
	DD	0ffffffffH
	DD	00H
	DD	00H
	DD	0ffffffffH
	DD	0ffffffffH
	DD	0ffffffffH
	DD	00H
	DD	FLAT:??_C@_06JECCGPFG@beejay@
	DD	00H
	DD	07fH
	DD	00H
	DD	0ffffffffH
	DD	00H
	DD	00H
	DD	0ffffffffH
	DD	0ffffffffH
	DD	0ffffffffH
	DD	00H
	DD	FLAT:??_C@_05LIIEGCLD@beeoh@
	DD	00H
	DD	07fH
	DD	00H
	DD	0ffffffffH
	DD	00H
	DD	00H
	DD	0ffffffffH
	DD	0ffffffffH
	DD	0ffffffffH
	DD	00H
	DD	FLAT:??_C@_06PGDCMFHC@bkpoof@
	DD	00H
	DD	046H
	DD	08H
	DD	0ffffffffH
	DD	00H
	DD	00H
	DD	0ffffffffH
	DD	0ffffffffH
	DD	0ffffffffH
	DD	00H
	DD	FLAT:??_C@_05IMNBGPLF@bnce1@
	DD	00H
	DD	040H
	DD	00H
	DD	0ffffffffH
	DD	00H
	DD	00H
	DD	0ffffffffH
	DD	0ffffffffH
	DD	0ffffffffH
	DD	00H
	DD	FLAT:??_C@_05KHPMDMHG@bnce2@
	DD	00H
	DD	040H
	DD	00H
	DD	0ffffffffH
	DD	00H
	DD	00H
	DD	0ffffffffH
	DD	0ffffffffH
	DD	0ffffffffH
	DD	00H
	DD	FLAT:??_C@_06NABIMPGM@bubbl1@
	DD	00H
	DD	030H
	DD	00H
	DD	0ffffffffH
	DD	00H
	DD	00H
	DD	0ffffffffH
	DD	0ffffffffH
	DD	0ffffffffH
	DD	00H
	DD	FLAT:??_C@_06PLDFJMKP@bubbl2@
	DD	00H
	DD	030H
	DD	00H
	DD	0ffffffffH
	DD	00H
	DD	00H
	DD	0ffffffffH
	DD	0ffffffffH
	DD	0ffffffffH
	DD	00H
	DD	FLAT:??_C@_06OCCOKNOO@bubbl3@
	DD	00H
	DD	030H
	DD	00H
	DD	0ffffffffH
	DD	00H
	DD	00H
	DD	0ffffffffH
	DD	0ffffffffH
	DD	0ffffffffH
	DD	00H
	DD	FLAT:??_C@_06KNGPDLCJ@bubbl4@
	DD	00H
	DD	030H
	DD	00H
	DD	0ffffffffH
	DD	00H
	DD	00H
	DD	0ffffffffH
	DD	0ffffffffH
	DD	0ffffffffH
	DD	00H
	DD	FLAT:??_C@_06LEHEAKGI@bubbl5@
	DD	00H
	DD	030H
	DD	00H
	DD	0ffffffffH
	DD	00H
	DD	00H
	DD	0ffffffffH
	DD	0ffffffffH
	DD	0ffffffffH
	DD	00H
	DD	FLAT:??_C@_04EJGGPKCK@cgot@
	DD	01H
	DD	078H
	DD	00H
	DD	0ffffffffH
	DD	00H
	DD	00H
	DD	0ffffffffH
	DD	0ffffffffH
	DD	0ffffffffH
	DD	00H
	DD	FLAT:??_C@_06HEJPDCPF@chchng@
	DD	00H
	DD	078H
	DD	00H
	DD	0ffffffffH
	DD	00H
	DD	00H
	DD	0ffffffffH
	DD	0ffffffffH
	DD	0ffffffffH
	DD	00H
	DD	FLAT:??_C@_06OEECKBLH@crumbl@
	DD	01H
	DD	07fH
	DD	00H
	DD	0ffffffffH
	DD	00H
	DD	00H
	DD	0ffffffffH
	DD	0ffffffffH
	DD	0ffffffffH
	DD	00H
	DD	FLAT:??_C@_06FNIKEPKK@cybdth@
	DD	00H
	DD	020H
	DD	00H
	DD	0ffffffffH
	DD	00H
	DD	00H
	DD	0ffffffffH
	DD	0ffffffffH
	DD	0ffffffffH
	DD	00H
	DD	FLAT:??_C@_05NACCBGNC@deton@
	DD	01H
	DD	040H
	DD	00H
	DD	0ffffffffH
	DD	00H
	DD	00H
	DD	0ffffffffH
	DD	0ffffffffH
	DD	0ffffffffH
	DD	00H
	DD	FLAT:??_C@_06GPDAJCNM@dmpain@
	DD	00H
	DD	060H
	DD	00H
	DD	0ffffffffH
	DD	00H
	DD	00H
	DD	0ffffffffH
	DD	0ffffffffH
	DD	0ffffffffH
	DD	00H
	DD	FLAT:??_C@_06LBNENLNG@doora1@
	DD	00H
	DD	040H
	DD	00H
	DD	0ffffffffH
	DD	00H
	DD	00H
	DD	0ffffffffH
	DD	0ffffffffH
	DD	0ffffffffH
	DD	00H
	DD	FLAT:??_C@_06LDJCGFIP@doorb1@
	DD	00H
	DD	040H
	DD	00H
	DD	0ffffffffH
	DD	00H
	DD	00H
	DD	0ffffffffH
	DD	0ffffffffH
	DD	0ffffffffH
	DD	00H
	DD	FLAT:??_C@_06LCFAAPLI@doorc1@
	DD	00H
	DD	040H
	DD	00H
	DD	0ffffffffH
	DD	00H
	DD	00H
	DD	0ffffffffH
	DD	0ffffffffH
	DD	0ffffffffH
	DD	00H
	DD	FLAT:??_C@_06JJHNFMHL@doorc2@
	DD	00H
	DD	040H
	DD	00H
	DD	0ffffffffH
	DD	00H
	DD	00H
	DD	0ffffffffH
	DD	0ffffffffH
	DD	0ffffffffH
	DD	00H
	DD	FLAT:??_C@_06LHBPBJDN@doord1@
	DD	00H
	DD	040H
	DD	00H
	DD	0ffffffffH
	DD	00H
	DD	00H
	DD	0ffffffffH
	DD	0ffffffffH
	DD	0ffffffffH
	DD	00H
	DD	FLAT:??_C@_06JMDCEKPO@doord2@
	DD	00H
	DD	040H
	DD	00H
	DD	0ffffffffH
	DD	00H
	DD	00H
	DD	0ffffffffH
	DD	0ffffffffH
	DD	0ffffffffH
	DD	00H
	DD	FLAT:??_C@_06DJMCIMMM@drill1@
	DD	00H
	DD	040H
	DD	00H
	DD	0ffffffffH
	DD	00H
	DD	00H
	DD	0ffffffffH
	DD	0ffffffffH
	DD	0ffffffffH
	DD	00H
	DD	FLAT:??_C@_06BCOPNPAP@drill2@
	DD	00H
	DD	040H
	DD	00H
	DD	0ffffffffH
	DD	00H
	DD	00H
	DD	0ffffffffH
	DD	0ffffffffH
	DD	0ffffffffH
	DD	00H
	DD	FLAT:??_C@_05IKMIHHNE@drip1@
	DD	00H
	DD	040H
	DD	00H
	DD	0ffffffffH
	DD	00H
	DD	00H
	DD	0ffffffffH
	DD	0ffffffffH
	DD	0ffffffffH
	DD	00H
	DD	FLAT:??_C@_05KBOFCEBH@drip2@
	DD	00H
	DD	040H
	DD	00H
	DD	0ffffffffH
	DD	00H
	DD	00H
	DD	0ffffffffH
	DD	0ffffffffH
	DD	0ffffffffH
	DD	00H
	DD	FLAT:??_C@_05LIPOBFFG@drip3@
	DD	00H
	DD	040H
	DD	00H
	DD	0ffffffffH
	DD	00H
	DD	00H
	DD	0ffffffffH
	DD	0ffffffffH
	DD	0ffffffffH
	DD	00H
	DD	FLAT:??_C@_05PHLPIDJB@drip4@
	DD	00H
	DD	040H
	DD	00H
	DD	0ffffffffH
	DD	00H
	DD	00H
	DD	0ffffffffH
	DD	0ffffffffH
	DD	0ffffffffH
	DD	00H
	DD	FLAT:??_C@_05JHMPHPBG@drown@
	DD	00H
	DD	07fH
	DD	00H
	DD	0ffffffffH
	DD	00H
	DD	00H
	DD	0ffffffffH
	DD	0ffffffffH
	DD	0ffffffffH
	DD	00H
	DD	FLAT:??_C@_06CILJEMCC@dwnind@
	DD	00H
	DD	040H
	DD	00H
	DD	0ffffffffH
	DD	00H
	DD	00H
	DD	0ffffffffH
	DD	0ffffffffH
	DD	0ffffffffH
	DD	00H
	DD	FLAT:??_C@_06FEOFCNDK@eleva1@
	DD	00H
	DD	040H
	DD	00H
	DD	0ffffffffH
	DD	00H
	DD	00H
	DD	0ffffffffH
	DD	0ffffffffH
	DD	0ffffffffH
	DD	00H
	DD	FLAT:??_C@_06HPMIHOPJ@eleva2@
	DD	00H
	DD	040H
	DD	00H
	DD	0ffffffffH
	DD	00H
	DD	00H
	DD	0ffffffffH
	DD	0ffffffffH
	DD	0ffffffffH
	DD	00H
	DD	FLAT:??_C@_06GGNDEPLI@eleva3@
	DD	00H
	DD	040H
	DD	00H
	DD	0ffffffffH
	DD	00H
	DD	00H
	DD	0ffffffffH
	DD	0ffffffffH
	DD	0ffffffffH
	DD	00H
	DD	FLAT:??_C@_06FGKDJDGD@elevb1@
	DD	00H
	DD	040H
	DD	00H
	DD	0ffffffffH
	DD	00H
	DD	00H
	DD	0ffffffffH
	DD	0ffffffffH
	DD	0ffffffffH
	DD	00H
	DD	FLAT:??_C@_06HNIOMAKA@elevb2@
	DD	00H
	DD	040H
	DD	00H
	DD	0ffffffffH
	DD	00H
	DD	00H
	DD	0ffffffffH
	DD	0ffffffffH
	DD	0ffffffffH
	DD	00H
	DD	FLAT:??_C@_06GEJFPBOB@elevb3@
	DD	00H
	DD	040H
	DD	00H
	DD	0ffffffffH
	DD	00H
	DD	00H
	DD	0ffffffffH
	DD	0ffffffffH
	DD	0ffffffffH
	DD	00H
	DD	FLAT:??_C@_06BMPDCNKK@emfind@
	DD	00H
	DD	040H
	DD	00H
	DD	0ffffffffH
	DD	00H
	DD	00H
	DD	0ffffffffH
	DD	0ffffffffH
	DD	0ffffffffH
	DD	00H
	DD	FLAT:??_C@_04CGHOBBFK@fire@
	DD	00H
	DD	040H
	DD	020H
	DD	0ffffffffH
	DD	00H
	DD	00H
	DD	0ffffffffH
	DD	0ffffffffH
	DD	0ffffffffH
	DD	00H
	DD	FLAT:??_C@_06ELKJBCPM@fizzle@
	DD	00H
	DD	07fH
	DD	08H
	DD	0ffffffffH
	DD	00H
	DD	00H
	DD	0ffffffffH
	DD	0ffffffffH
	DD	0ffffffffH
	DD	00H
	DD	FLAT:??_C@_06EJNDBBOL@floush@
	DD	00H
	DD	040H
	DD	00H
	DD	0ffffffffH
	DD	00H
	DD	00H
	DD	0ffffffffH
	DD	0ffffffffH
	DD	0ffffffffH
	DD	00H
	DD	FLAT:??_C@_04OINNJMCG@gasp@
	DD	00H
	DD	040H
	DD	00H
	DD	0ffffffffH
	DD	00H
	DD	00H
	DD	017H
	DD	0ffffffffH
	DD	0ffffffffH
	DD	00H
	DD	FLAT:??_C@_05NFOFDCJP@gbeep@
	DD	00H
	DD	040H
	DD	00H
	DD	0ffffffffH
	DD	00H
	DD	00H
	DD	0ffffffffH
	DD	0ffffffffH
	DD	0ffffffffH
	DD	00H
	DD	FLAT:??_C@_06NDFIBLOM@gclose@
	DD	00H
	DD	040H
	DD	00H
	DD	0ffffffffH
	DD	00H
	DD	00H
	DD	0ffffffffH
	DD	0ffffffffH
	DD	0ffffffffH
	DD	00H
	DD	FLAT:??_C@_04OAAIDAAO@ghit@
	DD	00H
	DD	040H
	DD	00H
	DD	0ffffffffH
	DD	00H
	DD	00H
	DD	0ffffffffH
	DD	0ffffffffH
	DD	0ffffffffH
	DD	00H
	DD	FLAT:??_C@_05IPPOJEM@gloop@
	DD	00H
	DD	03cH
	DD	00H
	DD	0ffffffffH
	DD	00H
	DD	00H
	DD	0ffffffffH
	DD	0ffffffffH
	DD	0ffffffffH
	DD	00H
	DD	FLAT:??_C@_06CODIMGPF@gspray@
	DD	00H
	DD	040H
	DD	00H
	DD	0ffffffffH
	DD	00H
	DD	00H
	DD	0ffffffffH
	DD	0ffffffffH
	DD	0ffffffffH
	DD	00H
	DD	FLAT:??_C@_06GHNLMLEL@gravch@
	DD	00H
	DD	040H
	DD	00H
	DD	0ffffffffH
	DD	00H
	DD	00H
	DD	0ffffffffH
	DD	0ffffffffH
	DD	0ffffffffH
	DD	00H
	DD	FLAT:??_C@_06JIKFICKK@hidden@
	DD	00H
	DD	040H
	DD	00H
	DD	0ffffffffH
	DD	00H
	DD	00H
	DD	0ffffffffH
	DD	0ffffffffH
	DD	0ffffffffH
	DD	00H
	DD	FLAT:??_C@_05EABBLLEA@hoop1@
	DD	00H
	DD	040H
	DD	00H
	DD	0ffffffffH
	DD	00H
	DD	00H
	DD	0ffffffffH
	DD	0ffffffffH
	DD	0ffffffffH
	DD	00H
	DD	FLAT:??_C@_05GLDMOIID@hoop2@
	DD	00H
	DD	040H
	DD	00H
	DD	0ffffffffH
	DD	00H
	DD	00H
	DD	0ffffffffH
	DD	0ffffffffH
	DD	0ffffffffH
	DD	00H
	DD	FLAT:??_C@_05HCCHNJMC@hoop3@
	DD	00H
	DD	040H
	DD	00H
	DD	0ffffffffH
	DD	00H
	DD	00H
	DD	0ffffffffH
	DD	0ffffffffH
	DD	0ffffffffH
	DD	00H
	DD	FLAT:??_C@_05CGEKNPEL@ideya@
	DD	00H
	DD	07fH
	DD	00H
	DD	0ffffffffH
	DD	00H
	DD	00H
	DD	0ffffffffH
	DD	0ffffffffH
	DD	0ffffffffH
	DD	00H
	DD	FLAT:??_C@_06JJFGCMO@itemup@
	DD	01H
	DD	04eH
	DD	00H
	DD	0ffffffffH
	DD	00H
	DD	00H
	DD	0ffffffffH
	DD	0ffffffffH
	DD	0ffffffffH
	DD	00H
	DD	FLAT:??_C@_04NJIOBGCF@jump@
	DD	00H
	DD	03cH
	DD	00H
	DD	0ffffffffH
	DD	00H
	DD	00H
	DD	018H
	DD	0ffffffffH
	DD	0ffffffffH
	DD	00H
	DD	FLAT:??_C@_06DDIOGJPH@koopfr@
	DD	01H
	DD	07fH
	DD	08H
	DD	0ffffffffH
	DD	00H
	DD	00H
	DD	0ffffffffH
	DD	0ffffffffH
	DD	0ffffffffH
	DD	00H
	DD	FLAT:??_C@_05LPMGNCEN@laser@
	DD	01H
	DD	040H
	DD	02H
	DD	0ffffffffH
	DD	00H
	DD	00H
	DD	0ffffffffH
	DD	0ffffffffH
	DD	0ffffffffH
	DD	00H
	DD	FLAT:??_C@_06FNBAEEKK@litng1@
	DD	00H
	DD	07eH
	DD	02H
	DD	0ffffffffH
	DD	00H
	DD	00H
	DD	0ffffffffH
	DD	0ffffffffH
	DD	0ffffffffH
	DD	00H
	DD	FLAT:??_C@_06HGDNBHGJ@litng2@
	DD	00H
	DD	07eH
	DD	02H
	DD	0ffffffffH
	DD	00H
	DD	00H
	DD	0ffffffffH
	DD	0ffffffffH
	DD	0ffffffffH
	DD	00H
	DD	FLAT:??_C@_06GPCGCGCI@litng3@
	DD	00H
	DD	07eH
	DD	02H
	DD	0ffffffffH
	DD	00H
	DD	00H
	DD	0ffffffffH
	DD	0ffffffffH
	DD	0ffffffffH
	DD	00H
	DD	FLAT:??_C@_06CAGHLAOP@litng4@
	DD	00H
	DD	07eH
	DD	02H
	DD	0ffffffffH
	DD	00H
	DD	00H
	DD	0ffffffffH
	DD	0ffffffffH
	DD	0ffffffffH
	DD	00H
	DD	FLAT:??_C@_04EIGHDMBA@lose@
	DD	00H
	DD	07fH
	DD	00H
	DD	0ffffffffH
	DD	00H
	DD	00H
	DD	0ffffffffH
	DD	0ffffffffH
	DD	0ffffffffH
	DD	00H
	DD	FLAT:??_C@_06NLBDGEFJ@lvpass@
	DD	00H
	DD	046H
	DD	00H
	DD	0ffffffffH
	DD	00H
	DD	00H
	DD	0ffffffffH
	DD	0ffffffffH
	DD	0ffffffffH
	DD	00H
	DD	FLAT:??_C@_06LLAFBNC@mario1@
	DD	00H
	DD	03cH
	DD	00H
	DD	0ffffffffH
	DD	00H
	DD	00H
	DD	0ffffffffH
	DD	0ffffffffH
	DD	0ffffffffH
	DD	00H
	DD	FLAT:??_C@_06CAJNACBB@mario2@
	DD	00H
	DD	07fH
	DD	00H
	DD	0ffffffffH
	DD	00H
	DD	00H
	DD	0ffffffffH
	DD	0ffffffffH
	DD	0ffffffffH
	DD	00H
	DD	FLAT:??_C@_06DJIGDDFA@mario3@
	DD	00H
	DD	03cH
	DD	00H
	DD	0ffffffffH
	DD	00H
	DD	00H
	DD	0ffffffffH
	DD	0ffffffffH
	DD	0ffffffffH
	DD	00H
	DD	FLAT:??_C@_06HGMHKFJH@mario4@
	DD	01H
	DD	04eH
	DD	00H
	DD	0ffffffffH
	DD	00H
	DD	00H
	DD	0ffffffffH
	DD	0ffffffffH
	DD	0ffffffffH
	DD	00H
	DD	FLAT:??_C@_06GPNMJENG@mario5@
	DD	00H
	DD	04eH
	DD	00H
	DD	0ffffffffH
	DD	00H
	DD	00H
	DD	0ffffffffH
	DD	0ffffffffH
	DD	0ffffffffH
	DD	00H
	DD	FLAT:??_C@_06EEPBMHBF@mario6@
	DD	00H
	DD	03cH
	DD	00H
	DD	0ffffffffH
	DD	00H
	DD	00H
	DD	0ffffffffH
	DD	0ffffffffH
	DD	0ffffffffH
	DD	00H
	DD	FLAT:??_C@_06FNOKPGFE@mario7@
	DD	00H
	DD	020H
	DD	00H
	DD	0ffffffffH
	DD	00H
	DD	00H
	DD	0ffffffffH
	DD	0ffffffffH
	DD	0ffffffffH
	DD	00H
	DD	FLAT:??_C@_06NKHCOKJL@mario8@
	DD	00H
	DD	030H
	DD	08H
	DD	0ffffffffH
	DD	00H
	DD	00H
	DD	0ffffffffH
	DD	0ffffffffH
	DD	0ffffffffH
	DD	00H
	DD	FLAT:??_C@_06MDGJNLNK@mario9@
	DD	01H
	DD	078H
	DD	00H
	DD	0ffffffffH
	DD	00H
	DD	00H
	DD	0ffffffffH
	DD	0ffffffffH
	DD	0ffffffffH
	DD	00H
	DD	FLAT:??_C@_06LBALAMIG@marioa@
	DD	01H
	DD	07fH
	DD	00H
	DD	0ffffffffH
	DD	00H
	DD	00H
	DD	0ffffffffH
	DD	0ffffffffH
	DD	0ffffffffH
	DD	00H
	DD	FLAT:??_C@_05OEBLJHNM@menu1@
	DD	01H
	DD	040H
	DD	00H
	DD	0ffffffffH
	DD	00H
	DD	00H
	DD	0ffffffffH
	DD	0ffffffffH
	DD	0ffffffffH
	DD	00H
	DD	FLAT:??_C@_05LNPLAMNK@mixup@
	DD	01H
	DD	07fH
	DD	00H
	DD	0ffffffffH
	DD	00H
	DD	00H
	DD	0ffffffffH
	DD	0ffffffffH
	DD	0ffffffffH
	DD	00H
	DD	FLAT:??_C@_06GAGNONNH@mswing@
	DD	00H
	DD	040H
	DD	00H
	DD	0ffffffffH
	DD	00H
	DD	00H
	DD	0ffffffffH
	DD	0ffffffffH
	DD	0ffffffffH
	DD	00H
	DD	FLAT:??_C@_06KFKOLILH@nbmper@
	DD	00H
	DD	07fH
	DD	00H
	DD	0ffffffffH
	DD	00H
	DD	00H
	DD	0ffffffffH
	DD	0ffffffffH
	DD	0ffffffffH
	DD	00H
	DD	FLAT:??_C@_06NJEKFEBL@ncitem@
	DD	00H
	DD	040H
	DD	00H
	DD	0ffffffffH
	DD	00H
	DD	00H
	DD	0ffffffffH
	DD	0ffffffffH
	DD	0ffffffffH
	DD	00H
	DD	FLAT:??_C@_06OCPLGBOB@ncspec@
	DD	00H
	DD	040H
	DD	00H
	DD	0ffffffffH
	DD	00H
	DD	00H
	DD	0ffffffffH
	DD	0ffffffffH
	DD	0ffffffffH
	DD	00H
	DD	FLAT:??_C@_06PJNPGHML@ngdone@
	DD	01H
	DD	07fH
	DD	00H
	DD	0ffffffffH
	DD	00H
	DD	00H
	DD	0ffffffffH
	DD	0ffffffffH
	DD	0ffffffffH
	DD	00H
	DD	FLAT:??_C@_06EFGOEEDF@nghurt@
	DD	00H
	DD	07fH
	DD	00H
	DD	0ffffffffH
	DD	00H
	DD	00H
	DD	0ffffffffH
	DD	0ffffffffH
	DD	0ffffffffH
	DD	00H
	DD	FLAT:??_C@_06LICJJMMK@ngskid@
	DD	00H
	DD	040H
	DD	00H
	DD	0ffffffffH
	DD	00H
	DD	00H
	DD	0ffffffffH
	DD	0ffffffffH
	DD	0ffffffffH
	DD	00H
	DD	FLAT:??_C@_06LNDDAALC@pksoc1@
	DD	00H
	DD	07fH
	DD	00H
	DD	0ffffffffH
	DD	00H
	DD	00H
	DD	0ffffffffH
	DD	0ffffffffH
	DD	0ffffffffH
	DD	00H
	DD	FLAT:??_C@_06JGBOFDHB@pksoc2@
	DD	00H
	DD	07fH
	DD	00H
	DD	0ffffffffH
	DD	00H
	DD	00H
	DD	0ffffffffH
	DD	0ffffffffH
	DD	0ffffffffH
	DD	00H
	DD	FLAT:??_C@_06IPAFGCDA@pksoc3@
	DD	00H
	DD	07fH
	DD	00H
	DD	0ffffffffH
	DD	00H
	DD	00H
	DD	0ffffffffH
	DD	0ffffffffH
	DD	0ffffffffH
	DD	00H
	DD	FLAT:??_C@_06MAEEPEPH@pksoc4@
	DD	00H
	DD	07fH
	DD	00H
	DD	0ffffffffH
	DD	00H
	DD	00H
	DD	0ffffffffH
	DD	0ffffffffH
	DD	0ffffffffH
	DD	00H
	DD	FLAT:??_C@_06NJFPMFLG@pksoc5@
	DD	00H
	DD	07fH
	DD	00H
	DD	0ffffffffH
	DD	00H
	DD	00H
	DD	0ffffffffH
	DD	0ffffffffH
	DD	0ffffffffH
	DD	00H
	DD	FLAT:??_C@_06PCHCJGHF@pksoc6@
	DD	00H
	DD	07fH
	DD	00H
	DD	0ffffffffH
	DD	00H
	DD	00H
	DD	0ffffffffH
	DD	0ffffffffH
	DD	0ffffffffH
	DD	00H
	DD	FLAT:??_C@_04MLHKFLF@pogo@
	DD	00H
	DD	040H
	DD	00H
	DD	0ffffffffH
	DD	00H
	DD	00H
	DD	0ffffffffH
	DD	0ffffffffH
	DD	0ffffffffH
	DD	00H
	DD	FLAT:??_C@_03NJDAHFJE@pop@
	DD	00H
	DD	04eH
	DD	00H
	DD	0ffffffffH
	DD	00H
	DD	00H
	DD	0ffffffffH
	DD	0ffffffffH
	DD	0ffffffffH
	DD	00H
	DD	FLAT:??_C@_06JLCCNEJC@prloop@
	DD	00H
	DD	07fH
	DD	00H
	DD	0ffffffffH
	DD	00H
	DD	00H
	DD	0ffffffffH
	DD	0ffffffffH
	DD	0ffffffffH
	DD	00H
	DD	FLAT:??_C@_06JAKDFJGA@pstart@
	DD	00H
	DD	064H
	DD	00H
	DD	0ffffffffH
	DD	00H
	DD	00H
	DD	0ffffffffH
	DD	0ffffffffH
	DD	0ffffffffH
	DD	00H
	DD	FLAT:??_C@_05HDIEALKC@pstop@
	DD	00H
	DD	064H
	DD	00H
	DD	0ffffffffH
	DD	00H
	DD	00H
	DD	0ffffffffH
	DD	0ffffffffH
	DD	0ffffffffH
	DD	00H
	DD	FLAT:??_C@_06IBDCBJNB@pudpud@
	DD	00H
	DD	040H
	DD	00H
	DD	0ffffffffH
	DD	00H
	DD	00H
	DD	02H
	DD	0ffffffffH
	DD	0ffffffffH
	DD	00H
	DD	FLAT:??_C@_06KLBAJMAC@putput@
	DD	00H
	DD	040H
	DD	00H
	DD	0ffffffffH
	DD	00H
	DD	00H
	DD	01H
	DD	0ffffffffH
	DD	0ffffffffH
	DD	00H
	DD	FLAT:??_C@_05LNKCELPI@radio@
	DD	00H
	DD	03cH
	DD	00H
	DD	0ffffffffH
	DD	00H
	DD	00H
	DD	0ffffffffH
	DD	0ffffffffH
	DD	0ffffffffH
	DD	00H
	DD	FLAT:??_C@_06CJGPBOPG@rainin@
	DD	01H
	DD	07fH
	DD	04H
	DD	0ffffffffH
	DD	00H
	DD	00H
	DD	0ffffffffH
	DD	0ffffffffH
	DD	0ffffffffH
	DD	00H
	DD	FLAT:??_C@_06JCHIPOLP@rlaunc@
	DD	00H
	DD	040H
	DD	00H
	DD	0ffffffffH
	DD	00H
	DD	00H
	DD	0ffffffffH
	DD	0ffffffffH
	DD	0ffffffffH
	DD	00H
	DD	FLAT:??_C@_06OLEBFMCD@rumble@
	DD	00H
	DD	040H
	DD	018H
	DD	0ffffffffH
	DD	00H
	DD	00H
	DD	0ffffffffH
	DD	0ffffffffH
	DD	0ffffffffH
	DD	00H
	DD	FLAT:??_C@_06JBLDCMAL@s3k_13@
	DD	00H
	DD	040H
	DD	00H
	DD	0ffffffffH
	DD	00H
	DD	00H
	DD	0ffffffffH
	DD	0ffffffffH
	DD	0ffffffffH
	DD	00H
	DD	FLAT:??_C@_06NOPCLKMM@s3k_14@
	DD	00H
	DD	040H
	DD	00H
	DD	0ffffffffH
	DD	00H
	DD	00H
	DD	0ffffffffH
	DD	0ffffffffH
	DD	0ffffffffH
	DD	00H
	DD	FLAT:??_C@_06MHOJILIN@s3k_15@
	DD	00H
	DD	040H
	DD	00H
	DD	0ffffffffH
	DD	00H
	DD	00H
	DD	0ffffffffH
	DD	0ffffffffH
	DD	0ffffffffH
	DD	00H
	DD	FLAT:??_C@_06OMMENIEO@s3k_16@
	DD	00H
	DD	040H
	DD	00H
	DD	0ffffffffH
	DD	00H
	DD	00H
	DD	0ffffffffH
	DD	0ffffffffH
	DD	0ffffffffH
	DD	00H
	DD	FLAT:??_C@_06PFNPOJAP@s3k_17@
	DD	00H
	DD	040H
	DD	00H
	DD	0ffffffffH
	DD	00H
	DD	00H
	DD	0ffffffffH
	DD	0ffffffffH
	DD	0ffffffffH
	DD	00H
	DD	FLAT:??_C@_06HCEHPFMA@s3k_18@
	DD	00H
	DD	040H
	DD	00H
	DD	0ffffffffH
	DD	00H
	DD	00H
	DD	0ffffffffH
	DD	0ffffffffH
	DD	0ffffffffH
	DD	00H
	DD	FLAT:??_C@_06GLFMMEIB@s3k_19@
	DD	00H
	DD	040H
	DD	00H
	DD	0ffffffffH
	DD	00H
	DD	00H
	DD	0ffffffffH
	DD	0ffffffffH
	DD	0ffffffffH
	DD	00H
	DD	FLAT:??_C@_06LINIMBJB@s3k_20@
	DD	00H
	DD	040H
	DD	00H
	DD	0ffffffffH
	DD	00H
	DD	00H
	DD	0ffffffffH
	DD	0ffffffffH
	DD	0ffffffffH
	DD	00H
	DD	FLAT:??_C@_06KBMDPANA@s3k_21@
	DD	00H
	DD	040H
	DD	00H
	DD	0ffffffffH
	DD	00H
	DD	00H
	DD	0ffffffffH
	DD	0ffffffffH
	DD	0ffffffffH
	DD	00H
	DD	FLAT:??_C@_06IKOOKDBD@s3k_22@
	DD	00H
	DD	040H
	DD	00H
	DD	0ffffffffH
	DD	00H
	DD	00H
	DD	0ffffffffH
	DD	0ffffffffH
	DD	0ffffffffH
	DD	00H
	DD	FLAT:??_C@_06JDPFJCFC@s3k_23@
	DD	00H
	DD	040H
	DD	00H
	DD	0ffffffffH
	DD	00H
	DD	00H
	DD	0ffffffffH
	DD	0ffffffffH
	DD	0ffffffffH
	DD	00H
	DD	FLAT:??_C@_06NMLEAEJF@s3k_24@
	DD	00H
	DD	040H
	DD	00H
	DD	0ffffffffH
	DD	00H
	DD	00H
	DD	0ffffffffH
	DD	0ffffffffH
	DD	0ffffffffH
	DD	00H
	DD	FLAT:??_C@_06MFKPDFNE@s3k_25@
	DD	00H
	DD	040H
	DD	00H
	DD	0ffffffffH
	DD	00H
	DD	00H
	DD	0ffffffffH
	DD	0ffffffffH
	DD	0ffffffffH
	DD	00H
	DD	FLAT:??_C@_06OOICGGBH@s3k_26@
	DD	00H
	DD	040H
	DD	00H
	DD	0ffffffffH
	DD	00H
	DD	00H
	DD	0ffffffffH
	DD	0ffffffffH
	DD	0ffffffffH
	DD	00H
	DD	FLAT:??_C@_06PHJJFHFG@s3k_27@
	DD	00H
	DD	040H
	DD	00H
	DD	0ffffffffH
	DD	00H
	DD	00H
	DD	0ffffffffH
	DD	0ffffffffH
	DD	0ffffffffH
	DD	00H
	DD	FLAT:??_C@_06HAABELJJ@s3k_28@
	DD	00H
	DD	040H
	DD	00H
	DD	0ffffffffH
	DD	00H
	DD	00H
	DD	0ffffffffH
	DD	0ffffffffH
	DD	0ffffffffH
	DD	00H
	DD	FLAT:??_C@_06GJBKHKNI@s3k_29@
	DD	00H
	DD	040H
	DD	00H
	DD	0ffffffffH
	DD	00H
	DD	00H
	DD	0ffffffffH
	DD	0ffffffffH
	DD	0ffffffffH
	DD	00H
	DD	FLAT:??_C@_06LJBKKLKG@s3k_30@
	DD	00H
	DD	040H
	DD	00H
	DD	0ffffffffH
	DD	00H
	DD	00H
	DD	0ffffffffH
	DD	0ffffffffH
	DD	0ffffffffH
	DD	00H
	DD	FLAT:??_C@_06KAABJKOH@s3k_31@
	DD	00H
	DD	040H
	DD	00H
	DD	0ffffffffH
	DD	00H
	DD	00H
	DD	0ffffffffH
	DD	0ffffffffH
	DD	0ffffffffH
	DD	00H
	DD	FLAT:??_C@_06ILCMMJCE@s3k_32@
	DD	00H
	DD	040H
	DD	00H
	DD	0ffffffffH
	DD	00H
	DD	00H
	DD	0ffffffffH
	DD	0ffffffffH
	DD	0ffffffffH
	DD	00H
	DD	FLAT:??_C@_06JCDHPIGF@s3k_33@
	DD	00H
	DD	040H
	DD	00H
	DD	0ffffffffH
	DD	00H
	DD	00H
	DD	0ffffffffH
	DD	0ffffffffH
	DD	0ffffffffH
	DD	00H
	DD	FLAT:??_C@_06NNHGGOKC@s3k_34@
	DD	00H
	DD	040H
	DD	00H
	DD	0ffffffffH
	DD	00H
	DD	00H
	DD	0ffffffffH
	DD	0ffffffffH
	DD	0ffffffffH
	DD	00H
	DD	FLAT:??_C@_06MEGNFPOD@s3k_35@
	DD	00H
	DD	040H
	DD	00H
	DD	0ffffffffH
	DD	00H
	DD	00H
	DD	0ffffffffH
	DD	0ffffffffH
	DD	0ffffffffH
	DD	00H
	DD	FLAT:??_C@_06OPEAAMCA@s3k_36@
	DD	00H
	DD	040H
	DD	00H
	DD	0ffffffffH
	DD	00H
	DD	00H
	DD	0ffffffffH
	DD	0ffffffffH
	DD	0ffffffffH
	DD	00H
	DD	FLAT:??_C@_06PGFLDNGB@s3k_37@
	DD	00H
	DD	040H
	DD	00H
	DD	0ffffffffH
	DD	00H
	DD	00H
	DD	0ffffffffH
	DD	0ffffffffH
	DD	0ffffffffH
	DD	00H
	DD	FLAT:??_C@_06HBMDCBKO@s3k_38@
	DD	00H
	DD	040H
	DD	00H
	DD	0ffffffffH
	DD	00H
	DD	00H
	DD	0ffffffffH
	DD	0ffffffffH
	DD	0ffffffffH
	DD	00H
	DD	FLAT:??_C@_06GINIBAOP@s3k_39@
	DD	00H
	DD	040H
	DD	00H
	DD	0ffffffffH
	DD	00H
	DD	00H
	DD	0ffffffffH
	DD	0ffffffffH
	DD	0ffffffffH
	DD	00H
	DD	FLAT:??_C@_06LMFFLNCD@s3k_40@
	DD	00H
	DD	040H
	DD	00H
	DD	0ffffffffH
	DD	00H
	DD	00H
	DD	0ffffffffH
	DD	0ffffffffH
	DD	0ffffffffH
	DD	00H
	DD	FLAT:??_C@_06KFEOIMGC@s3k_41@
	DD	00H
	DD	040H
	DD	00H
	DD	0ffffffffH
	DD	00H
	DD	00H
	DD	0ffffffffH
	DD	0ffffffffH
	DD	0ffffffffH
	DD	00H
	DD	FLAT:??_C@_06IOGDNPKB@s3k_42@
	DD	00H
	DD	040H
	DD	00H
	DD	0ffffffffH
	DD	00H
	DD	00H
	DD	0ffffffffH
	DD	0ffffffffH
	DD	0ffffffffH
	DD	00H
	DD	FLAT:??_C@_06JHHIOOOA@s3k_43@
	DD	00H
	DD	040H
	DD	00H
	DD	0ffffffffH
	DD	00H
	DD	00H
	DD	0ffffffffH
	DD	0ffffffffH
	DD	0ffffffffH
	DD	00H
	DD	FLAT:??_C@_06NIDJHICH@s3k_44@
	DD	00H
	DD	040H
	DD	00H
	DD	0ffffffffH
	DD	00H
	DD	00H
	DD	0ffffffffH
	DD	0ffffffffH
	DD	0ffffffffH
	DD	00H
	DD	FLAT:??_C@_06MBCCEJGG@s3k_45@
	DD	00H
	DD	040H
	DD	00H
	DD	0ffffffffH
	DD	00H
	DD	00H
	DD	0ffffffffH
	DD	0ffffffffH
	DD	0ffffffffH
	DD	00H
	DD	FLAT:??_C@_06OKAPBKKF@s3k_46@
	DD	00H
	DD	040H
	DD	00H
	DD	0ffffffffH
	DD	00H
	DD	00H
	DD	0ffffffffH
	DD	0ffffffffH
	DD	0ffffffffH
	DD	00H
	DD	FLAT:??_C@_06PDBECLOE@s3k_47@
	DD	00H
	DD	040H
	DD	00H
	DD	0ffffffffH
	DD	00H
	DD	00H
	DD	0ffffffffH
	DD	0ffffffffH
	DD	0ffffffffH
	DD	00H
	DD	FLAT:??_C@_06LNJHNHBE@s3k_50@
	DD	00H
	DD	040H
	DD	00H
	DD	0ffffffffH
	DD	00H
	DD	00H
	DD	0ffffffffH
	DD	0ffffffffH
	DD	0ffffffffH
	DD	00H
	DD	FLAT:??_C@_06KEIMOGFF@s3k_51@
	DD	00H
	DD	040H
	DD	00H
	DD	0ffffffffH
	DD	00H
	DD	00H
	DD	0ffffffffH
	DD	0ffffffffH
	DD	0ffffffffH
	DD	00H
	DD	FLAT:??_C@_06IPKBLFJG@s3k_52@
	DD	00H
	DD	040H
	DD	00H
	DD	0ffffffffH
	DD	00H
	DD	00H
	DD	0ffffffffH
	DD	0ffffffffH
	DD	0ffffffffH
	DD	00H
	DD	FLAT:??_C@_06JGLKIENH@s3k_53@
	DD	00H
	DD	040H
	DD	00H
	DD	0ffffffffH
	DD	00H
	DD	00H
	DD	0ffffffffH
	DD	0ffffffffH
	DD	0ffffffffH
	DD	00H
	DD	FLAT:??_C@_06NJPLBCBA@s3k_54@
	DD	00H
	DD	040H
	DD	00H
	DD	0ffffffffH
	DD	00H
	DD	00H
	DD	0ffffffffH
	DD	0ffffffffH
	DD	0ffffffffH
	DD	00H
	DD	FLAT:??_C@_06MAOACDFB@s3k_55@
	DD	00H
	DD	040H
	DD	00H
	DD	0ffffffffH
	DD	00H
	DD	00H
	DD	0ffffffffH
	DD	0ffffffffH
	DD	0ffffffffH
	DD	00H
	DD	FLAT:??_C@_06OLMNHAJC@s3k_56@
	DD	00H
	DD	040H
	DD	00H
	DD	0ffffffffH
	DD	00H
	DD	00H
	DD	0ffffffffH
	DD	0ffffffffH
	DD	0ffffffffH
	DD	00H
	DD	FLAT:??_C@_06PCNGEBND@s3k_57@
	DD	00H
	DD	040H
	DD	00H
	DD	0ffffffffH
	DD	00H
	DD	00H
	DD	0ffffffffH
	DD	0ffffffffH
	DD	0ffffffffH
	DD	00H
	DD	FLAT:??_C@_06HFEOFNBM@s3k_58@
	DD	00H
	DD	040H
	DD	00H
	DD	0ffffffffH
	DD	00H
	DD	00H
	DD	0ffffffffH
	DD	0ffffffffH
	DD	0ffffffffH
	DD	00H
	DD	FLAT:??_C@_06GMFFGMFN@s3k_59@
	DD	00H
	DD	040H
	DD	00H
	DD	0ffffffffH
	DD	00H
	DD	00H
	DD	0ffffffffH
	DD	0ffffffffH
	DD	0ffffffffH
	DD	00H
	DD	FLAT:??_C@_06LPNBGJEN@s3k_60@
	DD	00H
	DD	040H
	DD	00H
	DD	0ffffffffH
	DD	00H
	DD	00H
	DD	0ffffffffH
	DD	0ffffffffH
	DD	0ffffffffH
	DD	00H
	DD	FLAT:??_C@_06KGMKFIAM@s3k_61@
	DD	00H
	DD	040H
	DD	00H
	DD	0ffffffffH
	DD	00H
	DD	00H
	DD	0ffffffffH
	DD	0ffffffffH
	DD	0ffffffffH
	DD	00H
	DD	FLAT:??_C@_06INOHALMP@s3k_62@
	DD	00H
	DD	040H
	DD	00H
	DD	0ffffffffH
	DD	00H
	DD	00H
	DD	0ffffffffH
	DD	0ffffffffH
	DD	0ffffffffH
	DD	00H
	DD	FLAT:??_C@_06JEPMDKIO@s3k_63@
	DD	00H
	DD	040H
	DD	00H
	DD	0ffffffffH
	DD	00H
	DD	00H
	DD	0ffffffffH
	DD	0ffffffffH
	DD	0ffffffffH
	DD	00H
	DD	FLAT:??_C@_06NLLNKMEJ@s3k_64@
	DD	00H
	DD	040H
	DD	00H
	DD	0ffffffffH
	DD	00H
	DD	00H
	DD	0ffffffffH
	DD	0ffffffffH
	DD	0ffffffffH
	DD	00H
	DD	FLAT:??_C@_06MCKGJNAI@s3k_65@
	DD	00H
	DD	040H
	DD	00H
	DD	0ffffffffH
	DD	00H
	DD	00H
	DD	0ffffffffH
	DD	0ffffffffH
	DD	0ffffffffH
	DD	00H
	DD	FLAT:??_C@_06OJILMOML@s3k_66@
	DD	00H
	DD	040H
	DD	00H
	DD	0ffffffffH
	DD	00H
	DD	00H
	DD	0ffffffffH
	DD	0ffffffffH
	DD	0ffffffffH
	DD	00H
	DD	FLAT:??_C@_06PAJAPPIK@s3k_67@
	DD	00H
	DD	040H
	DD	00H
	DD	0ffffffffH
	DD	00H
	DD	00H
	DD	0ffffffffH
	DD	0ffffffffH
	DD	0ffffffffH
	DD	00H
	DD	FLAT:??_C@_06HHAIODEF@s3k_68@
	DD	00H
	DD	040H
	DD	00H
	DD	0ffffffffH
	DD	00H
	DD	00H
	DD	0ffffffffH
	DD	0ffffffffH
	DD	0ffffffffH
	DD	00H
	DD	FLAT:??_C@_06GOBDNCAE@s3k_69@
	DD	00H
	DD	040H
	DD	00H
	DD	0ffffffffH
	DD	00H
	DD	00H
	DD	0ffffffffH
	DD	0ffffffffH
	DD	0ffffffffH
	DD	00H
	DD	FLAT:??_C@_06LOBDADHK@s3k_70@
	DD	00H
	DD	040H
	DD	00H
	DD	0ffffffffH
	DD	00H
	DD	00H
	DD	0ffffffffH
	DD	0ffffffffH
	DD	0ffffffffH
	DD	00H
	DD	FLAT:??_C@_06KHAIDCDL@s3k_71@
	DD	00H
	DD	040H
	DD	00H
	DD	0ffffffffH
	DD	00H
	DD	00H
	DD	0ffffffffH
	DD	0ffffffffH
	DD	0ffffffffH
	DD	00H
	DD	FLAT:??_C@_06IMCFGBPI@s3k_72@
	DD	00H
	DD	040H
	DD	00H
	DD	0ffffffffH
	DD	00H
	DD	00H
	DD	0ffffffffH
	DD	0ffffffffH
	DD	0ffffffffH
	DD	00H
	DD	FLAT:??_C@_06JFDOFALJ@s3k_73@
	DD	00H
	DD	040H
	DD	00H
	DD	0ffffffffH
	DD	00H
	DD	00H
	DD	0ffffffffH
	DD	0ffffffffH
	DD	0ffffffffH
	DD	00H
	DD	FLAT:??_C@_06NKHPMGHO@s3k_74@
	DD	00H
	DD	040H
	DD	00H
	DD	0ffffffffH
	DD	00H
	DD	00H
	DD	0ffffffffH
	DD	0ffffffffH
	DD	0ffffffffH
	DD	00H
	DD	FLAT:??_C@_06MDGEPHDP@s3k_75@
	DD	00H
	DD	040H
	DD	00H
	DD	0ffffffffH
	DD	00H
	DD	00H
	DD	0ffffffffH
	DD	0ffffffffH
	DD	0ffffffffH
	DD	00H
	DD	FLAT:??_C@_06OIEJKEPM@s3k_76@
	DD	00H
	DD	040H
	DD	00H
	DD	0ffffffffH
	DD	00H
	DD	00H
	DD	0ffffffffH
	DD	0ffffffffH
	DD	0ffffffffH
	DD	00H
	DD	FLAT:??_C@_06PBFCJFLN@s3k_77@
	DD	00H
	DD	040H
	DD	00H
	DD	0ffffffffH
	DD	00H
	DD	00H
	DD	0ffffffffH
	DD	0ffffffffH
	DD	0ffffffffH
	DD	00H
	DD	FLAT:??_C@_06HGMKIJHC@s3k_78@
	DD	00H
	DD	040H
	DD	00H
	DD	0ffffffffH
	DD	00H
	DD	00H
	DD	0ffffffffH
	DD	0ffffffffH
	DD	0ffffffffH
	DD	00H
	DD	FLAT:??_C@_06GPNBLIDD@s3k_79@
	DD	00H
	DD	040H
	DD	00H
	DD	0ffffffffH
	DD	00H
	DD	00H
	DD	0ffffffffH
	DD	0ffffffffH
	DD	0ffffffffH
	DD	00H
	DD	FLAT:??_C@_06LFEPEEEH@s3k_80@
	DD	00H
	DD	040H
	DD	00H
	DD	0ffffffffH
	DD	00H
	DD	00H
	DD	0ffffffffH
	DD	0ffffffffH
	DD	0ffffffffH
	DD	00H
	DD	FLAT:??_C@_06KMFEHFAG@s3k_81@
	DD	00H
	DD	040H
	DD	00H
	DD	0ffffffffH
	DD	00H
	DD	00H
	DD	0ffffffffH
	DD	0ffffffffH
	DD	0ffffffffH
	DD	00H
	DD	FLAT:??_C@_06IHHJCGMF@s3k_82@
	DD	00H
	DD	040H
	DD	00H
	DD	0ffffffffH
	DD	00H
	DD	00H
	DD	0ffffffffH
	DD	0ffffffffH
	DD	0ffffffffH
	DD	00H
	DD	FLAT:??_C@_06JOGCBHIE@s3k_83@
	DD	00H
	DD	040H
	DD	00H
	DD	0ffffffffH
	DD	00H
	DD	00H
	DD	0ffffffffH
	DD	0ffffffffH
	DD	0ffffffffH
	DD	00H
	DD	FLAT:??_C@_06NBCDIBED@s3k_84@
	DD	00H
	DD	040H
	DD	00H
	DD	0ffffffffH
	DD	00H
	DD	00H
	DD	0ffffffffH
	DD	0ffffffffH
	DD	0ffffffffH
	DD	00H
	DD	FLAT:??_C@_06MIDILAAC@s3k_85@
	DD	00H
	DD	040H
	DD	00H
	DD	0ffffffffH
	DD	00H
	DD	00H
	DD	0ffffffffH
	DD	0ffffffffH
	DD	0ffffffffH
	DD	00H
	DD	FLAT:??_C@_06ODBFODMB@s3k_86@
	DD	00H
	DD	040H
	DD	00H
	DD	0ffffffffH
	DD	00H
	DD	00H
	DD	0ffffffffH
	DD	0ffffffffH
	DD	0ffffffffH
	DD	00H
	DD	FLAT:??_C@_06PKAONCIA@s3k_87@
	DD	00H
	DD	040H
	DD	00H
	DD	0ffffffffH
	DD	00H
	DD	00H
	DD	0ffffffffH
	DD	0ffffffffH
	DD	0ffffffffH
	DD	00H
	DD	FLAT:??_C@_06HNJGMOEP@s3k_88@
	DD	00H
	DD	040H
	DD	00H
	DD	0ffffffffH
	DD	00H
	DD	00H
	DD	0ffffffffH
	DD	0ffffffffH
	DD	0ffffffffH
	DD	00H
	DD	FLAT:??_C@_06GEINPPAO@s3k_89@
	DD	00H
	DD	040H
	DD	00H
	DD	0ffffffffH
	DD	00H
	DD	00H
	DD	0ffffffffH
	DD	0ffffffffH
	DD	0ffffffffH
	DD	00H
	DD	FLAT:??_C@_06LEINCOHA@s3k_90@
	DD	00H
	DD	040H
	DD	00H
	DD	0ffffffffH
	DD	00H
	DD	00H
	DD	0ffffffffH
	DD	0ffffffffH
	DD	0ffffffffH
	DD	00H
	DD	FLAT:??_C@_06KNJGBPDB@s3k_91@
	DD	00H
	DD	040H
	DD	00H
	DD	0ffffffffH
	DD	00H
	DD	00H
	DD	0ffffffffH
	DD	0ffffffffH
	DD	0ffffffffH
	DD	00H
	DD	FLAT:??_C@_06IGLLEMPC@s3k_92@
	DD	00H
	DD	040H
	DD	00H
	DD	0ffffffffH
	DD	00H
	DD	00H
	DD	0ffffffffH
	DD	0ffffffffH
	DD	0ffffffffH
	DD	00H
	DD	FLAT:??_C@_06JPKAHNLD@s3k_93@
	DD	00H
	DD	040H
	DD	040H
	DD	0ffffffffH
	DD	00H
	DD	00H
	DD	0ffffffffH
	DD	0ffffffffH
	DD	0ffffffffH
	DD	00H
	DD	FLAT:??_C@_06IDDCOJOK@shield@
	DD	00H
	DD	03cH
	DD	00H
	DD	0ffffffffH
	DD	00H
	DD	00H
	DD	0ffffffffH
	DD	0ffffffffH
	DD	0ffffffffH
	DD	00H
	DD	FLAT:??_C@_06PGONIFGJ@shldls@
	DD	00H
	DD	040H
	DD	00H
	DD	0ffffffffH
	DD	00H
	DD	00H
	DD	0ffffffffH
	DD	0ffffffffH
	DD	0ffffffffH
	DD	00H
	DD	FLAT:??_C@_06PLDIJJFD@spdpad@
	DD	00H
	DD	07fH
	DD	00H
	DD	0ffffffffH
	DD	00H
	DD	00H
	DD	0ffffffffH
	DD	0ffffffffH
	DD	0ffffffffH
	DD	00H
	DD	FLAT:??_C@_04FAOIIEOH@spin@
	DD	00H
	DD	040H
	DD	00H
	DD	0ffffffffH
	DD	00H
	DD	00H
	DD	00H
	DD	0ffffffffH
	DD	0ffffffffH
	DD	00H
	DD	FLAT:??_C@_06BAELOANN@spkdth@
	DD	00H
	DD	07fH
	DD	00H
	DD	0ffffffffH
	DD	00H
	DD	00H
	DD	0ffffffffH
	DD	0ffffffffH
	DD	0ffffffffH
	DD	00H
	DD	FLAT:??_C@_06JAPKNKHK@splash@
	DD	00H
	DD	040H
	DD	00H
	DD	0ffffffffH
	DD	00H
	DD	00H
	DD	0ffffffffH
	DD	0ffffffffH
	DD	0ffffffffH
	DD	00H
	DD	FLAT:??_C@_06FFEOPCJF@splish@
	DD	00H
	DD	040H
	DD	00H
	DD	0ffffffffH
	DD	00H
	DD	00H
	DD	0ffffffffH
	DD	0ffffffffH
	DD	0ffffffffH
	DD	00H
	DD	FLAT:??_C@_06NNOEHJCI@spndsh@
	DD	00H
	DD	040H
	DD	01H
	DD	0ffffffffH
	DD	00H
	DD	00H
	DD	014H
	DD	0ffffffffH
	DD	0ffffffffH
	DD	00H
	DD	FLAT:??_C@_06BJPIPHJK@spring@
	DD	00H
	DD	060H
	DD	00H
	DD	0ffffffffH
	DD	00H
	DD	00H
	DD	0ffffffffH
	DD	0ffffffffH
	DD	0ffffffffH
	DD	00H
	DD	FLAT:??_C@_06PLMIGBNP@statu1@
	DD	01H
	DD	040H
	DD	02H
	DD	0ffffffffH
	DD	00H
	DD	00H
	DD	0ffffffffH
	DD	0ffffffffH
	DD	0ffffffffH
	DD	00H
	DD	FLAT:??_C@_06NAOFDCBM@statu2@
	DD	01H
	DD	040H
	DD	02H
	DD	0ffffffffH
	DD	00H
	DD	00H
	DD	0ffffffffH
	DD	0ffffffffH
	DD	0ffffffffH
	DD	00H
	DD	FLAT:??_C@_06HLLKJCHK@steam1@
	DD	00H
	DD	040H
	DD	00H
	DD	0ffffffffH
	DD	00H
	DD	00H
	DD	0ffffffffH
	DD	0ffffffffH
	DD	0ffffffffH
	DD	00H
	DD	FLAT:??_C@_06FAJHMBLJ@steam2@
	DD	00H
	DD	040H
	DD	00H
	DD	0ffffffffH
	DD	00H
	DD	00H
	DD	0ffffffffH
	DD	0ffffffffH
	DD	0ffffffffH
	DD	00H
	DD	FLAT:??_C@_06NKGJNMCI@strpst@
	DD	01H
	DD	078H
	DD	00H
	DD	0ffffffffH
	DD	00H
	DD	00H
	DD	0ffffffffH
	DD	0ffffffffH
	DD	0ffffffffH
	DD	00H
	DD	FLAT:??_C@_06NPAJBHH@supert@
	DD	00H
	DD	07fH
	DD	00H
	DD	0ffffffffH
	DD	00H
	DD	00H
	DD	0ffffffffH
	DD	0ffffffffH
	DD	0ffffffffH
	DD	00H
	DD	FLAT:??_C@_06MGHCCAPH@taunt1@
	DD	00H
	DD	040H
	DD	018H
	DD	0ffffffffH
	DD	00H
	DD	00H
	DD	0bH
	DD	0ffffffffH
	DD	0ffffffffH
	DD	00H
	DD	FLAT:??_C@_06ONFPHDDE@taunt2@
	DD	00H
	DD	040H
	DD	018H
	DD	0ffffffffH
	DD	00H
	DD	00H
	DD	0cH
	DD	0ffffffffH
	DD	0ffffffffH
	DD	00H
	DD	FLAT:??_C@_06PEEEECHF@taunt3@
	DD	00H
	DD	040H
	DD	018H
	DD	0ffffffffH
	DD	00H
	DD	00H
	DD	0dH
	DD	0ffffffffH
	DD	0ffffffffH
	DD	00H
	DD	FLAT:??_C@_06LLAFNELC@taunt4@
	DD	00H
	DD	040H
	DD	018H
	DD	0ffffffffH
	DD	00H
	DD	00H
	DD	0eH
	DD	0ffffffffH
	DD	0ffffffffH
	DD	00H
	DD	FLAT:??_C@_06GNBFADIP@telept@
	DD	00H
	DD	020H
	DD	00H
	DD	0ffffffffH
	DD	00H
	DD	00H
	DD	0ffffffffH
	DD	0ffffffffH
	DD	0ffffffffH
	DD	00H
	DD	FLAT:??_C@_04OJPKPHA@thok@
	DD	00H
	DD	020H
	DD	00H
	DD	0ffffffffH
	DD	00H
	DD	00H
	DD	013H
	DD	0ffffffffH
	DD	0ffffffffH
	DD	00H
	DD	FLAT:??_C@_06NJJEKDIB@thwomp@
	DD	01H
	DD	07fH
	DD	08H
	DD	0ffffffffH
	DD	00H
	DD	00H
	DD	0ffffffffH
	DD	0ffffffffH
	DD	0ffffffffH
	DD	00H
	DD	FLAT:??_C@_04LHOBKCCC@tink@
	DD	00H
	DD	03cH
	DD	00H
	DD	0ffffffffH
	DD	00H
	DD	00H
	DD	0ffffffffH
	DD	0ffffffffH
	DD	0ffffffffH
	DD	00H
	DD	FLAT:??_C@_06CDPNGBML@trfire@
	DD	01H
	DD	07fH
	DD	08H
	DD	0ffffffffH
	DD	00H
	DD	00H
	DD	0ffffffffH
	DD	0ffffffffH
	DD	0ffffffffH
	DD	00H
	DD	FLAT:??_C@_06OKHOBKEI@trpowr@
	DD	01H
	DD	07fH
	DD	08H
	DD	0ffffffffH
	DD	00H
	DD	00H
	DD	0ffffffffH
	DD	0ffffffffH
	DD	0ffffffffH
	DD	00H
	DD	FLAT:??_C@_06FAIOGINF@turhit@
	DD	00H
	DD	07fH
	DD	08H
	DD	0ffffffffH
	DD	00H
	DD	00H
	DD	0ffffffffH
	DD	0ffffffffH
	DD	0ffffffffH
	DD	00H
	DD	FLAT:??_C@_06GJDHBKNI@victr1@
	DD	00H
	DD	040H
	DD	010H
	DD	0ffffffffH
	DD	00H
	DD	00H
	DD	0fH
	DD	0ffffffffH
	DD	0ffffffffH
	DD	00H
	DD	FLAT:??_C@_06ECBKEJBL@victr2@
	DD	00H
	DD	040H
	DD	010H
	DD	0ffffffffH
	DD	00H
	DD	00H
	DD	010H
	DD	0ffffffffH
	DD	0ffffffffH
	DD	00H
	DD	FLAT:??_C@_06FLABHIFK@victr3@
	DD	00H
	DD	040H
	DD	010H
	DD	0ffffffffH
	DD	00H
	DD	00H
	DD	011H
	DD	0ffffffffH
	DD	0ffffffffH
	DD	00H
	DD	FLAT:??_C@_06BEEAOOJN@victr4@
	DD	00H
	DD	040H
	DD	010H
	DD	0ffffffffH
	DD	00H
	DD	00H
	DD	012H
	DD	0ffffffffH
	DD	0ffffffffH
	DD	00H
	DD	FLAT:??_C@_06EOJGMHJA@wbreak@
	DD	00H
	DD	040H
	DD	00H
	DD	0ffffffffH
	DD	00H
	DD	00H
	DD	0ffffffffH
	DD	0ffffffffH
	DD	0ffffffffH
	DD	00H
	DD	FLAT:??_C@_06DIGKJNKP@wdjump@
	DD	00H
	DD	03cH
	DD	00H
	DD	0ffffffffH
	DD	00H
	DD	00H
	DD	0ffffffffH
	DD	0ffffffffH
	DD	0ffffffffH
	DD	00H
	DD	FLAT:??_C@_05PBLCGJGA@wslap@
	DD	00H
	DD	040H
	DD	00H
	DD	0ffffffffH
	DD	00H
	DD	00H
	DD	0ffffffffH
	DD	0ffffffffH
	DD	0ffffffffH
	DD	00H
	DD	FLAT:??_C@_06IEEMEJEC@wtrdng@
	DD	01H
	DD	078H
	DD	00H
	DD	0ffffffffH
	DD	00H
	DD	00H
	DD	0ffffffffH
	DD	0ffffffffH
	DD	0ffffffffH
	DD	00H
	DD	FLAT:??_C@_04HKCCIOCO@zoom@
	DD	00H
	DD	078H
	DD	01H
	DD	0ffffffffH
	DD	00H
	DD	00H
	DD	015H
	DD	0ffffffffH
	DD	0ffffffffH
	DD	00H
	DD	FLAT:??_C@_06IPKJOHKM@wdrip1@
	DD	00H
	DD	040H
	DD	00H
	DD	0ffffffffH
	DD	00H
	DD	00H
	DD	0ffffffffH
	DD	0ffffffffH
	DD	0ffffffffH
	DD	00H
	DD	FLAT:??_C@_06KEIELEGP@wdrip2@
	DD	00H
	DD	040H
	DD	00H
	DD	0ffffffffH
	DD	00H
	DD	00H
	DD	0ffffffffH
	DD	0ffffffffH
	DD	0ffffffffH
	DD	00H
	DD	FLAT:??_C@_06LNJPIFCO@wdrip3@
	DD	00H
	DD	040H
	DD	00H
	DD	0ffffffffH
	DD	00H
	DD	00H
	DD	0ffffffffH
	DD	0ffffffffH
	DD	0ffffffffH
	DD	00H
	DD	FLAT:??_C@_06PCNOBDOJ@wdrip4@
	DD	00H
	DD	040H
	DD	00H
	DD	0ffffffffH
	DD	00H
	DD	00H
	DD	0ffffffffH
	DD	0ffffffffH
	DD	0ffffffffH
	DD	00H
	DD	FLAT:??_C@_06OLMFCCKI@wdrip5@
	DD	00H
	DD	040H
	DD	00H
	DD	0ffffffffH
	DD	00H
	DD	00H
	DD	0ffffffffH
	DD	0ffffffffH
	DD	0ffffffffH
	DD	00H
	DD	FLAT:??_C@_06MAOIHBGL@wdrip6@
	DD	00H
	DD	040H
	DD	00H
	DD	0ffffffffH
	DD	00H
	DD	00H
	DD	0ffffffffH
	DD	0ffffffffH
	DD	0ffffffffH
	DD	00H
	DD	FLAT:??_C@_06NJPDEACK@wdrip7@
	DD	00H
	DD	040H
	DD	00H
	DD	0ffffffffH
	DD	00H
	DD	00H
	DD	0ffffffffH
	DD	0ffffffffH
	DD	0ffffffffH
	DD	00H
	DD	FLAT:??_C@_06FOGLFMOF@wdrip8@
	DD	00H
	DD	040H
	DD	00H
	DD	0ffffffffH
	DD	00H
	DD	00H
	DD	0ffffffffH
	DD	0ffffffffH
	DD	0ffffffffH
	DD	00H
	DD	FLAT:??_C@_05KBIKDFHO@buzz1@
	DD	00H
	DD	040H
	DD	00H
	DD	0ffffffffH
	DD	00H
	DD	00H
	DD	0ffffffffH
	DD	0ffffffffH
	DD	0ffffffffH
	DD	00H
	DD	FLAT:??_C@_05IKKHGGLN@buzz2@
	DD	00H
	DD	040H
	DD	00H
	DD	0ffffffffH
	DD	00H
	DD	00H
	DD	0ffffffffH
	DD	0ffffffffH
	DD	0ffffffffH
	DD	00H
	DD	FLAT:??_C@_05JDLMFHPM@buzz3@
	DD	00H
	DD	040H
	DD	00H
	DD	0ffffffffH
	DD	00H
	DD	00H
	DD	0ffffffffH
	DD	0ffffffffH
	DD	0ffffffffH
	DD	00H
	DD	FLAT:??_C@_05NNCICCBB@grind@
	DD	00H
	DD	040H
	DD	00H
	DD	0ffffffffH
	DD	00H
	DD	00H
	DD	0ffffffffH
	DD	0ffffffffH
	DD	0ffffffffH
	DD	00H
	DD	FLAT:??_C@_06PGBFDJG@lavbub@
	DD	00H
	DD	040H
	DD	08H
	DD	0ffffffffH
	DD	00H
	DD	00H
	DD	0ffffffffH
	DD	0ffffffffH
	DD	0ffffffffH
	DD	00H
	DD	FLAT:??_C@_06ECJJPACI@rocks1@
	DD	00H
	DD	040H
	DD	040H
	DD	0ffffffffH
	DD	00H
	DD	00H
	DD	0ffffffffH
	DD	0ffffffffH
	DD	0ffffffffH
	DD	00H
	DD	FLAT:??_C@_06GJLEKDOL@rocks2@
	DD	00H
	DD	040H
	DD	040H
	DD	0ffffffffH
	DD	00H
	DD	00H
	DD	0ffffffffH
	DD	0ffffffffH
	DD	0ffffffffH
	DD	00H
	DD	FLAT:??_C@_06HAKPJCKK@rocks3@
	DD	00H
	DD	040H
	DD	040H
	DD	0ffffffffH
	DD	00H
	DD	00H
	DD	0ffffffffH
	DD	0ffffffffH
	DD	0ffffffffH
	DD	00H
	DD	FLAT:??_C@_06DPOOAEGN@rocks4@
	DD	00H
	DD	040H
	DD	040H
	DD	0ffffffffH
	DD	00H
	DD	00H
	DD	0ffffffffH
	DD	0ffffffffH
	DD	0ffffffffH
	DD	00H
	DD	FLAT:??_C@_06CLEAEFHI@rumbam@
	DD	00H
	DD	040H
	DD	00H
	DD	0ffffffffH
	DD	00H
	DD	00H
	DD	0ffffffffH
	DD	0ffffffffH
	DD	0ffffffffH
	DD	00H
	DD	FLAT:??_C@_03IPGPICLN@jet@
	DD	00H
	DD	040H
	DD	00H
	DD	0ffffffffH
	DD	00H
	DD	00H
	DD	0ffffffffH
	DD	0ffffffffH
	DD	0ffffffffH
	DD	00H
	DD	FLAT:??_C@_06FIPFPHIB@mindig@
	DD	00H
	DD	040H
	DD	040H
	DD	0ffffffffH
	DD	00H
	DD	00H
	DD	0ffffffffH
	DD	0ffffffffH
	DD	0ffffffffH
	DD	00H
	DD	FLAT:??_C@_06JBGILNCO@flgcap@
	DD	00H
	DD	040H
	DD	00H
	DD	0ffffffffH
	DD	00H
	DD	00H
	DD	0ffffffffH
	DD	0ffffffffH
	DD	0ffffffffH
	DD	00H
	DD	FLAT:??_C@_06LBPAHBIK@bebomb@
	DD	00H
	DD	040H
	DD	040H
	DD	0ffffffffH
	DD	00H
	DD	00H
	DD	0ffffffffH
	DD	0ffffffffH
	DD	0ffffffffH
	DD	00H
	DD	FLAT:??_C@_06HLEKHAIL@bechrg@
	DD	00H
	DD	040H
	DD	040H
	DD	0ffffffffH
	DD	00H
	DD	00H
	DD	0ffffffffH
	DD	0ffffffffH
	DD	0ffffffffH
	DD	00H
	DD	FLAT:??_C@_06MCLELBII@becrsh@
	DD	00H
	DD	040H
	DD	040H
	DD	0ffffffffH
	DD	00H
	DD	00H
	DD	0ffffffffH
	DD	0ffffffffH
	DD	0ffffffffH
	DD	00H
	DD	FLAT:??_C@_06PDKLHKPK@bedeen@
	DD	00H
	DD	040H
	DD	040H
	DD	0ffffffffH
	DD	00H
	DD	00H
	DD	0ffffffffH
	DD	0ffffffffH
	DD	0ffffffffH
	DD	00H
	DD	FLAT:??_C@_06IEFOIENJ@bedie1@
	DD	00H
	DD	040H
	DD	040H
	DD	0ffffffffH
	DD	00H
	DD	00H
	DD	0ffffffffH
	DD	0ffffffffH
	DD	0ffffffffH
	DD	00H
	DD	FLAT:??_C@_06KPHDNHBK@bedie2@
	DD	00H
	DD	040H
	DD	040H
	DD	0ffffffffH
