; Listing generated by Microsoft (R) Optimizing Compiler Version 19.41.34123.0 

	TITLE	C:\Users\RafaTheFox\Downloads\SRB2-Public-master\objs\VC10\Win32\Debug\tables.obj
	.686P
	.XMM
	include listing.inc
	.model	flat

INCLUDELIB LIBCMTD
INCLUDELIB OLDNAMES

PUBLIC	_finesine
PUBLIC	_finetangent
PUBLIC	_tantoangle
_DATA	SEGMENT
COMM	_ATTRPACK:DWORD
_DATA	ENDS
_DATA	SEGMENT
_finesine DD	019H
	DD	04bH
	DD	07dH
	DD	0afH
	DD	0e2H
	DD	0114H
	DD	0146H
	DD	0178H
	DD	01abH
	DD	01ddH
	DD	020fH
	DD	0242H
	DD	0274H
	DD	02a6H
	DD	02d8H
	DD	030bH
	DD	033dH
	DD	036fH
	DD	03a1H
	DD	03d4H
	DD	0406H
	DD	0438H
	DD	046aH
	DD	049dH
	DD	04cfH
	DD	0501H
	DD	0533H
	DD	0566H
	DD	0598H
	DD	05caH
	DD	05fcH
	DD	062fH
	DD	0661H
	DD	0693H
	DD	06c5H
	DD	06f8H
	DD	072aH
	DD	075cH
	DD	078eH
	DD	07c1H
	DD	07f3H
	DD	0825H
	DD	0857H
	DD	088aH
	DD	08bcH
	DD	08eeH
	DD	0920H
	DD	0953H
	DD	0985H
	DD	09b7H
	DD	09e9H
	DD	0a1bH
	DD	0a4eH
	DD	0a80H
	DD	0ab2H
	DD	0ae4H
	DD	0b17H
	DD	0b49H
	DD	0b7bH
	DD	0badH
	DD	0bdfH
	DD	0c12H
	DD	0c44H
	DD	0c76H
	DD	0ca8H
	DD	0cdbH
	DD	0d0dH
	DD	0d3fH
	DD	0d71H
	DD	0da3H
	DD	0dd5H
	DD	0e08H
	DD	0e3aH
	DD	0e6cH
	DD	0e9eH
	DD	0ed0H
	DD	0f03H
	DD	0f35H
	DD	0f67H
	DD	0f99H
	DD	0fcbH
	DD	0ffdH
	DD	01030H
	DD	01062H
	DD	01094H
	DD	010c6H
	DD	010f8H
	DD	0112aH
	DD	0115dH
	DD	0118fH
	DD	011c1H
	DD	011f3H
	DD	01225H
	DD	01257H
	DD	01289H
	DD	012bcH
	DD	012eeH
	DD	01320H
	DD	01352H
	DD	01384H
	DD	013b6H
	DD	013e8H
	DD	0141aH
	DD	0144dH
	DD	0147fH
	DD	014b1H
	DD	014e3H
	DD	01515H
	DD	01547H
	DD	01579H
	DD	015abH
	DD	015ddH
	DD	0160fH
	DD	01641H
	DD	01674H
	DD	016a6H
	DD	016d8H
	DD	0170aH
	DD	0173cH
	DD	0176eH
	DD	017a0H
	DD	017d2H
	DD	01804H
	DD	01836H
	DD	01868H
	DD	0189aH
	DD	018ccH
	DD	018feH
	DD	01930H
	DD	01962H
	DD	01994H
	DD	019c6H
	DD	019f8H
	DD	01a2aH
	DD	01a5cH
	DD	01a8eH
	DD	01ac0H
	DD	01af2H
	DD	01b24H
	DD	01b56H
	DD	01b88H
	DD	01bbaH
	DD	01becH
	DD	01c1eH
	DD	01c50H
	DD	01c82H
	DD	01cb4H
	DD	01ce6H
	DD	01d18H
	DD	01d4aH
	DD	01d7cH
	DD	01daeH
	DD	01de0H
	DD	01e11H
	DD	01e43H
	DD	01e75H
	DD	01ea7H
	DD	01ed9H
	DD	01f0bH
	DD	01f3dH
	DD	01f6fH
	DD	01fa1H
	DD	01fd3H
	DD	02004H
	DD	02036H
	DD	02068H
	DD	0209aH
	DD	020ccH
	DD	020feH
	DD	02130H
	DD	02161H
	DD	02193H
	DD	021c5H
	DD	021f7H
	DD	02229H
	DD	0225aH
	DD	0228cH
	DD	022beH
	DD	022f0H
	DD	02322H
	DD	02353H
	DD	02385H
	DD	023b7H
	DD	023e9H
	DD	0241bH
	DD	0244cH
	DD	0247eH
	DD	024b0H
	DD	024e2H
	DD	02513H
	DD	02545H
	DD	02577H
	DD	025a8H
	DD	025daH
	DD	0260cH
	DD	0263eH
	DD	0266fH
	DD	026a1H
	DD	026d3H
	DD	02704H
	DD	02736H
	DD	02768H
	DD	02799H
	DD	027cbH
	DD	027fdH
	DD	0282eH
	DD	02860H
	DD	02892H
	DD	028c3H
	DD	028f5H
	DD	02926H
	DD	02958H
	DD	0298aH
	DD	029bbH
	DD	029edH
	DD	02a1eH
	DD	02a50H
	DD	02a82H
	DD	02ab3H
	DD	02ae5H
	DD	02b16H
	DD	02b48H
	DD	02b79H
	DD	02babH
	DD	02bdcH
	DD	02c0eH
	DD	02c3fH
	DD	02c71H
	DD	02ca2H
	DD	02cd4H
	DD	02d05H
	DD	02d37H
	DD	02d68H
	DD	02d9aH
	DD	02dcbH
	DD	02dfdH
	DD	02e2eH
	DD	02e60H
	DD	02e91H
	DD	02ec2H
	DD	02ef4H
	DD	02f25H
	DD	02f57H
	DD	02f88H
	DD	02fbaH
	DD	02febH
	DD	0301cH
	DD	0304eH
	DD	0307fH
	DD	030b0H
	DD	030e2H
	DD	03113H
	DD	03144H
	DD	03176H
	DD	031a7H
	DD	031d8H
	DD	0320aH
	DD	0323bH
	DD	0326cH
	DD	0329dH
	DD	032cfH
	DD	03300H
	DD	03331H
	DD	03362H
	DD	03394H
	DD	033c5H
	DD	033f6H
	DD	03427H
	DD	03459H
	DD	0348aH
	DD	034bbH
	DD	034ecH
	DD	0351dH
	DD	0354fH
	DD	03580H
	DD	035b1H
	DD	035e2H
	DD	03613H
	DD	03644H
	DD	03675H
	DD	036a6H
	DD	036d8H
	DD	03709H
	DD	0373aH
	DD	0376bH
	DD	0379cH
	DD	037cdH
	DD	037feH
	DD	0382fH
	DD	03860H
	DD	03891H
	DD	038c2H
	DD	038f3H
	DD	03924H
	DD	03955H
	DD	03986H
	DD	039b7H
	DD	039e8H
	DD	03a19H
	DD	03a4aH
	DD	03a7bH
	DD	03aacH
	DD	03addH
	DD	03b0eH
	DD	03b3fH
	DD	03b6fH
	DD	03ba0H
	DD	03bd1H
	DD	03c02H
	DD	03c33H
	DD	03c64H
	DD	03c95H
	DD	03cc5H
	DD	03cf6H
	DD	03d27H
	DD	03d58H
	DD	03d89H
	DD	03dbaH
	DD	03deaH
	DD	03e1bH
	DD	03e4cH
	DD	03e7dH
	DD	03eadH
	DD	03edeH
	DD	03f0fH
	DD	03f3fH
	DD	03f70H
	DD	03fa1H
	DD	03fd2H
	DD	04002H
	DD	04033H
	DD	04064H
	DD	04094H
	DD	040c5H
	DD	040f5H
	DD	04126H
	DD	04157H
	DD	04187H
	DD	041b8H
	DD	041e8H
	DD	04219H
	DD	0424aH
	DD	0427aH
	DD	042abH
	DD	042dbH
	DD	0430cH
	DD	0433cH
	DD	0436dH
	DD	0439dH
	DD	043ceH
	DD	043feH
	DD	0442fH
	DD	0445fH
	DD	0448fH
	DD	044c0H
	DD	044f0H
	DD	04521H
	DD	04551H
	DD	04581H
	DD	045b2H
	DD	045e2H
	DD	04613H
	DD	04643H
	DD	04673H
	DD	046a4H
	DD	046d4H
	DD	04704H
	DD	04734H
	DD	04765H
	DD	04795H
	DD	047c5H
	DD	047f5H
	DD	04826H
	DD	04856H
	DD	04886H
	DD	048b6H
	DD	048e7H
	DD	04917H
	DD	04947H
	DD	04977H
	DD	049a7H
	DD	049d7H
	DD	04a07H
	DD	04a38H
	DD	04a68H
	DD	04a98H
	DD	04ac8H
	DD	04af8H
	DD	04b28H
	DD	04b58H
	DD	04b88H
	DD	04bb8H
	DD	04be8H
	DD	04c18H
	DD	04c48H
	DD	04c78H
	DD	04ca8H
	DD	04cd8H
	DD	04d08H
	DD	04d38H
	DD	04d68H
	DD	04d98H
	DD	04dc8H
	DD	04df7H
	DD	04e27H
	DD	04e57H
	DD	04e87H
	DD	04eb7H
	DD	04ee7H
	DD	04f16H
	DD	04f46H
	DD	04f76H
	DD	04fa6H
	DD	04fd6H
	DD	05005H
	DD	05035H
	DD	05065H
	DD	05095H
	DD	050c4H
	DD	050f4H
	DD	05124H
	DD	05153H
	DD	05183H
	DD	051b3H
	DD	051e2H
	DD	05212H
	DD	05241H
	DD	05271H
	DD	052a1H
	DD	052d0H
	DD	05300H
	DD	0532fH
	DD	0535fH
	DD	0538eH
	DD	053beH
	DD	053edH
	DD	0541dH
	DD	0544cH
	DD	0547cH
	DD	054abH
	DD	054dbH
	DD	0550aH
	DD	05539H
	DD	05569H
	DD	05598H
	DD	055c8H
	DD	055f7H
	DD	05626H
	DD	05656H
	DD	05685H
	DD	056b4H
	DD	056e3H
	DD	05713H
	DD	05742H
	DD	05771H
	DD	057a1H
	DD	057d0H
	DD	057ffH
	DD	0582eH
	DD	0585dH
	DD	0588cH
	DD	058bcH
	DD	058ebH
	DD	0591aH
	DD	05949H
	DD	05978H
	DD	059a7H
	DD	059d6H
	DD	05a05H
	DD	05a34H
	DD	05a63H
	DD	05a92H
	DD	05ac1H
	DD	05af0H
	DD	05b1fH
	DD	05b4eH
	DD	05b7dH
	DD	05bacH
	DD	05bdbH
	DD	05c0aH
	DD	05c39H
	DD	05c68H
	DD	05c97H
	DD	05cc6H
	DD	05cf4H
	DD	05d23H
	DD	05d52H
	DD	05d81H
	DD	05db0H
	DD	05ddeH
	DD	05e0dH
	DD	05e3cH
	DD	05e6bH
	DD	05e99H
	DD	05ec8H
	DD	05ef7H
	DD	05f25H
	DD	05f54H
	DD	05f83H
	DD	05fb1H
	DD	05fe0H
	DD	0600fH
	DD	0603dH
	DD	0606cH
	DD	0609aH
	DD	060c9H
	DD	060f7H
	DD	06126H
	DD	06154H
	DD	06183H
	DD	061b1H
	DD	061e0H
	DD	0620eH
	DD	0623dH
	DD	0626bH
	DD	06299H
	DD	062c8H
	DD	062f6H
	DD	06325H
	DD	06353H
	DD	06381H
	DD	063b0H
	DD	063deH
	DD	0640cH
	DD	0643aH
	DD	06469H
	DD	06497H
	DD	064c5H
	DD	064f3H
	DD	06521H
	DD	06550H
	DD	0657eH
	DD	065acH
	DD	065daH
	DD	06608H
	DD	06636H
	DD	06664H
	DD	06692H
	DD	066c0H
	DD	066eeH
	DD	0671cH
	DD	0674aH
	DD	06778H
	DD	067a6H
	DD	067d4H
	DD	06802H
	DD	06830H
	DD	0685eH
	DD	0688cH
	DD	068baH
	DD	068e8H
	DD	06916H
	DD	06943H
	DD	06971H
	DD	0699fH
	DD	069cdH
	DD	069fbH
	DD	06a28H
	DD	06a56H
	DD	06a84H
	DD	06ab1H
	DD	06adfH
	DD	06b0dH
	DD	06b3aH
	DD	06b68H
	DD	06b96H
	DD	06bc3H
	DD	06bf1H
	DD	06c1eH
	DD	06c4cH
	DD	06c7aH
	DD	06ca7H
	DD	06cd5H
	DD	06d02H
	DD	06d30H
	DD	06d5dH
	DD	06d8aH
	DD	06db8H
	DD	06de5H
	DD	06e13H
	DD	06e40H
	DD	06e6dH
	DD	06e9bH
	DD	06ec8H
	DD	06ef5H
	DD	06f23H
	DD	06f50H
	DD	06f7dH
	DD	06faaH
	DD	06fd8H
	DD	07005H
	DD	07032H
	DD	0705fH
	DD	0708cH
	DD	070baH
	DD	070e7H
	DD	07114H
	DD	07141H
	DD	0716eH
	DD	0719bH
	DD	071c8H
	DD	071f5H
	DD	07222H
	DD	0724fH
	DD	0727cH
	DD	072a9H
	DD	072d6H
	DD	07303H
	DD	07330H
	DD	0735dH
	DD	07389H
	DD	073b6H
	DD	073e3H
	DD	07410H
	DD	0743dH
	DD	07469H
	DD	07496H
	DD	074c3H
	DD	074f0H
	DD	0751cH
	DD	07549H
	DD	07576H
	DD	075a2H
	DD	075cfH
	DD	075fcH
	DD	07628H
	DD	07655H
	DD	07681H
	DD	076aeH
	DD	076daH
	DD	07707H
	DD	07733H
	DD	07760H
	DD	0778cH
	DD	077b9H
	DD	077e5H
	DD	07812H
	DD	0783eH
	DD	0786aH
	DD	07897H
	DD	078c3H
	DD	078efH
	DD	0791cH
	DD	07948H
	DD	07974H
	DD	079a0H
	DD	079cdH
	DD	079f9H
	DD	07a25H
	DD	07a51H
	DD	07a7dH
	DD	07aaaH
	DD	07ad6H
	DD	07b02H
	DD	07b2eH
	DD	07b5aH
	DD	07b86H
	DD	07bb2H
	DD	07bdeH
	DD	07c0aH
	DD	07c36H
	DD	07c62H
	DD	07c8eH
	DD	07cbaH
	DD	07ce6H
	DD	07d11H
	DD	07d3dH
	DD	07d69H
	DD	07d95H
	DD	07dc1H
	DD	07decH
	DD	07e18H
	DD	07e44H
	DD	07e70H
	DD	07e9bH
	DD	07ec7H
	DD	07ef3H
	DD	07f1eH
	DD	07f4aH
	DD	07f76H
	DD	07fa1H
	DD	07fcdH
	DD	07ff8H
	DD	08024H
	DD	0804fH
	DD	0807bH
	DD	080a6H
	DD	080d2H
	DD	080fdH
	DD	08129H
	DD	08154H
	DD	0817fH
	DD	081abH
	DD	081d6H
	DD	08201H
	DD	0822dH
	DD	08258H
	DD	08283H
	DD	082aeH
	DD	082daH
	DD	08305H
	DD	08330H
	DD	0835bH
	DD	08386H
	DD	083b1H
	DD	083dcH
	DD	08407H
	DD	08433H
	DD	0845eH
	DD	08489H
	DD	084b4H
	DD	084dfH
	DD	08509H
	DD	08534H
	DD	0855fH
	DD	0858aH
	DD	085b5H
	DD	085e0H
	DD	0860bH
	DD	08636H
	DD	08660H
	DD	0868bH
	DD	086b6H
	DD	086e1H
	DD	0870bH
	DD	08736H
	DD	08761H
	DD	0878bH
	DD	087b6H
	DD	087e1H
	DD	0880bH
	DD	08836H
	DD	08860H
	DD	0888bH
	DD	088b5H
	DD	088e0H
	DD	0890aH
	DD	08935H
	DD	0895fH
	DD	0898aH
	DD	089b4H
	DD	089deH
	DD	08a09H
	DD	08a33H
	DD	08a5dH
	DD	08a88H
	DD	08ab2H
	DD	08adcH
	DD	08b06H
	DD	08b31H
	DD	08b5bH
	DD	08b85H
	DD	08bafH
	DD	08bd9H
	DD	08c03H
	DD	08c2dH
	DD	08c57H
	DD	08c81H
	DD	08cabH
	DD	08cd5H
	DD	08cffH
	DD	08d29H
	DD	08d53H
	DD	08d7dH
	DD	08da7H
	DD	08dd1H
	DD	08dfbH
	DD	08e24H
	DD	08e4eH
	DD	08e78H
	DD	08ea2H
	DD	08ecbH
	DD	08ef5H
	DD	08f1fH
	DD	08f49H
	DD	08f72H
	DD	08f9cH
	DD	08fc5H
	DD	08fefH
	DD	09019H
	DD	09042H
	DD	0906cH
	DD	09095H
	DD	090bfH
	DD	090e8H
	DD	09111H
	DD	0913bH
	DD	09164H
	DD	0918eH
	DD	091b7H
	DD	091e0H
	DD	0920aH
	DD	09233H
	DD	0925cH
	DD	09285H
	DD	092afH
	DD	092d8H
	DD	09301H
	DD	0932aH
	DD	09353H
	DD	0937cH
	DD	093a5H
	DD	093ceH
	DD	093f7H
	DD	09420H
	DD	09449H
	DD	09472H
	DD	0949bH
	DD	094c4H
	DD	094edH
	DD	09516H
	DD	0953fH
	DD	09568H
	DD	09590H
	DD	095b9H
	DD	095e2H
	DD	0960bH
	DD	09633H
	DD	0965cH
	DD	09685H
	DD	096adH
	DD	096d6H
	DD	096ffH
	DD	09727H
	DD	09750H
	DD	09778H
	DD	097a1H
	DD	097c9H
	DD	097f2H
	DD	0981aH
	DD	09843H
	DD	0986bH
	DD	09893H
	DD	098bcH
	DD	098e4H
	DD	0990cH
	DD	09935H
	DD	0995dH
	DD	09985H
	DD	099adH
	DD	099d6H
	DD	099feH
	DD	09a26H
	DD	09a4eH
	DD	09a76H
	DD	09a9eH
	DD	09ac6H
	DD	09aeeH
	DD	09b16H
	DD	09b3eH
	DD	09b66H
	DD	09b8eH
	DD	09bb6H
	DD	09bdeH
	DD	09c06H
	DD	09c2eH
	DD	09c55H
	DD	09c7dH
	DD	09ca5H
	DD	09ccdH
	DD	09cf4H
	DD	09d1cH
	DD	09d44H
	DD	09d6cH
	DD	09d93H
	DD	09dbbH
	DD	09de2H
	DD	09e0aH
	DD	09e31H
	DD	09e59H
	DD	09e80H
	DD	09ea8H
	DD	09ecfH
	DD	09ef7H
	DD	09f1eH
	DD	09f45H
	DD	09f6dH
	DD	09f94H
	DD	09fbbH
	DD	09fe3H
	DD	0a00aH
	DD	0a031H
	DD	0a058H
	DD	0a07fH
	DD	0a0a7H
	DD	0a0ceH
	DD	0a0f5H
	DD	0a11cH
	DD	0a143H
	DD	0a16aH
	DD	0a191H
	DD	0a1b8H
	DD	0a1dfH
	DD	0a206H
	DD	0a22dH
	DD	0a254H
	DD	0a27bH
	DD	0a2a1H
	DD	0a2c8H
	DD	0a2efH
	DD	0a316H
	DD	0a33cH
	DD	0a363H
	DD	0a38aH
	DD	0a3b0H
	DD	0a3d7H
	DD	0a3feH
	DD	0a424H
	DD	0a44bH
	DD	0a471H
	DD	0a498H
	DD	0a4beH
	DD	0a4e5H
	DD	0a50bH
	DD	0a532H
	DD	0a558H
	DD	0a57eH
	DD	0a5a5H
	DD	0a5cbH
	DD	0a5f1H
	DD	0a618H
	DD	0a63eH
	DD	0a664H
	DD	0a68aH
	DD	0a6b0H
	DD	0a6d7H
	DD	0a6fdH
	DD	0a723H
	DD	0a749H
	DD	0a76fH
	DD	0a795H
	DD	0a7bbH
	DD	0a7e1H
	DD	0a807H
	DD	0a82dH
	DD	0a853H
	DD	0a878H
	DD	0a89eH
	DD	0a8c4H
	DD	0a8eaH
	DD	0a910H
	DD	0a935H
	DD	0a95bH
	DD	0a981H
	DD	0a9a6H
	DD	0a9ccH
	DD	0a9f2H
	DD	0aa17H
	DD	0aa3dH
	DD	0aa62H
	DD	0aa88H
	DD	0aaadH
	DD	0aad3H
	DD	0aaf8H
	DD	0ab1eH
	DD	0ab43H
	DD	0ab68H
	DD	0ab8eH
	DD	0abb3H
	DD	0abd8H
	DD	0abfdH
	DD	0ac23H
	DD	0ac48H
	DD	0ac6dH
	DD	0ac92H
	DD	0acb7H
	DD	0acdcH
	DD	0ad01H
	DD	0ad26H
	DD	0ad4bH
	DD	0ad70H
	DD	0ad95H
	DD	0adbaH
	DD	0addfH
	DD	0ae04H
	DD	0ae29H
	DD	0ae4eH
	DD	0ae73H
	DD	0ae97H
	DD	0aebcH
	DD	0aee1H
	DD	0af06H
	DD	0af2aH
	DD	0af4fH
	DD	0af73H
	DD	0af98H
	DD	0afbdH
	DD	0afe1H
	DD	0b006H
	DD	0b02aH
	DD	0b04fH
	DD	0b073H
	DD	0b097H
	DD	0b0bcH
	DD	0b0e0H
	DD	0b104H
	DD	0b129H
	DD	0b14dH
	DD	0b171H
	DD	0b196H
	DD	0b1baH
	DD	0b1deH
	DD	0b202H
	DD	0b226H
	DD	0b24aH
	DD	0b26eH
	DD	0b292H
	DD	0b2b6H
	DD	0b2daH
	DD	0b2feH
	DD	0b322H
	DD	0b346H
	DD	0b36aH
	DD	0b38eH
	DD	0b3b2H
	DD	0b3d5H
	DD	0b3f9H
	DD	0b41dH
	DD	0b441H
	DD	0b464H
	DD	0b488H
	DD	0b4acH
	DD	0b4cfH
	DD	0b4f3H
	DD	0b516H
	DD	0b53aH
	DD	0b55dH
	DD	0b581H
	DD	0b5a4H
	DD	0b5c8H
	DD	0b5ebH
	DD	0b60eH
	DD	0b632H
	DD	0b655H
	DD	0b678H
	DD	0b69bH
	DD	0b6bfH
	DD	0b6e2H
	DD	0b705H
	DD	0b728H
	DD	0b74bH
	DD	0b76eH
	DD	0b791H
	DD	0b7b4H
	DD	0b7d7H
	DD	0b7faH
	DD	0b81dH
	DD	0b840H
	DD	0b863H
	DD	0b886H
	DD	0b8a9H
	DD	0b8ccH
	DD	0b8eeH
	DD	0b911H
	DD	0b934H
	DD	0b956H
	DD	0b979H
	DD	0b99cH
	DD	0b9beH
	DD	0b9e1H
	DD	0ba03H
	DD	0ba26H
	DD	0ba48H
	DD	0ba6bH
	DD	0ba8dH
	DD	0bab0H
	DD	0bad2H
	DD	0baf4H
	DD	0bb17H
	DD	0bb39H
	DD	0bb5bH
	DD	0bb7eH
	DD	0bba0H
	DD	0bbc2H
	DD	0bbe4H
	DD	0bc06H
	DD	0bc28H
	DD	0bc4aH
	DD	0bc6dH
	DD	0bc8fH
	DD	0bcb1H
	DD	0bcd2H
	DD	0bcf4H
	DD	0bd16H
	DD	0bd38H
	DD	0bd5aH
	DD	0bd7cH
	DD	0bd9eH
	DD	0bdbfH
	DD	0bde1H
	DD	0be03H
	DD	0be24H
	DD	0be46H
	DD	0be68H
	DD	0be89H
	DD	0beabH
	DD	0beccH
	DD	0beeeH
	DD	0bf0fH
	DD	0bf31H
	DD	0bf52H
	DD	0bf74H
	DD	0bf95H
	DD	0bfb6H
	DD	0bfd8H
	DD	0bff9H
	DD	0c01aH
	DD	0c03bH
	DD	0c05cH
	DD	0c07eH
	DD	0c09fH
	DD	0c0c0H
	DD	0c0e1H
	DD	0c102H
	DD	0c123H
	DD	0c144H
	DD	0c165H
	DD	0c186H
	DD	0c1a7H
	DD	0c1c8H
	DD	0c1e8H
	DD	0c209H
	DD	0c22aH
	DD	0c24bH
	DD	0c26bH
	DD	0c28cH
	DD	0c2adH
	DD	0c2cdH
	DD	0c2eeH
	DD	0c30fH
	DD	0c32fH
	DD	0c350H
	DD	0c370H
	DD	0c391H
	DD	0c3b1H
	DD	0c3d1H
	DD	0c3f2H
	DD	0c412H
	DD	0c432H
	DD	0c453H
	DD	0c473H
	DD	0c493H
	DD	0c4b3H
	DD	0c4d3H
	DD	0c4f4H
	DD	0c514H
	DD	0c534H
	DD	0c554H
	DD	0c574H
	DD	0c594H
	DD	0c5b4H
	DD	0c5d4H
	DD	0c5f3H
	DD	0c613H
	DD	0c633H
	DD	0c653H
	DD	0c673H
	DD	0c692H
	DD	0c6b2H
	DD	0c6d2H
	DD	0c6f1H
	DD	0c711H
	DD	0c731H
	DD	0c750H
	DD	0c770H
	DD	0c78fH
	DD	0c7afH
	DD	0c7ceH
	DD	0c7eeH
	DD	0c80dH
	DD	0c82cH
	DD	0c84cH
	DD	0c86bH
	DD	0c88aH
	DD	0c8a9H
	DD	0c8c9H
	DD	0c8e8H
	DD	0c907H
	DD	0c926H
	DD	0c945H
	DD	0c964H
	DD	0c983H
	DD	0c9a2H
	DD	0c9c1H
	DD	0c9e0H
	DD	0c9ffH
	DD	0ca1eH
	DD	0ca3dH
	DD	0ca5bH
	DD	0ca7aH
	DD	0ca99H
	DD	0cab8H
	DD	0cad6H
	DD	0caf5H
	DD	0cb14H
	DD	0cb32H
	DD	0cb51H
	DD	0cb6fH
	DD	0cb8eH
	DD	0cbacH
	DD	0cbcbH
	DD	0cbe9H
	DD	0cc07H
	DD	0cc26H
	DD	0cc44H
	DD	0cc62H
	DD	0cc81H
	DD	0cc9fH
	DD	0ccbdH
	DD	0ccdbH
	DD	0ccf9H
	DD	0cd17H
	DD	0cd36H
	DD	0cd54H
	DD	0cd72H
	DD	0cd90H
	DD	0cdadH
	DD	0cdcbH
	DD	0cde9H
	DD	0ce07H
	DD	0ce25H
	DD	0ce43H
	DD	0ce60H
	DD	0ce7eH
	DD	0ce9cH
	DD	0cebaH
	DD	0ced7H
	DD	0cef5H
	DD	0cf12H
	DD	0cf30H
	DD	0cf4dH
	DD	0cf6bH
	DD	0cf88H
	DD	0cfa6H
	DD	0cfc3H
	DD	0cfe0H
	DD	0cffeH
	DD	0d01bH
	DD	0d038H
	DD	0d056H
	DD	0d073H
	DD	0d090H
	DD	0d0adH
	DD	0d0caH
	DD	0d0e7H
	DD	0d104H
	DD	0d121H
	DD	0d13eH
	DD	0d15bH
	DD	0d178H
	DD	0d195H
	DD	0d1b2H
	DD	0d1cfH
	DD	0d1ebH
	DD	0d208H
	DD	0d225H
	DD	0d242H
	DD	0d25eH
	DD	0d27bH
	DD	0d297H
	DD	0d2b4H
	DD	0d2d1H
	DD	0d2edH
	DD	0d30aH
	DD	0d326H
	DD	0d342H
	DD	0d35fH
	DD	0d37bH
	DD	0d397H
	DD	0d3b4H
	DD	0d3d0H
	DD	0d3ecH
	DD	0d408H
	DD	0d424H
	DD	0d441H
	DD	0d45dH
	DD	0d479H
	DD	0d495H
	DD	0d4b1H
	DD	0d4cdH
	DD	0d4e9H
	DD	0d505H
	DD	0d520H
	DD	0d53cH
	DD	0d558H
	DD	0d574H
	DD	0d590H
	DD	0d5abH
	DD	0d5c7H
	DD	0d5e3H
	DD	0d5feH
	DD	0d61aH
	DD	0d635H
	DD	0d651H
	DD	0d66cH
	DD	0d688H
	DD	0d6a3H
	DD	0d6beH
	DD	0d6daH
	DD	0d6f5H
	DD	0d710H
	DD	0d72cH
	DD	0d747H
	DD	0d762H
	DD	0d77dH
	DD	0d798H
	DD	0d7b3H
	DD	0d7ceH
	DD	0d7eaH
	DD	0d804H
	DD	0d81fH
	DD	0d83aH
	DD	0d855H
	DD	0d870H
	DD	0d88bH
	DD	0d8a6H
	DD	0d8c1H
	DD	0d8dbH
	DD	0d8f6H
	DD	0d911H
	DD	0d92bH
	DD	0d946H
	DD	0d960H
	DD	0d97bH
	DD	0d995H
	DD	0d9b0H
	DD	0d9caH
	DD	0d9e5H
	DD	0d9ffH
	DD	0da19H
	DD	0da34H
	DD	0da4eH
	DD	0da68H
	DD	0da82H
	DD	0da9dH
	DD	0dab7H
	DD	0dad1H
	DD	0daebH
	DD	0db05H
	DD	0db1fH
	DD	0db39H
	DD	0db53H
	DD	0db6dH
	DD	0db87H
	DD	0dba1H
	DD	0dbbaH
	DD	0dbd4H
	DD	0dbeeH
	DD	0dc08H
	DD	0dc21H
	DD	0dc3bH
	DD	0dc54H
	DD	0dc6eH
	DD	0dc88H
	DD	0dca1H
	DD	0dcbbH
	DD	0dcd4H
	DD	0dcedH
	DD	0dd07H
	DD	0dd20H
	DD	0dd39H
	DD	0dd53H
	DD	0dd6cH
	DD	0dd85H
	DD	0dd9eH
	DD	0ddb8H
	DD	0ddd1H
	DD	0ddeaH
	DD	0de03H
	DD	0de1cH
	DD	0de35H
	DD	0de4eH
	DD	0de67H
	DD	0de7fH
	DD	0de98H
	DD	0deb1H
	DD	0decaH
	DD	0dee3H
	DD	0defbH
	DD	0df14H
	DD	0df2dH
	DD	0df45H
	DD	0df5eH
	DD	0df76H
	DD	0df8fH
	DD	0dfa7H
	DD	0dfc0H
	DD	0dfd8H
	DD	0dff1H
	DD	0e009H
	DD	0e021H
	DD	0e03aH
	DD	0e052H
	DD	0e06aH
	DD	0e082H
	DD	0e09aH
	DD	0e0b2H
	DD	0e0caH
	DD	0e0e2H
	DD	0e0faH
	DD	0e112H
	DD	0e12aH
	DD	0e142H
	DD	0e15aH
	DD	0e172H
	DD	0e18aH
	DD	0e1a2H
	DD	0e1b9H
	DD	0e1d1H
	DD	0e1e9H
	DD	0e200H
	DD	0e218H
	DD	0e22fH
	DD	0e247H
	DD	0e25eH
	DD	0e276H
	DD	0e28dH
	DD	0e2a5H
	DD	0e2bcH
	DD	0e2d3H
	DD	0e2ebH
	DD	0e302H
	DD	0e319H
	DD	0e330H
	DD	0e347H
	DD	0e35fH
	DD	0e376H
	DD	0e38dH
	DD	0e3a4H
	DD	0e3bbH
	DD	0e3d2H
	DD	0e3e9H
	DD	0e3ffH
	DD	0e416H
	DD	0e42dH
	DD	0e444H
	DD	0e45bH
	DD	0e471H
	DD	0e488H
	DD	0e49fH
	DD	0e4b5H
	DD	0e4ccH
	DD	0e4e2H
	DD	0e4f9H
	DD	0e50fH
	DD	0e526H
	DD	0e53cH
	DD	0e552H
	DD	0e569H
	DD	0e57fH
	DD	0e595H
	DD	0e5abH
	DD	0e5c2H
	DD	0e5d8H
	DD	0e5eeH
	DD	0e604H
	DD	0e61aH
	DD	0e630H
	DD	0e646H
	DD	0e65cH
	DD	0e672H
	DD	0e688H
	DD	0e69eH
	DD	0e6b3H
	DD	0e6c9H
	DD	0e6dfH
	DD	0e6f5H
	DD	0e70aH
	DD	0e720H
	DD	0e736H
	DD	0e74bH
	DD	0e761H
	DD	0e776H
	DD	0e78cH
	DD	0e7a1H
	DD	0e7b6H
	DD	0e7ccH
	DD	0e7e1H
	DD	0e7f6H
	DD	0e80cH
	DD	0e821H
	DD	0e836H
	DD	0e84bH
	DD	0e860H
	DD	0e875H
	DD	0e88aH
	DD	0e89fH
	DD	0e8b4H
	DD	0e8c9H
	DD	0e8deH
	DD	0e8f3H
	DD	0e908H
	DD	0e91dH
	DD	0e931H
	DD	0e946H
	DD	0e95bH
	DD	0e96fH
	DD	0e984H
	DD	0e999H
	DD	0e9adH
	DD	0e9c2H
	DD	0e9d6H
	DD	0e9ebH
	DD	0e9ffH
	DD	0ea13H
	DD	0ea28H
	DD	0ea3cH
	DD	0ea50H
	DD	0ea64H
	DD	0ea79H
	DD	0ea8dH
	DD	0eaa1H
	DD	0eab5H
	DD	0eac9H
	DD	0eaddH
	DD	0eaf1H
	DD	0eb05H
	DD	0eb19H
	DD	0eb2dH
	DD	0eb41H
	DD	0eb54H
	DD	0eb68H
	DD	0eb7cH
	DD	0eb90H
	DD	0eba3H
	DD	0ebb7H
	DD	0ebcbH
	DD	0ebdeH
	DD	0ebf2H
	DD	0ec05H
	DD	0ec19H
	DD	0ec2cH
	DD	0ec3fH
	DD	0ec53H
	DD	0ec66H
	DD	0ec79H
	DD	0ec8cH
	DD	0eca0H
	DD	0ecb3H
	DD	0ecc6H
	DD	0ecd9H
	DD	0ececH
	DD	0ecffH
	DD	0ed12H
	DD	0ed25H
	DD	0ed38H
	DD	0ed4bH
	DD	0ed5eH
	DD	0ed71H
	DD	0ed83H
	DD	0ed96H
	DD	0eda9H
	DD	0edbbH
	DD	0edceH
	DD	0ede1H
	DD	0edf3H
	DD	0ee06H
	DD	0ee18H
	DD	0ee2bH
	DD	0ee3dH
	DD	0ee4fH
	DD	0ee62H
	DD	0ee74H
	DD	0ee86H
	DD	0ee99H
	DD	0eeabH
	DD	0eebdH
	DD	0eecfH
	DD	0eee1H
	DD	0eef3H
	DD	0ef05H
	DD	0ef17H
	DD	0ef29H
	DD	0ef3bH
	DD	0ef4dH
	DD	0ef5fH
	DD	0ef71H
	DD	0ef82H
	DD	0ef94H
	DD	0efa6H
	DD	0efb7H
	DD	0efc9H
	DD	0efdbH
	DD	0efecH
	DD	0effeH
	DD	0f00fH
	DD	0f021H
	DD	0f032H
	DD	0f043H
	DD	0f055H
	DD	0f066H
	DD	0f077H
	DD	0f089H
	DD	0f09aH
	DD	0f0abH
	DD	0f0bcH
	DD	0f0cdH
	DD	0f0deH
	DD	0f0efH
	DD	0f100H
	DD	0f111H
	DD	0f122H
	DD	0f133H
	DD	0f144H
	DD	0f154H
	DD	0f165H
	DD	0f176H
	DD	0f187H
	DD	0f197H
	DD	0f1a8H
	DD	0f1b8H
	DD	0f1c9H
	DD	0f1d9H
	DD	0f1eaH
	DD	0f1faH
	DD	0f20bH
	DD	0f21bH
	DD	0f22bH
	DD	0f23cH
	DD	0f24cH
	DD	0f25cH
	DD	0f26cH
	DD	0f27cH
	DD	0f28cH
	DD	0f29cH
	DD	0f2adH
	DD	0f2bdH
	DD	0f2ccH
	DD	0f2dcH
	DD	0f2ecH
	DD	0f2fcH
	DD	0f30cH
	DD	0f31cH
	DD	0f32bH
	DD	0f33bH
	DD	0f34bH
	DD	0f35aH
	DD	0f36aH
	DD	0f379H
	DD	0f389H
	DD	0f398H
	DD	0f3a8H
	DD	0f3b7H
	DD	0f3c7H
	DD	0f3d6H
	DD	0f3e5H
	DD	0f3f5H
	DD	0f404H
	DD	0f413H
	DD	0f422H
	DD	0f431H
	DD	0f440H
	DD	0f44fH
	DD	0f45eH
	DD	0f46dH
	DD	0f47cH
	DD	0f48bH
	DD	0f49aH
	DD	0f4a9H
	DD	0f4b8H
	DD	0f4c6H
	DD	0f4d5H
	DD	0f4e4H
	DD	0f4f2H
	DD	0f501H
	DD	0f50fH
	DD	0f51eH
	DD	0f52cH
	DD	0f53bH
	DD	0f549H
	DD	0f558H
	DD	0f566H
	DD	0f574H
	DD	0f582H
	DD	0f591H
	DD	0f59fH
	DD	0f5adH
	DD	0f5bbH
	DD	0f5c9H
	DD	0f5d7H
	DD	0f5e5H
	DD	0f5f3H
	DD	0f601H
	DD	0f60fH
	DD	0f61dH
	DD	0f62bH
	DD	0f638H
	DD	0f646H
	DD	0f654H
	DD	0f662H
	DD	0f66fH
	DD	0f67dH
	DD	0f68aH
	DD	0f698H
	DD	0f6a5H
	DD	0f6b3H
	DD	0f6c0H
	DD	0f6ceH
	DD	0f6dbH
	DD	0f6e8H
	DD	0f6f5H
	DD	0f703H
	DD	0f710H
	DD	0f71dH
	DD	0f72aH
	DD	0f737H
	DD	0f744H
	DD	0f751H
	DD	0f75eH
	DD	0f76bH
	DD	0f778H
	DD	0f785H
	DD	0f792H
	DD	0f79eH
	DD	0f7abH
	DD	0f7b8H
	DD	0f7c5H
	DD	0f7d1H
	DD	0f7deH
	DD	0f7eaH
	DD	0f7f7H
	DD	0f803H
	DD	0f810H
	DD	0f81cH
	DD	0f828H
	DD	0f835H
	DD	0f841H
	DD	0f84dH
	DD	0f85aH
	DD	0f866H
	DD	0f872H
	DD	0f87eH
	DD	0f88aH
	DD	0f896H
	DD	0f8a2H
	DD	0f8aeH
	DD	0f8baH
	DD	0f8c6H
	DD	0f8d2H
	DD	0f8ddH
	DD	0f8e9H
	DD	0f8f5H
	DD	0f901H
	DD	0f90cH
	DD	0f918H
	DD	0f923H
	DD	0f92fH
	DD	0f93bH
	DD	0f946H
	DD	0f951H
	DD	0f95dH
	DD	0f968H
	DD	0f973H
	DD	0f97fH
	DD	0f98aH
	DD	0f995H
	DD	0f9a0H
	DD	0f9abH
	DD	0f9b7H
	DD	0f9c2H
	DD	0f9cdH
	DD	0f9d8H
	DD	0f9e3H
	DD	0f9edH
	DD	0f9f8H
	DD	0fa03H
	DD	0fa0eH
	DD	0fa19H
	DD	0fa23H
	DD	0fa2eH
	DD	0fa39H
	DD	0fa43H
	DD	0fa4eH
	DD	0fa58H
	DD	0fa63H
	DD	0fa6dH
	DD	0fa78H
	DD	0fa82H
	DD	0fa8cH
	DD	0fa97H
	DD	0faa1H
	DD	0faabH
	DD	0fab5H
	DD	0fac0H
	DD	0facaH
	DD	0fad4H
	DD	0fadeH
	DD	0fae8H
	DD	0faf2H
	DD	0fafcH
	DD	0fb05H
	DD	0fb0fH
	DD	0fb19H
	DD	0fb23H
	DD	0fb2dH
	DD	0fb36H
	DD	0fb40H
	DD	0fb4aH
	DD	0fb53H
	DD	0fb5dH
	DD	0fb66H
	DD	0fb70H
	DD	0fb79H
	DD	0fb83H
	DD	0fb8cH
	DD	0fb95H
	DD	0fb9eH
	DD	0fba8H
	DD	0fbb1H
	DD	0fbbaH
	DD	0fbc3H
	DD	0fbccH
	DD	0fbd5H
	DD	0fbdeH
	DD	0fbe7H
	DD	0fbf0H
	DD	0fbf9H
	DD	0fc02H
	DD	0fc0bH
	DD	0fc14H
	DD	0fc1cH
	DD	0fc25H
	DD	0fc2eH
	DD	0fc36H
	DD	0fc3fH
	DD	0fc48H
	DD	0fc50H
	DD	0fc59H
	DD	0fc61H
	DD	0fc69H
	DD	0fc72H
	DD	0fc7aH
	DD	0fc82H
	DD	0fc8bH
	DD	0fc93H
	DD	0fc9bH
	DD	0fca3H
	DD	0fcabH
	DD	0fcb3H
	DD	0fcbbH
	DD	0fcc3H
	DD	0fccbH
	DD	0fcd3H
	DD	0fcdbH
	DD	0fce3H
	DD	0fcebH
	DD	0fcf2H
	DD	0fcfaH
	DD	0fd02H
	DD	0fd09H
	DD	0fd11H
	DD	0fd19H
	DD	0fd20H
	DD	0fd28H
	DD	0fd2fH
	DD	0fd36H
	DD	0fd3eH
	DD	0fd45H
	DD	0fd4cH
	DD	0fd54H
	DD	0fd5bH
	DD	0fd62H
	DD	0fd69H
	DD	0fd70H
	DD	0fd77H
	DD	0fd7fH
	DD	0fd86H
	DD	0fd8cH
	DD	0fd93H
	DD	0fd9aH
	DD	0fda1H
	DD	0fda8H
	DD	0fdafH
	DD	0fdb5H
	DD	0fdbcH
	DD	0fdc3H
	DD	0fdc9H
	DD	0fdd0H
	DD	0fdd6H
	DD	0fdddH
	DD	0fde3H
	DD	0fdeaH
	DD	0fdf0H
	DD	0fdf7H
	DD	0fdfdH
	DD	0fe03H
	DD	0fe09H
	DD	0fe10H
	DD	0fe16H
	DD	0fe1cH
	DD	0fe22H
	DD	0fe28H
	DD	0fe2eH
	DD	0fe34H
	DD	0fe3aH
	DD	0fe40H
	DD	0fe46H
	DD	0fe4bH
	DD	0fe51H
	DD	0fe57H
	DD	0fe5dH
	DD	0fe62H
	DD	0fe68H
	DD	0fe6dH
	DD	0fe73H
	DD	0fe78H
	DD	0fe7eH
	DD	0fe83H
	DD	0fe89H
	DD	0fe8eH
	DD	0fe93H
	DD	0fe99H
	DD	0fe9eH
	DD	0fea3H
	DD	0fea8H
	DD	0feadH
	DD	0feb2H
	DD	0feb7H
	DD	0febcH
	DD	0fec1H
	DD	0fec6H
	DD	0fecbH
	DD	0fed0H
	DD	0fed5H
	DD	0fedaH
	DD	0fedeH
	DD	0fee3H
	DD	0fee8H
	DD	0feecH
	DD	0fef1H
	DD	0fef6H
	DD	0fefaH
	DD	0feffH
	DD	0ff03H
	DD	0ff07H
	DD	0ff0cH
	DD	0ff10H
	DD	0ff14H
	DD	0ff19H
	DD	0ff1dH
	DD	0ff21H
	DD	0ff25H
	DD	0ff29H
	DD	0ff2dH
	DD	0ff31H
	DD	0ff35H
	DD	0ff39H
	DD	0ff3dH
	DD	0ff41H
	DD	0ff45H
	DD	0ff48H
	DD	0ff4cH
	DD	0ff50H
	DD	0ff53H
	DD	0ff57H
	DD	0ff5bH
	DD	0ff5eH
	DD	0ff62H
	DD	0ff65H
	DD	0ff69H
	DD	0ff6cH
	DD	0ff6fH
	DD	0ff73H
	DD	0ff76H
	DD	0ff79H
	DD	0ff7cH
	DD	0ff80H
	DD	0ff83H
	DD	0ff86H
	DD	0ff89H
	DD	0ff8cH
	DD	0ff8fH
	DD	0ff92H
	DD	0ff95H
	DD	0ff97H
	DD	0ff9aH
	DD	0ff9dH
	DD	0ffa0H
	DD	0ffa2H
	DD	0ffa5H
	DD	0ffa8H
	DD	0ffaaH
	DD	0ffadH
	DD	0ffafH
	DD	0ffb2H
	DD	0ffb4H
	DD	0ffb7H
	DD	0ffb9H
	DD	0ffbbH
	DD	0ffbeH
	DD	0ffc0H
	DD	0ffc2H
	DD	0ffc4H
	DD	0ffc6H
	DD	0ffc8H
	DD	0ffcaH
	DD	0ffccH
	DD	0ffceH
	DD	0ffd0H
	DD	0ffd2H
	DD	0ffd4H
	DD	0ffd6H
	DD	0ffd8H
	DD	0ffd9H
	DD	0ffdbH
	DD	0ffddH
	DD	0ffdeH
	DD	0ffe0H
	DD	0ffe1H
	DD	0ffe3H
	DD	0ffe4H
	DD	0ffe6H
	DD	0ffe7H
	DD	0ffe9H
	DD	0ffeaH
	DD	0ffebH
	DD	0ffecH
	DD	0ffeeH
	DD	0ffefH
	DD	0fff0H
	DD	0fff1H
	DD	0fff2H
	DD	0fff3H
	DD	0fff4H
	DD	0fff5H
	DD	0fff6H
	DD	0fff7H
	DD	0fff7H
	DD	0fff8H
	DD	0fff9H
	DD	0fffaH
	DD	0fffaH
	DD	0fffbH
	DD	0fffbH
	DD	0fffcH
	DD	0fffcH
	DD	0fffdH
	DD	0fffdH
	DD	0fffeH
	DD	0fffeH
	DD	0fffeH
	DD	0ffffH
	DD	0ffffH
	DD	0ffffH
	DD	0ffffH
	DD	0ffffH
	DD	0ffffH
	DD	0ffffH
	DD	0ffffH
	DD	0ffffH
	DD	0ffffH
	DD	0ffffH
	DD	0ffffH
	DD	0ffffH
	DD	0ffffH
	DD	0fffeH
	DD	0fffeH
	DD	0fffeH
	DD	0fffdH
	DD	0fffdH
	DD	0fffcH
	DD	0fffcH
	DD	0fffbH
	DD	0fffbH
	DD	0fffaH
	DD	0fffaH
	DD	0fff9H
	DD	0fff8H
	DD	0fff7H
	DD	0fff7H
	DD	0fff6H
	DD	0fff5H
	DD	0fff4H
	DD	0fff3H
	DD	0fff2H
	DD	0fff1H
	DD	0fff0H
	DD	0ffefH
	DD	0ffeeH
	DD	0ffecH
	DD	0ffebH
	DD	0ffeaH
	DD	0ffe9H
	DD	0ffe7H
	DD	0ffe6H
	DD	0ffe4H
	DD	0ffe3H
	DD	0ffe1H
	DD	0ffe0H
	DD	0ffdeH
	DD	0ffddH
	DD	0ffdbH
	DD	0ffd9H
	DD	0ffd8H
	DD	0ffd6H
	DD	0ffd4H
	DD	0ffd2H
	DD	0ffd0H
	DD	0ffceH
	DD	0ffccH
	DD	0ffcaH
	DD	0ffc8H
	DD	0ffc6H
	DD	0ffc4H
	DD	0ffc2H
	DD	0ffc0H
	DD	0ffbeH
	DD	0ffbbH
	DD	0ffb9H
	DD	0ffb7H
	DD	0ffb4H
	DD	0ffb2H
	DD	0ffafH
	DD	0ffadH
	DD	0ffaaH
	DD	0ffa8H
	DD	0ffa5H
	DD	0ffa2H
	DD	0ffa0H
	DD	0ff9dH
	DD	0ff9aH
	DD	0ff97H
	DD	0ff95H
	DD	0ff92H
	DD	0ff8fH
	DD	0ff8cH
	DD	0ff89H
	DD	0ff86H
	DD	0ff83H
	DD	0ff80H
	DD	0ff7cH
	DD	0ff79H
	DD	0ff76H
	DD	0ff73H
	DD	0ff6fH
	DD	0ff6cH
	DD	0ff69H
	DD	0ff65H
	DD	0ff62H
	DD	0ff5eH
	DD	0ff5bH
	DD	0ff57H
	DD	0ff53H
	DD	0ff50H
	DD	0ff4cH
	DD	0ff48H
	DD	0ff45H
	DD	0ff41H
	DD	0ff3dH
	DD	0ff39H
	DD	0ff35H
	DD	0ff31H
	DD	0ff2dH
	DD	0ff29H
	DD	0ff25H
	DD	0ff21H
	DD	0ff1dH
	DD	0ff19H
	DD	0ff14H
	DD	0ff10H
	DD	0ff0cH
	DD	0ff07H
	DD	0ff03H
	DD	0feffH
	DD	0fefaH
	DD	0fef6H
	DD	0fef1H
	DD	0feecH
	DD	0fee8H
	DD	0fee3H
	DD	0fedeH
	DD	0fedaH
	DD	0fed5H
	DD	0fed0H
	DD	0fecbH
	DD	0fec6H
	DD	0fec1H
	DD	0febcH
	DD	0feb7H
	DD	0feb2H
	DD	0feadH
	DD	0fea8H
	DD	0fea3H
	DD	0fe9eH
	DD	0fe99H
	DD	0fe93H
	DD	0fe8eH
	DD	0fe89H
	DD	0fe83H
	DD	0fe7eH
	DD	0fe78H
	DD	0fe73H
	DD	0fe6dH
	DD	0fe68H
	DD	0fe62H
	DD	0fe5dH
	DD	0fe57H
	DD	0fe51H
	DD	0fe4bH
	DD	0fe46H
	DD	0fe40H
	DD	0fe3aH
	DD	0fe34H
	DD	0fe2eH
	DD	0fe28H
	DD	0fe22H
	DD	0fe1cH
	DD	0fe16H
	DD	0fe10H
	DD	0fe09H
	DD	0fe03H
	DD	0fdfdH
	DD	0fdf7H
	DD	0fdf0H
	DD	0fdeaH
	DD	0fde3H
	DD	0fdddH
	DD	0fdd6H
	DD	0fdd0H
	DD	0fdc9H
	DD	0fdc3H
	DD	0fdbcH
	DD	0fdb5H
	DD	0fdafH
	DD	0fda8H
	DD	0fda1H
	DD	0fd9aH
	DD	0fd93H
	DD	0fd8cH
	DD	0fd86H
	DD	0fd7fH
	DD	0fd77H
	DD	0fd70H
	DD	0fd69H
	DD	0fd62H
	DD	0fd5bH
	DD	0fd54H
	DD	0fd4cH
	DD	0fd45H
	DD	0fd3eH
	DD	0fd36H
	DD	0fd2fH
	DD	0fd28H
	DD	0fd20H
	DD	0fd19H
	DD	0fd11H
	DD	0fd09H
	DD	0fd02H
	DD	0fcfaH
	DD	0fcf2H
	DD	0fcebH
	DD	0fce3H
	DD	0fcdbH
	DD	0fcd3H
	DD	0fccbH
	DD	0fcc3H
	DD	0fcbbH
	DD	0fcb3H
	DD	0fcabH
	DD	0fca3H
	DD	0fc9bH
	DD	0fc93H
	DD	0fc8bH
	DD	0fc82H
	DD	0fc7aH
	DD	0fc72H
	DD	0fc69H
	DD	0fc61H
	DD	0fc58H
	DD	0fc50H
	DD	0fc48H
	DD	0fc3fH
	DD	0fc36H
	DD	0fc2eH
	DD	0fc25H
	DD	0fc1cH
	DD	0fc14H
	DD	0fc0bH
	DD	0fc02H
	DD	0fbf9H
	DD	0fbf0H
	DD	0fbe7H
	DD	0fbdeH
	DD	0fbd5H
	DD	0fbccH
	DD	0fbc3H
	DD	0fbbaH
	DD	0fbb1H
	DD	0fba8H
	DD	0fb9eH
	DD	0fb95H
	DD	0fb8cH
	DD	0fb83H
	DD	0fb79H
	DD	0fb70H
	DD	0fb66H
	DD	0fb5dH
	DD	0fb53H
	DD	0fb4aH
	DD	0fb40H
	DD	0fb36H
	DD	0fb2dH
	DD	0fb23H
	DD	0fb19H
	DD	0fb0fH
	DD	0fb05H
	DD	0fafcH
	DD	0faf2H
	DD	0fae8H
	DD	0fadeH
	DD	0fad4H
	DD	0facaH
	DD	0fac0H
	DD	0fab5H
	DD	0faabH
	DD	0faa1H
	DD	0fa97H
	DD	0fa8cH
	DD	0fa82H
	DD	0fa78H
	DD	0fa6dH
	DD	0fa63H
	DD	0fa58H
	DD	0fa4eH
	DD	0fa43H
	DD	0fa39H
	DD	0fa2eH
	DD	0fa23H
	DD	0fa19H
	DD	0fa0eH
	DD	0fa03H
	DD	0f9f8H
	DD	0f9edH
	DD	0f9e3H
	DD	0f9d8H
	DD	0f9cdH
	DD	0f9c2H
	DD	0f9b7H
	DD	0f9abH
	DD	0f9a0H
	DD	0f995H
	DD	0f98aH
	DD	0f97fH
	DD	0f973H
	DD	0f968H
	DD	0f95dH
	DD	0f951H
	DD	0f946H
	DD	0f93bH
	DD	0f92fH
	DD	0f923H
	DD	0f918H
	DD	0f90cH
	DD	0f901H
	DD	0f8f5H
	DD	0f8e9H
	DD	0f8ddH
	DD	0f8d2H
	DD	0f8c6H
	DD	0f8baH
	DD	0f8aeH
	DD	0f8a2H
	DD	0f896H
	DD	0f88aH
	DD	0f87eH
	DD	0f872H
	DD	0f866H
	DD	0f85aH
	DD	0f84dH
	DD	0f841H
	DD	0f835H
	DD	0f828H
	DD	0f81cH
	DD	0f810H
	DD	0f803H
	DD	0f7f7H
	DD	0f7eaH
	DD	0f7deH
	DD	0f7d1H
	DD	0f7c5H
	DD	0f7b8H
	DD	0f7abH
	DD	0f79eH
	DD	0f792H
	DD	0f785H
	DD	0f778H
	DD	0f76bH
	DD	0f75eH
	DD	0f751H
	DD	0f744H
	DD	0f737H
	DD	0f72aH
	DD	0f71dH
	DD	0f710H
	DD	0f703H
	DD	0f6f5H
	DD	0f6e8H
	DD	0f6dbH
	DD	0f6ceH
	DD	0f6c0H
	DD	0f6b3H
	DD	0f6a5H
	DD	0f698H
	DD	0f68aH
	DD	0f67dH
	DD	0f66fH
	DD	0f662H
	DD	0f654H
	DD	0f646H
	DD	0f638H
	DD	0f62bH
	DD	0f61dH
	DD	0f60fH
	DD	0f601H
	DD	0f5f3H
	DD	0f5e5H
	DD	0f5d7H
	DD	0f5c9H
	DD	0f5bbH
	DD	0f5adH
	DD	0f59fH
	DD	0f591H
	DD	0f582H
	DD	0f574H
	DD	0f566H
	DD	0f558H
	DD	0f549H
	DD	0f53bH
	DD	0f52cH
	DD	0f51eH
	DD	0f50fH
	DD	0f501H
	DD	0f4f2H
	DD	0f4e4H
	DD	0f4d5H
	DD	0f4c6H
	DD	0f4b8H
	DD	0f4a9H
	DD	0f49aH
	DD	0f48bH
	DD	0f47cH
	DD	0f46dH
	DD	0f45eH
	DD	0f44fH
	DD	0f440H
	DD	0f431H
	DD	0f422H
	DD	0f413H
	DD	0f404H
	DD	0f3f5H
	DD	0f3e5H
	DD	0f3d6H
	DD	0f3c7H
	DD	0f3b7H
	DD	0f3a8H
	DD	0f398H
	DD	0f389H
	DD	0f379H
	DD	0f36aH
	DD	0f35aH
	DD	0f34bH
	DD	0f33bH
	DD	0f32bH
	DD	0f31cH
	DD	0f30cH
	DD	0f2fcH
	DD	0f2ecH
	DD	0f2dcH
	DD	0f2ccH
	DD	0f2bdH
	DD	0f2adH
	DD	0f29cH
	DD	0f28cH
	DD	0f27cH
	DD	0f26cH
	DD	0f25cH
	DD	0f24cH
	DD	0f23cH
	DD	0f22bH
	DD	0f21bH
	DD	0f20bH
	DD	0f1faH
	DD	0f1eaH
	DD	0f1d9H
	DD	0f1c9H
	DD	0f1b8H
	DD	0f1a8H
	DD	0f197H
	DD	0f187H
	DD	0f176H
	DD	0f165H
	DD	0f154H
	DD	0f144H
	DD	0f133H
	DD	0f122H
	DD	0f111H
	DD	0f100H
	DD	0f0efH
	DD	0f0deH
	DD	0f0cdH
	DD	0f0bcH
	DD	0f0abH
	DD	0f09aH
	DD	0f089H
	DD	0f077H
	DD	0f066H
	DD	0f055H
	DD	0f043H
	DD	0f032H
	DD	0f021H
	DD	0f00fH
	DD	0effeH
	DD	0efecH
	DD	0efdbH
	DD	0efc9H
	DD	0efb7H
	DD	0efa6H
	DD	0ef94H
	DD	0ef82H
	DD	0ef71H
	DD	0ef5fH
	DD	0ef4dH
	DD	0ef3bH
	DD	0ef29H
	DD	0ef17H
	DD	0ef05H
	DD	0eef3H
	DD	0eee1H
	DD	0eecfH
	DD	0eebdH
	DD	0eeabH
	DD	0ee99H
	DD	0ee86H
	DD	0ee74H
	DD	0ee62H
	DD	0ee4fH
	DD	0ee3dH
	DD	0ee2bH
	DD	0ee18H
	DD	0ee06H
	DD	0edf3H
	DD	0ede1H
	DD	0edceH
	DD	0edbbH
	DD	0eda9H
	DD	0ed96H
	DD	0ed83H
	DD	0ed71H
	DD	0ed5eH
	DD	0ed4bH
	DD	0ed38H
	DD	0ed25H
	DD	0ed12H
	DD	0ecffH
	DD	0ececH
	DD	0ecd9H
	DD	0ecc6H
	DD	0ecb3H
	DD	0eca0H
	DD	0ec8cH
	DD	0ec79H
	DD	0ec66H
	DD	0ec53H
	DD	0ec3fH
	DD	0ec2cH
	DD	0ec19H
	DD	0ec05H
	DD	0ebf2H
	DD	0ebdeH
	DD	0ebcbH
	DD	0ebb7H
	DD	0eba3H
	DD	0eb90H
	DD	0eb7cH
	DD	0eb68H
	DD	0eb54H
	DD	0eb41H
	DD	0eb2dH
	DD	0eb19H
	DD	0eb05H
	DD	0eaf1H
	DD	0eaddH
	DD	0eac9H
	DD	0eab5H
	DD	0eaa1H
	DD	0ea8dH
	DD	0ea79H
	DD	0ea64H
	DD	0ea50H
	DD	0ea3cH
	DD	0ea28H
	DD	0ea13H
	DD	0e9ffH
	DD	0e9ebH
	DD	0e9d6H
	DD	0e9c2H
	DD	0e9adH
	DD	0e999H
	DD	0e984H
	DD	0e96fH
	DD	0e95bH
	DD	0e946H
	DD	0e931H
	DD	0e91dH
	DD	0e908H
	DD	0e8f3H
	DD	0e8deH
	DD	0e8c9H
	DD	0e8b4H
	DD	0e89fH
	DD	0e88aH
	DD	0e875H
	DD	0e860H
	DD	0e84bH
	DD	0e836H
	DD	0e821H
	DD	0e80cH
	DD	0e7f6H
	DD	0e7e1H
	DD	0e7ccH
	DD	0e7b6H
	DD	0e7a1H
	DD	0e78cH
	DD	0e776H
	DD	0e761H
	DD	0e74bH
	DD	0e736H
	DD	0e720H
	DD	0e70aH
	DD	0e6f5H
	DD	0e6dfH
	DD	0e6c9H
	DD	0e6b3H
	DD	0e69eH
	DD	0e688H
	DD	0e672H
	DD	0e65cH
	DD	0e646H
	DD	0e630H
	DD	0e61aH
	DD	0e604H
	DD	0e5eeH
	DD	0e5d8H
	DD	0e5c2H
	DD	0e5abH
	DD	0e595H
	DD	0e57fH
	DD	0e569H
	DD	0e552H
	DD	0e53cH
	DD	0e526H
	DD	0e50fH
	DD	0e4f9H
	DD	0e4e2H
	DD	0e4ccH
	DD	0e4b5H
	DD	0e49fH
	DD	0e488H
	DD	0e471H
	DD	0e45bH
	DD	0e444H
	DD	0e42dH
	DD	0e416H
	DD	0e3ffH
	DD	0e3e9H
	DD	0e3d2H
	DD	0e3bbH
	DD	0e3a4H
	DD	0e38dH
	DD	0e376H
	DD	0e35fH
	DD	0e347H
	DD	0e330H
	DD	0e319H
	DD	0e302H
	DD	0e2ebH
	DD	0e2d3H
	DD	0e2bcH
	DD	0e2a5H
	DD	0e28dH
	DD	0e276H
	DD	0e25eH
	DD	0e247H
	DD	0e22fH
	DD	0e218H
	DD	0e200H
	DD	0e1e9H
	DD	0e1d1H
	DD	0e1b9H
	DD	0e1a2H
	DD	0e18aH
	DD	0e172H
	DD	0e15aH
	DD	0e142H
	DD	0e12aH
	DD	0e112H
	DD	0e0faH
	DD	0e0e2H
	DD	0e0caH
	DD	0e0b2H
	DD	0e09aH
	DD	0e082H
	DD	0e06aH
	DD	0e052H
	DD	0e03aH
	DD	0e021H
	DD	0e009H
	DD	0dff1H
	DD	0dfd8H
	DD	0dfc0H
	DD	0dfa7H
	DD	0df8fH
	DD	0df76H
	DD	0df5eH
	DD	0df45H
	DD	0df2dH
	DD	0df14H
	DD	0defbH
	DD	0dee3H
	DD	0decaH
	DD	0deb1H
	DD	0de98H
	DD	0de7fH
	DD	0de67H
	DD	0de4eH
	DD	0de35H
	DD	0de1cH
	DD	0de03H
	DD	0ddeaH
	DD	0ddd1H
	DD	0ddb8H
	DD	0dd9eH
	DD	0dd85H
	DD	0dd6cH
	DD	0dd53H
	DD	0dd39H
	DD	0dd20H
	DD	0dd07H
	DD	0dcedH
	DD	0dcd4H
	DD	0dcbbH
	DD	0dca1H
	DD	0dc88H
	DD	0dc6eH
	DD	0dc54H
	DD	0dc3bH
	DD	0dc21H
	DD	0dc08H
	DD	0dbeeH
	DD	0dbd4H
	DD	0dbbaH
	DD	0dba1H
	DD	0db87H
	DD	0db6dH
	DD	0db53H
	DD	0db39H
	DD	0db1fH
	DD	0db05H
	DD	0daebH
	DD	0dad1H
	DD	0dab7H
	DD	0da9dH
	DD	0da82H
	DD	0da68H
	DD	0da4eH
	DD	0da34H
	DD	0da19H
	DD	0d9ffH
	DD	0d9e5H
	DD	0d9caH
	DD	0d9b0H
	DD	0d995H
	DD	0d97bH
	DD	0d960H
	DD	0d946H
	DD	0d92bH
	DD	0d911H
	DD	0d8f6H
	DD	0d8dbH
	DD	0d8c1H
	DD	0d8a6H
	DD	0d88bH
	DD	0d870H
	DD	0d855H
	DD	0d83aH
	DD	0d81fH
	DD	0d804H
	DD	0d7eaH
	DD	0d7ceH
	DD	0d7b3H
	DD	0d798H
	DD	0d77dH
	DD	0d762H
	DD	0d747H
	DD	0d72cH
	DD	0d710H
	DD	0d6f5H
	DD	0d6daH
	DD	0d6beH
	DD	0d6a3H
	DD	0d688H
	DD	0d66cH
	DD	0d651H
	DD	0d635H
	DD	0d61aH
	DD	0d5feH
	DD	0d5e3H
	DD	0d5c7H
	DD	0d5abH
	DD	0d590H
	DD	0d574H
	DD	0d558H
	DD	0d53cH
	DD	0d520H
	DD	0d505H
	DD	0d4e9H
	DD	0d4cdH
	DD	0d4b1H
	DD	0d495H
	DD	0d479H
	DD	0d45dH
	DD	0d441H
	DD	0d424H
	DD	0d408H
	DD	0d3ecH
	DD	0d3d0H
	DD	0d3b4H
	DD	0d397H
	DD	0d37bH
	DD	0d35fH
	DD	0d342H
	DD	0d326H
	DD	0d30aH
	DD	0d2edH
	DD	0d2d1H
	DD	0d2b4H
	DD	0d297H
	DD	0d27bH
	DD	0d25eH
	DD	0d242H
	DD	0d225H
	DD	0d208H
	DD	0d1ebH
	DD	0d1cfH
	DD	0d1b2H
	DD	0d195H
	DD	0d178H
	DD	0d15bH
	DD	0d13eH
	DD	0d121H
	DD	0d104H
	DD	0d0e7H
	DD	0d0caH
	DD	0d0adH
	DD	0d090H
	DD	0d073H
	DD	0d056H
	DD	0d038H
	DD	0d01bH
	DD	0cffeH
	DD	0cfe0H
	DD	0cfc3H
	DD	0cfa6H
	DD	0cf88H
	DD	0cf6bH
	DD	0cf4dH
	DD	0cf30H
	DD	0cf12H
	DD	0cef5H
	DD	0ced7H
	DD	0cebaH
	DD	0ce9cH
	DD	0ce7eH
	DD	0ce60H
	DD	0ce43H
	DD	0ce25H
	DD	0ce07H
	DD	0cde9H
	DD	0cdcbH
	DD	0cdadH
	DD	0cd90H
	DD	0cd72H
	DD	0cd54H
	DD	0cd36H
	DD	0cd17H
	DD	0ccf9H
	DD	0ccdbH
	DD	0ccbdH
	DD	0cc9fH
	DD	0cc81H
	DD	0cc62H
	DD	0cc44H
	DD	0cc26H
	DD	0cc07H
	DD	0cbe9H
	DD	0cbcbH
	DD	0cbacH
	DD	0cb8eH
	DD	0cb6fH
	DD	0cb51H
	DD	0cb32H
	DD	0cb14H
	DD	0caf5H
	DD	0cad6H
	DD	0cab8H
	DD	0ca99H
	DD	0ca7aH
	DD	0ca5bH
	DD	0ca3dH
	DD	0ca1eH
	DD	0c9ffH
	DD	0c9e0H
	DD	0c9c1H
	DD	0c9a2H
	DD	0c983H
	DD	0c964H
	DD	0c945H
	DD	0c926H
	DD	0c907H
	DD	0c8e8H
	DD	0c8c9H
	DD	0c8a9H
	DD	0c88aH
	DD	0c86bH
	DD	0c84cH
	DD	0c82cH
	DD	0c80dH
	DD	0c7eeH
	DD	0c7ceH
	DD	0c7afH
	DD	0c78fH
	DD	0c770H
	DD	0c750H
	DD	0c731H
	DD	0c711H
	DD	0c6f1H
	DD	0c6d2H
	DD	0c6b2H
	DD	0c692H
	DD	0c673H
	DD	0c653H
	DD	0c633H
	DD	0c613H
	DD	0c5f3H
	DD	0c5d4H
	DD	0c5b4H
	DD	0c594H
	DD	0c574H
	DD	0c554H
	DD	0c534H
	DD	0c514H
	DD	0c4f4H
	DD	0c4d3H
	DD	0c4b3H
	DD	0c493H
	DD	0c473H
	DD	0c453H
	DD	0c432H
	DD	0c412H
	DD	0c3f2H
	DD	0c3d1H
	DD	0c3b1H
	DD	0c391H
	DD	0c370H
	DD	0c350H
	DD	0c32fH
	DD	0c30fH
	DD	0c2eeH
	DD	0c2cdH
	DD	0c2adH
	DD	0c28cH
	DD	0c26bH
	DD	0c24bH
	DD	0c22aH
	DD	0c209H
	DD	0c1e8H
	DD	0c1c8H
	DD	0c1a7H
	DD	0c186H
	DD	0c165H
	DD	0c144H
	DD	0c123H
	DD	0c102H
	DD	0c0e1H
	DD	0c0c0H
	DD	0c09fH
	DD	0c07eH
	DD	0c05cH
	DD	0c03bH
	DD	0c01aH
	DD	0bff9H
	DD	0bfd8H
	DD	0bfb6H
	DD	0bf95H
	DD	0bf74H
	DD	0bf52H
	DD	0bf31H
	DD	0bf0fH
	DD	0beeeH
	DD	0beccH
	DD	0beabH
	DD	0be89H
	DD	0be68H
	DD	0be46H
	DD	0be24H
	DD	0be03H
	DD	0bde1H
	DD	0bdbfH
	DD	0bd9eH
	DD	0bd7cH
	DD	0bd5aH
	DD	0bd38H
	DD	0bd16H
	DD	0bcf4H
	DD	0bcd2H
	DD	0bcb0H
	DD	0bc8fH
	DD	0bc6dH
	DD	0bc4aH
	DD	0bc28H
	DD	0bc06H
	DD	0bbe4H
	DD	0bbc2H
	DD	0bba0H
	DD	0bb7eH
	DD	0bb5bH
	DD	0bb39H
	DD	0bb17H
	DD	0baf4H
	DD	0bad2H
	DD	0bab0H
	DD	0ba8dH
	DD	0ba6bH
	DD	0ba48H
	DD	0ba26H
	DD	0ba03H
	DD	0b9e1H
	DD	0b9beH
	DD	0b99cH
	DD	0b979H
	DD	0b956H
	DD	0b934H
	DD	0b911H
	DD	0b8eeH
	DD	0b8ccH
	DD	0b8a9H
	DD	0b886H
	DD	0b863H
	DD	0b840H
	DD	0b81dH
	DD	0b7faH
	DD	0b7d7H
	DD	0b7b4H
	DD	0b791H
	DD	0b76eH
	DD	0b74bH
	DD	0b728H
	DD	0b705H
	DD	0b6e2H
	DD	0b6bfH
	DD	0b69bH
	DD	0b678H
	DD	0b655H
	DD	0b632H
	DD	0b60eH
	DD	0b5ebH
	DD	0b5c8H
	DD	0b5a4H
	DD	0b581H
	DD	0b55dH
	DD	0b53aH
	DD	0b516H
	DD	0b4f3H
	DD	0b4cfH
	DD	0b4acH
	DD	0b488H
	DD	0b464H
	DD	0b441H
	DD	0b41dH
	DD	0b3f9H
	DD	0b3d5H
	DD	0b3b2H
	DD	0b38eH
	DD	0b36aH
	DD	0b346H
	DD	0b322H
	DD	0b2feH
	DD	0b2daH
	DD	0b2b6H
	DD	0b292H
	DD	0b26eH
	DD	0b24aH
	DD	0b226H
	DD	0b202H
	DD	0b1deH
	DD	0b1baH
	DD	0b196H
	DD	0b171H
	DD	0b14dH
	DD	0b129H
	DD	0b104H
	DD	0b0e0H
	DD	0b0bcH
	DD	0b097H
	DD	0b073H
	DD	0b04fH
	DD	0b02aH
	DD	0b006H
	DD	0afe1H
	DD	0afbdH
	DD	0af98H
	DD	0af73H
	DD	0af4fH
	DD	0af2aH
	DD	0af06H
	DD	0aee1H
	DD	0aebcH
	DD	0ae97H
	DD	0ae73H
	DD	0ae4eH
	DD	0ae29H
	DD	0ae04H
	DD	0addfH
	DD	0adbaH
	DD	0ad95H
	DD	0ad70H
	DD	0ad4bH
	DD	0ad26H
	DD	0ad01H
	DD	0acdcH
	DD	0acb7H
	DD	0ac92H
	DD	0ac6dH
	DD	0ac48H
	DD	0ac23H
	DD	0abfdH
	DD	0abd8H
	DD	0abb3H
	DD	0ab8eH
	DD	0ab68H
	DD	0ab43H
	DD	0ab1eH
	DD	0aaf8H
	DD	0aad3H
	DD	0aaadH
	DD	0aa88H
	DD	0aa62H
	DD	0aa3dH
	DD	0aa17H
	DD	0a9f2H
	DD	0a9ccH
	DD	0a9a6H
	DD	0a981H
	DD	0a95bH
	DD	0a935H
	DD	0a910H
	DD	0a8eaH
	DD	0a8c4H
	DD	0a89eH
	DD	0a878H
	DD	0a853H
	DD	0a82dH
	DD	0a807H
	DD	0a7e1H
	DD	0a7bbH
	DD	0a795H
	DD	0a76fH
	DD	0a749H
	DD	0a723H
	DD	0a6fdH
	DD	0a6d7H
	DD	0a6b0H
	DD	0a68aH
	DD	0a664H
	DD	0a63eH
	DD	0a618H
	DD	0a5f1H
	DD	0a5cbH
	DD	0a5a5H
	DD	0a57eH
	DD	0a558H
	DD	0a532H
	DD	0a50bH
	DD	0a4e5H
	DD	0a4beH
	DD	0a498H
	DD	0a471H
	DD	0a44bH
	DD	0a424H
	DD	0a3feH
	DD	0a3d7H
	DD	0a3b0H
	DD	0a38aH
	DD	0a363H
	DD	0a33cH
	DD	0a316H
	DD	0a2efH
	DD	0a2c8H
	DD	0a2a1H
	DD	0a27bH
	DD	0a254H
	DD	0a22dH
	DD	0a206H
	DD	0a1dfH
	DD	0a1b8H
	DD	0a191H
	DD	0a16aH
	DD	0a143H
	DD	0a11cH
	DD	0a0f5H
	DD	0a0ceH
	DD	0a0a7H
	DD	0a080H
	DD	0a058H
	DD	0a031H
	DD	0a00aH
	DD	09fe3H
	DD	09fbbH
	DD	09f94H
	DD	09f6dH
	DD	09f45H
	DD	09f1eH
	DD	09ef7H
	DD	09ecfH
	DD	09ea8H
	DD	09e80H
	DD	09e59H
	DD	09e31H
	DD	09e0aH
	DD	09de2H
	DD	09dbbH
	DD	09d93H
	DD	09d6cH
	DD	09d44H
	DD	09d1cH
	DD	09cf4H
	DD	09ccdH
	DD	09ca5H
	DD	09c7dH
	DD	09c55H
	DD	09c2eH
	DD	09c06H
	DD	09bdeH
	DD	09bb6H
	DD	09b8eH
	DD	09b66H
	DD	09b3eH
	DD	09b16H
	DD	09aeeH
	DD	09ac6H
	DD	09a9eH
	DD	09a76H
	DD	09a4eH
	DD	09a26H
	DD	099feH
	DD	099d6H
	DD	099adH
	DD	09985H
	DD	0995dH
	DD	09935H
	DD	0990cH
	DD	098e4H
	DD	098bcH
	DD	09893H
	DD	0986bH
	DD	09843H
	DD	0981aH
	DD	097f2H
	DD	097c9H
	DD	097a1H
	DD	09778H
	DD	09750H
	DD	09727H
	DD	096ffH
	DD	096d6H
	DD	096adH
	DD	09685H
	DD	0965cH
	DD	09633H
	DD	0960bH
	DD	095e2H
	DD	095b9H
	DD	09590H
	DD	09568H
	DD	0953fH
	DD	09516H
	DD	094edH
	DD	094c4H
	DD	0949bH
	DD	09472H
	DD	09449H
	DD	09420H
	DD	093f7H
	DD	093ceH
	DD	093a5H
	DD	0937cH
	DD	09353H
	DD	0932aH
	DD	09301H
	DD	092d8H
	DD	092afH
	DD	09285H
	DD	0925cH
	DD	09233H
	DD	0920aH
	DD	091e0H
	DD	091b7H
	DD	0918eH
	DD	09164H
	DD	0913bH
	DD	09111H
	DD	090e8H
	DD	090bfH
	DD	09095H
	DD	0906cH
	DD	09042H
	DD	09019H
	DD	08fefH
	DD	08fc5H
	DD	08f9cH
	DD	08f72H
	DD	08f49H
	DD	08f1fH
	DD	08ef5H
	DD	08eccH
	DD	08ea2H
	DD	08e78H
	DD	08e4eH
	DD	08e24H
	DD	08dfbH
	DD	08dd1H
	DD	08da7H
	DD	08d7dH
	DD	08d53H
	DD	08d29H
	DD	08cffH
	DD	08cd5H
	DD	08cabH
	DD	08c81H
	DD	08c57H
	DD	08c2dH
	DD	08c03H
	DD	08bd9H
	DD	08bafH
	DD	08b85H
	DD	08b5bH
	DD	08b31H
	DD	08b06H
	DD	08adcH
	DD	08ab2H
	DD	08a88H
	DD	08a5dH
	DD	08a33H
	DD	08a09H
	DD	089deH
	DD	089b4H
	DD	0898aH
	DD	0895fH
	DD	08935H
	DD	0890aH
	DD	088e0H
	DD	088b5H
	DD	0888bH
	DD	08860H
	DD	08836H
	DD	0880bH
	DD	087e1H
	DD	087b6H
	DD	0878bH
	DD	08761H
	DD	08736H
	DD	0870bH
	DD	086e1H
	DD	086b6H
	DD	0868bH
	DD	08660H
	DD	08636H
	DD	0860bH
	DD	085e0H
	DD	085b5H
	DD	0858aH
	DD	0855fH
	DD	08534H
	DD	08509H
	DD	084dfH
	DD	084b4H
	DD	08489H
	DD	0845eH
	DD	08433H
	DD	08407H
	DD	083dcH
	DD	083b1H
	DD	08386H
	DD	0835bH
	DD	08330H
	DD	08305H
	DD	082daH
	DD	082aeH
	DD	08283H
	DD	08258H
	DD	0822dH
	DD	08201H
	DD	081d6H
	DD	081abH
	DD	0817fH
	DD	08154H
	DD	08129H
	DD	080fdH
	DD	080d2H
	DD	080a6H
	DD	0807bH
	DD	0804fH
	DD	08024H
	DD	07ff8H
	DD	07fcdH
	DD	07fa1H
	DD	07f76H
	DD	07f4aH
	DD	07f1eH
	DD	07ef3H
	DD	07ec7H
	DD	07e9bH
	DD	07e70H
	DD	07e44H
	DD	07e18H
	DD	07decH
	DD	07dc1H
	DD	07d95H
	DD	07d69H
	DD	07d3dH
	DD	07d11H
	DD	07ce6H
	DD	07cbaH
	DD	07c8eH
	DD	07c62H
	DD	07c36H
	DD	07c0aH
	DD	07bdeH
	DD	07bb2H
	DD	07b86H
	DD	07b5aH
	DD	07b2eH
	DD	07b02H
	DD	07ad6H
	DD	07aaaH
	DD	07a7dH
	DD	07a51H
	DD	07a25H
	DD	079f9H
	DD	079cdH
	DD	079a0H
	DD	07974H
	DD	07948H
	DD	0791cH
	DD	078efH
	DD	078c3H
	DD	07897H
	DD	0786aH
	DD	0783eH
	DD	07812H
	DD	077e5H
	DD	077b9H
	DD	0778cH
	DD	07760H
	DD	07733H
	DD	07707H
	DD	076daH
	DD	076aeH
	DD	07681H
	DD	07655H
	DD	07628H
	DD	075fcH
	DD	075cfH
	DD	075a2H
	DD	07576H
	DD	07549H
	DD	0751cH
	DD	074f0H
	DD	074c3H
	DD	07496H
	DD	07469H
	DD	0743dH
	DD	07410H
	DD	073e3H
	DD	073b6H
	DD	07389H
	DD	0735dH
	DD	07330H
	DD	07303H
	DD	072d6H
	DD	072a9H
	DD	0727cH
	DD	0724fH
	DD	07222H
	DD	071f5H
	DD	071c8H
	DD	0719bH
	DD	0716eH
	DD	07141H
	DD	07114H
	DD	070e7H
	DD	070baH
	DD	0708cH
	DD	0705fH
	DD	07032H
	DD	07005H
	DD	06fd8H
	DD	06faaH
	DD	06f7dH
	DD	06f50H
	DD	06f23H
	DD	06ef5H
	DD	06ec8H
	DD	06e9bH
	DD	06e6dH
	DD	06e40H
	DD	06e13H
	DD	06de5H
	DD	06db8H
	DD	06d8aH
	DD	06d5dH
	DD	06d30H
	DD	06d02H
	DD	06cd5H
	DD	06ca7H
	DD	06c7aH
	DD	06c4cH
	DD	06c1eH
	DD	06bf1H
	DD	06bc3H
	DD	06b96H
	DD	06b68H
	DD	06b3aH
	DD	06b0dH
	DD	06adfH
	DD	06ab1H
	DD	06a84H
	DD	06a56H
	DD	06a28H
	DD	069fbH
	DD	069cdH
	DD	0699fH
	DD	06971H
	DD	06943H
	DD	06916H
	DD	068e8H
	DD	068baH
	DD	0688cH
	DD	0685eH
	DD	06830H
	DD	06802H
	DD	067d4H
	DD	067a6H
	DD	06778H
	DD	0674aH
	DD	0671cH
	DD	066eeH
	DD	066c0H
	DD	06692H
	DD	06664H
	DD	06636H
	DD	06608H
	DD	065daH
	DD	065acH
	DD	0657eH
	DD	06550H
	DD	06521H
	DD	064f3H
	DD	064c5H
	DD	06497H
	DD	06469H
	DD	0643aH
	DD	0640cH
	DD	063deH
	DD	063b0H
	DD	06381H
	DD	06353H
	DD	06325H
	DD	062f6H
	DD	062c8H
	DD	06299H
	DD	0626bH
	DD	0623dH
	DD	0620eH
	DD	061e0H
	DD	061b1H
	DD	06183H
	DD	06154H
	DD	06126H
	DD	060f7H
	DD	060c9H
	DD	0609aH
	DD	0606cH
	DD	0603dH
	DD	0600fH
	DD	05fe0H
	DD	05fb1H
	DD	05f83H
	DD	05f54H
	DD	05f25H
	DD	05ef7H
	DD	05ec8H
	DD	05e99H
	DD	05e6bH
	DD	05e3cH
	DD	05e0dH
	DD	05ddeH
	DD	05db0H
	DD	05d81H
	DD	05d52H
	DD	05d23H
	DD	05cf4H
	DD	05cc6H
	DD	05c97H
	DD	05c68H
	DD	05c39H
	DD	05c0aH
	DD	05bdbH
	DD	05bacH
	DD	05b7dH
	DD	05b4eH
	DD	05b1fH
	DD	05af0H
	DD	05ac1H
	DD	05a92H
	DD	05a63H
	DD	05a34H
	DD	05a05H
	DD	059d6H
	DD	059a7H
	DD	05978H
	DD	05949H
	DD	0591aH
	DD	058ebH
	DD	058bcH
	DD	0588cH
	DD	0585dH
	DD	0582eH
	DD	057ffH
	DD	057d0H
	DD	057a1H
	DD	05771H
	DD	05742H
	DD	05713H
	DD	056e3H
	DD	056b4H
	DD	05685H
	DD	05656H
	DD	05626H
	DD	055f7H
	DD	055c8H
	DD	05598H
	DD	05569H
	DD	05539H
	DD	0550aH
	DD	054dbH
	DD	054abH
	DD	0547cH
	DD	0544cH
	DD	0541dH
	DD	053edH
	DD	053beH
	DD	0538eH
	DD	0535fH
	DD	0532fH
	DD	05300H
	DD	052d0H
	DD	052a1H
	DD	05271H
	DD	05241H
	DD	05212H
	DD	051e2H
	DD	051b3H
	DD	05183H
	DD	05153H
	DD	05124H
	DD	050f4H
	DD	050c4H
	DD	05095H
	DD	05065H
	DD	05035H
	DD	05005H
	DD	04fd6H
	DD	04fa6H
	DD	04f76H
	DD	04f46H
	DD	04f16H
	DD	04ee7H
	DD	04eb7H
	DD	04e87H
	DD	04e57H
	DD	04e27H
	DD	04df7H
	DD	04dc8H
	DD	04d98H
	DD	04d68H
	DD	04d38H
	DD	04d08H
	DD	04cd8H
	DD	04ca8H
	DD	04c78H
	DD	04c48H
	DD	04c18H
	DD	04be8H
	DD	04bb8H
	DD	04b88H
	DD	04b58H
	DD	04b28H
	DD	04af8H
	DD	04ac8H
	DD	04a98H
	DD	04a68H
	DD	04a38H
	DD	04a07H
	DD	049d7H
	DD	049a7H
	DD	04977H
	DD	04947H
	DD	04917H
	DD	048e7H
	DD	048b6H
	DD	04886H
	DD	04856H
	DD	04826H
	DD	047f5H
	DD	047c5H
	DD	04795H
	DD	04765H
	DD	04734H
	DD	04704H
	DD	046d4H
	DD	046a4H
	DD	04673H
	DD	04643H
	DD	04613H
	DD	045e2H
	DD	045b2H
	DD	04581H
	DD	04551H
	DD	04521H
	DD	044f0H
	DD	044c0H
	DD	0448fH
	DD	0445fH
	DD	0442fH
	DD	043feH
	DD	043ceH
	DD	0439dH
	DD	0436dH
	DD	0433cH
	DD	0430cH
	DD	042dbH
	DD	042abH
	DD	0427aH
	DD	0424aH
	DD	04219H
	DD	041e8H
	DD	041b8H
	DD	04187H
	DD	04157H
	DD	04126H
	DD	040f5H
	DD	040c5H
	DD	04094H
	DD	04064H
	DD	04033H
	DD	04002H
	DD	03fd2H
	DD	03fa1H
	DD	03f70H
	DD	03f3fH
	DD	03f0fH
	DD	03edeH
	DD	03eadH
	DD	03e7dH
	DD	03e4cH
	DD	03e1bH
	DD	03deaH
	DD	03dbaH
	DD	03d89H
	DD	03d58H
	DD	03d27H
	DD	03cf6H
	DD	03cc5H
	DD	03c95H
	DD	03c64H
	DD	03c33H
	DD	03c02H
	DD	03bd1H
	DD	03ba0H
	DD	03b6fH
	DD	03b3fH
	DD	03b0eH
	DD	03addH
	DD	03aacH
	DD	03a7bH
	DD	03a4aH
	DD	03a19H
	DD	039e8H
	DD	039b7H
	DD	03986H
	DD	03955H
	DD	03924H
	DD	038f3H
	DD	038c2H
	DD	03891H
	DD	03860H
	DD	0382fH
	DD	037feH
	DD	037cdH
	DD	0379cH
	DD	0376bH
	DD	0373aH
	DD	03709H
	DD	036d8H
	DD	036a6H
	DD	03675H
	DD	03644H
	DD	03613H
	DD	035e2H
	DD	035b1H
	DD	03580H
	DD	0354eH
	DD	0351dH
	DD	034ecH
	DD	034bbH
	DD	0348aH
	DD	03459H
	DD	03427H
	DD	033f6H
	DD	033c5H
	DD	03394H
	DD	03362H
	DD	03331H
	DD	03300H
	DD	032cfH
	DD	0329dH
	DD	0326cH
	DD	0323bH
	DD	0320aH
	DD	031d8H
	DD	031a7H
	DD	03176H
	DD	03144H
	DD	03113H
	DD	030e2H
	DD	030b0H
	DD	0307fH
	DD	0304eH
	DD	0301cH
	DD	02febH
	DD	02fbaH
	DD	02f88H
	DD	02f57H
	DD	02f25H
	DD	02ef4H
	DD	02ec2H
	DD	02e91H
	DD	02e60H
	DD	02e2eH
	DD	02dfdH
	DD	02dcbH
	DD	02d9aH
	DD	02d68H
	DD	02d37H
	DD	02d05H
	DD	02cd4H
	DD	02ca2H
	DD	02c71H
	DD	02c3fH
	DD	02c0eH
	DD	02bdcH
	DD	02babH
	DD	02b79H
	DD	02b48H
	DD	02b16H
	DD	02ae5H
	DD	02ab3H
	DD	02a82H
	DD	02a50H
	DD	02a1eH
	DD	029edH
	DD	029bbH
	DD	0298aH
	DD	02958H
	DD	02926H
	DD	028f5H
	DD	028c3H
	DD	02892H
	DD	02860H
	DD	0282eH
	DD	027fdH
	DD	027cbH
	DD	02799H
	DD	02768H
	DD	02736H
	DD	02704H
	DD	026d3H
	DD	026a1H
	DD	0266fH
	DD	0263eH
	DD	0260cH
	DD	025daH
	DD	025a8H
	DD	02577H
	DD	02545H
	DD	02513H
	DD	024e2H
	DD	024b0H
	DD	0247eH
	DD	0244cH
	DD	0241bH
	DD	023e9H
	DD	023b7H
	DD	02385H
	DD	02353H
	DD	02322H
	DD	022f0H
	DD	022beH
	DD	0228cH
	DD	0225aH
	DD	02229H
	DD	021f7H
	DD	021c5H
	DD	02193H
	DD	02161H
	DD	02130H
	DD	020feH
	DD	020ccH
	DD	0209aH
	DD	02068H
	DD	02036H
	DD	02004H
	DD	01fd3H
	DD	01fa1H
	DD	01f6fH
	DD	01f3dH
	DD	01f0bH
	DD	01ed9H
	DD	01ea7H
	DD	01e75H
	DD	01e43H
	DD	01e11H
	DD	01de0H
	DD	01daeH
	DD	01d7cH
	DD	01d4aH
	DD	01d18H
	DD	01ce6H
	DD	01cb4H
	DD	01c82H
	DD	01c50H
	DD	01c1eH
	DD	01becH
	DD	01bbaH
	DD	01b88H
	DD	01b56H
	DD	01b24H
	DD	01af2H
	DD	01ac0H
	DD	01a8eH
	DD	01a5cH
	DD	01a2aH
	DD	019f8H
	DD	019c6H
	DD	01994H
	DD	01962H
	DD	01930H
	DD	018feH
	DD	018ccH
	DD	0189aH
	DD	01868H
	DD	01836H
	DD	01804H
	DD	017d2H
	DD	017a0H
	DD	0176eH
	DD	0173cH
	DD	0170aH
	DD	016d8H
	DD	016a6H
	DD	01674H
	DD	01641H
	DD	0160fH
	DD	015ddH
	DD	015abH
	DD	01579H
	DD	01547H
	DD	01515H
	DD	014e3H
	DD	014b1H
	DD	0147fH
	DD	0144dH
	DD	0141aH
	DD	013e8H
	DD	013b6H
	DD	01384H
	DD	01352H
	DD	01320H
	DD	012eeH
	DD	012bcH
	DD	01289H
	DD	01257H
	DD	01225H
	DD	011f3H
	DD	011c1H
	DD	0118fH
	DD	0115dH
	DD	0112aH
	DD	010f8H
	DD	010c6H
	DD	01094H
	DD	01062H
	DD	01030H
	DD	0ffdH
	DD	0fcbH
	DD	0f99H
	DD	0f67H
	DD	0f35H
	DD	0f03H
	DD	0ed0H
	DD	0e9eH
	DD	0e6cH
	DD	0e3aH
	DD	0e08H
	DD	0dd5H
	DD	0da3H
	DD	0d71H
	DD	0d3fH
	DD	0d0dH
	DD	0cdbH
	DD	0ca8H
	DD	0c76H
	DD	0c44H
	DD	0c12H
	DD	0bdfH
	DD	0badH
	DD	0b7bH
	DD	0b49H
	DD	0b17H
	DD	0ae4H
	DD	0ab2H
	DD	0a80H
	DD	0a4eH
	DD	0a1bH
	DD	09e9H
	DD	09b7H
	DD	0985H
	DD	0953H
	DD	0920H
	DD	08eeH
	DD	08bcH
	DD	088aH
	DD	0857H
	DD	0825H
	DD	07f3H
	DD	07c1H
	DD	078eH
	DD	075cH
	DD	072aH
	DD	06f8H
	DD	06c5H
	DD	0693H
	DD	0661H
	DD	062fH
	DD	05fcH
	DD	05caH
	DD	0598H
	DD	0566H
	DD	0533H
	DD	0501H
	DD	04cfH
	DD	049dH
	DD	046aH
	DD	0438H
	DD	0406H
	DD	03d4H
	DD	03a1H
	DD	036fH
	DD	033dH
	DD	030bH
	DD	02d8H
	DD	02a6H
	DD	0274H
	DD	0242H
	DD	020fH
	DD	01ddH
	DD	01abH
	DD	0178H
	DD	0146H
	DD	0114H
	DD	0e2H
	DD	0afH
	DD	07dH
	DD	04bH
	DD	019H
	DD	0ffffffe7H
	DD	0ffffffb5H
	DD	0ffffff83H
	DD	0ffffff51H
	DD	0ffffff1eH
	DD	0fffffeecH
	DD	0fffffebaH
	DD	0fffffe88H
	DD	0fffffe55H
	DD	0fffffe23H
	DD	0fffffdf1H
	DD	0fffffdbeH
	DD	0fffffd8cH
	DD	0fffffd5aH
	DD	0fffffd28H
	DD	0fffffcf5H
	DD	0fffffcc3H
	DD	0fffffc91H
	DD	0fffffc5fH
	DD	0fffffc2cH
	DD	0fffffbfaH
	DD	0fffffbc8H
	DD	0fffffb96H
	DD	0fffffb63H
	DD	0fffffb31H
	DD	0fffffaffH
	DD	0fffffacdH
	DD	0fffffa9aH
	DD	0fffffa68H
	DD	0fffffa36H
	DD	0fffffa04H
	DD	0fffff9d1H
	DD	0fffff99fH
	DD	0fffff96dH
	DD	0fffff93bH
	DD	0fffff908H
	DD	0fffff8d6H
	DD	0fffff8a4H
	DD	0fffff872H
	DD	0fffff83fH
	DD	0fffff80dH
	DD	0fffff7dbH
	DD	0fffff7a9H
	DD	0fffff776H
	DD	0fffff744H
	DD	0fffff712H
	DD	0fffff6e0H
	DD	0fffff6adH
	DD	0fffff67bH
	DD	0fffff649H
	DD	0fffff617H
	DD	0fffff5e4H
	DD	0fffff5b2H
	DD	0fffff580H
	DD	0fffff54eH
	DD	0fffff51cH
	DD	0fffff4e9H
	DD	0fffff4b7H
	DD	0fffff485H
	DD	0fffff453H
	DD	0fffff421H
	DD	0fffff3eeH
	DD	0fffff3bcH
	DD	0fffff38aH
	DD	0fffff358H
	DD	0fffff325H
	DD	0fffff2f3H
	DD	0fffff2c1H
	DD	0fffff28fH
	DD	0fffff25dH
	DD	0fffff22bH
	DD	0fffff1f8H
	DD	0fffff1c6H
	DD	0fffff194H
	DD	0fffff162H
	DD	0fffff130H
	DD	0fffff0fdH
	DD	0fffff0cbH
	DD	0fffff099H
	DD	0fffff067H
	DD	0fffff035H
	DD	0fffff003H
	DD	0ffffefd0H
	DD	0ffffef9eH
	DD	0ffffef6cH
	DD	0ffffef3aH
	DD	0ffffef08H
	DD	0ffffeed6H
	DD	0ffffeea3H
	DD	0ffffee71H
	DD	0ffffee3fH
	DD	0ffffee0dH
	DD	0ffffeddbH
	DD	0ffffeda9H
	DD	0ffffed77H
	DD	0ffffed44H
	DD	0ffffed12H
	DD	0ffffece0H
	DD	0ffffecaeH
	DD	0ffffec7cH
	DD	0ffffec4aH
	DD	0ffffec18H
	DD	0ffffebe6H
	DD	0ffffebb3H
	DD	0ffffeb81H
	DD	0ffffeb4fH
	DD	0ffffeb1dH
	DD	0ffffeaebH
	DD	0ffffeab9H
	DD	0ffffea87H
	DD	0ffffea55H
	DD	0ffffea23H
	DD	0ffffe9f1H
	DD	0ffffe9bfH
	DD	0ffffe98cH
	DD	0ffffe95aH
	DD	0ffffe928H
	DD	0ffffe8f6H
	DD	0ffffe8c4H
	DD	0ffffe892H
	DD	0ffffe860H
	DD	0ffffe82eH
	DD	0ffffe7fcH
	DD	0ffffe7caH
	DD	0ffffe798H
	DD	0ffffe766H
	DD	0ffffe734H
	DD	0ffffe702H
	DD	0ffffe6d0H
	DD	0ffffe69eH
	DD	0ffffe66cH
	DD	0ffffe63aH
	DD	0ffffe608H
	DD	0ffffe5d6H
	DD	0ffffe5a4H
	DD	0ffffe572H
	DD	0ffffe540H
	DD	0ffffe50eH
	DD	0ffffe4dcH
	DD	0ffffe4aaH
	DD	0ffffe478H
	DD	0ffffe446H
	DD	0ffffe414H
	DD	0ffffe3e2H
	DD	0ffffe3b0H
	DD	0ffffe37eH
	DD	0ffffe34cH
	DD	0ffffe31aH
	DD	0ffffe2e8H
	DD	0ffffe2b6H
	DD	0ffffe284H
	DD	0ffffe252H
	DD	0ffffe220H
	DD	0ffffe1efH
	DD	0ffffe1bdH
	DD	0ffffe18bH
	DD	0ffffe159H
	DD	0ffffe127H
	DD	0ffffe0f5H
	DD	0ffffe0c3H
	DD	0ffffe091H
	DD	0ffffe05fH
	DD	0ffffe02dH
	DD	0ffffdffcH
	DD	0ffffdfcaH
	DD	0ffffdf98H
	DD	0ffffdf66H
	DD	0ffffdf34H
	DD	0ffffdf02H
	DD	0ffffded0H
	DD	0ffffde9fH
	DD	0ffffde6dH
	DD	0ffffde3bH
	DD	0ffffde09H
	DD	0ffffddd7H
	DD	0ffffdda6H
	DD	0ffffdd74H
	DD	0ffffdd42H
	DD	0ffffdd10H
	DD	0ffffdcdeH
	DD	0ffffdcadH
	DD	0ffffdc7bH
	DD	0ffffdc49H
	DD	0ffffdc17H
	DD	0ffffdbe5H
	DD	0ffffdbb4H
	DD	0ffffdb82H
	DD	0ffffdb50H
	DD	0ffffdb1eH
	DD	0ffffdaedH
	DD	0ffffdabbH
	DD	0ffffda89H
	DD	0ffffda58H
	DD	0ffffda26H
	DD	0ffffd9f4H
	DD	0ffffd9c2H
	DD	0ffffd991H
	DD	0ffffd95fH
	DD	0ffffd92dH
	DD	0ffffd8fcH
	DD	0ffffd8caH
	DD	0ffffd898H
	DD	0ffffd867H
	DD	0ffffd835H
	DD	0ffffd803H
	DD	0ffffd7d2H
	DD	0ffffd7a0H
	DD	0ffffd76eH
	DD	0ffffd73dH
	DD	0ffffd70bH
	DD	0ffffd6daH
	DD	0ffffd6a8H
	DD	0ffffd676H
	DD	0ffffd645H
	DD	0ffffd613H
	DD	0ffffd5e2H
	DD	0ffffd5b0H
	DD	0ffffd57eH
	DD	0ffffd54dH
	DD	0ffffd51bH
	DD	0ffffd4eaH
	DD	0ffffd4b8H
	DD	0ffffd487H
	DD	0ffffd455H
	DD	0ffffd424H
	DD	0ffffd3f2H
	DD	0ffffd3c1H
	DD	0ffffd38fH
	DD	0ffffd35eH
	DD	0ffffd32cH
	DD	0ffffd2fbH
	DD	0ffffd2c9H
	DD	0ffffd298H
	DD	0ffffd266H
	DD	0ffffd235H
	DD	0ffffd203H
	DD	0ffffd1d2H
	DD	0ffffd1a0H
	DD	0ffffd16fH
	DD	0ffffd13eH
	DD	0ffffd10cH
	DD	0ffffd0dbH
	DD	0ffffd0a9H
	DD	0ffffd078H
	DD	0ffffd046H
	DD	0ffffd015H
	DD	0ffffcfe4H
	DD	0ffffcfb2H
	DD	0ffffcf81H
	DD	0ffffcf50H
	DD	0ffffcf1eH
	DD	0ffffceedH
	DD	0ffffcebcH
	DD	0ffffce8aH
	DD	0ffffce59H
	DD	0ffffce28H
	DD	0ffffcdf6H
	DD	0ffffcdc5H
	DD	0ffffcd94H
	DD	0ffffcd63H
	DD	0ffffcd31H
	DD	0ffffcd00H
	DD	0ffffcccfH
	DD	0ffffcc9eH
	DD	0ffffcc6cH
	DD	0ffffcc3bH
	DD	0ffffcc0aH
	DD	0ffffcbd9H
	DD	0ffffcba7H
	DD	0ffffcb76H
	DD	0ffffcb45H
	DD	0ffffcb14H
	DD	0ffffcae3H
	DD	0ffffcab1H
	DD	0ffffca80H
	DD	0ffffca4fH
	DD	0ffffca1eH
	DD	0ffffc9edH
	DD	0ffffc9bcH
	DD	0ffffc98bH
	DD	0ffffc95aH
	DD	0ffffc928H
	DD	0ffffc8f7H
	DD	0ffffc8c6H
	DD	0ffffc895H
	DD	0ffffc864H
	DD	0ffffc833H
	DD	0ffffc802H
	DD	0ffffc7d1H
	DD	0ffffc7a0H
	DD	0ffffc76fH
	DD	0ffffc73eH
	DD	0ffffc70dH
	DD	0ffffc6dcH
	DD	0ffffc6abH
	DD	0ffffc67aH
	DD	0ffffc649H
	DD	0ffffc618H
	DD	0ffffc5e7H
	DD	0ffffc5b6H
	DD	0ffffc585H
	DD	0ffffc554H
	DD	0ffffc523H
	DD	0ffffc4f2H
	DD	0ffffc4c1H
	DD	0ffffc491H
	DD	0ffffc460H
	DD	0ffffc42fH
	DD	0ffffc3feH
	DD	0ffffc3cdH
	DD	0ffffc39cH
	DD	0ffffc36bH
	DD	0ffffc33bH
	DD	0ffffc30aH
	DD	0ffffc2d9H
	DD	0ffffc2a8H
	DD	0ffffc277H
	DD	0ffffc246H
	DD	0ffffc216H
	DD	0ffffc1e5H
	DD	0ffffc1b4H
	DD	0ffffc183H
	DD	0ffffc153H
	DD	0ffffc122H
	DD	0ffffc0f1H
	DD	0ffffc0c1H
	DD	0ffffc090H
	DD	0ffffc05fH
	DD	0ffffc02eH
	DD	0ffffbffeH
	DD	0ffffbfcdH
	DD	0ffffbf9cH
	DD	0ffffbf6cH
	DD	0ffffbf3bH
	DD	0ffffbf0bH
	DD	0ffffbedaH
	DD	0ffffbea9H
	DD	0ffffbe79H
	DD	0ffffbe48H
	DD	0ffffbe18H
	DD	0ffffbde7H
	DD	0ffffbdb6H
	DD	0ffffbd86H
	DD	0ffffbd55H
	DD	0ffffbd25H
	DD	0ffffbcf4H
	DD	0ffffbcc4H
	DD	0ffffbc93H
	DD	0ffffbc63H
	DD	0ffffbc32H
	DD	0ffffbc02H
	DD	0ffffbbd1H
	DD	0ffffbba1H
	DD	0ffffbb71H
	DD	0ffffbb40H
	DD	0ffffbb10H
	DD	0ffffbadfH
	DD	0ffffbaafH
	DD	0ffffba7fH
	DD	0ffffba4eH
	DD	0ffffba1eH
	DD	0ffffb9edH
	DD	0ffffb9bdH
	DD	0ffffb98dH
	DD	0ffffb95cH
	DD	0ffffb92cH
	DD	0ffffb8fcH
	DD	0ffffb8ccH
	DD	0ffffb89bH
	DD	0ffffb86bH
	DD	0ffffb83bH
	DD	0ffffb80bH
	DD	0ffffb7daH
	DD	0ffffb7aaH
	DD	0ffffb77aH
	DD	0ffffb74aH
	DD	0ffffb719H
	DD	0ffffb6e9H
	DD	0ffffb6b9H
	DD	0ffffb689H
	DD	0ffffb659H
	DD	0ffffb629H
	DD	0ffffb5f9H
	DD	0ffffb5c8H
	DD	0ffffb598H
	DD	0ffffb568H
	DD	0ffffb538H
	DD	0ffffb508H
	DD	0ffffb4d8H
	DD	0ffffb4a8H
	DD	0ffffb478H
	DD	0ffffb448H
	DD	0ffffb418H
	DD	0ffffb3e8H
	DD	0ffffb3b8H
	DD	0ffffb388H
	DD	0ffffb358H
	DD	0ffffb328H
	DD	0ffffb2f8H
	DD	0ffffb2c8H
	DD	0ffffb298H
	DD	0ffffb268H
	DD	0ffffb238H
	DD	0ffffb209H
	DD	0ffffb1d9H
	DD	0ffffb1a9H
	DD	0ffffb179H
	DD	0ffffb149H
	DD	0ffffb119H
	DD	0ffffb0eaH
	DD	0ffffb0baH
	DD	0ffffb08aH
	DD	0ffffb05aH
	DD	0ffffb02aH
	DD	0ffffaffbH
	DD	0ffffafcbH
	DD	0ffffaf9bH
	DD	0ffffaf6bH
	DD	0ffffaf3cH
	DD	0ffffaf0cH
	DD	0ffffaedcH
	DD	0ffffaeadH
	DD	0ffffae7dH
	DD	0ffffae4dH
	DD	0ffffae1eH
	DD	0ffffadeeH
	DD	0ffffadbfH
	DD	0ffffad8fH
	DD	0ffffad5fH
	DD	0ffffad30H
	DD	0ffffad00H
	DD	0ffffacd1H
	DD	0ffffaca1H
	DD	0ffffac72H
	DD	0ffffac42H
	DD	0ffffac13H
	DD	0ffffabe3H
	DD	0ffffabb4H
	DD	0ffffab84H
	DD	0ffffab55H
	DD	0ffffab25H
	DD	0ffffaaf6H
	DD	0ffffaac7H
	DD	0ffffaa97H
	DD	0ffffaa68H
	DD	0ffffaa38H
	DD	0ffffaa09H
	DD	0ffffa9daH
	DD	0ffffa9aaH
	DD	0ffffa97bH
	DD	0ffffa94cH
	DD	0ffffa91dH
	DD	0ffffa8edH
	DD	0ffffa8beH
	DD	0ffffa88fH
	DD	0ffffa85fH
	DD	0ffffa830H
	DD	0ffffa801H
	DD	0ffffa7d2H
	DD	0ffffa7a3H
	DD	0ffffa774H
	DD	0ffffa744H
	DD	0ffffa715H
	DD	0ffffa6e6H
	DD	0ffffa6b7H
	DD	0ffffa688H
	DD	0ffffa659H
	DD	0ffffa62aH
	DD	0ffffa5fbH
	DD	0ffffa5ccH
	DD	0ffffa59dH
	DD	0ffffa56eH
	DD	0ffffa53fH
	DD	0ffffa510H
	DD	0ffffa4e1H
	DD	0ffffa4b2H
	DD	0ffffa483H
	DD	0ffffa454H
	DD	0ffffa425H
	DD	0ffffa3f6H
	DD	0ffffa3c7H
	DD	0ffffa398H
	DD	0ffffa369H
	DD	0ffffa33aH
	DD	0ffffa30cH
	DD	0ffffa2ddH
	DD	0ffffa2aeH
	DD	0ffffa27fH
	DD	0ffffa250H
	DD	0ffffa222H
	DD	0ffffa1f3H
	DD	0ffffa1c4H
	DD	0ffffa195H
	DD	0ffffa167H
	DD	0ffffa138H
	DD	0ffffa109H
	DD	0ffffa0dbH
	DD	0ffffa0acH
	DD	0ffffa07dH
	DD	0ffffa04fH
	DD	0ffffa020H
	DD	0ffff9ff1H
	DD	0ffff9fc3H
	DD	0ffff9f94H
	DD	0ffff9f66H
	DD	0ffff9f37H
	DD	0ffff9f09H
	DD	0ffff9edaH
	DD	0ffff9eacH
	DD	0ffff9e7dH
	DD	0ffff9e4fH
	DD	0ffff9e20H
	DD	0ffff9df2H
	DD	0ffff9dc3H
	DD	0ffff9d95H
	DD	0ffff9d67H
	DD	0ffff9d38H
	DD	0ffff9d0aH
	DD	0ffff9cdbH
	DD	0ffff9cadH
	DD	0ffff9c7fH
	DD	0ffff9c50H
	DD	0ffff9c22H
	DD	0ffff9bf4H
	DD	0ffff9bc6H
	DD	0ffff9b97H
	DD	0ffff9b69H
	DD	0ffff9b3bH
	DD	0ffff9b0dH
	DD	0ffff9adfH
	DD	0ffff9ab0H
	DD	0ffff9a82H
	DD	0ffff9a54H
	DD	0ffff9a26H
	DD	0ffff99f8H
	DD	0ffff99caH
	DD	0ffff999cH
	DD	0ffff996eH
	DD	0ffff9940H
	DD	0ffff9912H
	DD	0ffff98e4H
	DD	0ffff98b6H
	DD	0ffff9888H
	DD	0ffff985aH
	DD	0ffff982cH
	DD	0ffff97feH
	DD	0ffff97d0H
	DD	0ffff97a2H
	DD	0ffff9774H
	DD	0ffff9746H
	DD	0ffff9718H
	DD	0ffff96eaH
	DD	0ffff96bdH
	DD	0ffff968fH
	DD	0ffff9661H
	DD	0ffff9633H
	DD	0ffff9605H
	DD	0ffff95d8H
	DD	0ffff95aaH
	DD	0ffff957cH
	DD	0ffff954fH
	DD	0ffff9521H
	DD	0ffff94f3H
	DD	0ffff94c6H
	DD	0ffff9498H
	DD	0ffff946aH
	DD	0ffff943dH
	DD	0ffff940fH
	DD	0ffff93e2H
	DD	0ffff93b4H
	DD	0ffff9386H
	DD	0ffff9359H
	DD	0ffff932bH
	DD	0ffff92feH
	DD	0ffff92d0H
	DD	0ffff92a3H
	DD	0ffff9276H
	DD	0ffff9248H
	DD	0ffff921bH
	DD	0ffff91edH
	DD	0ffff91c0H
	DD	0ffff9193H
	DD	0ffff9165H
	DD	0ffff9138H
	DD	0ffff910bH
	DD	0ffff90ddH
	DD	0ffff90b0H
	DD	0ffff9083H
	DD	0ffff9056H
	DD	0ffff9028H
	DD	0ffff8ffbH
	DD	0ffff8fceH
	DD	0ffff8fa1H
	DD	0ffff8f74H
	DD	0ffff8f46H
	DD	0ffff8f19H
	DD	0ffff8eecH
	DD	0ffff8ebfH
	DD	0ffff8e92H
	DD	0ffff8e65H
	DD	0ffff8e38H
	DD	0ffff8e0bH
	DD	0ffff8ddeH
	DD	0ffff8db1H
	DD	0ffff8d84H
	DD	0ffff8d57H
	DD	0ffff8d2aH
	DD	0ffff8cfdH
	DD	0ffff8cd0H
	DD	0ffff8ca3H
	DD	0ffff8c77H
	DD	0ffff8c4aH
	DD	0ffff8c1dH
	DD	0ffff8bf0H
	DD	0ffff8bc3H
	DD	0ffff8b97H
	DD	0ffff8b6aH
	DD	0ffff8b3dH
	DD	0ffff8b10H
	DD	0ffff8ae4H
	DD	0ffff8ab7H
	DD	0ffff8a8aH
	DD	0ffff8a5eH
	DD	0ffff8a31H
	DD	0ffff8a04H
	DD	0ffff89d8H
	DD	0ffff89abH
	DD	0ffff897fH
	DD	0ffff8952H
	DD	0ffff8926H
	DD	0ffff88f9H
	DD	0ffff88cdH
	DD	0ffff88a0H
	DD	0ffff8874H
	DD	0ffff8847H
	DD	0ffff881bH
	DD	0ffff87eeH
	DD	0ffff87c2H
	DD	0ffff8796H
	DD	0ffff8769H
	DD	0ffff873dH
	DD	0ffff8711H
	DD	0ffff86e4H
	DD	0ffff86b8H
	DD	0ffff868cH
	DD	0ffff8660H
	DD	0ffff8633H
	DD	0ffff8607H
	DD	0ffff85dbH
	DD	0ffff85afH
	DD	0ffff8583H
	DD	0ffff8556H
	DD	0ffff852aH
	DD	0ffff84feH
	DD	0ffff84d2H
	DD	0ffff84a6H
	DD	0ffff847aH
	DD	0ffff844eH
	DD	0ffff8422H
	DD	0ffff83f6H
	DD	0ffff83caH
	DD	0ffff839eH
	DD	0ffff8372H
	DD	0ffff8346H
	DD	0ffff831aH
	DD	0ffff82efH
	DD	0ffff82c3H
	DD	0ffff8297H
	DD	0ffff826bH
	DD	0ffff823fH
	DD	0ffff8214H
	DD	0ffff81e8H
	DD	0ffff81bcH
	DD	0ffff8190H
	DD	0ffff8165H
	DD	0ffff8139H
	DD	0ffff810dH
	DD	0ffff80e2H
	DD	0ffff80b6H
	DD	0ffff808aH
	DD	0ffff805fH
	DD	0ffff8033H
	DD	0ffff8008H
	DD	0ffff7fdcH
	DD	0ffff7fb1H
	DD	0ffff7f85H
	DD	0ffff7f5aH
	DD	0ffff7f2eH
	DD	0ffff7f03H
	DD	0ffff7ed7H
	DD	0ffff7eacH
	DD	0ffff7e81H
	DD	0ffff7e55H
	DD	0ffff7e2aH
	DD	0ffff7dffH
	DD	0ffff7dd3H
	DD	0ffff7da8H
	DD	0ffff7d7dH
	DD	0ffff7d52H
	DD	0ffff7d26H
	DD	0ffff7cfbH
	DD	0ffff7cd0H
	DD	0ffff7ca5H
	DD	0ffff7c7aH
	DD	0ffff7c4fH
	DD	0ffff7c24H
	DD	0ffff7bf9H
	DD	0ffff7bcdH
	DD	0ffff7ba2H
	DD	0ffff7b77H
	DD	0ffff7b4cH
	DD	0ffff7b21H
	DD	0ffff7af7H
	DD	0ffff7accH
	DD	0ffff7aa1H
	DD	0ffff7a76H
	DD	0ffff7a4bH
	DD	0ffff7a20H
	DD	0ffff79f5H
	DD	0ffff79caH
	DD	0ffff79a0H
	DD	0ffff7975H
	DD	0ffff794aH
	DD	0ffff791fH
	DD	0ffff78f5H
	DD	0ffff78caH
	DD	0ffff789fH
	DD	0ffff7875H
	DD	0ffff784aH
	DD	0ffff781fH
	DD	0ffff77f5H
	DD	0ffff77caH
	DD	0ffff77a0H
	DD	0ffff7775H
	DD	0ffff774bH
	DD	0ffff7720H
	DD	0ffff76f6H
	DD	0ffff76cbH
	DD	0ffff76a1H
	DD	0ffff7676H
	DD	0ffff764cH
	DD	0ffff7622H
	DD	0ffff75f7H
	DD	0ffff75cdH
	DD	0ffff75a3H
	DD	0ffff7578H
	DD	0ffff754eH
	DD	0ffff7524H
	DD	0ffff74faH
	DD	0ffff74cfH
	DD	0ffff74a5H
	DD	0ffff747bH
	DD	0ffff7451H
	DD	0ffff7427H
	DD	0ffff73fdH
	DD	0ffff73d3H
	DD	0ffff73a9H
	DD	0ffff737fH
	DD	0ffff7355H
	DD	0ffff732bH
	DD	0ffff7301H
	DD	0ffff72d7H
	DD	0ffff72adH
	DD	0ffff7283H
	DD	0ffff7259H
	DD	0ffff722fH
	DD	0ffff7205H
	DD	0ffff71dcH
	DD	0ffff71b2H
	DD	0ffff7188H
	DD	0ffff715eH
	DD	0ffff7135H
	DD	0ffff710bH
	DD	0ffff70e1H
	DD	0ffff70b7H
	DD	0ffff708eH
	DD	0ffff7064H
	DD	0ffff703bH
	DD	0ffff7011H
	DD	0ffff6fe7H
	DD	0ffff6fbeH
	DD	0ffff6f94H
	DD	0ffff6f6bH
	DD	0ffff6f41H
	DD	0ffff6f18H
	DD	0ffff6eefH
	DD	0ffff6ec5H
	DD	0ffff6e9cH
	DD	0ffff6e72H
	DD	0ffff6e49H
	DD	0ffff6e20H
	DD	0ffff6df6H
	DD	0ffff6dcdH
	DD	0ffff6da4H
	DD	0ffff6d7bH
	DD	0ffff6d51H
	DD	0ffff6d28H
	DD	0ffff6cffH
	DD	0ffff6cd6H
	DD	0ffff6cadH
	DD	0ffff6c84H
	DD	0ffff6c5bH
	DD	0ffff6c32H
	DD	0ffff6c09H
	DD	0ffff6be0H
	DD	0ffff6bb7H
	DD	0ffff6b8eH
	DD	0ffff6b65H
	DD	0ffff6b3cH
	DD	0ffff6b13H
	DD	0ffff6aeaH
	DD	0ffff6ac1H
	DD	0ffff6a98H
	DD	0ffff6a70H
	DD	0ffff6a47H
	DD	0ffff6a1eH
	DD	0ffff69f5H
	DD	0ffff69cdH
	DD	0ffff69a4H
	DD	0ffff697bH
	DD	0ffff6953H
	DD	0ffff692aH
	DD	0ffff6901H
	DD	0ffff68d9H
	DD	0ffff68b0H
	DD	0ffff6888H
	DD	0ffff685fH
	DD	0ffff6837H
	DD	0ffff680eH
	DD	0ffff67e6H
	DD	0ffff67bdH
	DD	0ffff6795H
	DD	0ffff676dH
	DD	0ffff6744H
	DD	0ffff671cH
	DD	0ffff66f4H
	DD	0ffff66cbH
	DD	0ffff66a3H
	DD	0ffff667bH
	DD	0ffff6653H
	DD	0ffff662aH
	DD	0ffff6602H
	DD	0ffff65daH
	DD	0ffff65b2H
	DD	0ffff658aH
	DD	0ffff6562H
	DD	0ffff653aH
	DD	0ffff6512H
	DD	0ffff64eaH
	DD	0ffff64c2H
	DD	0ffff649aH
	DD	0ffff6472H
	DD	0ffff644aH
	DD	0ffff6422H
	DD	0ffff63faH
	DD	0ffff63d2H
	DD	0ffff63abH
	DD	0ffff6383H
	DD	0ffff635bH
	DD	0ffff6333H
	DD	0ffff630cH
	DD	0ffff62e4H
	DD	0ffff62bcH
	DD	0ffff6295H
	DD	0ffff626dH
	DD	0ffff6245H
	DD	0ffff621eH
	DD	0ffff61f6H
	DD	0ffff61cfH
	DD	0ffff61a7H
	DD	0ffff6180H
	DD	0ffff6158H
	DD	0ffff6131H
	DD	0ffff6109H
	DD	0ffff60e2H
	DD	0ffff60bbH
	DD	0ffff6093H
	DD	0ffff606cH
	DD	0ffff6045H
	DD	0ffff601dH
	DD	0ffff5ff6H
	DD	0ffff5fcfH
	DD	0ffff5fa8H
	DD	0ffff5f81H
	DD	0ffff5f59H
	DD	0ffff5f32H
	DD	0ffff5f0bH
	DD	0ffff5ee4H
	DD	0ffff5ebdH
	DD	0ffff5e96H
	DD	0ffff5e6fH
	DD	0ffff5e48H
	DD	0ffff5e21H
	DD	0ffff5dfaH
	DD	0ffff5dd3H
	DD	0ffff5dacH
	DD	0ffff5d85H
	DD	0ffff5d5fH
	DD	0ffff5d38H
	DD	0ffff5d11H
	DD	0ffff5ceaH
	DD	0ffff5cc4H
	DD	0ffff5c9dH
	DD	0ffff5c76H
	DD	0ffff5c50H
	DD	0ffff5c29H
	DD	0ffff5c02H
	DD	0ffff5bdcH
	DD	0ffff5bb5H
	DD	0ffff5b8fH
	DD	0ffff5b68H
	DD	0ffff5b42H
	DD	0ffff5b1bH
	DD	0ffff5af5H
	DD	0ffff5aceH
	DD	0ffff5aa8H
	DD	0ffff5a82H
	DD	0ffff5a5bH
	DD	0ffff5a35H
	DD	0ffff5a0fH
	DD	0ffff59e8H
	DD	0ffff59c2H
	DD	0ffff599cH
	DD	0ffff5976H
	DD	0ffff5950H
	DD	0ffff5929H
	DD	0ffff5903H
	DD	0ffff58ddH
	DD	0ffff58b7H
	DD	0ffff5891H
	DD	0ffff586bH
	DD	0ffff5845H
	DD	0ffff581fH
	DD	0ffff57f9H
	DD	0ffff57d3H
	DD	0ffff57adH
	DD	0ffff5788H
	DD	0ffff5762H
	DD	0ffff573cH
	DD	0ffff5716H
	DD	0ffff56f0H
	DD	0ffff56cbH
	DD	0ffff56a5H
	DD	0ffff567fH
	DD	0ffff565aH
	DD	0ffff5634H
	DD	0ffff560eH
	DD	0ffff55e9H
	DD	0ffff55c3H
	DD	0ffff559eH
	DD	0ffff5578H
	DD	0ffff5553H
	DD	0ffff552dH
	DD	0ffff5508H
	DD	0ffff54e2H
	DD	0ffff54bdH
	DD	0ffff5498H
	DD	0ffff5472H
	DD	0ffff544dH
	DD	0ffff5428H
	DD	0ffff5403H
	DD	0ffff53ddH
	DD	0ffff53b8H
	DD	0ffff5393H
	DD	0ffff536eH
	DD	0ffff5349H
	DD	0ffff5324H
	DD	0ffff52ffH
	DD	0ffff52daH
	DD	0ffff52b5H
	DD	0ffff5290H
	DD	0ffff526bH
	DD	0ffff5246H
	DD	0ffff5221H
	DD	0ffff51fcH
	DD	0ffff51d7H
	DD	0ffff51b2H
	DD	0ffff518dH
	DD	0ffff5169H
	DD	0ffff5144H
	DD	0ffff511fH
	DD	0ffff50faH
	DD	0ffff50d6H
	DD	0ffff50b1H
	DD	0ffff508dH
	DD	0ffff5068H
	DD	0ffff5043H
	DD	0ffff501fH
	DD	0ffff4ffaH
	DD	0ffff4fd6H
	DD	0ffff4fb1H
	DD	0ffff4f8dH
	DD	0ffff4f69H
	DD	0ffff4f44H
	DD	0ffff4f20H
	DD	0ffff4efcH
	DD	0ffff4ed7H
	DD	0ffff4eb3H
	DD	0ffff4e8fH
	DD	0ffff4e6aH
	DD	0ffff4e46H
	DD	0ffff4e22H
	DD	0ffff4dfeH
	DD	0ffff4ddaH
	DD	0ffff4db6H
	DD	0ffff4d92H
	DD	0ffff4d6eH
	DD	0ffff4d4aH
	DD	0ffff4d26H
	DD	0ffff4d02H
	DD	0ffff4cdeH
	DD	0ffff4cbaH
	DD	0ffff4c96H
	DD	0ffff4c72H
	DD	0ffff4c4eH
	DD	0ffff4c2bH
	DD	0ffff4c07H
	DD	0ffff4be3H
	DD	0ffff4bbfH
	DD	0ffff4b9cH
	DD	0ffff4b78H
	DD	0ffff4b54H
	DD	0ffff4b31H
	DD	0ffff4b0dH
	DD	0ffff4aeaH
	DD	0ffff4ac6H
	DD	0ffff4aa3H
	DD	0ffff4a7fH
	DD	0ffff4a5cH
	DD	0ffff4a38H
	DD	0ffff4a15H
	DD	0ffff49f2H
	DD	0ffff49ceH
	DD	0ffff49abH
	DD	0ffff4988H
	DD	0ffff4965H
	DD	0ffff4941H
	DD	0ffff491eH
	DD	0ffff48fbH
	DD	0ffff48d8H
	DD	0ffff48b5H
	DD	0ffff4892H
	DD	0ffff486fH
	DD	0ffff484cH
	DD	0ffff4829H
	DD	0ffff4806H
	DD	0ffff47e3H
	DD	0ffff47c0H
	DD	0ffff479dH
	DD	0ffff477aH
	DD	0ffff4757H
	DD	0ffff4734H
	DD	0ffff4712H
	DD	0ffff46efH
	DD	0ffff46ccH
	DD	0ffff46aaH
	DD	0ffff4687H
	DD	0ffff4664H
	DD	0ffff4642H
	DD	0ffff461fH
	DD	0ffff45fdH
	DD	0ffff45daH
	DD	0ffff45b8H
	DD	0ffff4595H
	DD	0ffff4573H
	DD	0ffff4550H
	DD	0ffff452eH
	DD	0ffff450cH
	DD	0ffff44e9H
	DD	0ffff44c7H
	DD	0ffff44a5H
	DD	0ffff4482H
	DD	0ffff4460H
	DD	0ffff443eH
	DD	0ffff441cH
	DD	0ffff43faH
	DD	0ffff43d8H
	DD	0ffff43b6H
	DD	0ffff4394H
	DD	0ffff4371H
	DD	0ffff4350H
	DD	0ffff432eH
	DD	0ffff430cH
	DD	0ffff42eaH
	DD	0ffff42c8H
	DD	0ffff42a6H
	DD	0ffff4284H
	DD	0ffff4262H
	DD	0ffff4241H
	DD	0ffff421fH
	DD	0ffff41fdH
	DD	0ffff41dcH
	DD	0ffff41baH
	DD	0ffff4198H
	DD	0ffff4177H
	DD	0ffff4155H
	DD	0ffff4134H
	DD	0ffff4112H
	DD	0ffff40f1H
	DD	0ffff40cfH
	DD	0ffff40aeH
	DD	0ffff408cH
	DD	0ffff406bH
	DD	0ffff404aH
	DD	0ffff4028H
	DD	0ffff4007H
	DD	0ffff3fe6H
	DD	0ffff3fc5H
	DD	0ffff3fa4H
	DD	0ffff3f82H
	DD	0ffff3f61H
	DD	0ffff3f40H
	DD	0ffff3f1fH
	DD	0ffff3efeH
	DD	0ffff3eddH
	DD	0ffff3ebcH
	DD	0ffff3e9bH
	DD	0ffff3e7aH
	DD	0ffff3e59H
	DD	0ffff3e38H
	DD	0ffff3e18H
	DD	0ffff3df7H
	DD	0ffff3dd6H
	DD	0ffff3db5H
	DD	0ffff3d95H
	DD	0ffff3d74H
	DD	0ffff3d53H
	DD	0ffff3d33H
	DD	0ffff3d12H
	DD	0ffff3cf1H
	DD	0ffff3cd1H
	DD	0ffff3cb0H
	DD	0ffff3c90H
	DD	0ffff3c6fH
	DD	0ffff3c4fH
	DD	0ffff3c2fH
	DD	0ffff3c0eH
	DD	0ffff3beeH
	DD	0ffff3bceH
	DD	0ffff3badH
	DD	0ffff3b8dH
	DD	0ffff3b6dH
	DD	0ffff3b4dH
	DD	0ffff3b2dH
	DD	0ffff3b0cH
	DD	0ffff3aecH
	DD	0ffff3accH
	DD	0ffff3aacH
	DD	0ffff3a8cH
	DD	0ffff3a6cH
	DD	0ffff3a4cH
	DD	0ffff3a2cH
	DD	0ffff3a0dH
	DD	0ffff39edH
	DD	0ffff39cdH
	DD	0ffff39adH
	DD	0ffff398dH
	DD	0ffff396eH
	DD	0ffff394eH
	DD	0ffff392eH
	DD	0ffff390fH
	DD	0ffff38efH
	DD	0ffff38cfH
	DD	0ffff38b0H
	DD	0ffff3890H
	DD	0ffff3871H
	DD	0ffff3851H
	DD	0ffff3832H
	DD	0ffff3812H
	DD	0ffff37f3H
	DD	0ffff37d4H
	DD	0ffff37b4H
	DD	0ffff3795H
	DD	0ffff3776H
	DD	0ffff3757H
	DD	0ffff3737H
	DD	0ffff3718H
	DD	0ffff36f9H
	DD	0ffff36daH
	DD	0ffff36bbH
	DD	0ffff369cH
	DD	0ffff367dH
	DD	0ffff365eH
	DD	0ffff363fH
	DD	0ffff3620H
	DD	0ffff3601H
	DD	0ffff35e2H
	DD	0ffff35c3H
	DD	0ffff35a5H
	DD	0ffff3586H
	DD	0ffff3567H
	DD	0ffff3548H
	DD	0ffff352aH
	DD	0ffff350bH
	DD	0ffff34ecH
	DD	0ffff34ceH
	DD	0ffff34afH
	DD	0ffff3491H
	DD	0ffff3472H
	DD	0ffff3454H
	DD	0ffff3435H
	DD	0ffff3417H
	DD	0ffff33f9H
	DD	0ffff33daH
	DD	0ffff33bcH
	DD	0ffff339eH
	DD	0ffff337fH
	DD	0ffff3361H
	DD	0ffff3343H
	DD	0ffff3325H
	DD	0ffff3307H
	DD	0ffff32e9H
	DD	0ffff32caH
	DD	0ffff32acH
	DD	0ffff328eH
	DD	0ffff3270H
	DD	0ffff3253H
	DD	0ffff3235H
	DD	0ffff3217H
	DD	0ffff31f9H
	DD	0ffff31dbH
	DD	0ffff31bdH
	DD	0ffff31a0H
	DD	0ffff3182H
	DD	0ffff3164H
	DD	0ffff3146H
	DD	0ffff3129H
	DD	0ffff310bH
	DD	0ffff30eeH
	DD	0ffff30d0H
	DD	0ffff30b3H
	DD	0ffff3095H
	DD	0ffff3078H
	DD	0ffff305aH
	DD	0ffff303dH
	DD	0ffff3020H
	DD	0ffff3002H
	DD	0ffff2fe5H
	DD	0ffff2fc8H
	DD	0ffff2faaH
	DD	0ffff2f8dH
	DD	0ffff2f70H
	DD	0ffff2f53H
	DD	0ffff2f36H
	DD	0ffff2f19H
	DD	0ffff2efcH
	DD	0ffff2edfH
	DD	0ffff2ec2H
	DD	0ffff2ea5H
	DD	0ffff2e88H
	DD	0ffff2e6bH
	DD	0ffff2e4eH
	DD	0ffff2e31H
	DD	0ffff2e15H
	DD	0ffff2df8H
	DD	0ffff2ddbH
	DD	0ffff2dbeH
	DD	0ffff2da2H
	DD	0ffff2d85H
	DD	0ffff2d69H
	DD	0ffff2d4cH
	DD	0ffff2d2fH
	DD	0ffff2d13H
	DD	0ffff2cf6H
	DD	0ffff2cdaH
	DD	0ffff2cbeH
	DD	0ffff2ca1H
	DD	0ffff2c85H
	DD	0ffff2c69H
	DD	0ffff2c4cH
	DD	0ffff2c30H
	DD	0ffff2c14H
	DD	0ffff2bf8H
	DD	0ffff2bdcH
	DD	0ffff2bbfH
	DD	0ffff2ba3H
	DD	0ffff2b87H
	DD	0ffff2b6bH
	DD	0ffff2b4fH
	DD	0ffff2b33H
	DD	0ffff2b17H
	DD	0ffff2afbH
	DD	0ffff2ae0H
	DD	0ffff2ac4H
	DD	0ffff2aa8H
	DD	0ffff2a8cH
	DD	0ffff2a70H
	DD	0ffff2a55H
	DD	0ffff2a39H
	DD	0ffff2a1dH
	DD	0ffff2a02H
	DD	0ffff29e6H
	DD	0ffff29cbH
	DD	0ffff29afH
	DD	0ffff2994H
	DD	0ffff2978H
	DD	0ffff295dH
	DD	0ffff2942H
	DD	0ffff2926H
	DD	0ffff290bH
	DD	0ffff28f0H
	DD	0ffff28d4H
	DD	0ffff28b9H
	DD	0ffff289eH
	DD	0ffff2883H
	DD	0ffff2868H
	DD	0ffff284dH
	DD	0ffff2832H
	DD	0ffff2816H
	DD	0ffff27fcH
	DD	0ffff27e1H
	DD	0ffff27c6H
	DD	0ffff27abH
	DD	0ffff2790H
	DD	0ffff2775H
	DD	0ffff275aH
	DD	0ffff273fH
	DD	0ffff2725H
	DD	0ffff270aH
	DD	0ffff26efH
	DD	0ffff26d5H
	DD	0ffff26baH
	DD	0ffff26a0H
	DD	0ffff2685H
	DD	0ffff266bH
	DD	0ffff2650H
	DD	0ffff2636H
	DD	0ffff261bH
	DD	0ffff2601H
	DD	0ffff25e7H
	DD	0ffff25ccH
	DD	0ffff25b2H
	DD	0ffff2598H
	DD	0ffff257eH
	DD	0ffff2563H
	DD	0ffff2549H
	DD	0ffff252fH
	DD	0ffff2515H
	DD	0ffff24fbH
	DD	0ffff24e1H
	DD	0ffff24c7H
	DD	0ffff24adH
	DD	0ffff2493H
	DD	0ffff2479H
	DD	0ffff245fH
	DD	0ffff2446H
	DD	0ffff242cH
	DD	0ffff2412H
	DD	0ffff23f8H
	DD	0ffff23dfH
	DD	0ffff23c5H
	DD	0ffff23acH
	DD	0ffff2392H
	DD	0ffff2378H
	DD	0ffff235fH
	DD	0ffff2345H
	DD	0ffff232cH
	DD	0ffff2313H
	DD	0ffff22f9H
	DD	0ffff22e0H
	DD	0ffff22c7H
	DD	0ffff22adH
	DD	0ffff2294H
	DD	0ffff227bH
	DD	0ffff2262H
	DD	0ffff2248H
	DD	0ffff222fH
	DD	0ffff2216H
	DD	0ffff21fdH
	DD	0ffff21e4H
	DD	0ffff21cbH
	DD	0ffff21b2H
	DD	0ffff2199H
	DD	0ffff2181H
	DD	0ffff2168H
	DD	0ffff214fH
	DD	0ffff2136H
	DD	0ffff211dH
	DD	0ffff2105H
	DD	0ffff20ecH
	DD	0ffff20d3H
	DD	0ffff20bbH
	DD	0ffff20a2H
	DD	0ffff208aH
	DD	0ffff2071H
	DD	0ffff2059H
	DD	0ffff2040H
	DD	0ffff2028H
	DD	0ffff200fH
	DD	0ffff1ff7H
	DD	0ffff1fdfH
	DD	0ffff1fc6H
	DD	0ffff1faeH
	DD	0ffff1f96H
	DD	0ffff1f7eH
	DD	0ffff1f66H
	DD	0ffff1f4eH
	DD	0ffff1f36H
	DD	0ffff1f1eH
	DD	0ffff1f06H
	DD	0ffff1eeeH
	DD	0ffff1ed6H
	DD	0ffff1ebeH
	DD	0ffff1ea6H
	DD	0ffff1e8eH
	DD	0ffff1e76H
	DD	0ffff1e5eH
	DD	0ffff1e47H
	DD	0ffff1e2fH
	DD	0ffff1e17H
	DD	0ffff1e00H
	DD	0ffff1de8H
	DD	0ffff1dd1H
	DD	0ffff1db9H
	DD	0ffff1da2H
	DD	0ffff1d8aH
	DD	0ffff1d73H
	DD	0ffff1d5bH
	DD	0ffff1d44H
	DD	0ffff1d2dH
	DD	0ffff1d15H
	DD	0ffff1cfeH
	DD	0ffff1ce7H
	DD	0ffff1cd0H
	DD	0ffff1cb9H
	DD	0ffff1ca1H
	DD	0ffff1c8aH
	DD	0ffff1c73H
	DD	0ffff1c5cH
	DD	0ffff1c45H
	DD	0ffff1c2eH
	DD	0ffff1c17H
	DD	0ffff1c01H
	DD	0ffff1beaH
	DD	0ffff1bd3H
	DD	0ffff1bbcH
	DD	0ffff1ba5H
	DD	0ffff1b8fH
	DD	0ffff1b78H
	DD	0ffff1b61H
	DD	0ffff1b4bH
	DD	0ffff1b34H
	DD	0ffff1b1eH
	DD	0ffff1b07H
	DD	0ffff1af1H
	DD	0ffff1adaH
	DD	0ffff1ac4H
	DD	0ffff1aaeH
	DD	0ffff1a97H
	DD	0ffff1a81H
	DD	0ffff1a6bH
	DD	0ffff1a55H
	DD	0ffff1a3eH
	DD	0ffff1a28H
	DD	0ffff1a12H
	DD	0ffff19fcH
	DD	0ffff19e6H
	DD	0ffff19d0H
	DD	0ffff19baH
	DD	0ffff19a4H
	DD	0ffff198eH
	DD	0ffff1978H
	DD	0ffff1962H
	DD	0ffff194dH
	DD	0ffff1937H
	DD	0ffff1921H
	DD	0ffff190bH
	DD	0ffff18f6H
	DD	0ffff18e0H
	DD	0ffff18caH
	DD	0ffff18b5H
	DD	0ffff189fH
	DD	0ffff188aH
	DD	0ffff1874H
	DD	0ffff185fH
	DD	0ffff184aH
	DD	0ffff1834H
	DD	0ffff181fH
	DD	0ffff180aH
	DD	0ffff17f4H
	DD	0ffff17dfH
	DD	0ffff17caH
	DD	0ffff17b5H
	DD	0ffff17a0H
	DD	0ffff178bH
	DD	0ffff1776H
	DD	0ffff1761H
	DD	0ffff174cH
	DD	0ffff1737H
	DD	0ffff1722H
	DD	0ffff170dH
	DD	0ffff16f8H
	DD	0ffff16e3H
	DD	0ffff16cfH
	DD	0ffff16baH
	DD	0ffff16a5H
	DD	0ffff1691H
	DD	0ffff167cH
	DD	0ffff1667H
	DD	0ffff1653H
	DD	0ffff163eH
	DD	0ffff162aH
	DD	0ffff1615H
	DD	0ffff1601H
	DD	0ffff15edH
	DD	0ffff15d8H
	DD	0ffff15c4H
	DD	0ffff15b0H
	DD	0ffff159cH
	DD	0ffff1587H
	DD	0ffff1573H
	DD	0ffff155fH
	DD	0ffff154bH
	DD	0ffff1537H
	DD	0ffff1523H
	DD	0ffff150fH
	DD	0ffff14fbH
	DD	0ffff14e7H
	DD	0ffff14d3H
	DD	0ffff14bfH
	DD	0ffff14acH
	DD	0ffff1498H
	DD	0ffff1484H
	DD	0ffff1470H
	DD	0ffff145dH
	DD	0ffff1449H
	DD	0ffff1435H
	DD	0ffff1422H
	DD	0ffff140eH
	DD	0ffff13fbH
	DD	0ffff13e7H
	DD	0ffff13d4H
	DD	0ffff13c1H
	DD	0ffff13adH
	DD	0ffff139aH
	DD	0ffff1387H
	DD	0ffff1374H
	DD	0ffff1360H
	DD	0ffff134dH
	DD	0ffff133aH
	DD	0ffff1327H
	DD	0ffff1314H
	DD	0ffff1301H
	DD	0ffff12eeH
	DD	0ffff12dbH
	DD	0ffff12c8H
	DD	0ffff12b5H
	DD	0ffff12a2H
	DD	0ffff128fH
	DD	0ffff127dH
	DD	0ffff126aH
	DD	0ffff1257H
	DD	0ffff1245H
	DD	0ffff1232H
	DD	0ffff121fH
	DD	0ffff120dH
	DD	0ffff11faH
	DD	0ffff11e8H
	DD	0ffff11d5H
	DD	0ffff11c3H
	DD	0ffff11b1H
	DD	0ffff119eH
	DD	0ffff118cH
	DD	0ffff117aH
	DD	0ffff1167H
	DD	0ffff1155H
	DD	0ffff1143H
	DD	0ffff1131H
	DD	0ffff111fH
	DD	0ffff110dH
	DD	0ffff10fbH
	DD	0ffff10e9H
	DD	0ffff10d7H
	DD	0ffff10c5H
	DD	0ffff10b3H
	DD	0ffff10a1H
	DD	0ffff108fH
	DD	0ffff107eH
	DD	0ffff106cH
	DD	0ffff105aH
	DD	0ffff1049H
	DD	0ffff1037H
	DD	0ffff1025H
	DD	0ffff1014H
	DD	0ffff1002H
	DD	0ffff0ff1H
	DD	0ffff0fdfH
	DD	0ffff0fceH
	DD	0ffff0fbdH
	DD	0ffff0fabH
	DD	0ffff0f9aH
	DD	0ffff0f89H
	DD	0ffff0f77H
	DD	0ffff0f66H
	DD	0ffff0f55H
	DD	0ffff0f44H
	DD	0ffff0f33H
	DD	0ffff0f22H
	DD	0ffff0f11H
	DD	0ffff0f00H
	DD	0ffff0eefH
	DD	0ffff0edeH
	DD	0ffff0ecdH
	DD	0ffff0ebcH
	DD	0ffff0eacH
	DD	0ffff0e9bH
	DD	0ffff0e8aH
	DD	0ffff0e79H
	DD	0ffff0e69H
	DD	0ffff0e58H
	DD	0ffff0e48H
	DD	0ffff0e37H
	DD	0ffff0e27H
	DD	0ffff0e16H
	DD	0ffff0e06H
	DD	0ffff0df5H
	DD	0ffff0de5H
	DD	0ffff0dd5H
	DD	0ffff0dc4H
	DD	0ffff0db4H
	DD	0ffff0da4H
	DD	0ffff0d94H
	DD	0ffff0d84H
	DD	0ffff0d74H
	DD	0ffff0d64H
	DD	0ffff0d53H
	DD	0ffff0d43H
	DD	0ffff0d34H
	DD	0ffff0d24H
	DD	0ffff0d14H
	DD	0ffff0d04H
	DD	0ffff0cf4H
	DD	0ffff0ce4H
	DD	0ffff0cd5H
	DD	0ffff0cc5H
	DD	0ffff0cb5H
	DD	0ffff0ca6H
	DD	0ffff0c96H
	DD	0ffff0c87H
	DD	0ffff0c77H
	DD	0ffff0c68H
	DD	0ffff0c58H
	DD	0ffff0c49H
	DD	0ffff0c39H
	DD	0ffff0c2aH
	DD	0ffff0c1bH
	DD	0ffff0c0bH
	DD	0ffff0bfcH
	DD	0ffff0bedH
	DD	0ffff0bdeH
	DD	0ffff0bcfH
	DD	0ffff0bc0H
	DD	0ffff0bb1H
	DD	0ffff0ba2H
	DD	0ffff0b93H
	DD	0ffff0b84H
	DD	0ffff0b75H
	DD	0ffff0b66H
	DD	0ffff0b57H
	DD	0ffff0b48H
	DD	0ffff0b3aH
	DD	0ffff0b2bH
	DD	0ffff0b1cH
	DD	0ffff0b0eH
	DD	0ffff0affH
	DD	0ffff0af1H
	DD	0ffff0ae2H
	DD	0ffff0ad4H
	DD	0ffff0ac5H
	DD	0ffff0ab7H
	DD	0ffff0aa8H
	DD	0ffff0a9aH
	DD	0ffff0a8cH
	DD	0ffff0a7eH
	DD	0ffff0a6fH
	DD	0ffff0a61H
	DD	0ffff0a53H
	DD	0ffff0a45H
	DD	0ffff0a37H
	DD	0ffff0a29H
	DD	0ffff0a1bH
	DD	0ffff0a0dH
	DD	0ffff09ffH
	DD	0ffff09f1H
	DD	0ffff09e3H
	DD	0ffff09d5H
	DD	0ffff09c8H
	DD	0ffff09baH
	DD	0ffff09acH
	DD	0ffff099eH
	DD	0ffff0991H
	DD	0ffff0983H
	DD	0ffff0976H
	DD	0ffff0968H
	DD	0ffff095bH
	DD	0ffff094dH
	DD	0ffff0940H
	DD	0ffff0932H
	DD	0ffff0925H
	DD	0ffff0918H
	DD	0ffff090bH
	DD	0ffff08fdH
	DD	0ffff08f0H
	DD	0ffff08e3H
	DD	0ffff08d6H
	DD	0ffff08c9H
	DD	0ffff08bcH
	DD	0ffff08afH
	DD	0ffff08a2H
	DD	0ffff0895H
	DD	0ffff0888H
	DD	0ffff087bH
	DD	0ffff086eH
	DD	0ffff0862H
	DD	0ffff0855H
	DD	0ffff0848H
	DD	0ffff083bH
	DD	0ffff082fH
	DD	0ffff0822H
	DD	0ffff0816H
	DD	0ffff0809H
	DD	0ffff07fdH
	DD	0ffff07f0H
	DD	0ffff07e4H
	DD	0ffff07d8H
	DD	0ffff07cbH
	DD	0ffff07bfH
	DD	0ffff07b3H
	DD	0ffff07a6H
	DD	0ffff079aH
	DD	0ffff078eH
	DD	0ffff0782H
	DD	0ffff0776H
	DD	0ffff076aH
	DD	0ffff075eH
	DD	0ffff0752H
	DD	0ffff0746H
	DD	0ffff073aH
	DD	0ffff072eH
	DD	0ffff0723H
	DD	0ffff0717H
	DD	0ffff070bH
	DD	0ffff06ffH
	DD	0ffff06f4H
	DD	0ffff06e8H
	DD	0ffff06ddH
	DD	0ffff06d1H
	DD	0ffff06c5H
	DD	0ffff06baH
	DD	0ffff06afH
	DD	0ffff06a3H
	DD	0ffff0698H
	DD	0ffff068dH
	DD	0ffff0681H
	DD	0ffff0676H
	DD	0ffff066bH
	DD	0ffff0660H
	DD	0ffff0655H
	DD	0ffff0649H
	DD	0ffff063eH
	DD	0ffff0633H
	DD	0ffff0628H
	DD	0ffff061dH
	DD	0ffff0613H
	DD	0ffff0608H
	DD	0ffff05fdH
	DD	0ffff05f2H
	DD	0ffff05e7H
	DD	0ffff05ddH
	DD	0ffff05d2H
	DD	0ffff05c7H
	DD	0ffff05bdH
	DD	0ffff05b2H
	DD	0ffff05a8H
	DD	0ffff059dH
	DD	0ffff0593H
	DD	0ffff0588H
	DD	0ffff057eH
	DD	0ffff0574H
	DD	0ffff0569H
	DD	0ffff055fH
	DD	0ffff0555H
	DD	0ffff054bH
	DD	0ffff0540H
	DD	0ffff0536H
	DD	0ffff052cH
	DD	0ffff0522H
	DD	0ffff0518H
	DD	0ffff050eH
	DD	0ffff0504H
	DD	0ffff04fbH
	DD	0ffff04f1H
	DD	0ffff04e7H
	DD	0ffff04ddH
	DD	0ffff04d3H
	DD	0ffff04caH
	DD	0ffff04c0H
	DD	0ffff04b6H
	DD	0ffff04adH
	DD	0ffff04a3H
	DD	0ffff049aH
	DD	0ffff0490H
	DD	0ffff0487H
	DD	0ffff047dH
	DD	0ffff0474H
	DD	0ffff046bH
	DD	0ffff0462H
	DD	0ffff0458H
	DD	0ffff044fH
	DD	0ffff0446H
	DD	0ffff043dH
	DD	0ffff0434H
	DD	0ffff042bH
	DD	0ffff0422H
	DD	0ffff0419H
	DD	0ffff0410H
	DD	0ffff0407H
	DD	0ffff03feH
	DD	0ffff03f5H
	DD	0ffff03ecH
	DD	0ffff03e4H
	DD	0ffff03dbH
	DD	0ffff03d2H
	DD	0ffff03caH
	DD	0ffff03c1H
	DD	0ffff03b8H
	DD	0ffff03b0H
	DD	0ffff03a7H
	DD	0ffff039fH
	DD	0ffff0397H
	DD	0ffff038eH
	DD	0ffff0386H
	DD	0ffff037eH
	DD	0ffff0375H
	DD	0ffff036dH
	DD	0ffff0365H
	DD	0ffff035dH
	DD	0ffff0355H
	DD	0ffff034dH
	DD	0ffff0345H
	DD	0ffff033dH
	DD	0ffff0335H
	DD	0ffff032dH
	DD	0ffff0325H
	DD	0ffff031dH
	DD	0ffff0315H
	DD	0ffff030eH
	DD	0ffff0306H
	DD	0ffff02feH
	DD	0ffff02f7H
	DD	0ffff02efH
	DD	0ffff02e7H
	DD	0ffff02e0H
	DD	0ffff02d8H
	DD	0ffff02d1H
	DD	0ffff02caH
	DD	0ffff02c2H
	DD	0ffff02bbH
	DD	0ffff02b4H
	DD	0ffff02acH
	DD	0ffff02a5H
	DD	0ffff029eH
	DD	0ffff0297H
	DD	0ffff0290H
	DD	0ffff0289H
	DD	0ffff0281H
	DD	0ffff027aH
	DD	0ffff0274H
	DD	0ffff026dH
	DD	0ffff0266H
	DD	0ffff025fH
	DD	0ffff0258H
	DD	0ffff0251H
	DD	0ffff024bH
	DD	0ffff0244H
	DD	0ffff023dH
	DD	0ffff0237H
	DD	0ffff0230H
	DD	0ffff022aH
	DD	0ffff0223H
	DD	0ffff021dH
	DD	0ffff0216H
	DD	0ffff0210H
	DD	0ffff0209H
	DD	0ffff0203H
	DD	0ffff01fdH
	DD	0ffff01f7H
	DD	0ffff01f0H
	DD	0ffff01eaH
	DD	0ffff01e4H
	DD	0ffff01deH
	DD	0ffff01d8H
	DD	0ffff01d2H
	DD	0ffff01ccH
	DD	0ffff01c6H
	DD	0ffff01c0H
	DD	0ffff01baH
	DD	0ffff01b5H
	DD	0ffff01afH
	DD	0ffff01a9H
	DD	0ffff01a3H
	DD	0ffff019eH
	DD	0ffff0198H
	DD	0ffff0193H
	DD	0ffff018dH
	DD	0ffff0188H
	DD	0ffff0182H
	DD	0ffff017dH
	DD	0ffff0177H
	DD	0ffff0172H
	DD	0ffff016dH
	DD	0ffff0167H
	DD	0ffff0162H
	DD	0ffff015dH
	DD	0ffff0158H
	DD	0ffff0153H
	DD	0ffff014eH
	DD	0ffff0149H
	DD	0ffff0144H
	DD	0ffff013fH
	DD	0ffff013aH
	DD	0ffff0135H
	DD	0ffff0130H
	DD	0ffff012bH
	DD	0ffff0126H
	DD	0ffff0122H
	DD	0ffff011dH
	DD	0ffff0118H
	DD	0ffff0114H
	DD	0ffff010fH
	DD	0ffff010aH
	DD	0ffff0106H
	DD	0ffff0101H
	DD	0ffff00fdH
	DD	0ffff00f9H
	DD	0ffff00f4H
	DD	0ffff00f0H
	DD	0ffff00ecH
	DD	0ffff00e7H
	DD	0ffff00e3H
	DD	0ffff00dfH
	DD	0ffff00dbH
	DD	0ffff00d7H
	DD	0ffff00d3H
	DD	0ffff00cfH
	DD	0ffff00cbH
	DD	0ffff00c7H
	DD	0ffff00c3H
	DD	0ffff00bfH
	DD	0ffff00bbH
	DD	0ffff00b8H
	DD	0ffff00b4H
	DD	0ffff00b0H
	DD	0ffff00adH
	DD	0ffff00a9H
	DD	0ffff00a5H
	DD	0ffff00a2H
	DD	0ffff009eH
	DD	0ffff009bH
	DD	0ffff0097H
	DD	0ffff0094H
	DD	0ffff0091H
	DD	0ffff008dH
	DD	0ffff008aH
	DD	0ffff0087H
	DD	0ffff0084H
	DD	0ffff0080H
	DD	0ffff007dH
	DD	0ffff007aH
	DD	0ffff0077H
	DD	0ffff0074H
	DD	0ffff0071H
	DD	0ffff006eH
	DD	0ffff006bH
	DD	0ffff0069H
	DD	0ffff0066H
	DD	0ffff0063H
	DD	0ffff0060H
	DD	0ffff005eH
	DD	0ffff005bH
	DD	0ffff0058H
	DD	0ffff0056H
	DD	0ffff0053H
	DD	0ffff0051H
	DD	0ffff004eH
	DD	0ffff004cH
	DD	0ffff0049H
	DD	0ffff0047H
	DD	0ffff0045H
	DD	0ffff0042H
	DD	0ffff0040H
	DD	0ffff003eH
	DD	0ffff003cH
	DD	0ffff003aH
	DD	0ffff0038H
	DD	0ffff0036H
	DD	0ffff0034H
	DD	0ffff0032H
	DD	0ffff0030H
	DD	0ffff002eH
	DD	0ffff002cH
	DD	0ffff002aH
	DD	0ffff0028H
	DD	0ffff0027H
	DD	0ffff0025H
	DD	0ffff0023H
	DD	0ffff0022H
	DD	0ffff0020H
	DD	0ffff001fH
	DD	0ffff001dH
	DD	0ffff001cH
	DD	0ffff001aH
	DD	0ffff0019H
	DD	0ffff0017H
	DD	0ffff0016H
	DD	0ffff0015H
	DD	0ffff0014H
	DD	0ffff0012H
	DD	0ffff0011H
	DD	0ffff0010H
	DD	0ffff000fH
	DD	0ffff000eH
	DD	0ffff000dH
	DD	0ffff000cH
	DD	0ffff000bH
	DD	0ffff000aH
	DD	0ffff0009H
	DD	0ffff0009H
	DD	0ffff0008H
	DD	0ffff0007H
	DD	0ffff0006H
	DD	0ffff0006H
	DD	0ffff0005H
	DD	0ffff0005H
	DD	0ffff0004H
	DD	0ffff0004H
	DD	0ffff0003H
	DD	0ffff0003H
	DD	0ffff0002H
	DD	0ffff0002H
	DD	0ffff0002H
	DD	0ffff0001H
	DD	0ffff0001H
	DD	0ffff0001H
	DD	0ffff0001H
	DD	0ffff0001H
	DD	0ffff0001H
	DD	0ffff0001H
	DD	0ffff0001H
	DD	0ffff0001H
	DD	0ffff0001H
	DD	0ffff0001H
	DD	0ffff0001H
	DD	0ffff0001H
	DD	0ffff0001H
	DD	0ffff0002H
	DD	0ffff0002H
	DD	0ffff0002H
	DD	0ffff0003H
	DD	0ffff0003H
	DD	0ffff0004H
	DD	0ffff0004H
	DD	0ffff0005H
	DD	0ffff0005H
	DD	0ffff0006H
	DD	0ffff0006H
	DD	0ffff0007H
	DD	0ffff0008H
	DD	0ffff0009H
	DD	0ffff0009H
	DD	0ffff000aH
	DD	0ffff000bH
	DD	0ffff000cH
	DD	0ffff000dH
	DD	0ffff000eH
	DD	0ffff000fH
	DD	0ffff0010H
	DD	0ffff0011H
	DD	0ffff0012H
	DD	0ffff0014H
	DD	0ffff0015H
	DD	0ffff0016H
	DD	0ffff0017H
	DD	0ffff0019H
	DD	0ffff001aH
	DD	0ffff001cH
	DD	0ffff001dH
	DD	0ffff001fH
	DD	0ffff0020H
	DD	0ffff0022H
	DD	0ffff0023H
	DD	0ffff0025H
	DD	0ffff0027H
	DD	0ffff0028H
	DD	0ffff002aH
	DD	0ffff002cH
	DD	0ffff002eH
	DD	0ffff0030H
	DD	0ffff0032H
	DD	0ffff0034H
	DD	0ffff0036H
	DD	0ffff0038H
	DD	0ffff003aH
	DD	0ffff003cH
	DD	0ffff003eH
	DD	0ffff0040H
	DD	0ffff0042H
	DD	0ffff0045H
	DD	0ffff0047H
	DD	0ffff0049H
	DD	0ffff004cH
	DD	0ffff004eH
	DD	0ffff0051H
	DD	0ffff0053H
	DD	0ffff0056H
	DD	0ffff0058H
	DD	0ffff005bH
	DD	0ffff005eH
	DD	0ffff0060H
	DD	0ffff0063H
	DD	0ffff0066H
	DD	0ffff0069H
	DD	0ffff006bH
	DD	0ffff006eH
	DD	0ffff0071H
	DD	0ffff0074H
	DD	0ffff0077H
	DD	0ffff007aH
	DD	0ffff007dH
	DD	0ffff0080H
	DD	0ffff0084H
	DD	0ffff0087H
	DD	0ffff008aH
	DD	0ffff008dH
	DD	0ffff0091H
	DD	0ffff0094H
	DD	0ffff0097H
	DD	0ffff009bH
	DD	0ffff009eH
	DD	0ffff00a2H
	DD	0ffff00a5H
	DD	0ffff00a9H
	DD	0ffff00adH
	DD	0ffff00b0H
	DD	0ffff00b4H
	DD	0ffff00b8H
	DD	0ffff00bbH
	DD	0ffff00bfH
	DD	0ffff00c3H
	DD	0ffff00c7H
	DD	0ffff00cbH
	DD	0ffff00cfH
	DD	0ffff00d3H
	DD	0ffff00d7H
	DD	0ffff00dbH
	DD	0ffff00dfH
	DD	0ffff00e3H
	DD	0ffff00e7H
	DD	0ffff00ecH
	DD	0ffff00f0H
	DD	0ffff00f4H
	DD	0ffff00f9H
	DD	0ffff00fdH
	DD	0ffff0101H
	DD	0ffff0106H
	DD	0ffff010aH
	DD	0ffff010fH
	DD	0ffff0114H
	DD	0ffff0118H
	DD	0ffff011dH
	DD	0ffff0122H
	DD	0ffff0126H
	DD	0ffff012bH
	DD	0ffff0130H
	DD	0ffff0135H
	DD	0ffff013aH
	DD	0ffff013fH
	DD	0ffff0144H
	DD	0ffff0149H
	DD	0ffff014eH
	DD	0ffff0153H
	DD	0ffff0158H
	DD	0ffff015dH
	DD	0ffff0162H
	DD	0ffff0167H
	DD	0ffff016dH
	DD	0ffff0172H
	DD	0ffff0177H
	DD	0ffff017dH
	DD	0ffff0182H
	DD	0ffff0188H
	DD	0ffff018dH
	DD	0ffff0193H
	DD	0ffff0198H
	DD	0ffff019eH
	DD	0ffff01a3H
	DD	0ffff01a9H
	DD	0ffff01afH
	DD	0ffff01b5H
	DD	0ffff01baH
	DD	0ffff01c0H
	DD	0ffff01c6H
	DD	0ffff01ccH
	DD	0ffff01d2H
	DD	0ffff01d8H
	DD	0ffff01deH
	DD	0ffff01e4H
	DD	0ffff01eaH
	DD	0ffff01f0H
	DD	0ffff01f7H
	DD	0ffff01fdH
	DD	0ffff0203H
	DD	0ffff0209H
	DD	0ffff0210H
	DD	0ffff0216H
	DD	0ffff021dH
	DD	0ffff0223H
	DD	0ffff022aH
	DD	0ffff0230H
	DD	0ffff0237H
	DD	0ffff023dH
	DD	0ffff0244H
	DD	0ffff024bH
	DD	0ffff0251H
	DD	0ffff0258H
	DD	0ffff025fH
	DD	0ffff0266H
	DD	0ffff026dH
	DD	0ffff0274H
	DD	0ffff027aH
	DD	0ffff0281H
	DD	0ffff0289H
	DD	0ffff0290H
	DD	0ffff0297H
	DD	0ffff029eH
	DD	0ffff02a5H
	DD	0ffff02acH
	DD	0ffff02b4H
	DD	0ffff02bbH
	DD	0ffff02c2H
	DD	0ffff02caH
	DD	0ffff02d1H
	DD	0ffff02d8H
	DD	0ffff02e0H
	DD	0ffff02e7H
	DD	0ffff02efH
	DD	0ffff02f7H
	DD	0ffff02feH
	DD	0ffff0306H
	DD	0ffff030eH
	DD	0ffff0315H
	DD	0ffff031dH
	DD	0ffff0325H
	DD	0ffff032dH
	DD	0ffff0335H
	DD	0ffff033dH
	DD	0ffff0345H
	DD	0ffff034dH
	DD	0ffff0355H
	DD	0ffff035dH
	DD	0ffff0365H
	DD	0ffff036dH
	DD	0ffff0375H
	DD	0ffff037eH
	DD	0ffff0386H
	DD	0ffff038eH
	DD	0ffff0397H
	DD	0ffff039fH
	DD	0ffff03a7H
	DD	0ffff03b0H
	DD	0ffff03b8H
	DD	0ffff03c1H
	DD	0ffff03caH
	DD	0ffff03d2H
	DD	0ffff03dbH
	DD	0ffff03e4H
	DD	0ffff03ecH
	DD	0ffff03f5H
	DD	0ffff03feH
	DD	0ffff0407H
	DD	0ffff0410H
	DD	0ffff0419H
	DD	0ffff0422H
	DD	0ffff042bH
	DD	0ffff0434H
	DD	0ffff043dH
	DD	0ffff0446H
	DD	0ffff044fH
	DD	0ffff0458H
	DD	0ffff0462H
	DD	0ffff046bH
	DD	0ffff0474H
	DD	0ffff047dH
	DD	0ffff0487H
	DD	0ffff0490H
	DD	0ffff049aH
	DD	0ffff04a3H
	DD	0ffff04adH
	DD	0ffff04b6H
	DD	0ffff04c0H
	DD	0ffff04caH
	DD	0ffff04d3H
	DD	0ffff04ddH
	DD	0ffff04e7H
	DD	0ffff04f1H
	DD	0ffff04fbH
	DD	0ffff0504H
	DD	0ffff050eH
	DD	0ffff0518H
	DD	0ffff0522H
	DD	0ffff052cH
	DD	0ffff0536H
	DD	0ffff0540H
	DD	0ffff054bH
	DD	0ffff0555H
	DD	0ffff055fH
	DD	0ffff0569H
	DD	0ffff0574H
	DD	0ffff057eH
	DD	0ffff0588H
	DD	0ffff0593H
	DD	0ffff059dH
	DD	0ffff05a8H
	DD	0ffff05b2H
	DD	0ffff05bdH
	DD	0ffff05c7H
	DD	0ffff05d2H
	DD	0ffff05ddH
	DD	0ffff05e7H
	DD	0ffff05f2H
	DD	0ffff05fdH
	DD	0ffff0608H
	DD	0ffff0613H
	DD	0ffff061dH
	DD	0ffff0628H
	DD	0ffff0633H
	DD	0ffff063eH
	DD	0ffff0649H
	DD	0ffff0655H
	DD	0ffff0660H
	DD	0ffff066bH
	DD	0ffff0676H
	DD	0ffff0681H
	DD	0ffff068dH
	DD	0ffff0698H
	DD	0ffff06a3H
	DD	0ffff06afH
	DD	0ffff06baH
	DD	0ffff06c5H
	DD	0ffff06d1H
	DD	0ffff06ddH
	DD	0ffff06e8H
	DD	0ffff06f4H
	DD	0ffff06ffH
	DD	0ffff070bH
	DD	0ffff0717H
	DD	0ffff0723H
	DD	0ffff072eH
	DD	0ffff073aH
	DD	0ffff0746H
	DD	0ffff0752H
	DD	0ffff075eH
	DD	0ffff076aH
	DD	0ffff0776H
	DD	0ffff0782H
	DD	0ffff078eH
	DD	0ffff079aH
	DD	0ffff07a6H
	DD	0ffff07b3H
	DD	0ffff07bfH
	DD	0ffff07cbH
	DD	0ffff07d8H
	DD	0ffff07e4H
	DD	0ffff07f0H
	DD	0ffff07fdH
	DD	0ffff0809H
	DD	0ffff0816H
	DD	0ffff0822H
	DD	0ffff082fH
	DD	0ffff083bH
	DD	0ffff0848H
	DD	0ffff0855H
	DD	0ffff0862H
	DD	0ffff086eH
	DD	0ffff087bH
	DD	0ffff0888H
	DD	0ffff0895H
	DD	0ffff08a2H
	DD	0ffff08afH
	DD	0ffff08bcH
	DD	0ffff08c9H
	DD	0ffff08d6H
	DD	0ffff08e3H
	DD	0ffff08f0H
	DD	0ffff08fdH
	DD	0ffff090bH
	DD	0ffff0918H
	DD	0ffff0925H
	DD	0ffff0932H
	DD	0ffff0940H
	DD	0ffff094dH
	DD	0ffff095bH
	DD	0ffff0968H
	DD	0ffff0976H
	DD	0ffff0983H
	DD	0ffff0991H
	DD	0ffff099eH
	DD	0ffff09acH
	DD	0ffff09baH
	DD	0ffff09c8H
	DD	0ffff09d5H
	DD	0ffff09e3H
	DD	0ffff09f1H
	DD	0ffff09ffH
	DD	0ffff0a0dH
	DD	0ffff0a1bH
	DD	0ffff0a29H
	DD	0ffff0a37H
	DD	0ffff0a45H
	DD	0ffff0a53H
	DD	0ffff0a61H
	DD	0ffff0a6fH
	DD	0ffff0a7eH
	DD	0ffff0a8cH
	DD	0ffff0a9aH
	DD	0ffff0aa8H
	DD	0ffff0ab7H
	DD	0ffff0ac5H
	DD	0ffff0ad4H
	DD	0ffff0ae2H
	DD	0ffff0af1H
	DD	0ffff0affH
	DD	0ffff0b0eH
	DD	0ffff0b1cH
	DD	0ffff0b2bH
	DD	0ffff0b3aH
	DD	0ffff0b48H
	DD	0ffff0b57H
	DD	0ffff0b66H
	DD	0ffff0b75H
	DD	0ffff0b84H
	DD	0ffff0b93H
	DD	0ffff0ba2H
	DD	0ffff0bb1H
	DD	0ffff0bc0H
	DD	0ffff0bcfH
	DD	0ffff0bdeH
	DD	0ffff0bedH
	DD	0ffff0bfcH
	DD	0ffff0c0bH
	DD	0ffff0c1bH
	DD	0ffff0c2aH
	DD	0ffff0c39H
	DD	0ffff0c49H
	DD	0ffff0c58H
	DD	0ffff0c68H
	DD	0ffff0c77H
	DD	0ffff0c87H
	DD	0ffff0c96H
	DD	0ffff0ca6H
	DD	0ffff0cb5H
	DD	0ffff0cc5H
	DD	0ffff0cd5H
	DD	0ffff0ce4H
	DD	0ffff0cf4H
	DD	0ffff0d04H
	DD	0ffff0d14H
	DD	0ffff0d24H
	DD	0ffff0d34H
	DD	0ffff0d43H
	DD	0ffff0d53H
	DD	0ffff0d64H
	DD	0ffff0d74H
	DD	0ffff0d84H
	DD	0ffff0d94H
	DD	0ffff0da4H
	DD	0ffff0db4H
	DD	0ffff0dc4H
	DD	0ffff0dd5H
	DD	0ffff0de5H
	DD	0ffff0df5H
	DD	0ffff0e06H
	DD	0ffff0e16H
	DD	0ffff0e27H
	DD	0ffff0e37H
	DD	0ffff0e48H
	DD	0ffff0e58H
	DD	0ffff0e69H
	DD	0ffff0e79H
	DD	0ffff0e8aH
	DD	0ffff0e9bH
	DD	0ffff0eacH
	DD	0ffff0ebcH
	DD	0ffff0ecdH
	DD	0ffff0edeH
	DD	0ffff0eefH
	DD	0ffff0f00H
	DD	0ffff0f11H
	DD	0ffff0f22H
	DD	0ffff0f33H
	DD	0ffff0f44H
	DD	0ffff0f55H
	DD	0ffff0f66H
	DD	0ffff0f77H
	DD	0ffff0f89H
	DD	0ffff0f9aH
	DD	0ffff0fabH
	DD	0ffff0fbdH
	DD	0ffff0fceH
	DD	0ffff0fdfH
	DD	0ffff0ff1H
	DD	0ffff1002H
	DD	0ffff1014H
	DD	0ffff1025H
	DD	0ffff1037H
	DD	0ffff1049H
	DD	0ffff105aH
	DD	0ffff106cH
	DD	0ffff107eH
	DD	0ffff108fH
	DD	0ffff10a1H
	DD	0ffff10b3H
	DD	0ffff10c5H
	DD	0ffff10d7H
	DD	0ffff10e9H
	DD	0ffff10fbH
	DD	0ffff110dH
	DD	0ffff111fH
	DD	0ffff1131H
	DD	0ffff1143H
	DD	0ffff1155H
	DD	0ffff1167H
	DD	0ffff117aH
	DD	0ffff118cH
	DD	0ffff119eH
	DD	0ffff11b1H
	DD	0ffff11c3H
	DD	0ffff11d5H
	DD	0ffff11e8H
	DD	0ffff11faH
	DD	0ffff120dH
	DD	0ffff121fH
	DD	0ffff1232H
	DD	0ffff1245H
	DD	0ffff1257H
	DD	0ffff126aH
	DD	0ffff127dH
	DD	0ffff128fH
	DD	0ffff12a2H
	DD	0ffff12b5H
	DD	0ffff12c8H
	DD	0ffff12dbH
	DD	0ffff12eeH
	DD	0ffff1301H
	DD	0ffff1314H
	DD	0ffff1327H
	DD	0ffff133aH
	DD	0ffff134dH
	DD	0ffff1360H
	DD	0ffff1374H
	DD	0ffff1387H
	DD	0ffff139aH
	DD	0ffff13adH
	DD	0ffff13c1H
	DD	0ffff13d4H
	DD	0ffff13e7H
	DD	0ffff13fbH
	DD	0ffff140eH
	DD	0ffff1422H
	DD	0ffff1435H
	DD	0ffff1449H
	DD	0ffff145dH
	DD	0ffff1470H
	DD	0ffff1484H
	DD	0ffff1498H
	DD	0ffff14acH
	DD	0ffff14bfH
	DD	0ffff14d3H
	DD	0ffff14e7H
	DD	0ffff14fbH
	DD	0ffff150fH
	DD	0ffff1523H
	DD	0ffff1537H
	DD	0ffff154bH
	DD	0ffff155fH
	DD	0ffff1573H
	DD	0ffff1587H
	DD	0ffff159cH
	DD	0ffff15b0H
	DD	0ffff15c4H
	DD	0ffff15d8H
	DD	0ffff15edH
	DD	0ffff1601H
	DD	0ffff1615H
	DD	0ffff162aH
	DD	0ffff163eH
	DD	0ffff1653H
	DD	0ffff1667H
	DD	0ffff167cH
	DD	0ffff1691H
	DD	0ffff16a5H
	DD	0ffff16baH
	DD	0ffff16cfH
	DD	0ffff16e3H
	DD	0ffff16f8H
	DD	0ffff170dH
	DD	0ffff1722H
	DD	0ffff1737H
	DD	0ffff174cH
	DD	0ffff1761H
	DD	0ffff1776H
	DD	0ffff178bH
	DD	0ffff17a0H
	DD	0ffff17b5H
	DD	0ffff17caH
	DD	0ffff17dfH
	DD	0ffff17f4H
	DD	0ffff180aH
	DD	0ffff181fH
	DD	0ffff1834H
	DD	0ffff184aH
	DD	0ffff185fH
	DD	0ffff1874H
	DD	0ffff188aH
	DD	0ffff189fH
	DD	0ffff18b5H
	DD	0ffff18cbH
	DD	0ffff18e0H
	DD	0ffff18f6H
	DD	0ffff190bH
	DD	0ffff1921H
	DD	0ffff1937H
	DD	0ffff194dH
	DD	0ffff1962H
	DD	0ffff1978H
	DD	0ffff198eH
	DD	0ffff19a4H
	DD	0ffff19baH
	DD	0ffff19d0H
	DD	0ffff19e6H
	DD	0ffff19fcH
	DD	0ffff1a12H
	DD	0ffff1a28H
	DD	0ffff1a3eH
	DD	0ffff1a55H
	DD	0ffff1a6bH
	DD	0ffff1a81H
	DD	0ffff1a97H
	DD	0ffff1aaeH
	DD	0ffff1ac4H
	DD	0ffff1adaH
	DD	0ffff1af1H
	DD	0ffff1b07H
	DD	0ffff1b1eH
	DD	0ffff1b34H
	DD	0ffff1b4bH
	DD	0ffff1b61H
	DD	0ffff1b78H
	DD	0ffff1b8fH
	DD	0ffff1ba5H
	DD	0ffff1bbcH
	DD	0ffff1bd3H
	DD	0ffff1beaH
	DD	0ffff1c01H
	DD	0ffff1c17H
	DD	0ffff1c2eH
	DD	0ffff1c45H
	DD	0ffff1c5cH
	DD	0ffff1c73H
	DD	0ffff1c8aH
	DD	0ffff1ca1H
	DD	0ffff1cb9H
	DD	0ffff1cd0H
	DD	0ffff1ce7H
	DD	0ffff1cfeH
	DD	0ffff1d15H
	DD	0ffff1d2dH
	DD	0ffff1d44H
	DD	0ffff1d5bH
	DD	0ffff1d73H
	DD	0ffff1d8aH
	DD	0ffff1da2H
	DD	0ffff1db9H
	DD	0ffff1dd1H
	DD	0ffff1de8H
	DD	0ffff1e00H
	DD	0ffff1e17H
	DD	0ffff1e2fH
	DD	0ffff1e47H
	DD	0ffff1e5eH
	DD	0ffff1e76H
	DD	0ffff1e8eH
	DD	0ffff1ea6H
	DD	0ffff1ebeH
	DD	0ffff1ed6H
	DD	0ffff1eeeH
	DD	0ffff1f06H
	DD	0ffff1f1eH
	DD	0ffff1f36H
	DD	0ffff1f4eH
	DD	0ffff1f66H
	DD	0ffff1f7eH
	DD	0ffff1f96H
	DD	0ffff1faeH
	DD	0ffff1fc6H
	DD	0ffff1fdfH
	DD	0ffff1ff7H
	DD	0ffff200fH
	DD	0ffff2028H
	DD	0ffff2040H
	DD	0ffff2059H
	DD	0ffff2071H
	DD	0ffff208aH
	DD	0ffff20a2H
	DD	0ffff20bbH
	DD	0ffff20d3H
	DD	0ffff20ecH
	DD	0ffff2105H
	DD	0ffff211dH
	DD	0ffff2136H
	DD	0ffff214fH
	DD	0ffff2168H
	DD	0ffff2181H
	DD	0ffff2199H
	DD	0ffff21b2H
	DD	0ffff21cbH
	DD	0ffff21e4H
	DD	0ffff21fdH
	DD	0ffff2216H
	DD	0ffff222fH
	DD	0ffff2248H
	DD	0ffff2262H
	DD	0ffff227bH
	DD	0ffff2294H
	DD	0ffff22adH
	DD	0ffff22c7H
	DD	0ffff22e0H
	DD	0ffff22f9H
	DD	0ffff2313H
	DD	0ffff232cH
	DD	0ffff2345H
	DD	0ffff235fH
	DD	0ffff2378H
	DD	0ffff2392H
	DD	0ffff23acH
	DD	0ffff23c5H
	DD	0ffff23dfH
	DD	0ffff23f8H
	DD	0ffff2412H
	DD	0ffff242cH
	DD	0ffff2446H
	DD	0ffff245fH
	DD	0ffff2479H
	DD	0ffff2493H
	DD	0ffff24adH
	DD	0ffff24c7H
	DD	0ffff24e1H
	DD	0ffff24fbH
	DD	0ffff2515H
	DD	0ffff252fH
	DD	0ffff2549H
	DD	0ffff2563H
	DD	0ffff257eH
	DD	0ffff2598H
	DD	0ffff25b2H
	DD	0ffff25ccH
	DD	0ffff25e7H
	DD	0ffff2601H
	DD	0ffff261bH
	DD	0ffff2636H
	DD	0ffff2650H
	DD	0ffff266bH
	DD	0ffff2685H
	DD	0ffff26a0H
	DD	0ffff26baH
	DD	0ffff26d5H
	DD	0ffff26efH
	DD	0ffff270aH
	DD	0ffff2725H
	DD	0ffff273fH
	DD	0ffff275aH
	DD	0ffff2775H
	DD	0ffff2790H
	DD	0ffff27abH
	DD	0ffff27c6H
	DD	0ffff27e1H
	DD	0ffff27fcH
	DD	0ffff2816H
	DD	0ffff2832H
	DD	0ffff284dH
	DD	0ffff2868H
	DD	0ffff2883H
	DD	0ffff289eH
	DD	0ffff28b9H
	DD	0ffff28d4H
	DD	0ffff28f0H
	DD	0ffff290bH
	DD	0ffff2926H
	DD	0ffff2942H
	DD	0ffff295dH
	DD	0ffff2978H
	DD	0ffff2994H
	DD	0ffff29afH
	DD	0ffff29cbH
	DD	0ffff29e6H
	DD	0ffff2a02H
	DD	0ffff2a1dH
	DD	0ffff2a39H
	DD	0ffff2a55H
	DD	0ffff2a70H
	DD	0ffff2a8cH
	DD	0ffff2aa8H
	DD	0ffff2ac4H
	DD	0ffff2ae0H
	DD	0ffff2afbH
	DD	0ffff2b17H
	DD	0ffff2b33H
	DD	0ffff2b4fH
	DD	0ffff2b6bH
	DD	0ffff2b87H
	DD	0ffff2ba3H
	DD	0ffff2bbfH
	DD	0ffff2bdcH
	DD	0ffff2bf8H
	DD	0ffff2c14H
	DD	0ffff2c30H
	DD	0ffff2c4cH
	DD	0ffff2c69H
	DD	0ffff2c85H
	DD	0ffff2ca1H
	DD	0ffff2cbeH
	DD	0ffff2cdaH
	DD	0ffff2cf6H
	DD	0ffff2d13H
	DD	0ffff2d2fH
	DD	0ffff2d4cH
	DD	0ffff2d69H
	DD	0ffff2d85H
	DD	0ffff2da2H
	DD	0ffff2dbeH
	DD	0ffff2ddbH
	DD	0ffff2df8H
	DD	0ffff2e15H
	DD	0ffff2e31H
	DD	0ffff2e4eH
	DD	0ffff2e6bH
	DD	0ffff2e88H
	DD	0ffff2ea5H
	DD	0ffff2ec2H
	DD	0ffff2edfH
	DD	0ffff2efcH
	DD	0ffff2f19H
	DD	0ffff2f36H
	DD	0ffff2f53H
	DD	0ffff2f70H
	DD	0ffff2f8dH
	DD	0ffff2faaH
	DD	0ffff2fc8H
	DD	0ffff2fe5H
	DD	0ffff3002H
	DD	0ffff3020H
	DD	0ffff303dH
	DD	0ffff305aH
	DD	0ffff3078H
	DD	0ffff3095H
	DD	0ffff30b3H
	DD	0ffff30d0H
	DD	0ffff30eeH
	DD	0ffff310bH
	DD	0ffff3129H
	DD	0ffff3146H
	DD	0ffff3164H
	DD	0ffff3182H
	DD	0ffff31a0H
	DD	0ffff31bdH
	DD	0ffff31dbH
	DD	0ffff31f9H
	DD	0ffff3217H
	DD	0ffff3235H
	DD	0ffff3253H
	DD	0ffff3270H
	DD	0ffff328eH
	DD	0ffff32acH
	DD	0ffff32caH
	DD	0ffff32e9H
	DD	0ffff3307H
	DD	0ffff3325H
	DD	0ffff3343H
	DD	0ffff3361H
	DD	0ffff337fH
	DD	0ffff339eH
	DD	0ffff33bcH
	DD	0ffff33daH
	DD	0ffff33f9H
	DD	0ffff3417H
	DD	0ffff3435H
	DD	0ffff3454H
	DD	0ffff3472H
	DD	0ffff3491H
	DD	0ffff34afH
	DD	0ffff34ceH
	DD	0ffff34ecH
	DD	0ffff350bH
	DD	0ffff352aH
	DD	0ffff3548H
	DD	0ffff3567H
	DD	0ffff3586H
	DD	0ffff35a5H
	DD	0ffff35c3H
	DD	0ffff35e2H
	DD	0ffff3601H
	DD	0ffff3620H
	DD	0ffff363fH
	DD	0ffff365eH
	DD	0ffff367dH
	DD	0ffff369cH
	DD	0ffff36bbH
	DD	0ffff36daH
	DD	0ffff36f9H
	DD	0ffff3718H
	DD	0ffff3737H
	DD	0ffff3757H
	DD	0ffff3776H
	DD	0ffff3795H
	DD	0ffff37b4H
	DD	0ffff37d4H
	DD	0ffff37f3H
	DD	0ffff3812H
	DD	0ffff3832H
	DD	0ffff3851H
	DD	0ffff3871H
	DD	0ffff3890H
	DD	0ffff38b0H
	DD	0ffff38cfH
	DD	0ffff38efH
	DD	0ffff390fH
	DD	0ffff392eH
	DD	0ffff394eH
	DD	0ffff396eH
	DD	0ffff398dH
	DD	0ffff39adH
	DD	0ffff39cdH
	DD	0ffff39edH
	DD	0ffff3a0dH
	DD	0ffff3a2cH
	DD	0ffff3a4cH
	DD	0ffff3a6cH
	DD	0ffff3a8cH
	DD	0ffff3aacH
	DD	0ffff3accH
	DD	0ffff3aecH
	DD	0ffff3b0cH
	DD	0ffff3b2dH
	DD	0ffff3b4dH
	DD	0ffff3b6dH
	DD	0ffff3b8dH
	DD	0ffff3badH
	DD	0ffff3bceH
	DD	0ffff3beeH
	DD	0ffff3c0eH
	DD	0ffff3c2fH
	DD	0ffff3c4fH
	DD	0ffff3c6fH
	DD	0ffff3c90H
	DD	0ffff3cb0H
	DD	0ffff3cd1H
	DD	0ffff3cf1H
	DD	0ffff3d12H
	DD	0ffff3d33H
	DD	0ffff3d53H
	DD	0ffff3d74H
	DD	0ffff3d95H
	DD	0ffff3db5H
	DD	0ffff3dd6H
	DD	0ffff3df7H
	DD	0ffff3e18H
	DD	0ffff3e38H
	DD	0ffff3e59H
	DD	0ffff3e7aH
	DD	0ffff3e9bH
	DD	0ffff3ebcH
	DD	0ffff3eddH
	DD	0ffff3efeH
	DD	0ffff3f1fH
	DD	0ffff3f40H
	DD	0ffff3f61H
	DD	0ffff3f82H
	DD	0ffff3fa4H
	DD	0ffff3fc5H
	DD	0ffff3fe6H
	DD	0ffff4007H
	DD	0ffff4028H
	DD	0ffff404aH
	DD	0ffff406bH
	DD	0ffff408cH
	DD	0ffff40aeH
	DD	0ffff40cfH
	DD	0ffff40f1H
	DD	0ffff4112H
	DD	0ffff4134H
	DD	0ffff4155H
	DD	0ffff4177H
	DD	0ffff4198H
	DD	0ffff41baH
	DD	0ffff41dcH
	DD	0ffff41fdH
	DD	0ffff421fH
	DD	0ffff4241H
	DD	0ffff4262H
	DD	0ffff4284H
	DD	0ffff42a6H
	DD	0ffff42c8H
	DD	0ffff42eaH
	DD	0ffff430cH
	DD	0ffff432eH
	DD	0ffff434fH
	DD	0ffff4371H
	DD	0ffff4393H
	DD	0ffff43b6H
	DD	0ffff43d8H
	DD	0ffff43faH
	DD	0ffff441cH
	DD	0ffff443eH
	DD	0ffff4460H
	DD	0ffff4482H
	DD	0ffff44a5H
	DD	0ffff44c7H
	DD	0ffff44e9H
	DD	0ffff450cH
	DD	0ffff452eH
	DD	0ffff4550H
	DD	0ffff4573H
	DD	0ffff4595H
	DD	0ffff45b8H
	DD	0ffff45daH
	DD	0ffff45fdH
	DD	0ffff461fH
	DD	0ffff4642H
	DD	0ffff4664H
	DD	0ffff4687H
	DD	0ffff46aaH
	DD	0ffff46ccH
	DD	0ffff46efH
	DD	0ffff4712H
	DD	0ffff4735H
	DD	0ffff4757H
	DD	0ffff477aH
	DD	0ffff479dH
	DD	0ffff47c0H
	DD	0ffff47e3H
	DD	0ffff4806H
	DD	0ffff4829H
	DD	0ffff484cH
	DD	0ffff486fH
	DD	0ffff4892H
	DD	0ffff48b5H
	DD	0ffff48d8H
	DD	0ffff48fbH
	DD	0ffff491eH
	DD	0ffff4941H
	DD	0ffff4965H
	DD	0ffff4988H
	DD	0ffff49abH
	DD	0ffff49ceH
	DD	0ffff49f2H
	DD	0ffff4a15H
	DD	0ffff4a38H
	DD	0ffff4a5cH
	DD	0ffff4a7fH
	DD	0ffff4aa3H
	DD	0ffff4ac6H
	DD	0ffff4aeaH
	DD	0ffff4b0dH
	DD	0ffff4b31H
	DD	0ffff4b55H
	DD	0ffff4b78H
	DD	0ffff4b9cH
	DD	0ffff4bbfH
	DD	0ffff4be3H
	DD	0ffff4c07H
	DD	0ffff4c2bH
	DD	0ffff4c4eH
	DD	0ffff4c72H
	DD	0ffff4c96H
	DD	0ffff4cbaH
	DD	0ffff4cdeH
	DD	0ffff4d02H
	DD	0ffff4d26H
	DD	0ffff4d4aH
	DD	0ffff4d6eH
	DD	0ffff4d92H
	DD	0ffff4db6H
	DD	0ffff4ddaH
	DD	0ffff4dfeH
	DD	0ffff4e22H
	DD	0ffff4e46H
	DD	0ffff4e6aH
	DD	0ffff4e8fH
	DD	0ffff4eb3H
	DD	0ffff4ed7H
	DD	0ffff4efcH
	DD	0ffff4f20H
	DD	0ffff4f44H
	DD	0ffff4f69H
	DD	0ffff4f8dH
	DD	0ffff4fb1H
	DD	0ffff4fd6H
	DD	0ffff4ffaH
	DD	0ffff501fH
	DD	0ffff5043H
	DD	0ffff5068H
	DD	0ffff508dH
	DD	0ffff50b1H
	DD	0ffff50d6H
	DD	0ffff50faH
	DD	0ffff511fH
	DD	0ffff5144H
	DD	0ffff5169H
	DD	0ffff518dH
	DD	0ffff51b2H
	DD	0ffff51d7H
	DD	0ffff51fcH
	DD	0ffff5221H
	DD	0ffff5246H
	DD	0ffff526bH
	DD	0ffff5290H
	DD	0ffff52b5H
	DD	0ffff52daH
	DD	0ffff52ffH
	DD	0ffff5324H
	DD	0ffff5349H
	DD	0ffff536eH
	DD	0ffff5393H
	DD	0ffff53b8H
	DD	0ffff53ddH
	DD	0ffff5403H
	DD	0ffff5428H
	DD	0ffff544dH
	DD	0ffff5472H
	DD	0ffff5498H
	DD	0ffff54bdH
	DD	0ffff54e2H
	DD	0ffff5508H
	DD	0ffff552dH
	DD	0ffff5553H
	DD	0ffff5578H
	DD	0ffff559eH
	DD	0ffff55c3H
	DD	0ffff55e9H
	DD	0ffff560eH
	DD	0ffff5634H
	DD	0ffff565aH
	DD	0ffff567fH
	DD	0ffff56a5H
	DD	0ffff56cbH
	DD	0ffff56f0H
	DD	0ffff5716H
	DD	0ffff573cH
	DD	0ffff5762H
	DD	0ffff5788H
	DD	0ffff57adH
	DD	0ffff57d3H
	DD	0ffff57f9H
	DD	0ffff581fH
	DD	0ffff5845H
	DD	0ffff586bH
	DD	0ffff5891H
	DD	0ffff58b7H
	DD	0ffff58ddH
	DD	0ffff5903H
	DD	0ffff5929H
	DD	0ffff5950H
	DD	0ffff5976H
	DD	0ffff599cH
	DD	0ffff59c2H
	DD	0ffff59e8H
	DD	0ffff5a0fH
	DD	0ffff5a35H
	DD	0ffff5a5bH
	DD	0ffff5a82H
	DD	0ffff5aa8H
	DD	0ffff5aceH
	DD	0ffff5af5H
	DD	0ffff5b1bH
	DD	0ffff5b42H
	DD	0ffff5b68H
	DD	0ffff5b8fH
	DD	0ffff5bb5H
	DD	0ffff5bdcH
	DD	0ffff5c02H
	DD	0ffff5c29H
	DD	0ffff5c50H
	DD	0ffff5c76H
	DD	0ffff5c9dH
	DD	0ffff5cc4H
	DD	0ffff5ceaH
	DD	0ffff5d11H
	DD	0ffff5d38H
	DD	0ffff5d5fH
	DD	0ffff5d85H
	DD	0ffff5dacH
	DD	0ffff5dd3H
	DD	0ffff5dfaH
	DD	0ffff5e21H
	DD	0ffff5e48H
	DD	0ffff5e6fH
	DD	0ffff5e96H
	DD	0ffff5ebdH
	DD	0ffff5ee4H
	DD	0ffff5f0bH
	DD	0ffff5f32H
	DD	0ffff5f59H
	DD	0ffff5f81H
	DD	0ffff5fa8H
	DD	0ffff5fcfH
	DD	0ffff5ff6H
	DD	0ffff601dH
	DD	0ffff6045H
	DD	0ffff606cH
	DD	0ffff6093H
	DD	0ffff60bbH
	DD	0ffff60e2H
	DD	0ffff6109H
	DD	0ffff6131H
	DD	0ffff6158H
	DD	0ffff6180H
	DD	0ffff61a7H
	DD	0ffff61cfH
	DD	0ffff61f6H
	DD	0ffff621eH
	DD	0ffff6245H
	DD	0ffff626dH
	DD	0ffff6295H
	DD	0ffff62bcH
	DD	0ffff62e4H
	DD	0ffff630cH
	DD	0ffff6333H
	DD	0ffff635bH
	DD	0ffff6383H
	DD	0ffff63abH
	DD	0ffff63d2H
	DD	0ffff63faH
	DD	0ffff6422H
	DD	0ffff644aH
	DD	0ffff6472H
	DD	0ffff649aH
	DD	0ffff64c2H
	DD	0ffff64eaH
	DD	0ffff6512H
	DD	0ffff653aH
	DD	0ffff6562H
	DD	0ffff658aH
	DD	0ffff65b2H
	DD	0ffff65daH
	DD	0ffff6602H
	DD	0ffff662aH
	DD	0ffff6653H
	DD	0ffff667bH
	DD	0ffff66a3H
	DD	0ffff66cbH
	DD	0ffff66f4H
	DD	0ffff671cH
	DD	0ffff6744H
	DD	0ffff676dH
	DD	0ffff6795H
	DD	0ffff67bdH
	DD	0ffff67e6H
	DD	0ffff680eH
	DD	0ffff6837H
	DD	0ffff685fH
	DD	0ffff6888H
	DD	0ffff68b0H
	DD	0ffff68d9H
	DD	0ffff6901H
	DD	0ffff692aH
	DD	0ffff6953H
	DD	0ffff697bH
	DD	0ffff69a4H
	DD	0ffff69cdH
	DD	0ffff69f5H
	DD	0ffff6a1eH
	DD	0ffff6a47H
	DD	0ffff6a70H
	DD	0ffff6a98H
	DD	0ffff6ac1H
	DD	0ffff6aeaH
	DD	0ffff6b13H
	DD	0ffff6b3cH
	DD	0ffff6b65H
	DD	0ffff6b8eH
	DD	0ffff6bb7H
	DD	0ffff6be0H
	DD	0ffff6c09H
	DD	0ffff6c32H
	DD	0ffff6c5bH
	DD	0ffff6c84H
	DD	0ffff6cadH
	DD	0ffff6cd6H
	DD	0ffff6cffH
	DD	0ffff6d28H
	DD	0ffff6d52H
	DD	0ffff6d7bH
	DD	0ffff6da4H
	DD	0ffff6dcdH
	DD	0ffff6df6H
	DD	0ffff6e20H
	DD	0ffff6e49H
	DD	0ffff6e72H
	DD	0ffff6e9cH
	DD	0ffff6ec5H
	DD	0ffff6eefH
	DD	0ffff6f18H
	DD	0ffff6f41H
	DD	0ffff6f6bH
	DD	0ffff6f94H
	DD	0ffff6fbeH
	DD	0ffff6fe7H
	DD	0ffff7011H
	DD	0ffff703bH
	DD	0ffff7064H
	DD	0ffff708eH
	DD	0ffff70b7H
	DD	0ffff70e1H
	DD	0ffff710bH
	DD	0ffff7134H
	DD	0ffff715eH
	DD	0ffff7188H
	DD	0ffff71b2H
	DD	0ffff71dcH
	DD	0ffff7205H
	DD	0ffff722fH
	DD	0ffff7259H
	DD	0ffff7283H
	DD	0ffff72adH
	DD	0ffff72d7H
	DD	0ffff7301H
	DD	0ffff732bH
	DD	0ffff7355H
	DD	0ffff737fH
	DD	0ffff73a9H
	DD	0ffff73d3H
	DD	0ffff73fdH
	DD	0ffff7427H
	DD	0ffff7451H
	DD	0ffff747bH
	DD	0ffff74a5H
	DD	0ffff74cfH
	DD	0ffff74faH
	DD	0ffff7524H
	DD	0ffff754eH
	DD	0ffff7578H
	DD	0ffff75a3H
	DD	0ffff75cdH
	DD	0ffff75f7H
	DD	0ffff7622H
	DD	0ffff764cH
	DD	0ffff7676H
	DD	0ffff76a1H
	DD	0ffff76cbH
	DD	0ffff76f6H
	DD	0ffff7720H
	DD	0ffff774bH
	DD	0ffff7775H
	DD	0ffff77a0H
	DD	0ffff77caH
	DD	0ffff77f5H
	DD	0ffff781fH
	DD	0ffff784aH
	DD	0ffff7875H
	DD	0ffff789fH
	DD	0ffff78caH
	DD	0ffff78f5H
	DD	0ffff791fH
	DD	0ffff794aH
	DD	0ffff7975H
	DD	0ffff79a0H
	DD	0ffff79caH
	DD	0ffff79f5H
	DD	0ffff7a20H
	DD	0ffff7a4bH
	DD	0ffff7a76H
	DD	0ffff7aa1H
	DD	0ffff7accH
	DD	0ffff7af7H
	DD	0ffff7b21H
	DD	0ffff7b4cH
	DD	0ffff7b77H
	DD	0ffff7ba2H
	DD	0ffff7bcdH
	DD	0ffff7bf9H
	DD	0ffff7c24H
	DD	0ffff7c4fH
	DD	0ffff7c7aH
	DD	0ffff7ca5H
	DD	0ffff7cd0H
	DD	0ffff7cfbH
	DD	0ffff7d26H
	DD	0ffff7d52H
	DD	0ffff7d7dH
	DD	0ffff7da8H
	DD	0ffff7dd3H
	DD	0ffff7dffH
	DD	0ffff7e2aH
	DD	0ffff7e55H
	DD	0ffff7e81H
	DD	0ffff7eacH
	DD	0ffff7ed7H
	DD	0ffff7f03H
	DD	0ffff7f2eH
	DD	0ffff7f5aH
	DD	0ffff7f85H
	DD	0ffff7fb1H
	DD	0ffff7fdcH
	DD	0ffff8008H
	DD	0ffff8033H
	DD	0ffff805fH
	DD	0ffff808aH
	DD	0ffff80b6H
	DD	0ffff80e2H
	DD	0ffff810dH
	DD	0ffff8139H
	DD	0ffff8165H
	DD	0ffff8190H
	DD	0ffff81bcH
	DD	0ffff81e8H
	DD	0ffff8214H
	DD	0ffff823fH
	DD	0ffff826bH
	DD	0ffff8297H
	DD	0ffff82c3H
	DD	0ffff82efH
	DD	0ffff831aH
	DD	0ffff8346H
	DD	0ffff8372H
	DD	0ffff839eH
	DD	0ffff83caH
	DD	0ffff83f6H
	DD	0ffff8422H
	DD	0ffff844eH
	DD	0ffff847aH
	DD	0ffff84a6H
	DD	0ffff84d2H
	DD	0ffff84feH
	DD	0ffff852aH
	DD	0ffff8556H
	DD	0ffff8583H
	DD	0ffff85afH
	DD	0ffff85dbH
	DD	0ffff8607H
	DD	0ffff8633H
	DD	0ffff8660H
	DD	0ffff868cH
	DD	0ffff86b8H
	DD	0ffff86e4H
	DD	0ffff8711H
	DD	0ffff873dH
	DD	0ffff8769H
	DD	0ffff8796H
	DD	0ffff87c2H
	DD	0ffff87eeH
	DD	0ffff881bH
	DD	0ffff8847H
	DD	0ffff8874H
	DD	0ffff88a0H
	DD	0ffff88cdH
	DD	0ffff88f9H
	DD	0ffff8926H
	DD	0ffff8952H
	DD	0ffff897fH
	DD	0ffff89abH
	DD	0ffff89d8H
	DD	0ffff8a04H
	DD	0ffff8a31H
	DD	0ffff8a5eH
	DD	0ffff8a8aH
	DD	0ffff8ab7H
	DD	0ffff8ae4H
	DD	0ffff8b10H
	DD	0ffff8b3dH
	DD	0ffff8b6aH
	DD	0ffff8b97H
	DD	0ffff8bc3H
	DD	0ffff8bf0H
	DD	0ffff8c1dH
	DD	0ffff8c4aH
	DD	0ffff8c77H
	DD	0ffff8ca3H
	DD	0ffff8cd0H
	DD	0ffff8cfdH
	DD	0ffff8d2aH
	DD	0ffff8d57H
	DD	0ffff8d84H
	DD	0ffff8db1H
	DD	0ffff8ddeH
	DD	0ffff8e0bH
	DD	0ffff8e38H
	DD	0ffff8e65H
	DD	0ffff8e92H
	DD	0ffff8ebfH
	DD	0ffff8eecH
	DD	0ffff8f19H
	DD	0ffff8f46H
	DD	0ffff8f74H
	DD	0ffff8fa1H
	DD	0ffff8fceH
	DD	0ffff8ffbH
	DD	0ffff9028H
	DD	0ffff9056H
	DD	0ffff9083H
	DD	0ffff90b0H
	DD	0ffff90ddH
	DD	0ffff910bH
	DD	0ffff9138H
	DD	0ffff9165H
	DD	0ffff9193H
	DD	0ffff91c0H
	DD	0ffff91edH
	DD	0ffff921bH
	DD	0ffff9248H
	DD	0ffff9276H
	DD	0ffff92a3H
	DD	0ffff92d0H
	DD	0ffff92feH
	DD	0ffff932bH
	DD	0ffff9359H
	DD	0ffff9386H
	DD	0ffff93b4H
	DD	0ffff93e2H
	DD	0ffff940fH
	DD	0ffff943dH
	DD	0ffff946aH
	DD	0ffff9498H
	DD	0ffff94c6H
	DD	0ffff94f3H
	DD	0ffff9521H
	DD	0ffff954fH
	DD	0ffff957cH
	DD	0ffff95aaH
	DD	0ffff95d8H
	DD	0ffff9605H
	DD	0ffff9633H
	DD	0ffff9661H
	DD	0ffff968fH
	DD	0ffff96bdH
	DD	0ffff96eaH
	DD	0ffff9718H
	DD	0ffff9746H
	DD	0ffff9774H
	DD	0ffff97a2H
	DD	0ffff97d0H
	DD	0ffff97feH
	DD	0ffff982cH
	DD	0ffff985aH
	DD	0ffff9888H
	DD	0ffff98b6H
	DD	0ffff98e4H
	DD	0ffff9912H
	DD	0ffff9940H
	DD	0ffff996eH
	DD	0ffff999cH
	DD	0ffff99caH
	DD	0ffff99f8H
	DD	0ffff9a26H
	DD	0ffff9a54H
	DD	0ffff9a82H
	DD	0ffff9ab0H
	DD	0ffff9adfH
	DD	0ffff9b0dH
	DD	0ffff9b3bH
	DD	0ffff9b69H
	DD	0ffff9b97H
	DD	0ffff9bc6H
	DD	0ffff9bf4H
	DD	0ffff9c22H
	DD	0ffff9c50H
	DD	0ffff9c7fH
	DD	0ffff9cadH
	DD	0ffff9cdbH
	DD	0ffff9d0aH
	DD	0ffff9d38H
	DD	0ffff9d67H
	DD	0ffff9d95H
	DD	0ffff9dc3H
	DD	0ffff9df2H
	DD	0ffff9e20H
	DD	0ffff9e4fH
	DD	0ffff9e7dH
	DD	0ffff9eacH
	DD	0ffff9edaH
	DD	0ffff9f09H
	DD	0ffff9f37H
	DD	0ffff9f66H
	DD	0ffff9f94H
	DD	0ffff9fc3H
	DD	0ffff9ff1H
	DD	0ffffa020H
	DD	0ffffa04fH
	DD	0ffffa07dH
	DD	0ffffa0acH
	DD	0ffffa0dbH
	DD	0ffffa109H
	DD	0ffffa138H
	DD	0ffffa167H
	DD	0ffffa195H
	DD	0ffffa1c4H
	DD	0ffffa1f3H
	DD	0ffffa222H
	DD	0ffffa250H
	DD	0ffffa27fH
	DD	0ffffa2aeH
	DD	0ffffa2ddH
	DD	0ffffa30cH
	DD	0ffffa33aH
	DD	0ffffa369H
	DD	0ffffa398H
	DD	0ffffa3c7H
	DD	0ffffa3f6H
	DD	0ffffa425H
	DD	0ffffa454H
	DD	0ffffa483H
	DD	0ffffa4b2H
	DD	0ffffa4e1H
	DD	0ffffa510H
	DD	0ffffa53fH
	DD	0ffffa56eH
	DD	0ffffa59dH
	DD	0ffffa5ccH
	DD	0ffffa5fbH
	DD	0ffffa62aH
	DD	0ffffa659H
	DD	0ffffa688H
	DD	0ffffa6b7H
	DD	0ffffa6e6H
	DD	0ffffa715H
	DD	0ffffa744H
	DD	0ffffa774H
	DD	0ffffa7a3H
	DD	0ffffa7d2H
	DD	0ffffa801H
	DD	0ffffa830H
	DD	0ffffa860H
	DD	0ffffa88fH
	DD	0ffffa8beH
	DD	0ffffa8edH
	DD	0ffffa91dH
	DD	0ffffa94cH
	DD	0ffffa97bH
	DD	0ffffa9aaH
	DD	0ffffa9daH
	DD	0ffffaa09H
	DD	0ffffaa38H
	DD	0ffffaa68H
	DD	0ffffaa97H
	DD	0ffffaac7H
	DD	0ffffaaf6H
	DD	0ffffab25H
	DD	0ffffab55H
	DD	0ffffab84H
	DD	0ffffabb4H
	DD	0ffffabe3H
	DD	0ffffac13H
	DD	0ffffac42H
	DD	0ffffac72H
	DD	0ffffaca1H
	DD	0ffffacd1H
	DD	0ffffad00H
	DD	0ffffad30H
	DD	0ffffad5fH
	DD	0ffffad8fH
	DD	0ffffadbfH
	DD	0ffffadeeH
	DD	0ffffae1eH
	DD	0ffffae4dH
	DD	0ffffae7dH
	DD	0ffffaeadH
	DD	0ffffaedcH
	DD	0ffffaf0cH
	DD	0ffffaf3cH
	DD	0ffffaf6bH
	DD	0ffffaf9bH
	DD	0ffffafcbH
	DD	0ffffaffbH
	DD	0ffffb02aH
	DD	0ffffb05aH
	DD	0ffffb08aH
	DD	0ffffb0baH
	DD	0ffffb0eaH
	DD	0ffffb119H
	DD	0ffffb149H
	DD	0ffffb179H
	DD	0ffffb1a9H
	DD	0ffffb1d9H
	DD	0ffffb209H
	DD	0ffffb238H
	DD	0ffffb268H
	DD	0ffffb298H
	DD	0ffffb2c8H
	DD	0ffffb2f8H
	DD	0ffffb328H
	DD	0ffffb358H
	DD	0ffffb388H
	DD	0ffffb3b8H
	DD	0ffffb3e8H
	DD	0ffffb418H
	DD	0ffffb448H
	DD	0ffffb478H
	DD	0ffffb4a8H
	DD	0ffffb4d8H
	DD	0ffffb508H
	DD	0ffffb538H
	DD	0ffffb568H
	DD	0ffffb598H
	DD	0ffffb5c8H
	DD	0ffffb5f9H
	DD	0ffffb629H
	DD	0ffffb659H
	DD	0ffffb689H
	DD	0ffffb6b9H
	DD	0ffffb6e9H
	DD	0ffffb719H
	DD	0ffffb74aH
	DD	0ffffb77aH
	DD	0ffffb7aaH
	DD	0ffffb7daH
	DD	0ffffb80bH
	DD	0ffffb83bH
	DD	0ffffb86bH
	DD	0ffffb89bH
	DD	0ffffb8ccH
	DD	0ffffb8fcH
	DD	0ffffb92cH
	DD	0ffffb95cH
	DD	0ffffb98dH
	DD	0ffffb9bdH
	DD	0ffffb9edH
	DD	0ffffba1eH
	DD	0ffffba4eH
	DD	0ffffba7fH
	DD	0ffffbaafH
	DD	0ffffbadfH
	DD	0ffffbb10H
	DD	0ffffbb40H
	DD	0ffffbb71H
	DD	0ffffbba1H
	DD	0ffffbbd1H
	DD	0ffffbc02H
	DD	0ffffbc32H
	DD	0ffffbc63H
	DD	0ffffbc93H
	DD	0ffffbcc4H
	DD	0ffffbcf4H
	DD	0ffffbd25H
	DD	0ffffbd55H
	DD	0ffffbd86H
	DD	0ffffbdb6H
	DD	0ffffbde7H
	DD	0ffffbe18H
	DD	0ffffbe48H
	DD	0ffffbe79H
	DD	0ffffbea9H
	DD	0ffffbedaH
	DD	0ffffbf0bH
	DD	0ffffbf3bH
	DD	0ffffbf6cH
	DD	0ffffbf9cH
	DD	0ffffbfcdH
	DD	0ffffbffeH
	DD	0ffffc02eH
	DD	0ffffc05fH
	DD	0ffffc090H
	DD	0ffffc0c1H
	DD	0ffffc0f1H
	DD	0ffffc122H
	DD	0ffffc153H
	DD	0ffffc183H
	DD	0ffffc1b4H
	DD	0ffffc1e5H
	DD	0ffffc216H
	DD	0ffffc246H
	DD	0ffffc277H
	DD	0ffffc2a8H
	DD	0ffffc2d9H
	DD	0ffffc30aH
	DD	0ffffc33bH
	DD	0ffffc36bH
	DD	0ffffc39cH
	DD	0ffffc3cdH
	DD	0ffffc3feH
	DD	0ffffc42fH
	DD	0ffffc460H
	DD	0ffffc491H
	DD	0ffffc4c1H
	DD	0ffffc4f2H
	DD	0ffffc523H
	DD	0ffffc554H
	DD	0ffffc585H
	DD	0ffffc5b6H
	DD	0ffffc5e7H
	DD	0ffffc618H
	DD	0ffffc649H
	DD	0ffffc67aH
	DD	0ffffc6abH
	DD	0ffffc6dcH
	DD	0ffffc70dH
	DD	0ffffc73eH
	DD	0ffffc76fH
	DD	0ffffc7a0H
	DD	0ffffc7d1H
	DD	0ffffc802H
	DD	0ffffc833H
	DD	0ffffc864H
	DD	0ffffc895H
	DD	0ffffc8c6H
	DD	0ffffc8f7H
	DD	0ffffc928H
	DD	0ffffc95aH
	DD	0ffffc98bH
	DD	0ffffc9bcH
	DD	0ffffc9edH
	DD	0ffffca1eH
	DD	0ffffca4fH
	DD	0ffffca80H
	DD	0ffffcab1H
	DD	0ffffcae3H
	DD	0ffffcb14H
	DD	0ffffcb45H
	DD	0ffffcb76H
	DD	0ffffcba7H
	DD	0ffffcbd9H
	DD	0ffffcc0aH
	DD	0ffffcc3bH
	DD	0ffffcc6cH
	DD	0ffffcc9eH
	DD	0ffffcccfH
	DD	0ffffcd00H
	DD	0ffffcd31H
	DD	0ffffcd63H
	DD	0ffffcd94H
	DD	0ffffcdc5H
	DD	0ffffcdf6H
	DD	0ffffce28H
	DD	0ffffce59H
	DD	0ffffce8aH
	DD	0ffffcebcH
	DD	0ffffceedH
	DD	0ffffcf1eH
	DD	0ffffcf50H
	DD	0ffffcf81H
	DD	0ffffcfb2H
	DD	0ffffcfe4H
	DD	0ffffd015H
	DD	0ffffd047H
	DD	0ffffd078H
	DD	0ffffd0a9H
	DD	0ffffd0dbH
	DD	0ffffd10cH
	DD	0ffffd13eH
	DD	0ffffd16fH
	DD	0ffffd1a0H
	DD	0ffffd1d2H
	DD	0ffffd203H
	DD	0ffffd235H
	DD	0ffffd266H
	DD	0ffffd298H
	DD	0ffffd2c9H
	DD	0ffffd2fbH
	DD	0ffffd32cH
	DD	0ffffd35eH
	DD	0ffffd38fH
	DD	0ffffd3c1H
	DD	0ffffd3f2H
	DD	0ffffd424H
	DD	0ffffd455H
	DD	0ffffd487H
	DD	0ffffd4b8H
	DD	0ffffd4eaH
	DD	0ffffd51bH
	DD	0ffffd54dH
	DD	0ffffd57eH
	DD	0ffffd5b0H
	DD	0ffffd5e2H
	DD	0ffffd613H
	DD	0ffffd645H
	DD	0ffffd676H
	DD	0ffffd6a8H
	DD	0ffffd6daH
	DD	0ffffd70bH
	DD	0ffffd73dH
	DD	0ffffd76eH
	DD	0ffffd7a0H
	DD	0ffffd7d2H
	DD	0ffffd803H
	DD	0ffffd835H
	DD	0ffffd867H
	DD	0ffffd898H
	DD	0ffffd8caH
	DD	0ffffd8fcH
	DD	0ffffd92dH
	DD	0ffffd95fH
	DD	0ffffd991H
	DD	0ffffd9c2H
	DD	0ffffd9f4H
	DD	0ffffda26H
	DD	0ffffda58H
	DD	0ffffda89H
	DD	0ffffdabbH
	DD	0ffffdaedH
	DD	0ffffdb1eH
	DD	0ffffdb50H
	DD	0ffffdb82H
	DD	0ffffdbb4H
	DD	0ffffdbe5H
	DD	0ffffdc17H
	DD	0ffffdc49H
	DD	0ffffdc7bH
	DD	0ffffdcadH
	DD	0ffffdcdeH
	DD	0ffffdd10H
	DD	0ffffdd42H
	DD	0ffffdd74H
	DD	0ffffdda6H
	DD	0ffffddd7H
	DD	0ffffde09H
	DD	0ffffde3bH
	DD	0ffffde6dH
	DD	0ffffde9fH
	DD	0ffffded0H
	DD	0ffffdf02H
	DD	0ffffdf34H
	DD	0ffffdf66H
	DD	0ffffdf98H
	DD	0ffffdfcaH
	DD	0ffffdffcH
	DD	0ffffe02dH
	DD	0ffffe05fH
	DD	0ffffe091H
	DD	0ffffe0c3H
	DD	0ffffe0f5H
	DD	0ffffe127H
	DD	0ffffe159H
	DD	0ffffe18bH
	DD	0ffffe1bdH
	DD	0ffffe1efH
	DD	0ffffe220H
	DD	0ffffe252H
	DD	0ffffe284H
	DD	0ffffe2b6H
	DD	0ffffe2e8H
	DD	0ffffe31aH
	DD	0ffffe34cH
	DD	0ffffe37eH
	DD	0ffffe3b0H
	DD	0ffffe3e2H
	DD	0ffffe414H
	DD	0ffffe446H
	DD	0ffffe478H
	DD	0ffffe4aaH
	DD	0ffffe4dcH
	DD	0ffffe50eH
	DD	0ffffe540H
	DD	0ffffe572H
	DD	0ffffe5a4H
	DD	0ffffe5d6H
	DD	0ffffe608H
	DD	0ffffe63aH
	DD	0ffffe66cH
	DD	0ffffe69eH
	DD	0ffffe6d0H
	DD	0ffffe702H
	DD	0ffffe734H
	DD	0ffffe766H
	DD	0ffffe798H
	DD	0ffffe7caH
	DD	0ffffe7fcH
	DD	0ffffe82eH
	DD	0ffffe860H
	DD	0ffffe892H
	DD	0ffffe8c4H
	DD	0ffffe8f6H
	DD	0ffffe928H
	DD	0ffffe95aH
	DD	0ffffe98dH
	DD	0ffffe9bfH
	DD	0ffffe9f1H
	DD	0ffffea23H
	DD	0ffffea55H
	DD	0ffffea87H
	DD	0ffffeab9H
	DD	0ffffeaebH
	DD	0ffffeb1dH
	DD	0ffffeb4fH
	DD	0ffffeb81H
	DD	0ffffebb3H
	DD	0ffffebe6H
	DD	0ffffec18H
	DD	0ffffec4aH
	DD	0ffffec7cH
	DD	0ffffecaeH
	DD	0ffffece0H
	DD	0ffffed12H
	DD	0ffffed44H
	DD	0ffffed77H
	DD	0ffffeda9H
	DD	0ffffeddbH
	DD	0ffffee0dH
	DD	0ffffee3fH
	DD	0ffffee71H
	DD	0ffffeea3H
	DD	0ffffeed6H
	DD	0ffffef08H
	DD	0ffffef3aH
	DD	0ffffef6cH
	DD	0ffffef9eH
	DD	0ffffefd0H
	DD	0fffff003H
	DD	0fffff035H
	DD	0fffff067H
	DD	0fffff099H
	DD	0fffff0cbH
	DD	0fffff0fdH
	DD	0fffff130H
	DD	0fffff162H
	DD	0fffff194H
	DD	0fffff1c6H
	DD	0fffff1f8H
	DD	0fffff22bH
	DD	0fffff25dH
	DD	0fffff28fH
	DD	0fffff2c1H
	DD	0fffff2f3H
	DD	0fffff325H
	DD	0fffff358H
	DD	0fffff38aH
	DD	0fffff3bcH
	DD	0fffff3eeH
	DD	0fffff421H
	DD	0fffff453H
	DD	0fffff485H
	DD	0fffff4b7H
	DD	0fffff4e9H
	DD	0fffff51cH
	DD	0fffff54eH
	DD	0fffff580H
	DD	0fffff5b2H
	DD	0fffff5e4H
	DD	0fffff617H
	DD	0fffff649H
	DD	0fffff67bH
	DD	0fffff6adH
	DD	0fffff6e0H
	DD	0fffff712H
	DD	0fffff744H
	DD	0fffff776H
	DD	0fffff7a9H
	DD	0fffff7dbH
	DD	0fffff80dH
	DD	0fffff83fH
	DD	0fffff872H
	DD	0fffff8a4H
	DD	0fffff8d6H
	DD	0fffff908H
	DD	0fffff93bH
	DD	0fffff96dH
	DD	0fffff99fH
	DD	0fffff9d1H
	DD	0fffffa04H
	DD	0fffffa36H
	DD	0fffffa68H
	DD	0fffffa9aH
	DD	0fffffacdH
	DD	0fffffaffH
	DD	0fffffb31H
	DD	0fffffb63H
	DD	0fffffb96H
	DD	0fffffbc8H
	DD	0fffffbfaH
	DD	0fffffc2cH
	DD	0fffffc5fH
	DD	0fffffc91H
	DD	0fffffcc3H
	DD	0fffffcf5H
	DD	0fffffd28H
	DD	0fffffd5aH
	DD	0fffffd8cH
	DD	0fffffdbeH
	DD	0fffffdf1H
	DD	0fffffe23H
	DD	0fffffe55H
	DD	0fffffe88H
	DD	0fffffebaH
	DD	0fffffeecH
	DD	0ffffff1eH
	DD	0ffffff51H
	DD	0ffffff83H
	DD	0ffffffb5H
	DD	0ffffffe7H
	DD	019H
	DD	04bH
	DD	07dH
	DD	0afH
	DD	0e2H
	DD	0114H
	DD	0146H
	DD	0178H
	DD	01abH
	DD	01ddH
	DD	020fH
	DD	0242H
	DD	0274H
	DD	02a6H
	DD	02d8H
	DD	030bH
	DD	033dH
	DD	036fH
	DD	03a1H
	DD	03d4H
	DD	0406H
	DD	0438H
	DD	046aH
	DD	049dH
	DD	04cfH
	DD	0501H
	DD	0533H
	DD	0566H
	DD	0598H
	DD	05caH
	DD	05fcH
	DD	062fH
	DD	0661H
	DD	0693H
	DD	06c5H
	DD	06f8H
	DD	072aH
	DD	075cH
	DD	078eH
	DD	07c1H
	DD	07f3H
	DD	0825H
	DD	0857H
	DD	088aH
	DD	08bcH
	DD	08eeH
	DD	0920H
	DD	0953H
	DD	0985H
	DD	09b7H
	DD	09e9H
	DD	0a1bH
	DD	0a4eH
	DD	0a80H
	DD	0ab2H
	DD	0ae4H
	DD	0b17H
	DD	0b49H
	DD	0b7bH
	DD	0badH
	DD	0bdfH
	DD	0c12H
	DD	0c44H
	DD	0c76H
	DD	0ca8H
	DD	0cdbH
	DD	0d0dH
	DD	0d3fH
	DD	0d71H
	DD	0da3H
	DD	0dd6H
	DD	0e08H
	DD	0e3aH
	DD	0e6cH
	DD	0e9eH
	DD	0ed0H
	DD	0f03H
	DD	0f35H
	DD	0f67H
	DD	0f99H
	DD	0fcbH
	DD	0ffdH
	DD	01030H
	DD	01062H
	DD	01094H
	DD	010c6H
	DD	010f8H
	DD	0112aH
	DD	0115dH
	DD	0118fH
	DD	011c1H
	DD	011f3H
	DD	01225H
	DD	01257H
	DD	01289H
	DD	012bcH
	DD	012eeH
	DD	01320H
	DD	01352H
	DD	01384H
	DD	013b6H
	DD	013e8H
	DD	0141aH
	DD	0144dH
	DD	0147fH
	DD	014b1H
	DD	014e3H
	DD	01515H
	DD	01547H
	DD	01579H
	DD	015abH
	DD	015ddH
	DD	0160fH
	DD	01641H
	DD	01673H
	DD	016a6H
	DD	016d8H
	DD	0170aH
	DD	0173cH
	DD	0176eH
	DD	017a0H
	DD	017d2H
	DD	01804H
	DD	01836H
	DD	01868H
	DD	0189aH
	DD	018ccH
	DD	018feH
	DD	01930H
	DD	01962H
	DD	01994H
	DD	019c6H
	DD	019f8H
	DD	01a2aH
	DD	01a5cH
	DD	01a8eH
	DD	01ac0H
	DD	01af2H
	DD	01b24H
	DD	01b56H
	DD	01b88H
	DD	01bbaH
	DD	01becH
	DD	01c1eH
	DD	01c50H
	DD	01c82H
	DD	01cb4H
	DD	01ce6H
	DD	01d18H
	DD	01d4aH
	DD	01d7cH
	DD	01daeH
	DD	01de0H
	DD	01e11H
	DD	01e43H
	DD	01e75H
	DD	01ea7H
	DD	01ed9H
	DD	01f0bH
	DD	01f3dH
	DD	01f6fH
	DD	01fa1H
	DD	01fd3H
	DD	02004H
	DD	02036H
	DD	02068H
	DD	0209aH
	DD	020ccH
	DD	020feH
	DD	02130H
	DD	02161H
	DD	02193H
	DD	021c5H
	DD	021f7H
	DD	02229H
	DD	0225aH
	DD	0228cH
	DD	022beH
	DD	022f0H
	DD	02322H
	DD	02353H
	DD	02385H
	DD	023b7H
	DD	023e9H
	DD	0241bH
	DD	0244cH
	DD	0247eH
	DD	024b0H
	DD	024e2H
	DD	02513H
	DD	02545H
	DD	02577H
	DD	025a8H
	DD	025daH
	DD	0260cH
	DD	0263eH
	DD	0266fH
	DD	026a1H
	DD	026d3H
	DD	02704H
	DD	02736H
	DD	02768H
	DD	02799H
	DD	027cbH
	DD	027fdH
	DD	0282eH
	DD	02860H
	DD	02892H
	DD	028c3H
	DD	028f5H
	DD	02926H
	DD	02958H
	DD	0298aH
	DD	029bbH
	DD	029edH
	DD	02a1eH
	DD	02a50H
	DD	02a82H
	DD	02ab3H
	DD	02ae5H
	DD	02b16H
	DD	02b48H
	DD	02b79H
	DD	02babH
	DD	02bdcH
	DD	02c0eH
	DD	02c3fH
	DD	02c71H
	DD	02ca2H
	DD	02cd4H
	DD	02d05H
	DD	02d37H
	DD	02d68H
	DD	02d9aH
	DD	02dcbH
	DD	02dfdH
	DD	02e2eH
	DD	02e60H
	DD	02e91H
	DD	02ec2H
	DD	02ef4H
	DD	02f25H
	DD	02f57H
	DD	02f88H
	DD	02fbaH
	DD	02febH
	DD	0301cH
	DD	0304eH
	DD	0307fH
	DD	030b0H
	DD	030e2H
	DD	03113H
	DD	03144H
	DD	03176H
	DD	031a7H
	DD	031d8H
	DD	0320aH
	DD	0323bH
	DD	0326cH
	DD	0329dH
	DD	032cfH
	DD	03300H
	DD	03331H
	DD	03362H
	DD	03394H
	DD	033c5H
	DD	033f6H
	DD	03427H
	DD	03459H
	DD	0348aH
	DD	034bbH
	DD	034ecH
	DD	0351dH
	DD	0354fH
	DD	03580H
	DD	035b1H
	DD	035e2H
	DD	03613H
	DD	03644H
	DD	03675H
	DD	036a6H
	DD	036d8H
	DD	03709H
	DD	0373aH
	DD	0376bH
	DD	0379cH
	DD	037cdH
	DD	037feH
	DD	0382fH
	DD	03860H
	DD	03891H
	DD	038c2H
	DD	038f3H
	DD	03924H
	DD	03955H
	DD	03986H
	DD	039b7H
	DD	039e8H
	DD	03a19H
	DD	03a4aH
	DD	03a7bH
	DD	03aacH
	DD	03addH
	DD	03b0eH
	DD	03b3fH
	DD	03b6fH
	DD	03ba0H
	DD	03bd1H
	DD	03c02H
	DD	03c33H
	DD	03c64H
	DD	03c95H
	DD	03cc5H
	DD	03cf6H
	DD	03d27H
	DD	03d58H
	DD	03d89H
	DD	03dbaH
	DD	03deaH
	DD	03e1bH
	DD	03e4cH
	DD	03e7dH
	DD	03eadH
	DD	03edeH
	DD	03f0fH
	DD	03f3fH
	DD	03f70H
	DD	03fa1H
	DD	03fd2H
	DD	04002H
	DD	04033H
	DD	04064H
	DD	04094H
	DD	040c5H
	DD	040f5H
	DD	04126H
	DD	04157H
	DD	04187H
	DD	041b8H
	DD	041e8H
	DD	04219H
	DD	0424aH
	DD	0427aH
	DD	042abH
	DD	042dbH
	DD	0430cH
	DD	0433cH
	DD	0436dH
	DD	0439dH
	DD	043ceH
	DD	043feH
	DD	0442fH
	DD	0445fH
	DD	0448fH
	DD	044c0H
	DD	044f0H
	DD	04521H
	DD	04551H
	DD	04581H
	DD	045b2H
	DD	045e2H
	DD	04613H
	DD	04643H
	DD	04673H
	DD	046a4H
	DD	046d4H
	DD	04704H
	DD	04734H
	DD	04765H
	DD	04795H
	DD	047c5H
	DD	047f5H
	DD	04826H
	DD	04856H
	DD	04886H
	DD	048b6H
	DD	048e7H
	DD	04917H
	DD	04947H
	DD	04977H
	DD	049a7H
	DD	049d7H
	DD	04a07H
	DD	04a38H
	DD	04a68H
	DD	04a98H
	DD	04ac8H
	DD	04af8H
	DD	04b28H
	DD	04b58H
	DD	04b88H
	DD	04bb8H
	DD	04be8H
	DD	04c18H
	DD	04c48H
	DD	04c78H
	DD	04ca8H
	DD	04cd8H
	DD	04d08H
	DD	04d38H
	DD	04d68H
	DD	04d98H
	DD	04dc8H
	DD	04df7H
	DD	04e27H
	DD	04e57H
	DD	04e87H
	DD	04eb7H
	DD	04ee7H
	DD	04f16H
	DD	04f46H
	DD	04f76H
	DD	04fa6H
	DD	04fd6H
	DD	05005H
	DD	05035H
	DD	05065H
	DD	05095H
	DD	050c4H
	DD	050f4H
	DD	05124H
	DD	05153H
	DD	05183H
	DD	051b3H
	DD	051e2H
	DD	05212H
	DD	05241H
	DD	05271H
	DD	052a1H
	DD	052d0H
	DD	05300H
	DD	0532fH
	DD	0535fH
	DD	0538eH
	DD	053beH
	DD	053edH
	DD	0541dH
	DD	0544cH
	DD	0547cH
	DD	054abH
	DD	054dbH
	DD	0550aH
	DD	05539H
	DD	05569H
	DD	05598H
	DD	055c8H
	DD	055f7H
	DD	05626H
	DD	05656H
	DD	05685H
	DD	056b4H
	DD	056e3H
	DD	05713H
	DD	05742H
	DD	05771H
	DD	057a0H
	DD	057d0H
	DD	057ffH
	DD	0582eH
	DD	0585dH
	DD	0588cH
	DD	058bcH
	DD	058ebH
	DD	0591aH
	DD	05949H
	DD	05978H
	DD	059a7H
	DD	059d6H
	DD	05a05H
	DD	05a34H
	DD	05a63H
	DD	05a92H
	DD	05ac1H
	DD	05af0H
	DD	05b1fH
	DD	05b4eH
	DD	05b7dH
	DD	05bacH
	DD	05bdbH
	DD	05c0aH
	DD	05c39H
	DD	05c68H
	DD	05c97H
	DD	05cc6H
	DD	05cf4H
	DD	05d23H
	DD	05d52H
	DD	05d81H
	DD	05db0H
	DD	05ddeH
	DD	05e0dH
	DD	05e3cH
	DD	05e6bH
	DD	05e99H
	DD	05ec8H
	DD	05ef7H
	DD	05f25H
	DD	05f54H
	DD	05f83H
	DD	05fb1H
	DD	05fe0H
	DD	0600fH
	DD	0603dH
	DD	0606cH
	DD	0609aH
	DD	060c9H
	DD	060f7H
	DD	06126H
	DD	06154H
	DD	06183H
	DD	061b1H
	DD	061e0H
	DD	0620eH
	DD	0623dH
	DD	0626bH
	DD	06299H
	DD	062c8H
	DD	062f6H
	DD	06325H
	DD	06353H
	DD	06381H
	DD	063b0H
	DD	063deH
	DD	0640cH
	DD	0643aH
	DD	06469H
	DD	06497H
	DD	064c5H
	DD	064f3H
	DD	06521H
	DD	06550H
	DD	0657eH
	DD	065acH
	DD	065daH
	DD	06608H
	DD	06636H
	DD	06664H
	DD	06692H
	DD	066c0H
	DD	066eeH
	DD	0671cH
	DD	0674aH
	DD	06778H
	DD	067a6H
	DD	067d4H
	DD	06802H
	DD	06830H
	DD	0685eH
	DD	0688cH
	DD	068baH
	DD	068e8H
	DD	06916H
	DD	06943H
	DD	06971H
	DD	0699fH
	DD	069cdH
	DD	069fbH
	DD	06a28H
	DD	06a56H
	DD	06a84H
	DD	06ab1H
	DD	06adfH
	DD	06b0dH
	DD	06b3aH
	DD	06b68H
	DD	06b96H
	DD	06bc3H
	DD	06bf1H
	DD	06c1eH
	DD	06c4cH
	DD	06c7aH
	DD	06ca7H
	DD	06cd5H
	DD	06d02H
	DD	06d30H
	DD	06d5dH
	DD	06d8aH
	DD	06db8H
	DD	06de5H
	DD	06e13H
	DD	06e40H
	DD	06e6dH
	DD	06e9bH
	DD	06ec8H
	DD	06ef5H
	DD	06f23H
	DD	06f50H
	DD	06f7dH
	DD	06faaH
	DD	06fd8H
	DD	07005H
	DD	07032H
	DD	0705fH
	DD	0708cH
	DD	070baH
	DD	070e7H
	DD	07114H
	DD	07141H
	DD	0716eH
	DD	0719bH
	DD	071c8H
	DD	071f5H
	DD	07222H
	DD	0724fH
	DD	0727cH
	DD	072a9H
	DD	072d6H
	DD	07303H
	DD	07330H
	DD	0735dH
	DD	07389H
	DD	073b6H
	DD	073e3H
	DD	07410H
	DD	0743dH
	DD	07469H
	DD	07496H
	DD	074c3H
	DD	074f0H
	DD	0751cH
	DD	07549H
	DD	07576H
	DD	075a2H
	DD	075cfH
	DD	075fcH
	DD	07628H
	DD	07655H
	DD	07681H
	DD	076aeH
	DD	076dbH
	DD	07707H
	DD	07734H
	DD	07760H
	DD	0778cH
	DD	077b9H
	DD	077e5H
	DD	07812H
	DD	0783eH
	DD	0786aH
	DD	07897H
	DD	078c3H
	DD	078efH
	DD	0791cH
	DD	07948H
	DD	07974H
	DD	079a0H
	DD	079cdH
	DD	079f9H
	DD	07a25H
	DD	07a51H
	DD	07a7dH
	DD	07aaaH
	DD	07ad6H
	DD	07b02H
	DD	07b2eH
	DD	07b5aH
	DD	07b86H
	DD	07bb2H
	DD	07bdeH
	DD	07c0aH
	DD	07c36H
	DD	07c62H
	DD	07c8eH
	DD	07cbaH
	DD	07ce6H
	DD	07d11H
	DD	07d3dH
	DD	07d69H
	DD	07d95H
	DD	07dc1H
	DD	07decH
	DD	07e18H
	DD	07e44H
	DD	07e70H
	DD	07e9bH
	DD	07ec7H
	DD	07ef3H
	DD	07f1eH
	DD	07f4aH
	DD	07f76H
	DD	07fa1H
	DD	07fcdH
	DD	07ff8H
	DD	08024H
	DD	0804fH
	DD	0807bH
	DD	080a6H
	DD	080d2H
	DD	080fdH
	DD	08129H
	DD	08154H
	DD	0817fH
	DD	081abH
	DD	081d6H
	DD	08201H
	DD	0822dH
	DD	08258H
	DD	08283H
	DD	082aeH
	DD	082daH
	DD	08305H
	DD	08330H
	DD	0835bH
	DD	08386H
	DD	083b1H
	DD	083dcH
	DD	08407H
	DD	08433H
	DD	0845eH
	DD	08489H
	DD	084b4H
	DD	084dfH
	DD	08509H
	DD	08534H
	DD	0855fH
	DD	0858aH
	DD	085b5H
	DD	085e0H
	DD	0860bH
	DD	08636H
	DD	08660H
	DD	0868bH
	DD	086b6H
	DD	086e1H
	DD	0870bH
	DD	08736H
	DD	08761H
	DD	0878bH
	DD	087b6H
	DD	087e1H
	DD	0880bH
	DD	08836H
	DD	08860H
	DD	0888bH
	DD	088b5H
	DD	088e0H
	DD	0890aH
	DD	08935H
	DD	0895fH
	DD	0898aH
	DD	089b4H
	DD	089deH
	DD	08a09H
	DD	08a33H
	DD	08a5dH
	DD	08a88H
	DD	08ab2H
	DD	08adcH
	DD	08b06H
	DD	08b31H
	DD	08b5bH
	DD	08b85H
	DD	08bafH
	DD	08bd9H
	DD	08c03H
	DD	08c2dH
	DD	08c57H
	DD	08c81H
	DD	08cabH
	DD	08cd5H
	DD	08cffH
	DD	08d29H
	DD	08d53H
	DD	08d7dH
	DD	08da7H
	DD	08dd1H
	DD	08dfbH
	DD	08e24H
	DD	08e4eH
	DD	08e78H
	DD	08ea2H
	DD	08eccH
	DD	08ef5H
	DD	08f1fH
	DD	08f49H
	DD	08f72H
	DD	08f9cH
	DD	08fc5H
	DD	08fefH
	DD	09019H
	DD	09042H
	DD	0906cH
	DD	09095H
	DD	090bfH
	DD	090e8H
	DD	09111H
	DD	0913bH
	DD	09164H
	DD	0918eH
	DD	091b7H
	DD	091e0H
	DD	0920aH
	DD	09233H
	DD	0925cH
	DD	09285H
	DD	092afH
	DD	092d8H
	DD	09301H
	DD	0932aH
	DD	09353H
	DD	0937cH
	DD	093a5H
	DD	093ceH
	DD	093f7H
	DD	09420H
	DD	09449H
	DD	09472H
	DD	0949bH
	DD	094c4H
	DD	094edH
	DD	09516H
	DD	0953fH
	DD	09568H
	DD	09590H
	DD	095b9H
	DD	095e2H
	DD	0960bH
	DD	09633H
	DD	0965cH
	DD	09685H
	DD	096adH
	DD	096d6H
	DD	096ffH
	DD	09727H
	DD	09750H
	DD	09778H
	DD	097a1H
	DD	097c9H
	DD	097f2H
	DD	0981aH
	DD	09843H
	DD	0986bH
	DD	09893H
	DD	098bcH
	DD	098e4H
	DD	0990cH
	DD	09935H
	DD	0995dH
	DD	09985H
	DD	099adH
	DD	099d6H
	DD	099feH
	DD	09a26H
	DD	09a4eH
	DD	09a76H
	DD	09a9eH
	DD	09ac6H
	DD	09aeeH
	DD	09b16H
	DD	09b3eH
	DD	09b66H
	DD	09b8eH
	DD	09bb6H
	DD	09bdeH
	DD	09c06H
	DD	09c2eH
	DD	09c55H
	DD	09c7dH
	DD	09ca5H
	DD	09ccdH
	DD	09cf4H
	DD	09d1cH
	DD	09d44H
	DD	09d6bH
	DD	09d93H
	DD	09dbbH
	DD	09de2H
	DD	09e0aH
	DD	09e31H
	DD	09e59H
	DD	09e80H
	DD	09ea8H
	DD	09ecfH
	DD	09ef7H
	DD	09f1eH
	DD	09f45H
	DD	09f6dH
	DD	09f94H
	DD	09fbbH
	DD	09fe3H
	DD	0a00aH
	DD	0a031H
	DD	0a058H
	DD	0a07fH
	DD	0a0a7H
	DD	0a0ceH
	DD	0a0f5H
	DD	0a11cH
	DD	0a143H
	DD	0a16aH
	DD	0a191H
	DD	0a1b8H
	DD	0a1dfH
	DD	0a206H
	DD	0a22dH
	DD	0a254H
	DD	0a27bH
	DD	0a2a1H
	DD	0a2c8H
	DD	0a2efH
	DD	0a316H
	DD	0a33cH
	DD	0a363H
	DD	0a38aH
	DD	0a3b0H
	DD	0a3d7H
	DD	0a3feH
	DD	0a424H
	DD	0a44bH
	DD	0a471H
	DD	0a498H
	DD	0a4beH
	DD	0a4e5H
	DD	0a50bH
	DD	0a532H
	DD	0a558H
	DD	0a57eH
	DD	0a5a5H
	DD	0a5cbH
	DD	0a5f1H
	DD	0a618H
	DD	0a63eH
	DD	0a664H
	DD	0a68aH
	DD	0a6b0H
	DD	0a6d7H
	DD	0a6fdH
	DD	0a723H
	DD	0a749H
	DD	0a76fH
	DD	0a795H
	DD	0a7bbH
	DD	0a7e1H
	DD	0a807H
	DD	0a82dH
	DD	0a853H
	DD	0a878H
	DD	0a89eH
	DD	0a8c4H
	DD	0a8eaH
	DD	0a910H
	DD	0a935H
	DD	0a95bH
	DD	0a981H
	DD	0a9a6H
	DD	0a9ccH
	DD	0a9f2H
	DD	0aa17H
	DD	0aa3dH
	DD	0aa62H
	DD	0aa88H
	DD	0aaadH
	DD	0aad3H
	DD	0aaf8H
	DD	0ab1eH
	DD	0ab43H
	DD	0ab68H
	DD	0ab8eH
	DD	0abb3H
	DD	0abd8H
	DD	0abfdH
	DD	0ac23H
	DD	0ac48H
	DD	0ac6dH
	DD	0ac92H
	DD	0acb7H
	DD	0acdcH
	DD	0ad01H
	DD	0ad26H
	DD	0ad4bH
	DD	0ad70H
	DD	0ad95H
	DD	0adbaH
	DD	0addfH
	DD	0ae04H
	DD	0ae29H
	DD	0ae4eH
	DD	0ae73H
	DD	0ae97H
	DD	0aebcH
	DD	0aee1H
	DD	0af06H
	DD	0af2aH
	DD	0af4fH
	DD	0af73H
	DD	0af98H
	DD	0afbdH
	DD	0afe1H
	DD	0b006H
	DD	0b02aH
	DD	0b04fH
	DD	0b073H
	DD	0b097H
	DD	0b0bcH
	DD	0b0e0H
	DD	0b104H
	DD	0b129H
	DD	0b14dH
	DD	0b171H
	DD	0b196H
	DD	0b1baH
	DD	0b1deH
	DD	0b202H
	DD	0b226H
	DD	0b24aH
	DD	0b26eH
	DD	0b292H
	DD	0b2b6H
	DD	0b2daH
	DD	0b2feH
	DD	0b322H
	DD	0b346H
	DD	0b36aH
	DD	0b38eH
	DD	0b3b2H
	DD	0b3d5H
	DD	0b3f9H
	DD	0b41dH
	DD	0b441H
	DD	0b464H
	DD	0b488H
	DD	0b4acH
	DD	0b4cfH
	DD	0b4f3H
	DD	0b516H
	DD	0b53aH
	DD	0b55dH
	DD	0b581H
	DD	0b5a4H
	DD	0b5c8H
	DD	0b5ebH
	DD	0b60eH
	DD	0b632H
	DD	0b655H
	DD	0b678H
	DD	0b69bH
	DD	0b6bfH
	DD	0b6e2H
	DD	0b705H
	DD	0b728H
	DD	0b74bH
	DD	0b76eH
	DD	0b791H
	DD	0b7b4H
	DD	0b7d7H
	DD	0b7faH
	DD	0b81dH
	DD	0b840H
	DD	0b863H
	DD	0b886H
	DD	0b8a9H
	DD	0b8ccH
	DD	0b8eeH
	DD	0b911H
	DD	0b934H
	DD	0b956H
	DD	0b979H
	DD	0b99cH
	DD	0b9beH
	DD	0b9e1H
	DD	0ba03H
	DD	0ba26H
	DD	0ba48H
	DD	0ba6bH
	DD	0ba8dH
	DD	0bab0H
	DD	0bad2H
	DD	0baf5H
	DD	0bb17H
	DD	0bb39H
	DD	0bb5bH
	DD	0bb7eH
	DD	0bba0H
	DD	0bbc2H
	DD	0bbe4H
	DD	0bc06H
	DD	0bc28H
	DD	0bc4aH
	DD	0bc6dH
	DD	0bc8fH
	DD	0bcb1H
	DD	0bcd2H
	DD	0bcf4H
	DD	0bd16H
	DD	0bd38H
	DD	0bd5aH
	DD	0bd7cH
	DD	0bd9eH
	DD	0bdbfH
	DD	0bde1H
	DD	0be03H
	DD	0be24H
	DD	0be46H
	DD	0be68H
	DD	0be89H
	DD	0beabH
	DD	0beccH
	DD	0beeeH
	DD	0bf0fH
	DD	0bf31H
	DD	0bf52H
	DD	0bf74H
	DD	0bf95H
	DD	0bfb6H
	DD	0bfd8H
	DD	0bff9H
	DD	0c01aH
	DD	0c03bH
	DD	0c05cH
	DD	0c07eH
	DD	0c09fH
	DD	0c0c0H
	DD	0c0e1H
	DD	0c102H
	DD	0c123H
	DD	0c144H
	DD	0c165H
	DD	0c186H
	DD	0c1a7H
	DD	0c1c8H
	DD	0c1e8H
	DD	0c209H
	DD	0c22aH
	DD	0c24bH
	DD	0c26bH
	DD	0c28cH
	DD	0c2adH
	DD	0c2cdH
	DD	0c2eeH
	DD	0c30fH
	DD	0c32fH
	DD	0c350H
	DD	0c370H
	DD	0c390H
	DD	0c3b1H
	DD	0c3d1H
	DD	0c3f2H
	DD	0c412H
	DD	0c432H
	DD	0c453H
	DD	0c473H
	DD	0c493H
	DD	0c4b3H
	DD	0c4d3H
	DD	0c4f4H
	DD	0c514H
	DD	0c534H
	DD	0c554H
	DD	0c574H
	DD	0c594H
	DD	0c5b4H
	DD	0c5d4H
	DD	0c5f3H
	DD	0c613H
	DD	0c633H
	DD	0c653H
	DD	0c673H
	DD	0c692H
	DD	0c6b2H
	DD	0c6d2H
	DD	0c6f1H
	DD	0c711H
	DD	0c731H
	DD	0c750H
	DD	0c770H
	DD	0c78fH
	DD	0c7afH
	DD	0c7ceH
	DD	0c7eeH
	DD	0c80dH
	DD	0c82cH
	DD	0c84cH
	DD	0c86bH
	DD	0c88aH
	DD	0c8a9H
	DD	0c8c9H
	DD	0c8e8H
	DD	0c907H
	DD	0c926H
	DD	0c945H
	DD	0c964H
	DD	0c983H
	DD	0c9a2H
	DD	0c9c1H
	DD	0c9e0H
	DD	0c9ffH
	DD	0ca1eH
	DD	0ca3dH
	DD	0ca5bH
	DD	0ca7aH
	DD	0ca99H
	DD	0cab8H
	DD	0cad6H
	DD	0caf5H
	DD	0cb14H
	DD	0cb32H
	DD	0cb51H
	DD	0cb6fH
	DD	0cb8eH
	DD	0cbacH
	DD	0cbcbH
	DD	0cbe9H
	DD	0cc07H
	DD	0cc26H
	DD	0cc44H
	DD	0cc62H
	DD	0cc81H
	DD	0cc9fH
	DD	0ccbdH
	DD	0ccdbH
	DD	0ccf9H
	DD	0cd17H
	DD	0cd36H
	DD	0cd54H
	DD	0cd72H
	DD	0cd90H
	DD	0cdadH
	DD	0cdcbH
	DD	0cde9H
	DD	0ce07H
	DD	0ce25H
	DD	0ce43H
	DD	0ce60H
	DD	0ce7eH
	DD	0ce9cH
	DD	0cebaH
	DD	0ced7H
	DD	0cef5H
	DD	0cf12H
	DD	0cf30H
	DD	0cf4dH
	DD	0cf6bH
	DD	0cf88H
	DD	0cfa6H
	DD	0cfc3H
	DD	0cfe0H
	DD	0cffeH
	DD	0d01bH
	DD	0d038H
	DD	0d056H
	DD	0d073H
	DD	0d090H
	DD	0d0adH
	DD	0d0caH
	DD	0d0e7H
	DD	0d104H
	DD	0d121H
	DD	0d13eH
	DD	0d15bH
	DD	0d178H
	DD	0d195H
	DD	0d1b2H
	DD	0d1cfH
	DD	0d1ebH
	DD	0d208H
	DD	0d225H
	DD	0d242H
	DD	0d25eH
	DD	0d27bH
	DD	0d298H
	DD	0d2b4H
	DD	0d2d1H
	DD	0d2edH
	DD	0d30aH
	DD	0d326H
	DD	0d342H
	DD	0d35fH
	DD	0d37bH
	DD	0d397H
	DD	0d3b4H
	DD	0d3d0H
	DD	0d3ecH
	DD	0d408H
	DD	0d425H
	DD	0d441H
	DD	0d45dH
	DD	0d479H
	DD	0d495H
	DD	0d4b1H
	DD	0d4cdH
	DD	0d4e9H
	DD	0d505H
	DD	0d520H
	DD	0d53cH
	DD	0d558H
	DD	0d574H
	DD	0d590H
	DD	0d5abH
	DD	0d5c7H
	DD	0d5e3H
	DD	0d5feH
	DD	0d61aH
	DD	0d635H
	DD	0d651H
	DD	0d66cH
	DD	0d688H
	DD	0d6a3H
	DD	0d6beH
	DD	0d6daH
	DD	0d6f5H
	DD	0d710H
	DD	0d72cH
	DD	0d747H
	DD	0d762H
	DD	0d77dH
	DD	0d798H
	DD	0d7b3H
	DD	0d7ceH
	DD	0d7eaH
	DD	0d804H
	DD	0d81fH
	DD	0d83aH
	DD	0d855H
	DD	0d870H
	DD	0d88bH
	DD	0d8a6H
	DD	0d8c1H
	DD	0d8dbH
	DD	0d8f6H
	DD	0d911H
	DD	0d92bH
	DD	0d946H
	DD	0d960H
	DD	0d97bH
	DD	0d995H
	DD	0d9b0H
	DD	0d9caH
	DD	0d9e5H
	DD	0d9ffH
	DD	0da19H
	DD	0da34H
	DD	0da4eH
	DD	0da68H
	DD	0da82H
	DD	0da9dH
	DD	0dab7H
	DD	0dad1H
	DD	0daebH
	DD	0db05H
	DD	0db1fH
	DD	0db39H
	DD	0db53H
	DD	0db6dH
	DD	0db87H
	DD	0dba1H
	DD	0dbbaH
	DD	0dbd4H
	DD	0dbeeH
	DD	0dc08H
	DD	0dc21H
	DD	0dc3bH
	DD	0dc54H
	DD	0dc6eH
	DD	0dc88H
	DD	0dca1H
	DD	0dcbbH
	DD	0dcd4H
	DD	0dcedH
	DD	0dd07H
	DD	0dd20H
	DD	0dd39H
	DD	0dd53H
	DD	0dd6cH
	DD	0dd85H
	DD	0dd9eH
	DD	0ddb8H
	DD	0ddd1H
	DD	0ddeaH
	DD	0de03H
	DD	0de1cH
	DD	0de35H
	DD	0de4eH
	DD	0de67H
	DD	0de7fH
	DD	0de98H
	DD	0deb1H
	DD	0decaH
	DD	0dee3H
	DD	0defbH
	DD	0df14H
	DD	0df2dH
	DD	0df45H
	DD	0df5eH
	DD	0df76H
	DD	0df8fH
	DD	0dfa7H
	DD	0dfc0H
	DD	0dfd8H
	DD	0dff1H
	DD	0e009H
	DD	0e021H
	DD	0e03aH
	DD	0e052H
	DD	0e06aH
	DD	0e082H
	DD	0e09aH
	DD	0e0b2H
	DD	0e0caH
	DD	0e0e2H
	DD	0e0faH
	DD	0e112H
	DD	0e12aH
	DD	0e142H
	DD	0e15aH
	DD	0e172H
	DD	0e18aH
	DD	0e1a2H
	DD	0e1b9H
	DD	0e1d1H
	DD	0e1e9H
	DD	0e200H
	DD	0e218H
	DD	0e22fH
	DD	0e247H
	DD	0e25eH
	DD	0e276H
	DD	0e28dH
	DD	0e2a5H
	DD	0e2bcH
	DD	0e2d3H
	DD	0e2ebH
	DD	0e302H
	DD	0e319H
	DD	0e330H
	DD	0e347H
	DD	0e35fH
	DD	0e376H
	DD	0e38dH
	DD	0e3a4H
	DD	0e3bbH
	DD	0e3d2H
	DD	0e3e9H
	DD	0e3ffH
	DD	0e416H
	DD	0e42dH
	DD	0e444H
	DD	0e45bH
	DD	0e471H
	DD	0e488H
	DD	0e49fH
	DD	0e4b5H
	DD	0e4ccH
	DD	0e4e2H
	DD	0e4f9H
	DD	0e50fH
	DD	0e526H
	DD	0e53cH
	DD	0e552H
	DD	0e569H
	DD	0e57fH
	DD	0e595H
	DD	0e5abH
	DD	0e5c2H
	DD	0e5d8H
	DD	0e5eeH
	DD	0e604H
	DD	0e61aH
	DD	0e630H
	DD	0e646H
	DD	0e65cH
	DD	0e672H
	DD	0e688H
	DD	0e69eH
	DD	0e6b3H
	DD	0e6c9H
	DD	0e6dfH
	DD	0e6f5H
	DD	0e70aH
	DD	0e720H
	DD	0e736H
	DD	0e74bH
	DD	0e761H
	DD	0e776H
	DD	0e78cH
	DD	0e7a1H
	DD	0e7b6H
	DD	0e7ccH
	DD	0e7e1H
	DD	0e7f6H
	DD	0e80cH
	DD	0e821H
	DD	0e836H
	DD	0e84bH
	DD	0e860H
	DD	0e875H
	DD	0e88aH
	DD	0e89fH
	DD	0e8b4H
	DD	0e8c9H
	DD	0e8deH
	DD	0e8f3H
	DD	0e908H
	DD	0e91dH
	DD	0e931H
	DD	0e946H
	DD	0e95bH
	DD	0e96fH
	DD	0e984H
	DD	0e999H
	DD	0e9adH
	DD	0e9c2H
	DD	0e9d6H
	DD	0e9ebH
	DD	0e9ffH
	DD	0ea13H
	DD	0ea28H
	DD	0ea3cH
	DD	0ea50H
	DD	0ea64H
	DD	0ea79H
	DD	0ea8dH
	DD	0eaa1H
	DD	0eab5H
	DD	0eac9H
	DD	0eaddH
	DD	0eaf1H
	DD	0eb05H
	DD	0eb19H
	DD	0eb2dH
	DD	0eb41H
	DD	0eb54H
	DD	0eb68H
	DD	0eb7cH
	DD	0eb90H
	DD	0eba3H
	DD	0ebb7H
	DD	0ebcbH
	DD	0ebdeH
	DD	0ebf2H
	DD	0ec05H
	DD	0ec19H
	DD	0ec2cH
	DD	0ec3fH
	DD	0ec53H
	DD	0ec66H
	DD	0ec79H
	DD	0ec8cH
	DD	0eca0H
	DD	0ecb3H
	DD	0ecc6H
	DD	0ecd9H
	DD	0ececH
	DD	0ecffH
	DD	0ed12H
	DD	0ed25H
	DD	0ed38H
	DD	0ed4bH
	DD	0ed5eH
	DD	0ed71H
	DD	0ed83H
	DD	0ed96H
	DD	0eda9H
	DD	0edbbH
	DD	0edceH
	DD	0ede1H
	DD	0edf3H
	DD	0ee06H
	DD	0ee18H
	DD	0ee2bH
	DD	0ee3dH
	DD	0ee4fH
	DD	0ee62H
	DD	0ee74H
	DD	0ee86H
	DD	0ee99H
	DD	0eeabH
	DD	0eebdH
	DD	0eecfH
	DD	0eee1H
	DD	0eef3H
	DD	0ef05H
	DD	0ef17H
	DD	0ef29H
	DD	0ef3bH
	DD	0ef4dH
	DD	0ef5fH
	DD	0ef71H
	DD	0ef82H
	DD	0ef94H
	DD	0efa6H
	DD	0efb7H
	DD	0efc9H
	DD	0efdbH
	DD	0efecH
	DD	0effeH
	DD	0f00fH
	DD	0f021H
	DD	0f032H
	DD	0f043H
	DD	0f055H
	DD	0f066H
	DD	0f077H
	DD	0f089H
	DD	0f09aH
	DD	0f0abH
	DD	0f0bcH
	DD	0f0cdH
	DD	0f0deH
	DD	0f0efH
	DD	0f100H
	DD	0f111H
	DD	0f122H
	DD	0f133H
	DD	0f144H
	DD	0f154H
	DD	0f165H
	DD	0f176H
	DD	0f187H
	DD	0f197H
	DD	0f1a8H
	DD	0f1b8H
	DD	0f1c9H
	DD	0f1d9H
	DD	0f1eaH
	DD	0f1faH
	DD	0f20bH
	DD	0f21bH
	DD	0f22bH
	DD	0f23cH
	DD	0f24cH
	DD	0f25cH
	DD	0f26cH
	DD	0f27cH
	DD	0f28cH
	DD	0f29cH
	DD	0f2adH
	DD	0f2bdH
	DD	0f2ccH
	DD	0f2dcH
	DD	0f2ecH
	DD	0f2fcH
	DD	0f30cH
	DD	0f31cH
	DD	0f32bH
	DD	0f33bH
	DD	0f34bH
	DD	0f35aH
	DD	0f36aH
	DD	0f379H
	DD	0f389H
	DD	0f398H
	DD	0f3a8H
	DD	0f3b7H
	DD	0f3c7H
	DD	0f3d6H
	DD	0f3e5H
	DD	0f3f5H
	DD	0f404H
	DD	0f413H
	DD	0f422H
	DD	0f431H
	DD	0f440H
	DD	0f44fH
	DD	0f45eH
	DD	0f46dH
	DD	0f47cH
	DD	0f48bH
	DD	0f49aH
	DD	0f4a9H
	DD	0f4b8H
	DD	0f4c6H
	DD	0f4d5H
	DD	0f4e4H
	DD	0f4f2H
	DD	0f501H
	DD	0f50fH
	DD	0f51eH
	DD	0f52cH
	DD	0f53bH
	DD	0f549H
	DD	0f558H
	DD	0f566H
	DD	0f574H
	DD	0f582H
	DD	0f591H
	DD	0f59fH
	DD	0f5adH
	DD	0f5bbH
	DD	0f5c9H
	DD	0f5d7H
	DD	0f5e5H
	DD	0f5f3H
	DD	0f601H
	DD	0f60fH
	DD	0f61dH
	DD	0f62bH
	DD	0f638H
	DD	0f646H
	DD	0f654H
	DD	0f662H
	DD	0f66fH
	DD	0f67dH
	DD	0f68aH
	DD	0f698H
	DD	0f6a5H
	DD	0f6b3H
	DD	0f6c0H
	DD	0f6ceH
	DD	0f6dbH
	DD	0f6e8H
	DD	0f6f5H
	DD	0f703H
	DD	0f710H
	DD	0f71dH
	DD	0f72aH
	DD	0f737H
	DD	0f744H
	DD	0f751H
	DD	0f75eH
	DD	0f76bH
	DD	0f778H
	DD	0f785H
	DD	0f792H
	DD	0f79eH
	DD	0f7abH
	DD	0f7b8H
	DD	0f7c5H
	DD	0f7d1H
	DD	0f7deH
	DD	0f7eaH
	DD	0f7f7H
	DD	0f803H
	DD	0f810H
	DD	0f81cH
	DD	0f828H
	DD	0f835H
	DD	0f841H
	DD	0f84dH
	DD	0f85aH
	DD	0f866H
	DD	0f872H
	DD	0f87eH
	DD	0f88aH
	DD	0f896H
	DD	0f8a2H
	DD	0f8aeH
	DD	0f8baH
	DD	0f8c6H
	DD	0f8d2H
	DD	0f8ddH
	DD	0f8e9H
	DD	0f8f5H
	DD	0f901H
	DD	0f90cH
	DD	0f918H
	DD	0f923H
	DD	0f92fH
	DD	0f93bH
	DD	0f946H
	DD	0f951H
	DD	0f95dH
	DD	0f968H
	DD	0f973H
	DD	0f97fH
	DD	0f98aH
	DD	0f995H
	DD	0f9a0H
	DD	0f9abH
	DD	0f9b7H
	DD	0f9c2H
	DD	0f9cdH
	DD	0f9d8H
	DD	0f9e3H
	DD	0f9edH
	DD	0f9f8H
	DD	0fa03H
	DD	0fa0eH
	DD	0fa19H
	DD	0fa23H
	DD	0fa2eH
	DD	0fa39H
	DD	0fa43H
	DD	0fa4eH
	DD	0fa58H
	DD	0fa63H
	DD	0fa6dH
	DD	0fa78H
	DD	0fa82H
	DD	0fa8cH
	DD	0fa97H
	DD	0faa1H
	DD	0faabH
	DD	0fab5H
	DD	0fac0H
	DD	0facaH
	DD	0fad4H
	DD	0fadeH
	DD	0fae8H
	DD	0faf2H
	DD	0fafcH
	DD	0fb05H
	DD	0fb0fH
	DD	0fb19H
	DD	0fb23H
	DD	0fb2dH
	DD	0fb36H
	DD	0fb40H
	DD	0fb4aH
	DD	0fb53H
	DD	0fb5dH
	DD	0fb66H
	DD	0fb70H
	DD	0fb79H
	DD	0fb83H
	DD	0fb8cH
	DD	0fb95H
	DD	0fb9eH
	DD	0fba8H
	DD	0fbb1H
	DD	0fbbaH
	DD	0fbc3H
	DD	0fbccH
	DD	0fbd5H
	DD	0fbdeH
	DD	0fbe7H
	DD	0fbf0H
	DD	0fbf9H
	DD	0fc02H
	DD	0fc0bH
	DD	0fc14H
	DD	0fc1cH
	DD	0fc25H
	DD	0fc2eH
	DD	0fc36H
	DD	0fc3fH
	DD	0fc48H
	DD	0fc50H
	DD	0fc58H
	DD	0fc61H
	DD	0fc69H
	DD	0fc72H
	DD	0fc7aH
	DD	0fc82H
	DD	0fc8bH
	DD	0fc93H
	DD	0fc9bH
	DD	0fca3H
	DD	0fcabH
	DD	0fcb3H
	DD	0fcbbH
	DD	0fcc3H
	DD	0fccbH
	DD	0fcd3H
	DD	0fcdbH
	DD	0fce3H
	DD	0fcebH
	DD	0fcf2H
	DD	0fcfaH
	DD	0fd02H
	DD	0fd09H
	DD	0fd11H
	DD	0fd19H
	DD	0fd20H
	DD	0fd28H
	DD	0fd2fH
	DD	0fd36H
	DD	0fd3eH
	DD	0fd45H
	DD	0fd4cH
	DD	0fd54H
	DD	0fd5bH
	DD	0fd62H
	DD	0fd69H
	DD	0fd70H
	DD	0fd77H
	DD	0fd7fH
	DD	0fd86H
	DD	0fd8cH
	DD	0fd93H
	DD	0fd9aH
	DD	0fda1H
	DD	0fda8H
	DD	0fdafH
	DD	0fdb5H
	DD	0fdbcH
	DD	0fdc3H
	DD	0fdc9H
	DD	0fdd0H
	DD	0fdd6H
	DD	0fdddH
	DD	0fde3H
	DD	0fdeaH
	DD	0fdf0H
	DD	0fdf7H
	DD	0fdfdH
	DD	0fe03H
	DD	0fe09H
	DD	0fe10H
	DD	0fe16H
	DD	0fe1cH
	DD	0fe22H
	DD	0fe28H
	DD	0fe2eH
	DD	0fe34H
	DD	0fe3aH
	DD	0fe40H
	DD	0fe46H
	DD	0fe4bH
	DD	0fe51H
	DD	0fe57H
	DD	0fe5dH
	DD	0fe62H
	DD	0fe68H
	DD	0fe6dH
	DD	0fe73H
	DD	0fe78H
	DD	0fe7eH
	DD	0fe83H
	DD	0fe89H
	DD	0fe8eH
	DD	0fe93H
	DD	0fe99H
	DD	0fe9eH
	DD	0fea3H
	DD	0fea8H
	DD	0feadH
	DD	0feb2H
	DD	0feb7H
	DD	0febcH
	DD	0fec1H
	DD	0fec6H
	DD	0fecbH
	DD	0fed0H
	DD	0fed5H
	DD	0fedaH
	DD	0fedeH
	DD	0fee3H
	DD	0fee8H
	DD	0feecH
	DD	0fef1H
	DD	0fef6H
	DD	0fefaH
	DD	0feffH
	DD	0ff03H
	DD	0ff07H
	DD	0ff0cH
	DD	0ff10H
	DD	0ff14H
	DD	0ff19H
	DD	0ff1dH
	DD	0ff21H
	DD	0ff25H
	DD	0ff29H
	DD	0ff2dH
	DD	0ff31H
	DD	0ff35H
	DD	0ff39H
	DD	0ff3dH
	DD	0ff41H
	DD	0ff45H
	DD	0ff48H
	DD	0ff4cH
	DD	0ff50H
	DD	0ff53H
	DD	0ff57H
	DD	0ff5bH
	DD	0ff5eH
	DD	0ff62H
	DD	0ff65H
	DD	0ff69H
	DD	0ff6cH
	DD	0ff6fH
	DD	0ff73H
	DD	0ff76H
	DD	0ff79H
	DD	0ff7cH
	DD	0ff80H
	DD	0ff83H
	DD	0ff86H
	DD	0ff89H
	DD	0ff8cH
	DD	0ff8fH
	DD	0ff92H
	DD	0ff95H
	DD	0ff97H
	DD	0ff9aH
	DD	0ff9dH
	DD	0ffa0H
	DD	0ffa2H
	DD	0ffa5H
	DD	0ffa8H
	DD	0ffaaH
	DD	0ffadH
	DD	0ffafH
	DD	0ffb2H
	DD	0ffb4H
	DD	0ffb7H
	DD	0ffb9H
	DD	0ffbbH
	DD	0ffbeH
	DD	0ffc0H
	DD	0ffc2H
	DD	0ffc4H
	DD	0ffc6H
	DD	0ffc8H
	DD	0ffcaH
	DD	0ffccH
	DD	0ffceH
	DD	0ffd0H
	DD	0ffd2H
	DD	0ffd4H
	DD	0ffd6H
	DD	0ffd8H
	DD	0ffd9H
	DD	0ffdbH
	DD	0ffddH
	DD	0ffdeH
	DD	0ffe0H
	DD	0ffe1H
	DD	0ffe3H
	DD	0ffe4H
	DD	0ffe6H
	DD	0ffe7H
	DD	0ffe9H
	DD	0ffeaH
	DD	0ffebH
	DD	0ffecH
	DD	0ffeeH
	DD	0ffefH
	DD	0fff0H
	DD	0fff1H
	DD	0fff2H
	DD	0fff3H
	DD	0fff4H
	DD	0fff5H
	DD	0fff6H
	DD	0fff7H
	DD	0fff7H
	DD	0fff8H
	DD	0fff9H
	DD	0fffaH
	DD	0fffaH
	DD	0fffbH
	DD	0fffbH
	DD	0fffcH
	DD	0fffcH
	DD	0fffdH
	DD	0fffdH
	DD	0fffeH
	DD	0fffeH
	DD	0fffeH
	DD	0ffffH
	DD	0ffffH
	DD	0ffffH
	DD	0ffffH
	DD	0ffffH
	DD	0ffffH
	DD	0ffffH
_finetangent DD	0f5d01da0H
	DD	0fc9ac588H
	DD	0fdf678a8H
	DD	0fe8b7b7cH
	DD	0fede43fcH
	DD	0ff12f211H
	DD	0ff376a91H
	DD	0ff522955H
	DD	0ff669d19H
	DD	0ff76c29bH
	DD	0ff83d4c9H
	DD	0ff8ea108H
	DD	0ff97b301H
	DD	0ff9f6cfeH
	DD	0ffa61629H
	DD	0ffabe350H
	DD	0ffb0fc75H
	DD	0ffb58072H
	DD	0ffb98779H
	DD	0ffbd24c2H
	DD	0ffc067c7H
	DD	0ffc35d21H
	DD	0ffc60f2aH
	DD	0ffc8867aH
	DD	0ffcaca43H
	DD	0ffcce093H
	DD	0ffcece92H
	DD	0ffd098a5H
	DD	0ffd24293H
	DD	0ffd3cfa2H
	DD	0ffd542a9H
	DD	0ffd69e22H
	DD	0ffd7e43bH
	DD	0ffd916dcH
	DD	0ffda37b8H
	DD	0ffdb484eH
	DD	0ffdc49f6H
	DD	0ffdd3de1H
	DD	0ffde2521H
	DD	0ffdf00acH
	DD	0ffdfd161H
	DD	0ffe09807H
	DD	0ffe15555H
	DD	0ffe209f0H
	DD	0ffe2b66eH
	DD	0ffe35b57H
	DD	0ffe3f92aH
	DD	0ffe49051H
	DD	0ffe52144H
	DD	0ffe5ac5cH
	DD	0ffe631f3H
	DD	0ffe6b25aH
	DD	0ffe72ddeH
	DD	0ffe7a4c4H
	DD	0ffe8174eH
	DD	0ffe885b8H
	DD	0ffe8f039H
	DD	0ffe95707H
	DD	0ffe9ba52H
	DD	0ffea1a47H
	DD	0ffea7710H
	DD	0ffead0d6H
	DD	0ffeb27bcH
	DD	0ffeb7be7H
	DD	0ffebcd76H
	DD	0ffec1c88H
	DD	0ffec6939H
	DD	0ffecb3a6H
	DD	0ffecfbe6H
	DD	0ffed4213H
	DD	0ffed8643H
	DD	0ffedc88aH
	DD	0ffee08ffH
	DD	0ffee47b2H
	DD	0ffee84b7H
	DD	0ffeec01fH
	DD	0ffeef9faH
	DD	0ffef3257H
	DD	0ffef6944H
	DD	0ffef9ed1H
	DD	0ffefd309H
	DD	0fff005faH
	DD	0fff037aeH
	DD	0fff06833H
	DD	0fff09792H
	DD	0fff0c5d5H
	DD	0fff0f307H
	DD	0fff11f32H
	DD	0fff14a5dH
	DD	0fff17491H
	DD	0fff19dd7H
	DD	0fff1c636H
	DD	0fff1edb6H
	DD	0fff2145fH
	DD	0fff23a36H
	DD	0fff25f43H
	DD	0fff2838bH
	DD	0fff2a716H
	DD	0fff2c9e7H
	DD	0fff2ec07H
	DD	0fff30d78H
	DD	0fff32e41H
	DD	0fff34e66H
	DD	0fff36dedH
	DD	0fff38cdaH
	DD	0fff3ab31H
	DD	0fff3c8f7H
	DD	0fff3e62fH
	DD	0fff402ddH
	DD	0fff41f06H
	DD	0fff43aadH
	DD	0fff455d4H
	DD	0fff47081H
	DD	0fff48ab6H
	DD	0fff4a475H
	DD	0fff4bdc3H
	DD	0fff4d6a2H
	DD	0fff4ef15H
	DD	0fff5071eH
	DD	0fff51ec1H
	DD	0fff53600H
	DD	0fff54cddH
	DD	0fff5635aH
	DD	0fff5797bH
	DD	0fff58f41H
	DD	0fff5a4afH
	DD	0fff5b9c6H
	DD	0fff5ce88H
	DD	0fff5e2f8H
	DD	0fff5f718H
	DD	0fff60ae8H
	DD	0fff61e6cH
	DD	0fff631a5H
	DD	0fff64495H
	DD	0fff6573cH
	DD	0fff6699dH
	DD	0fff67bbaH
	DD	0fff68d93H
	DD	0fff69f2bH
	DD	0fff6b082H
	DD	0fff6c19aH
	DD	0fff6d275H
	DD	0fff6e313H
	DD	0fff6f377H
	DD	0fff703a0H
	DD	0fff71391H
	DD	0fff7234bH
	DD	0fff732ceH
	DD	0fff7421bH
	DD	0fff75135H
	DD	0fff7601bH
	DD	0fff76ed0H
	DD	0fff77d53H
	DD	0fff78ba6H
	DD	0fff799c9H
	DD	0fff7a7bfH
	DD	0fff7b586H
	DD	0fff7c322H
	DD	0fff7d091H
	DD	0fff7ddd6H
	DD	0fff7eaf0H
	DD	0fff7f7e2H
	DD	0fff804aaH
	DD	0fff8114bH
	DD	0fff81dc5H
	DD	0fff82a18H
	DD	0fff83646H
	DD	0fff8424fH
	DD	0fff84e33H
	DD	0fff859f3H
	DD	0fff86591H
	DD	0fff8710cH
	DD	0fff87c65H
	DD	0fff8879dH
	DD	0fff892b4H
	DD	0fff89dabH
	DD	0fff8a882H
	DD	0fff8b33aH
	DD	0fff8bdd4H
	DD	0fff8c84fH
	DD	0fff8d2adH
	DD	0fff8dceeH
	DD	0fff8e713H
	DD	0fff8f11bH
	DD	0fff8fb08H
	DD	0fff904d9H
	DD	0fff90e90H
	DD	0fff9182cH
	DD	0fff921afH
	DD	0fff92b18H
	DD	0fff93467H
	DD	0fff93d9eH
	DD	0fff946bdH
	DD	0fff94fc4H
	DD	0fff958b3H
	DD	0fff9618bH
	DD	0fff96a4cH
	DD	0fff972f7H
	DD	0fff97b8bH
	DD	0fff98409H
	DD	0fff98c72H
	DD	0fff994c6H
	DD	0fff99d05H
	DD	0fff9a52fH
	DD	0fff9ad45H
	DD	0fff9b548H
	DD	0fff9bd36H
	DD	0fff9c511H
	DD	0fff9ccd9H
	DD	0fff9d48eH
	DD	0fff9dc30H
	DD	0fff9e3c0H
	DD	0fff9eb3eH
	DD	0fff9f2aaH
	DD	0fff9fa05H
	DD	0fffa014eH
	DD	0fffa0886H
	DD	0fffa0faeH
	DD	0fffa16c5H
	DD	0fffa1dcbH
	DD	0fffa24c1H
	DD	0fffa2ba8H
	DD	0fffa327eH
	DD	0fffa3945H
	DD	0fffa3ffdH
	DD	0fffa46a6H
	DD	0fffa4d40H
	DD	0fffa53cbH
	DD	0fffa5a47H
	DD	0fffa60b5H
	DD	0fffa6716H
	DD	0fffa6d68H
	DD	0fffa73acH
	DD	0fffa79e3H
	DD	0fffa800cH
	DD	0fffa8628H
	DD	0fffa8c37H
	DD	0fffa9239H
	DD	0fffa982fH
	DD	0fffa9e18H
	DD	0fffaa3f4H
	DD	0fffaa9c4H
	DD	0fffaaf88H
	DD	0fffab540H
	DD	0fffabaecH
	DD	0fffac08cH
	DD	0fffac621H
	DD	0fffacbaaH
	DD	0fffad129H
	DD	0fffad69cH
	DD	0fffadc04H
	DD	0fffae161H
	DD	0fffae6b3H
	DD	0fffaebfbH
	DD	0fffaf138H
	DD	0fffaf66bH
	DD	0fffafb94H
	DD	0fffb00b2H
	DD	0fffb05c7H
	DD	0fffb0ad2H
	DD	0fffb0fd3H
	DD	0fffb14caH
	DD	0fffb19b7H
	DD	0fffb1e9cH
	DD	0fffb2377H
	DD	0fffb2848H
	DD	0fffb2d11H
	DD	0fffb31d0H
	DD	0fffb3687H
	DD	0fffb3b34H
	DD	0fffb3fd9H
	DD	0fffb4476H
	DD	0fffb4909H
	DD	0fffb4d95H
	DD	0fffb5218H
	DD	0fffb5693H
	DD	0fffb5b05H
	DD	0fffb5f70H
	DD	0fffb63d2H
	DD	0fffb682dH
	DD	0fffb6c80H
	DD	0fffb70cbH
	DD	0fffb750eH
	DD	0fffb794aH
	DD	0fffb7d7eH
	DD	0fffb81abH
	DD	0fffb85d1H
	DD	0fffb89efH
	DD	0fffb8e06H
	DD	0fffb9216H
	DD	0fffb961fH
	DD	0fffb9a21H
	DD	0fffb9e1cH
	DD	0fffba210H
	DD	0fffba5feH
	DD	0fffba9e4H
	DD	0fffbadc5H
	DD	0fffbb19eH
	DD	0fffbb571H
	DD	0fffbb93eH
	DD	0fffbbd04H
	DD	0fffbc0c4H
	DD	0fffbc47eH
	DD	0fffbc832H
	DD	0fffbcbdfH
	DD	0fffbcf87H
	DD	0fffbd328H
	DD	0fffbd6c4H
	DD	0fffbda5aH
	DD	0fffbdde9H
	DD	0fffbe173H
	DD	0fffbe4f8H
	DD	0fffbe877H
	DD	0fffbebf0H
	DD	0fffbef63H
	DD	0fffbf2d1H
	DD	0fffbf63aH
	DD	0fffbf99dH
	DD	0fffbfcfbH
	DD	0fffc0054H
	DD	0fffc03a7H
	DD	0fffc06f5H
	DD	0fffc0a3eH
	DD	0fffc0d82H
	DD	0fffc10c1H
	DD	0fffc13fbH
	DD	0fffc1730H
	DD	0fffc1a60H
	DD	0fffc1d8bH
	DD	0fffc20b2H
	DD	0fffc23d3H
	DD	0fffc26f0H
	DD	0fffc2a08H
	DD	0fffc2d1cH
	DD	0fffc302bH
	DD	0fffc3335H
	DD	0fffc363bH
	DD	0fffc393cH
	DD	0fffc3c39H
	DD	0fffc3f32H
	DD	0fffc4226H
	DD	0fffc4516H
	DD	0fffc4801H
	DD	0fffc4ae9H
	DD	0fffc4dccH
	DD	0fffc50abH
	DD	0fffc5385H
	DD	0fffc565cH
	DD	0fffc592eH
	DD	0fffc5bfdH
	DD	0fffc5ec7H
	DD	0fffc618eH
	DD	0fffc6451H
	DD	0fffc670fH
	DD	0fffc69caH
	DD	0fffc6c81H
	DD	0fffc6f34H
	DD	0fffc71e4H
	DD	0fffc7490H
	DD	0fffc7738H
	DD	0fffc79dcH
	DD	0fffc7c7dH
	DD	0fffc7f1aH
	DD	0fffc81b3H
	DD	0fffc8449H
	DD	0fffc86dbH
	DD	0fffc896aH
	DD	0fffc8bf6H
	DD	0fffc8e7eH
	DD	0fffc9102H
	DD	0fffc9383H
	DD	0fffc9601H
	DD	0fffc987cH
	DD	0fffc9af3H
	DD	0fffc9d67H
	DD	0fffc9fd7H
	DD	0fffca245H
	DD	0fffca4afH
	DD	0fffca716H
	DD	0fffca97aH
	DD	0fffcabdbH
	DD	0fffcae38H
	DD	0fffcb093H
	DD	0fffcb2ebH
	DD	0fffcb53fH
	DD	0fffcb791H
	DD	0fffcb9dfH
	DD	0fffcbc2bH
	DD	0fffcbe73H
	DD	0fffcc0b9H
	DD	0fffcc2fcH
	DD	0fffcc53cH
	DD	0fffcc779H
	DD	0fffcc9b3H
	DD	0fffccbebH
	DD	0fffcce20H
	DD	0fffcd051H
	DD	0fffcd281H
	DD	0fffcd4adH
	DD	0fffcd6d7H
	DD	0fffcd8feH
	DD	0fffcdb23H
	DD	0fffcdd44H
	DD	0fffcdf64H
	DD	0fffce180H
	DD	0fffce39aH
	DD	0fffce5b2H
	DD	0fffce7c7H
	DD	0fffce9d9H
	DD	0fffcebe9H
	DD	0fffcedf6H
	DD	0fffcf001H
	DD	0fffcf20aH
	DD	0fffcf410H
	DD	0fffcf613H
	DD	0fffcf814H
	DD	0fffcfa13H
	DD	0fffcfc10H
	DD	0fffcfe0aH
	DD	0fffd0002H
	DD	0fffd01f7H
	DD	0fffd03eaH
	DD	0fffd05dbH
	DD	0fffd07caH
	DD	0fffd09b6H
	DD	0fffd0ba1H
	DD	0fffd0d89H
	DD	0fffd0f6eH
	DD	0fffd1152H
	DD	0fffd1333H
	DD	0fffd1513H
	DD	0fffd16f0H
	DD	0fffd18cbH
	DD	0fffd1aa3H
	DD	0fffd1c7aH
	DD	0fffd1e4fH
	DD	0fffd2022H
	DD	0fffd21f2H
	DD	0fffd23c1H
	DD	0fffd258dH
	DD	0fffd2758H
	DD	0fffd2920H
	DD	0fffd2ae7H
	DD	0fffd2cabH
	DD	0fffd2e6eH
	DD	0fffd302eH
	DD	0fffd31edH
	DD	0fffd33aaH
	DD	0fffd3565H
	DD	0fffd371eH
	DD	0fffd38d5H
	DD	0fffd3a8aH
	DD	0fffd3c3eH
	DD	0fffd3defH
	DD	0fffd3f9fH
	DD	0fffd414dH
	DD	0fffd42f9H
	DD	0fffd44a3H
	DD	0fffd464cH
	DD	0fffd47f2H
	DD	0fffd4997H
	DD	0fffd4b3bH
	DD	0fffd4cdcH
	DD	0fffd4e7cH
	DD	0fffd501aH
	DD	0fffd51b6H
	DD	0fffd5351H
	DD	0fffd54eaH
	DD	0fffd5681H
	DD	0fffd5817H
	DD	0fffd59abH
	DD	0fffd5b3dH
	DD	0fffd5cceH
	DD	0fffd5e5dH
	DD	0fffd5febH
	DD	0fffd6177H
	DD	0fffd6301H
	DD	0fffd648aH
	DD	0fffd6611H
	DD	0fffd6797H
	DD	0fffd691bH
	DD	0fffd6a9dH
	DD	0fffd6c1eH
	DD	0fffd6d9eH
	DD	0fffd6f1cH
	DD	0fffd7098H
	DD	0fffd7213H
	DD	0fffd738dH
	DD	0fffd7505H
	DD	0fffd767bH
	DD	0fffd77f0H
	DD	0fffd7964H
	DD	0fffd7ad6H
	DD	0fffd7c47H
	DD	0fffd7db6H
	DD	0fffd7f24H
	DD	0fffd8091H
	DD	0fffd81fcH
	DD	0fffd8366H
	DD	0fffd84ceH
	DD	0fffd8635H
	DD	0fffd879bH
	DD	0fffd88ffH
	DD	0fffd8a62H
	DD	0fffd8bc4H
	DD	0fffd8d24H
	DD	0fffd8e83H
	DD	0fffd8fe1H
	DD	0fffd913dH
	DD	0fffd9299H
	DD	0fffd93f2H
	DD	0fffd954bH
	DD	0fffd96a2H
	DD	0fffd97f8H
	DD	0fffd994dH
	DD	0fffd9aa0H
	DD	0fffd9bf2H
	DD	0fffd9d43H
	DD	0fffd9e93H
	DD	0fffd9fe2H
	DD	0fffda12fH
	DD	0fffda27bH
	DD	0fffda3c6H
	DD	0fffda510H
	DD	0fffda658H
	DD	0fffda79fH
	DD	0fffda8e6H
	DD	0fffdaa2bH
	DD	0fffdab6eH
	DD	0fffdacb1H
	DD	0fffdadf3H
	DD	0fffdaf33H
	DD	0fffdb072H
	DD	0fffdb1b0H
	DD	0fffdb2edH
	DD	0fffdb429H
	DD	0fffdb564H
	DD	0fffdb69dH
	DD	0fffdb7d6H
	DD	0fffdb90dH
	DD	0fffdba44H
	DD	0fffdbb79H
	DD	0fffdbcadH
	DD	0fffdbde0H
	DD	0fffdbf13H
	DD	0fffdc044H
	DD	0fffdc174H
	DD	0fffdc2a2H
	DD	0fffdc3d0H
	DD	0fffdc4fdH
	DD	0fffdc629H
	DD	0fffdc754H
	DD	0fffdc87eH
	DD	0fffdc9a6H
	DD	0fffdcaceH
	DD	0fffdcbf5H
	DD	0fffdcd1bH
	DD	0fffdce40H
	DD	0fffdcf63H
	DD	0fffdd086H
	DD	0fffdd1a8H
	DD	0fffdd2c9H
	DD	0fffdd3e9H
	DD	0fffdd508H
	DD	0fffdd626H
	DD	0fffdd743H
	DD	0fffdd85fH
	DD	0fffdd97aH
	DD	0fffdda95H
	DD	0fffddbaeH
	DD	0fffddcc6H
	DD	0fffddddeH
	DD	0fffddef4H
	DD	0fffde00aH
	DD	0fffde11fH
	DD	0fffde233H
	DD	0fffde346H
	DD	0fffde458H
	DD	0fffde569H
	DD	0fffde679H
	DD	0fffde789H
	DD	0fffde897H
	DD	0fffde9a5H
	DD	0fffdeab2H
	DD	0fffdebbeH
	DD	0fffdecc9H
	DD	0fffdedd3H
	DD	0fffdeeddH
	DD	0fffdefe5H
	DD	0fffdf0edH
	DD	0fffdf1f4H
	DD	0fffdf2faH
	DD	0fffdf3ffH
	DD	0fffdf504H
	DD	0fffdf607H
	DD	0fffdf70aH
	DD	0fffdf80cH
	DD	0fffdf90dH
	DD	0fffdfa0eH
	DD	0fffdfb0dH
	DD	0fffdfc0cH
	DD	0fffdfd0aH
	DD	0fffdfe08H
	DD	0fffdff04H
	DD	0fffe0000H
	DD	0fffe00fbH
	DD	0fffe01f5H
	DD	0fffe02eeH
	DD	0fffe03e7H
	DD	0fffe04dfH
	DD	0fffe05d6H
	DD	0fffe06ccH
	DD	0fffe07c2H
	DD	0fffe08b7H
	DD	0fffe09abH
	DD	0fffe0a9fH
	DD	0fffe0b91H
	DD	0fffe0c83H
	DD	0fffe0d75H
	DD	0fffe0e65H
	DD	0fffe0f55H
	DD	0fffe1044H
	DD	0fffe1133H
	DD	0fffe1220H
	DD	0fffe130dH
	DD	0fffe13f9H
	DD	0fffe14e5H
	DD	0fffe15d0H
	DD	0fffe16baH
	DD	0fffe17a4H
	DD	0fffe188dH
	DD	0fffe1975H
	DD	0fffe1a5cH
	DD	0fffe1b43H
	DD	0fffe1c29H
	DD	0fffe1d0fH
	DD	0fffe1df4H
	DD	0fffe1ed8H
	DD	0fffe1fbbH
	DD	0fffe209eH
	DD	0fffe2180H
	DD	0fffe2262H
	DD	0fffe2343H
	DD	0fffe2423H
	DD	0fffe2503H
	DD	0fffe25e2H
	DD	0fffe26c0H
	DD	0fffe279eH
	DD	0fffe287bH
	DD	0fffe2957H
	DD	0fffe2a33H
	DD	0fffe2b0eH
	DD	0fffe2be9H
	DD	0fffe2cc3H
	DD	0fffe2d9cH
	DD	0fffe2e75H
	DD	0fffe2f4dH
	DD	0fffe3025H
	DD	0fffe30fcH
	DD	0fffe31d2H
	DD	0fffe32a8H
	DD	0fffe337dH
	DD	0fffe3452H
	DD	0fffe3526H
	DD	0fffe35faH
	DD	0fffe36ccH
	DD	0fffe379fH
	DD	0fffe3871H
	DD	0fffe3942H
	DD	0fffe3a12H
	DD	0fffe3ae2H
	DD	0fffe3bb2H
	DD	0fffe3c81H
	DD	0fffe3d4fH
	DD	0fffe3e1dH
	DD	0fffe3eeaH
	DD	0fffe3fb7H
	DD	0fffe4083H
	DD	0fffe414eH
	DD	0fffe4219H
	DD	0fffe42e4H
	DD	0fffe43aeH
	DD	0fffe4477H
	DD	0fffe4540H
	DD	0fffe4609H
	DD	0fffe46d0H
	DD	0fffe4798H
	DD	0fffe485eH
	DD	0fffe4925H
	DD	0fffe49eaH
	DD	0fffe4ab0H
	DD	0fffe4b74H
	DD	0fffe4c38H
	DD	0fffe4cfcH
	DD	0fffe4dbfH
	DD	0fffe4e82H
	DD	0fffe4f44H
	DD	0fffe5006H
	DD	0fffe50c7H
	DD	0fffe5188H
	DD	0fffe5248H
	DD	0fffe5307H
	DD	0fffe53c6H
	DD	0fffe5485H
	DD	0fffe5543H
	DD	0fffe5601H
	DD	0fffe56beH
	DD	0fffe577bH
	DD	0fffe5837H
	DD	0fffe58f3H
	DD	0fffe59aeH
	DD	0fffe5a69H
	DD	0fffe5b23H
	DD	0fffe5bddH
	DD	0fffe5c97H
	DD	0fffe5d50H
	DD	0fffe5e08H
	DD	0fffe5ec0H
	DD	0fffe5f78H
	DD	0fffe602fH
	DD	0fffe60e6H
	DD	0fffe619cH
	DD	0fffe6252H
	DD	0fffe6307H
	DD	0fffe63bcH
	DD	0fffe6470H
	DD	0fffe6524H
	DD	0fffe65d8H
	DD	0fffe668bH
	DD	0fffe673dH
	DD	0fffe67efH
	DD	0fffe68a1H
	DD	0fffe6953H
	DD	0fffe6a03H
	DD	0fffe6ab4H
	DD	0fffe6b64H
	DD	0fffe6c14H
	DD	0fffe6cc3H
	DD	0fffe6d72H
	DD	0fffe6e20H
	DD	0fffe6eceH
	DD	0fffe6f7bH
	DD	0fffe7028H
	DD	0fffe70d5H
	DD	0fffe7181H
	DD	0fffe722dH
	DD	0fffe72d9H
	DD	0fffe7384H
	DD	0fffe742eH
	DD	0fffe74d9H
	DD	0fffe7582H
	DD	0fffe762cH
	DD	0fffe76d5H
	DD	0fffe777eH
	DD	0fffe7826H
	DD	0fffe78ceH
	DD	0fffe7975H
	DD	0fffe7a1cH
	DD	0fffe7ac3H
	DD	0fffe7b69H
	DD	0fffe7c0fH
	DD	0fffe7cb4H
	DD	0fffe7d5aH
	DD	0fffe7dfeH
	DD	0fffe7ea3H
	DD	0fffe7f47H
	DD	0fffe7feaH
	DD	0fffe808dH
	DD	0fffe8130H
	DD	0fffe81d3H
	DD	0fffe8275H
	DD	0fffe8317H
	DD	0fffe83b8H
	DD	0fffe8459H
	DD	0fffe84faH
	DD	0fffe859aH
	DD	0fffe863aH
	DD	0fffe86d9H
	DD	0fffe8779H
	DD	0fffe8817H
	DD	0fffe88b6H
	DD	0fffe8954H
	DD	0fffe89f2H
	DD	0fffe8a8fH
	DD	0fffe8b2cH
	DD	0fffe8bc9H
	DD	0fffe8c65H
	DD	0fffe8d01H
	DD	0fffe8d9dH
	DD	0fffe8e38H
	DD	0fffe8ed3H
	DD	0fffe8f6eH
	DD	0fffe9008H
	DD	0fffe90a2H
	DD	0fffe913cH
	DD	0fffe91d5H
	DD	0fffe926eH
	DD	0fffe9306H
	DD	0fffe939fH
	DD	0fffe9437H
	DD	0fffe94ceH
	DD	0fffe9566H
	DD	0fffe95fdH
	DD	0fffe9693H
	DD	0fffe9729H
	DD	0fffe97bfH
	DD	0fffe9855H
	DD	0fffe98eaH
	DD	0fffe997fH
	DD	0fffe9a14H
	DD	0fffe9aa8H
	DD	0fffe9b3cH
	DD	0fffe9bd0H
	DD	0fffe9c64H
	DD	0fffe9cf7H
	DD	0fffe9d8aH
	DD	0fffe9e1cH
	DD	0fffe9eaeH
	DD	0fffe9f40H
	DD	0fffe9fd2H
	DD	0fffea063H
	DD	0fffea0f4H
	DD	0fffea184H
	DD	0fffea215H
	DD	0fffea2a5H
	DD	0fffea334H
	DD	0fffea3c4H
	DD	0fffea453H
	DD	0fffea4e2H
	DD	0fffea570H
	DD	0fffea5ffH
	DD	0fffea68dH
	DD	0fffea71aH
	DD	0fffea7a8H
	DD	0fffea835H
	DD	0fffea8c1H
	DD	0fffea94eH
	DD	0fffea9daH
	DD	0fffeaa66H
	DD	0fffeaaf2H
	DD	0fffeab7dH
	DD	0fffeac08H
	DD	0fffeac93H
	DD	0fffead1dH
	DD	0fffeada8H
	DD	0fffeae31H
	DD	0fffeaebbH
	DD	0fffeaf44H
	DD	0fffeafceH
	DD	0fffeb056H
	DD	0fffeb0dfH
	DD	0fffeb167H
	DD	0fffeb1efH
	DD	0fffeb277H
	DD	0fffeb2feH
	DD	0fffeb386H
	DD	0fffeb40cH
	DD	0fffeb493H
	DD	0fffeb51aH
	DD	0fffeb5a0H
	DD	0fffeb625H
	DD	0fffeb6abH
	DD	0fffeb730H
	DD	0fffeb7b5H
	DD	0fffeb83aH
	DD	0fffeb8bfH
	DD	0fffeb943H
	DD	0fffeb9c7H
	DD	0fffeba4bH
	DD	0fffebaceH
	DD	0fffebb52H
	DD	0fffebbd5H
	DD	0fffebc57H
	DD	0fffebcdaH
	DD	0fffebd5cH
	DD	0fffebddeH
	DD	0fffebe60H
	DD	0fffebee1H
	DD	0fffebf62H
	DD	0fffebfe3H
	DD	0fffec064H
	DD	0fffec0e5H
	DD	0fffec165H
	DD	0fffec1e5H
	DD	0fffec265H
	DD	0fffec2e4H
	DD	0fffec363H
	DD	0fffec3e3H
	DD	0fffec461H
	DD	0fffec4e0H
	DD	0fffec55eH
	DD	0fffec5dcH
	DD	0fffec65aH
	DD	0fffec6d8H
	DD	0fffec755H
	DD	0fffec7d2H
	DD	0fffec84fH
	DD	0fffec8ccH
	DD	0fffec948H
	DD	0fffec9c4H
	DD	0fffeca40H
	DD	0fffecabcH
	DD	0fffecb38H
	DD	0fffecbb3H
	DD	0fffecc2eH
	DD	0fffecca9H
	DD	0fffecd23H
	DD	0fffecd9eH
	DD	0fffece18H
	DD	0fffece92H
	DD	0fffecf0cH
	DD	0fffecf85H
	DD	0fffecffeH
	DD	0fffed077H
	DD	0fffed0f0H
	DD	0fffed169H
	DD	0fffed1e1H
	DD	0fffed259H
	DD	0fffed2d1H
	DD	0fffed349H
	DD	0fffed3c0H
	DD	0fffed438H
	DD	0fffed4afH
	DD	0fffed526H
	DD	0fffed59cH
	DD	0fffed613H
	DD	0fffed689H
	DD	0fffed6ffH
	DD	0fffed775H
	DD	0fffed7ebH
	DD	0fffed860H
	DD	0fffed8d5H
	DD	0fffed94aH
	DD	0fffed9bfH
	DD	0fffeda33H
	DD	0fffedaa8H
	DD	0fffedb1cH
	DD	0fffedb90H
	DD	0fffedc04H
	DD	0fffedc77H
	DD	0fffedcebH
	DD	0fffedd5eH
	DD	0fffeddd1H
	DD	0fffede44H
	DD	0fffedeb6H
	DD	0fffedf28H
	DD	0fffedf9bH
	DD	0fffee00dH
	DD	0fffee07eH
	DD	0fffee0f0H
	DD	0fffee161H
	DD	0fffee1d2H
	DD	0fffee243H
	DD	0fffee2b4H
	DD	0fffee325H
	DD	0fffee395H
	DD	0fffee405H
	DD	0fffee475H
	DD	0fffee4e5H
	DD	0fffee555H
	DD	0fffee5c4H
	DD	0fffee634H
	DD	0fffee6a3H
	DD	0fffee712H
	DD	0fffee780H
	DD	0fffee7efH
	DD	0fffee85dH
	DD	0fffee8cbH
	DD	0fffee939H
	DD	0fffee9a7H
	DD	0fffeea15H
	DD	0fffeea82H
	DD	0fffeeaefH
	DD	0fffeeb5cH
	DD	0fffeebc9H
	DD	0fffeec36H
	DD	0fffeeca2H
	DD	0fffeed0fH
	DD	0fffeed7bH
	DD	0fffeede7H
	DD	0fffeee53H
	DD	0fffeeebeH
	DD	0fffeef2aH
	DD	0fffeef95H
	DD	0fffef000H
	DD	0fffef06bH
	DD	0fffef0d6H
	DD	0fffef140H
	DD	0fffef1abH
	DD	0fffef215H
	DD	0fffef27fH
	DD	0fffef2e9H
	DD	0fffef353H
	DD	0fffef3bcH
	DD	0fffef426H
	DD	0fffef48fH
	DD	0fffef4f8H
	DD	0fffef561H
	DD	0fffef5c9H
	DD	0fffef632H
	DD	0fffef69aH
	DD	0fffef703H
	DD	0fffef76bH
	DD	0fffef7d3H
	DD	0fffef83aH
	DD	0fffef8a2H
	DD	0fffef909H
	DD	0fffef970H
	DD	0fffef9d7H
	DD	0fffefa3eH
	DD	0fffefaa5H
	DD	0fffefb0cH
	DD	0fffefb72H
	DD	0fffefbd8H
	DD	0fffefc3eH
	DD	0fffefca4H
	DD	0fffefd0aH
	DD	0fffefd70H
	DD	0fffefdd5H
	DD	0fffefe3bH
	DD	0fffefea0H
	DD	0fffeff05H
	DD	0fffeff6aH
	DD	0fffeffceH
	DD	0ffff0033H
	DD	0ffff0097H
	DD	0ffff00fbH
	DD	0ffff015fH
	DD	0ffff01c3H
	DD	0ffff0227H
	DD	0ffff028bH
	DD	0ffff02eeH
	DD	0ffff0351H
	DD	0ffff03b5H
	DD	0ffff0418H
	DD	0ffff047bH
	DD	0ffff04ddH
	DD	0ffff0540H
	DD	0ffff05a2H
	DD	0ffff0604H
	DD	0ffff0667H
	DD	0ffff06c9H
	DD	0ffff072aH
	DD	0ffff078cH
	DD	0ffff07eeH
	DD	0ffff084fH
	DD	0ffff08b0H
	DD	0ffff0911H
	DD	0ffff0972H
	DD	0ffff09d3H
	DD	0ffff0a34H
	DD	0ffff0a94H
	DD	0ffff0af5H
	DD	0ffff0b55H
	DD	0ffff0bb5H
	DD	0ffff0c15H
	DD	0ffff0c75H
	DD	0ffff0cd5H
	DD	0ffff0d34H
	DD	0ffff0d94H
	DD	0ffff0df3H
	DD	0ffff0e52H
	DD	0ffff0eb1H
	DD	0ffff0f10H
	DD	0ffff0f6fH
	DD	0ffff0fcdH
	DD	0ffff102cH
	DD	0ffff108aH
	DD	0ffff10e8H
	DD	0ffff1146H
	DD	0ffff11a4H
	DD	0ffff1202H
	DD	0ffff125fH
	DD	0ffff12bdH
	DD	0ffff131aH
	DD	0ffff1378H
	DD	0ffff13d5H
	DD	0ffff1432H
	DD	0ffff148fH
	DD	0ffff14ebH
	DD	0ffff1548H
	DD	0ffff15a4H
	DD	0ffff1601H
	DD	0ffff165dH
	DD	0ffff16b9H
	DD	0ffff1715H
	DD	0ffff1771H
	DD	0ffff17ccH
	DD	0ffff1828H
	DD	0ffff1883H
	DD	0ffff18dfH
	DD	0ffff193aH
	DD	0ffff1995H
	DD	0ffff19f0H
	DD	0ffff1a4bH
	DD	0ffff1aa5H
	DD	0ffff1b00H
	DD	0ffff1b5aH
	DD	0ffff1bb5H
	DD	0ffff1c0fH
	DD	0ffff1c69H
	DD	0ffff1cc3H
	DD	0ffff1d1dH
	DD	0ffff1d76H
	DD	0ffff1dd0H
	DD	0ffff1e29H
	DD	0ffff1e83H
	DD	0ffff1edcH
	DD	0ffff1f35H
	DD	0ffff1f8eH
	DD	0ffff1fe7H
	DD	0ffff203fH
	DD	0ffff2098H
	DD	0ffff20f0H
	DD	0ffff2149H
	DD	0ffff21a1H
	DD	0ffff21f9H
	DD	0ffff2251H
	DD	0ffff22a9H
	DD	0ffff2301H
	DD	0ffff2359H
	DD	0ffff23b0H
	DD	0ffff2408H
	DD	0ffff245fH
	DD	0ffff24b6H
	DD	0ffff250dH
	DD	0ffff2564H
	DD	0ffff25bbH
	DD	0ffff2612H
	DD	0ffff2668H
	DD	0ffff26bfH
	DD	0ffff2715H
	DD	0ffff276cH
	DD	0ffff27c2H
	DD	0ffff2818H
	DD	0ffff286eH
	DD	0ffff28c4H
	DD	0ffff2919H
	DD	0ffff296fH
	DD	0ffff29c5H
	DD	0ffff2a1aH
	DD	0ffff2a6fH
	DD	0ffff2ac5H
	DD	0ffff2b1aH
	DD	0ffff2b6fH
	DD	0ffff2bc3H
	DD	0ffff2c18H
	DD	0ffff2c6dH
	DD	0ffff2cc1H
	DD	0ffff2d16H
	DD	0ffff2d6aH
	DD	0ffff2dbeH
	DD	0ffff2e13H
	DD	0ffff2e67H
	DD	0ffff2ebaH
	DD	0ffff2f0eH
	DD	0ffff2f62H
	DD	0ffff2fb6H
	DD	0ffff3009H
	DD	0ffff305cH
	DD	0ffff30b0H
	DD	0ffff3103H
	DD	0ffff3156H
	DD	0ffff31a9H
	DD	0ffff31fcH
	DD	0ffff324fH
	DD	0ffff32a1H
	DD	0ffff32f4H
	DD	0ffff3346H
	DD	0ffff3399H
	DD	0ffff33ebH
	DD	0ffff343dH
	DD	0ffff348fH
	DD	0ffff34e1H
	DD	0ffff3533H
	DD	0ffff3585H
	DD	0ffff35d6H
	DD	0ffff3628H
	DD	0ffff3679H
	DD	0ffff36cbH
	DD	0ffff371cH
	DD	0ffff376dH
	DD	0ffff37beH
	DD	0ffff380fH
	DD	0ffff3860H
	DD	0ffff38b1H
	DD	0ffff3902H
	DD	0ffff3952H
	DD	0ffff39a3H
	DD	0ffff39f3H
	DD	0ffff3a43H
	DD	0ffff3a94H
	DD	0ffff3ae4H
	DD	0ffff3b34H
	DD	0ffff3b84H
	DD	0ffff3bd3H
	DD	0ffff3c23H
	DD	0ffff3c73H
	DD	0ffff3cc2H
	DD	0ffff3d12H
	DD	0ffff3d61H
	DD	0ffff3db0H
	DD	0ffff3e00H
	DD	0ffff3e4fH
	DD	0ffff3e9eH
	DD	0ffff3eedH
	DD	0ffff3f3bH
	DD	0ffff3f8aH
	DD	0ffff3fd9H
	DD	0ffff4027H
	DD	0ffff4076H
	DD	0ffff40c4H
	DD	0ffff4112H
	DD	0ffff4161H
	DD	0ffff41afH
	DD	0ffff41fdH
	DD	0ffff424bH
	DD	0ffff4298H
	DD	0ffff42e6H
	DD	0ffff4334H
	DD	0ffff4381H
	DD	0ffff43cfH
	DD	0ffff441cH
	DD	0ffff446aH
	DD	0ffff44b7H
	DD	0ffff4504H
	DD	0ffff4551H
	DD	0ffff459eH
	DD	0ffff45ebH
	DD	0ffff4638H
	DD	0ffff4684H
	DD	0ffff46d1H
	DD	0ffff471dH
	DD	0ffff476aH
	DD	0ffff47b6H
	DD	0ffff4802H
	DD	0ffff484fH
	DD	0ffff489bH
	DD	0ffff48e7H
	DD	0ffff4933H
	DD	0ffff497fH
	DD	0ffff49caH
	DD	0ffff4a16H
	DD	0ffff4a62H
	DD	0ffff4aadH
	DD	0ffff4af9H
	DD	0ffff4b44H
	DD	0ffff4b8fH
	DD	0ffff4bdaH
	DD	0ffff4c26H
	DD	0ffff4c71H
	DD	0ffff4cbcH
	DD	0ffff4d06H
	DD	0ffff4d51H
	DD	0ffff4d9cH
	DD	0ffff4de7H
	DD	0ffff4e31H
	DD	0ffff4e7cH
	DD	0ffff4ec6H
	DD	0ffff4f10H
	DD	0ffff4f5bH
	DD	0ffff4fa5H
	DD	0ffff4fefH
	DD	0ffff5039H
	DD	0ffff5083H
	DD	0ffff50cdH
	DD	0ffff5116H
	DD	0ffff5160H
	DD	0ffff51aaH
	DD	0ffff51f3H
	DD	0ffff523dH
	DD	0ffff5286H
	DD	0ffff52cfH
	DD	0ffff5319H
	DD	0ffff5362H
	DD	0ffff53abH
	DD	0ffff53f4H
	DD	0ffff543dH
	DD	0ffff5486H
	DD	0ffff54ceH
	DD	0ffff5517H
	DD	0ffff5560H
	DD	0ffff55a8H
	DD	0ffff55f1H
	DD	0ffff5639H
	DD	0ffff5682H
	DD	0ffff56caH
	DD	0ffff5712H
	DD	0ffff575aH
	DD	0ffff57a2H
	DD	0ffff57eaH
	DD	0ffff5832H
	DD	0ffff587aH
	DD	0ffff58c2H
	DD	0ffff5909H
	DD	0ffff5951H
	DD	0ffff5998H
	DD	0ffff59e0H
	DD	0ffff5a27H
	DD	0ffff5a6fH
	DD	0ffff5ab6H
	DD	0ffff5afdH
	DD	0ffff5b44H
	DD	0ffff5b8bH
	DD	0ffff5bd2H
	DD	0ffff5c19H
	DD	0ffff5c60H
	DD	0ffff5ca7H
	DD	0ffff5cedH
	DD	0ffff5d34H
	DD	0ffff5d7bH
	DD	0ffff5dc1H
	DD	0ffff5e07H
	DD	0ffff5e4eH
	DD	0ffff5e94H
	DD	0ffff5edaH
	DD	0ffff5f20H
	DD	0ffff5f67H
	DD	0ffff5fadH
	DD	0ffff5ff3H
	DD	0ffff6038H
	DD	0ffff607eH
	DD	0ffff60c4H
	DD	0ffff610aH
	DD	0ffff614fH
	DD	0ffff6195H
	DD	0ffff61daH
	DD	0ffff6220H
	DD	0ffff6265H
	DD	0ffff62aaH
	DD	0ffff62f0H
	DD	0ffff6335H
	DD	0ffff637aH
	DD	0ffff63bfH
	DD	0ffff6404H
	DD	0ffff6449H
	DD	0ffff648eH
	DD	0ffff64d2H
	DD	0ffff6517H
	DD	0ffff655cH
	DD	0ffff65a0H
	DD	0ffff65e5H
	DD	0ffff6629H
	DD	0ffff666eH
	DD	0ffff66b2H
	DD	0ffff66f6H
	DD	0ffff673aH
	DD	0ffff677eH
	DD	0ffff67c3H
	DD	0ffff6807H
	DD	0ffff684bH
	DD	0ffff688eH
	DD	0ffff68d2H
	DD	0ffff6916H
	DD	0ffff695aH
	DD	0ffff699dH
	DD	0ffff69e1H
	DD	0ffff6a24H
	DD	0ffff6a68H
	DD	0ffff6aabH
	DD	0ffff6aefH
	DD	0ffff6b32H
	DD	0ffff6b75H
	DD	0ffff6bb8H
	DD	0ffff6bfbH
	DD	0ffff6c3eH
	DD	0ffff6c81H
	DD	0ffff6cc4H
	DD	0ffff6d07H
	DD	0ffff6d4aH
	DD	0ffff6d8dH
	DD	0ffff6dcfH
	DD	0ffff6e12H
	DD	0ffff6e55H
	DD	0ffff6e97H
	DD	0ffff6edaH
	DD	0ffff6f1cH
	DD	0ffff6f5eH
	DD	0ffff6fa1H
	DD	0ffff6fe3H
	DD	0ffff7025H
	DD	0ffff7067H
	DD	0ffff70a9H
	DD	0ffff70ebH
	DD	0ffff712dH
	DD	0ffff716fH
	DD	0ffff71b1H
	DD	0ffff71f3H
	DD	0ffff7234H
	DD	0ffff7276H
	DD	0ffff72b8H
	DD	0ffff72f9H
	DD	0ffff733bH
	DD	0ffff737cH
	DD	0ffff73bdH
	DD	0ffff73ffH
	DD	0ffff7440H
	DD	0ffff7481H
	DD	0ffff74c2H
	DD	0ffff7504H
	DD	0ffff7545H
	DD	0ffff7586H
	DD	0ffff75c7H
	DD	0ffff7607H
	DD	0ffff7648H
	DD	0ffff7689H
	DD	0ffff76caH
	DD	0ffff770aH
	DD	0ffff774bH
	DD	0ffff778cH
	DD	0ffff77ccH
	DD	0ffff780dH
	DD	0ffff784dH
	DD	0ffff788dH
	DD	0ffff78ceH
	DD	0ffff790eH
	DD	0ffff794eH
	DD	0ffff798eH
	DD	0ffff79ceH
	DD	0ffff7a0fH
	DD	0ffff7a4fH
	DD	0ffff7a8eH
	DD	0ffff7aceH
	DD	0ffff7b0eH
	DD	0ffff7b4eH
	DD	0ffff7b8eH
	DD	0ffff7bcdH
	DD	0ffff7c0dH
	DD	0ffff7c4dH
	DD	0ffff7c8cH
	DD	0ffff7cccH
	DD	0ffff7d0bH
	DD	0ffff7d4bH
	DD	0ffff7d8aH
	DD	0ffff7dc9H
	DD	0ffff7e08H
	DD	0ffff7e48H
	DD	0ffff7e87H
	DD	0ffff7ec6H
	DD	0ffff7f05H
	DD	0ffff7f44H
	DD	0ffff7f83H
	DD	0ffff7fc2H
	DD	0ffff8001H
	DD	0ffff803fH
	DD	0ffff807eH
	DD	0ffff80bdH
	DD	0ffff80fcH
	DD	0ffff813aH
	DD	0ffff8179H
	DD	0ffff81b7H
	DD	0ffff81f6H
	DD	0ffff8234H
	DD	0ffff8273H
	DD	0ffff82b1H
	DD	0ffff82efH
	DD	0ffff832dH
	DD	0ffff836cH
	DD	0ffff83aaH
	DD	0ffff83e8H
	DD	0ffff8426H
	DD	0ffff8464H
	DD	0ffff84a2H
	DD	0ffff84e0H
	DD	0ffff851eH
	DD	0ffff855cH
	DD	0ffff8599H
	DD	0ffff85d7H
	DD	0ffff8615H
	DD	0ffff8652H
	DD	0ffff8690H
	DD	0ffff86ceH
	DD	0ffff870bH
	DD	0ffff8748H
	DD	0ffff8786H
	DD	0ffff87c3H
	DD	0ffff8801H
	DD	0ffff883eH
	DD	0ffff887bH
	DD	0ffff88b8H
	DD	0ffff88f6H
	DD	0ffff8933H
	DD	0ffff8970H
	DD	0ffff89adH
	DD	0ffff89eaH
	DD	0ffff8a27H
	DD	0ffff8a64H
	DD	0ffff8aa0H
	DD	0ffff8addH
	DD	0ffff8b1aH
	DD	0ffff8b57H
	DD	0ffff8b93H
	DD	0ffff8bd0H
	DD	0ffff8c0dH
	DD	0ffff8c49H
	DD	0ffff8c86H
	DD	0ffff8cc2H
	DD	0ffff8cffH
	DD	0ffff8d3bH
	DD	0ffff8d77H
	DD	0ffff8db4H
	DD	0ffff8df0H
	DD	0ffff8e2cH
	DD	0ffff8e68H
	DD	0ffff8ea4H
	DD	0ffff8ee1H
	DD	0ffff8f1dH
	DD	0ffff8f59H
	DD	0ffff8f95H
	DD	0ffff8fd1H
	DD	0ffff900cH
	DD	0ffff9048H
	DD	0ffff9084H
	DD	0ffff90c0H
	DD	0ffff90fcH
	DD	0ffff9137H
	DD	0ffff9173H
	DD	0ffff91afH
	DD	0ffff91eaH
	DD	0ffff9226H
	DD	0ffff9261H
	DD	0ffff929dH
	DD	0ffff92d8H
	DD	0ffff9314H
	DD	0ffff934fH
	DD	0ffff938aH
	DD	0ffff93c5H
	DD	0ffff9401H
	DD	0ffff943cH
	DD	0ffff9477H
	DD	0ffff94b2H
	DD	0ffff94edH
	DD	0ffff9528H
	DD	0ffff9563H
	DD	0ffff959eH
	DD	0ffff95d9H
	DD	0ffff9614H
	DD	0ffff964fH
	DD	0ffff968aH
	DD	0ffff96c4H
	DD	0ffff96ffH
	DD	0ffff973aH
	DD	0ffff9775H
	DD	0ffff97afH
	DD	0ffff97eaH
	DD	0ffff9824H
	DD	0ffff985fH
	DD	0ffff9899H
	DD	0ffff98d4H
	DD	0ffff990eH
	DD	0ffff9949H
	DD	0ffff9983H
	DD	0ffff99bdH
	DD	0ffff99f8H
	DD	0ffff9a32H
	DD	0ffff9a6cH
	DD	0ffff9aa6H
	DD	0ffff9ae0H
	DD	0ffff9b1aH
	DD	0ffff9b54H
	DD	0ffff9b8eH
	DD	0ffff9bc8H
	DD	0ffff9c02H
	DD	0ffff9c3cH
	DD	0ffff9c76H
	DD	0ffff9cb0H
	DD	0ffff9ceaH
	DD	0ffff9d24H
	DD	0ffff9d5dH
	DD	0ffff9d97H
	DD	0ffff9dd1H
	DD	0ffff9e0aH
	DD	0ffff9e44H
	DD	0ffff9e7eH
	DD	0ffff9eb7H
	DD	0ffff9ef1H
	DD	0ffff9f2aH
	DD	0ffff9f64H
	DD	0ffff9f9dH
	DD	0ffff9fd6H
	DD	0ffffa010H
	DD	0ffffa049H
	DD	0ffffa082H
	DD	0ffffa0bbH
	DD	0ffffa0f5H
	DD	0ffffa12eH
	DD	0ffffa167H
	DD	0ffffa1a0H
	DD	0ffffa1d9H
	DD	0ffffa212H
	DD	0ffffa24bH
	DD	0ffffa284H
	DD	0ffffa2bdH
	DD	0ffffa2f6H
	DD	0ffffa32fH
	DD	0ffffa368H
	DD	0ffffa3a1H
	DD	0ffffa3d9H
	DD	0ffffa412H
	DD	0ffffa44bH
	DD	0ffffa484H
	DD	0ffffa4bcH
	DD	0ffffa4f5H
	DD	0ffffa52eH
	DD	0ffffa566H
	DD	0ffffa59fH
	DD	0ffffa5d7H
	DD	0ffffa610H
	DD	0ffffa648H
	DD	0ffffa681H
	DD	0ffffa6b9H
	DD	0ffffa6f1H
	DD	0ffffa72aH
	DD	0ffffa762H
	DD	0ffffa79aH
	DD	0ffffa7d3H
	DD	0ffffa80bH
	DD	0ffffa843H
	DD	0ffffa87bH
	DD	0ffffa8b3H
	DD	0ffffa8ebH
	DD	0ffffa923H
	DD	0ffffa95bH
	DD	0ffffa993H
	DD	0ffffa9cbH
	DD	0ffffaa03H
	DD	0ffffaa3bH
	DD	0ffffaa73H
	DD	0ffffaaabH
	DD	0ffffaae3H
	DD	0ffffab1bH
	DD	0ffffab52H
	DD	0ffffab8aH
	DD	0ffffabc2H
	DD	0ffffabfaH
	DD	0ffffac31H
	DD	0ffffac69H
	DD	0ffffaca1H
	DD	0ffffacd8H
	DD	0ffffad10H
	DD	0ffffad47H
	DD	0ffffad7fH
	DD	0ffffadb6H
	DD	0ffffadeeH
	DD	0ffffae25H
	DD	0ffffae5cH
	DD	0ffffae94H
	DD	0ffffaecbH
	DD	0ffffaf02H
	DD	0ffffaf3aH
	DD	0ffffaf71H
	DD	0ffffafa8H
	DD	0ffffafdfH
	DD	0ffffb017H
	DD	0ffffb04eH
	DD	0ffffb085H
	DD	0ffffb0bcH
	DD	0ffffb0f3H
	DD	0ffffb12aH
	DD	0ffffb161H
	DD	0ffffb198H
	DD	0ffffb1cfH
	DD	0ffffb206H
	DD	0ffffb23dH
	DD	0ffffb274H
	DD	0ffffb2abH
	DD	0ffffb2e2H
	DD	0ffffb318H
	DD	0ffffb34fH
	DD	0ffffb386H
	DD	0ffffb3bdH
	DD	0ffffb3f3H
	DD	0ffffb42aH
	DD	0ffffb461H
	DD	0ffffb497H
	DD	0ffffb4ceH
	DD	0ffffb505H
	DD	0ffffb53bH
	DD	0ffffb572H
	DD	0ffffb5a8H
	DD	0ffffb5dfH
	DD	0ffffb615H
	DD	0ffffb64cH
	DD	0ffffb682H
	DD	0ffffb6b8H
	DD	0ffffb6efH
	DD	0ffffb725H
	DD	0ffffb75bH
	DD	0ffffb792H
	DD	0ffffb7c8H
	DD	0ffffb7feH
	DD	0ffffb834H
	DD	0ffffb86bH
	DD	0ffffb8a1H
	DD	0ffffb8d7H
	DD	0ffffb90dH
	DD	0ffffb943H
	DD	0ffffb979H
	DD	0ffffb9afH
	DD	0ffffb9e6H
	DD	0ffffba1cH
	DD	0ffffba52H
	DD	0ffffba88H
	DD	0ffffbabdH
	DD	0ffffbaf3H
	DD	0ffffbb29H
	DD	0ffffbb5fH
	DD	0ffffbb95H
	DD	0ffffbbcbH
	DD	0ffffbc01H
	DD	0ffffbc37H
	DD	0ffffbc6cH
	DD	0ffffbca2H
	DD	0ffffbcd8H
	DD	0ffffbd0eH
	DD	0ffffbd43H
	DD	0ffffbd79H
	DD	0ffffbdafH
	DD	0ffffbde4H
	DD	0ffffbe1aH
	DD	0ffffbe4fH
	DD	0ffffbe85H
	DD	0ffffbebaH
	DD	0ffffbef0H
	DD	0ffffbf25H
	DD	0ffffbf5bH
	DD	0ffffbf90H
	DD	0ffffbfc6H
	DD	0ffffbffbH
	DD	0ffffc031H
	DD	0ffffc066H
	DD	0ffffc09bH
	DD	0ffffc0d1H
	DD	0ffffc106H
	DD	0ffffc13bH
	DD	0ffffc171H
	DD	0ffffc1a6H
	DD	0ffffc1dbH
	DD	0ffffc210H
	DD	0ffffc246H
	DD	0ffffc27bH
	DD	0ffffc2b0H
	DD	0ffffc2e5H
	DD	0ffffc31aH
	DD	0ffffc34fH
	DD	0ffffc384H
	DD	0ffffc3b9H
	DD	0ffffc3eeH
	DD	0ffffc423H
	DD	0ffffc458H
	DD	0ffffc48dH
	DD	0ffffc4c2H
	DD	0ffffc4f7H
	DD	0ffffc52cH
	DD	0ffffc561H
	DD	0ffffc596H
	DD	0ffffc5cbH
	DD	0ffffc600H
	DD	0ffffc635H
	DD	0ffffc669H
	DD	0ffffc69eH
	DD	0ffffc6d3H
	DD	0ffffc708H
	DD	0ffffc73dH
	DD	0ffffc771H
	DD	0ffffc7a6H
	DD	0ffffc7dbH
	DD	0ffffc80fH
	DD	0ffffc844H
	DD	0ffffc879H
	DD	0ffffc8adH
	DD	0ffffc8e2H
	DD	0ffffc917H
	DD	0ffffc94bH
	DD	0ffffc980H
	DD	0ffffc9b4H
	DD	0ffffc9e9H
	DD	0ffffca1dH
	DD	0ffffca52H
	DD	0ffffca86H
	DD	0ffffcabbH
	DD	0ffffcaefH
	DD	0ffffcb23H
	DD	0ffffcb58H
	DD	0ffffcb8cH
	DD	0ffffcbc1H
	DD	0ffffcbf5H
	DD	0ffffcc29H
	DD	0ffffcc5eH
	DD	0ffffcc92H
	DD	0ffffccc6H
	DD	0ffffccfaH
	DD	0ffffcd2fH
	DD	0ffffcd63H
	DD	0ffffcd97H
	DD	0ffffcdcbH
	DD	0ffffce00H
	DD	0ffffce34H
	DD	0ffffce68H
	DD	0ffffce9cH
	DD	0ffffced0H
	DD	0ffffcf04H
	DD	0ffffcf38H
	DD	0ffffcf6cH
	DD	0ffffcfa1H
	DD	0ffffcfd5H
	DD	0ffffd009H
	DD	0ffffd03dH
	DD	0ffffd071H
	DD	0ffffd0a5H
	DD	0ffffd0d9H
	DD	0ffffd10dH
	DD	0ffffd141H
	DD	0ffffd174H
	DD	0ffffd1a8H
	DD	0ffffd1dcH
	DD	0ffffd210H
	DD	0ffffd244H
	DD	0ffffd278H
	DD	0ffffd2acH
	DD	0ffffd2e0H
	DD	0ffffd313H
	DD	0ffffd347H
	DD	0ffffd37bH
	DD	0ffffd3afH
	DD	0ffffd3e3H
	DD	0ffffd416H
	DD	0ffffd44aH
	DD	0ffffd47eH
	DD	0ffffd4b2H
	DD	0ffffd4e5H
	DD	0ffffd519H
	DD	0ffffd54dH
	DD	0ffffd580H
	DD	0ffffd5b4H
	DD	0ffffd5e7H
	DD	0ffffd61bH
	DD	0ffffd64fH
	DD	0ffffd682H
	DD	0ffffd6b6H
	DD	0ffffd6e9H
	DD	0ffffd71dH
	DD	0ffffd751H
	DD	0ffffd784H
	DD	0ffffd7b8H
	DD	0ffffd7ebH
	DD	0ffffd81fH
	DD	0ffffd852H
	DD	0ffffd886H
	DD	0ffffd8b9H
	DD	0ffffd8ecH
	DD	0ffffd920H
	DD	0ffffd953H
	DD	0ffffd987H
	DD	0ffffd9baH
	DD	0ffffd9edH
	DD	0ffffda21H
	DD	0ffffda54H
	DD	0ffffda88H
	DD	0ffffdabbH
	DD	0ffffdaeeH
	DD	0ffffdb22H
	DD	0ffffdb55H
	DD	0ffffdb88H
	DD	0ffffdbbbH
	DD	0ffffdbefH
	DD	0ffffdc22H
	DD	0ffffdc55H
	DD	0ffffdc88H
	DD	0ffffdcbcH
	DD	0ffffdcefH
	DD	0ffffdd22H
	DD	0ffffdd55H
	DD	0ffffdd88H
	DD	0ffffddbcH
	DD	0ffffddefH
	DD	0ffffde22H
	DD	0ffffde55H
	DD	0ffffde88H
	DD	0ffffdebbH
	DD	0ffffdeeeH
	DD	0ffffdf22H
	DD	0ffffdf55H
	DD	0ffffdf88H
	DD	0ffffdfbbH
	DD	0ffffdfeeH
	DD	0ffffe021H
	DD	0ffffe054H
	DD	0ffffe087H
	DD	0ffffe0baH
	DD	0ffffe0edH
	DD	0ffffe120H
	DD	0ffffe153H
	DD	0ffffe186H
	DD	0ffffe1b9H
	DD	0ffffe1ecH
	DD	0ffffe21fH
	DD	0ffffe252H
	DD	0ffffe285H
	DD	0ffffe2b8H
	DD	0ffffe2ebH
	DD	0ffffe31dH
	DD	0ffffe350H
	DD	0ffffe383H
	DD	0ffffe3b6H
	DD	0ffffe3e9H
	DD	0ffffe41cH
	DD	0ffffe44fH
	DD	0ffffe482H
	DD	0ffffe4b4H
	DD	0ffffe4e7H
	DD	0ffffe51aH
	DD	0ffffe54dH
	DD	0ffffe580H
	DD	0ffffe5b3H
	DD	0ffffe5e5H
	DD	0ffffe618H
	DD	0ffffe64bH
	DD	0ffffe67eH
	DD	0ffffe6b0H
	DD	0ffffe6e3H
	DD	0ffffe716H
	DD	0ffffe749H
	DD	0ffffe77bH
	DD	0ffffe7aeH
	DD	0ffffe7e1H
	DD	0ffffe814H
	DD	0ffffe846H
	DD	0ffffe879H
	DD	0ffffe8acH
	DD	0ffffe8deH
	DD	0ffffe911H
	DD	0ffffe944H
	DD	0ffffe976H
	DD	0ffffe9a9H
	DD	0ffffe9dcH
	DD	0ffffea0eH
	DD	0ffffea41H
	DD	0ffffea73H
	DD	0ffffeaa6H
	DD	0ffffead9H
	DD	0ffffeb0bH
	DD	0ffffeb3eH
	DD	0ffffeb70H
	DD	0ffffeba3H
	DD	0ffffebd6H
	DD	0ffffec08H
	DD	0ffffec3bH
	DD	0ffffec6dH
	DD	0ffffeca0H
	DD	0ffffecd2H
	DD	0ffffed05H
	DD	0ffffed38H
	DD	0ffffed6aH
	DD	0ffffed9dH
	DD	0ffffedcfH
	DD	0ffffee02H
	DD	0ffffee34H
	DD	0ffffee67H
	DD	0ffffee99H
	DD	0ffffeeccH
	DD	0ffffeefeH
	DD	0ffffef31H
	DD	0ffffef63H
	DD	0ffffef96H
	DD	0ffffefc8H
	DD	0ffffeffbH
	DD	0fffff02dH
	DD	0fffff05fH
	DD	0fffff092H
	DD	0fffff0c4H
	DD	0fffff0f7H
	DD	0fffff129H
	DD	0fffff15cH
	DD	0fffff18eH
	DD	0fffff1c0H
	DD	0fffff1f3H
	DD	0fffff225H
	DD	0fffff258H
	DD	0fffff28aH
	DD	0fffff2bdH
	DD	0fffff2efH
	DD	0fffff321H
	DD	0fffff354H
	DD	0fffff386H
	DD	0fffff3b8H
	DD	0fffff3ebH
	DD	0fffff41dH
	DD	0fffff450H
	DD	0fffff482H
	DD	0fffff4b4H
	DD	0fffff4e7H
	DD	0fffff519H
	DD	0fffff54bH
	DD	0fffff57eH
	DD	0fffff5b0H
	DD	0fffff5e2H
	DD	0fffff615H
	DD	0fffff647H
	DD	0fffff679H
	DD	0fffff6acH
	DD	0fffff6deH
	DD	0fffff710H
	DD	0fffff743H
	DD	0fffff775H
	DD	0fffff7a7H
	DD	0fffff7daH
	DD	0fffff80cH
	DD	0fffff83eH
	DD	0fffff871H
	DD	0fffff8a3H
	DD	0fffff8d5H
	DD	0fffff908H
	DD	0fffff93aH
	DD	0fffff96cH
	DD	0fffff99fH
	DD	0fffff9d1H
	DD	0fffffa03H
	DD	0fffffa35H
	DD	0fffffa68H
	DD	0fffffa9aH
	DD	0fffffaccH
	DD	0fffffaffH
	DD	0fffffb31H
	DD	0fffffb63H
	DD	0fffffb95H
	DD	0fffffbc8H
	DD	0fffffbfaH
	DD	0fffffc2cH
	DD	0fffffc5fH
	DD	0fffffc91H
	DD	0fffffcc3H
	DD	0fffffcf5H
	DD	0fffffd28H
	DD	0fffffd5aH
	DD	0fffffd8cH
	DD	0fffffdbeH
	DD	0fffffdf1H
	DD	0fffffe23H
	DD	0fffffe55H
	DD	0fffffe88H
	DD	0fffffebaH
	DD	0fffffeecH
	DD	0ffffff1eH
	DD	0ffffff51H
	DD	0ffffff83H
	DD	0ffffffb5H
	DD	0ffffffe7H
	DD	019H
	DD	04bH
	DD	07dH
	DD	0afH
	DD	0e2H
	DD	0114H
	DD	0146H
	DD	0178H
	DD	01abH
	DD	01ddH
	DD	020fH
	DD	0242H
	DD	0274H
	DD	02a6H
	DD	02d8H
	DD	030bH
	DD	033dH
	DD	036fH
	DD	03a1H
	DD	03d4H
	DD	0406H
	DD	0438H
	DD	046bH
	DD	049dH
	DD	04cfH
	DD	0501H
	DD	0534H
	DD	0566H
	DD	0598H
	DD	05cbH
	DD	05fdH
	DD	062fH
	DD	0661H
	DD	0694H
	DD	06c6H
	DD	06f8H
	DD	072bH
	DD	075dH
	DD	078fH
	DD	07c2H
	DD	07f4H
	DD	0826H
	DD	0859H
	DD	088bH
	DD	08bdH
	DD	08f0H
	DD	0922H
	DD	0954H
	DD	0987H
	DD	09b9H
	DD	09ebH
	DD	0a1eH
	DD	0a50H
	DD	0a82H
	DD	0ab5H
	DD	0ae7H
	DD	0b19H
	DD	0b4cH
	DD	0b7eH
	DD	0bb0H
	DD	0be3H
	DD	0c15H
	DD	0c48H
	DD	0c7aH
	DD	0cacH
	DD	0cdfH
	DD	0d11H
	DD	0d43H
	DD	0d76H
	DD	0da8H
	DD	0ddbH
	DD	0e0dH
	DD	0e40H
	DD	0e72H
	DD	0ea4H
	DD	0ed7H
	DD	0f09H
	DD	0f3cH
	DD	0f6eH
	DD	0fa1H
	DD	0fd3H
	DD	01005H
	DD	01038H
	DD	0106aH
	DD	0109dH
	DD	010cfH
	DD	01102H
	DD	01134H
	DD	01167H
	DD	01199H
	DD	011ccH
	DD	011feH
	DD	01231H
	DD	01263H
	DD	01296H
	DD	012c8H
	DD	012fbH
	DD	0132eH
	DD	01360H
	DD	01393H
	DD	013c5H
	DD	013f8H
	DD	0142aH
	DD	0145dH
	DD	01490H
	DD	014c2H
	DD	014f5H
	DD	01527H
	DD	0155aH
	DD	0158dH
	DD	015bfH
	DD	015f2H
	DD	01624H
	DD	01657H
	DD	0168aH
	DD	016bcH
	DD	016efH
	DD	01722H
	DD	01754H
	DD	01787H
	DD	017baH
	DD	017ecH
	DD	0181fH
	DD	01852H
	DD	01885H
	DD	018b7H
	DD	018eaH
	DD	0191dH
	DD	01950H
	DD	01982H
	DD	019b5H
	DD	019e8H
	DD	01a1bH
	DD	01a4dH
	DD	01a80H
	DD	01ab3H
	DD	01ae6H
	DD	01b19H
	DD	01b4cH
	DD	01b7eH
	DD	01bb1H
	DD	01be4H
	DD	01c17H
	DD	01c4aH
	DD	01c7dH
	DD	01cb0H
	DD	01ce3H
	DD	01d15H
	DD	01d48H
	DD	01d7bH
	DD	01daeH
	DD	01de1H
	DD	01e14H
	DD	01e47H
	DD	01e7aH
	DD	01eadH
	DD	01ee0H
	DD	01f13H
	DD	01f46H
	DD	01f79H
	DD	01facH
	DD	01fdfH
	DD	02012H
	DD	02045H
	DD	02078H
	DD	020abH
	DD	020deH
	DD	02112H
	DD	02145H
	DD	02178H
	DD	021abH
	DD	021deH
	DD	02211H
	DD	02244H
	DD	02278H
	DD	022abH
	DD	022deH
	DD	02311H
	DD	02344H
	DD	02378H
	DD	023abH
	DD	023deH
	DD	02411H
	DD	02445H
	DD	02478H
	DD	024abH
	DD	024deH
	DD	02512H
	DD	02545H
	DD	02578H
	DD	025acH
	DD	025dfH
	DD	02613H
	DD	02646H
	DD	02679H
	DD	026adH
	DD	026e0H
	DD	02714H
	DD	02747H
	DD	0277aH
	DD	027aeH
	DD	027e1H
	DD	02815H
	DD	02848H
	DD	0287cH
	DD	028afH
	DD	028e3H
	DD	02917H
	DD	0294aH
	DD	0297eH
	DD	029b1H
	DD	029e5H
	DD	02a19H
	DD	02a4cH
	DD	02a80H
	DD	02ab3H
	DD	02ae7H
	DD	02b1bH
	DD	02b4eH
	DD	02b82H
	DD	02bb6H
	DD	02beaH
	DD	02c1dH
	DD	02c51H
	DD	02c85H
	DD	02cb9H
	DD	02cedH
	DD	02d20H
	DD	02d54H
	DD	02d88H
	DD	02dbcH
	DD	02df0H
	DD	02e24H
	DD	02e58H
	DD	02e8cH
	DD	02ebfH
	DD	02ef3H
	DD	02f27H
	DD	02f5bH
	DD	02f8fH
	DD	02fc3H
	DD	02ff7H
	DD	0302bH
	DD	0305fH
	DD	03094H
	DD	030c8H
	DD	030fcH
	DD	03130H
	DD	03164H
	DD	03198H
	DD	031ccH
	DD	03200H
	DD	03235H
	DD	03269H
	DD	0329dH
	DD	032d1H
	DD	03306H
	DD	0333aH
	DD	0336eH
	DD	033a2H
	DD	033d7H
	DD	0340bH
	DD	0343fH
	DD	03474H
	DD	034a8H
	DD	034ddH
	DD	03511H
	DD	03545H
	DD	0357aH
	DD	035aeH
	DD	035e3H
	DD	03617H
	DD	0364cH
	DD	03680H
	DD	036b5H
	DD	036e9H
	DD	0371eH
	DD	03753H
	DD	03787H
	DD	037bcH
	DD	037f1H
	DD	03825H
	DD	0385aH
	DD	0388fH
	DD	038c3H
	DD	038f8H
	DD	0392dH
	DD	03962H
	DD	03997H
	DD	039cbH
	DD	03a00H
	DD	03a35H
	DD	03a6aH
	DD	03a9fH
	DD	03ad4H
	DD	03b09H
	DD	03b3eH
	DD	03b73H
	DD	03ba8H
	DD	03bddH
	DD	03c12H
	DD	03c47H
	DD	03c7cH
	DD	03cb1H
	DD	03ce6H
	DD	03d1bH
	DD	03d50H
	DD	03d85H
	DD	03dbaH
	DD	03df0H
	DD	03e25H
	DD	03e5aH
	DD	03e8fH
	DD	03ec5H
	DD	03efaH
	DD	03f2fH
	DD	03f65H
	DD	03f9aH
	DD	03fcfH
	DD	04005H
	DD	0403aH
	DD	04070H
	DD	040a5H
	DD	040dbH
	DD	04110H
	DD	04146H
	DD	0417bH
	DD	041b1H
	DD	041e6H
	DD	0421cH
	DD	04251H
	DD	04287H
	DD	042bdH
	DD	042f2H
	DD	04328H
	DD	0435eH
	DD	04394H
	DD	043c9H
	DD	043ffH
	DD	04435H
	DD	0446bH
	DD	044a1H
	DD	044d7H
	DD	0450dH
	DD	04543H
	DD	04578H
	DD	045aeH
	DD	045e4H
	DD	0461aH
	DD	04651H
	DD	04687H
	DD	046bdH
	DD	046f3H
	DD	04729H
	DD	0475fH
	DD	04795H
	DD	047ccH
	DD	04802H
	DD	04838H
	DD	0486eH
	DD	048a5H
	DD	048dbH
	DD	04911H
	DD	04948H
	DD	0497eH
	DD	049b4H
	DD	049ebH
	DD	04a21H
	DD	04a58H
	DD	04a8eH
	DD	04ac5H
	DD	04afbH
	DD	04b32H
	DD	04b69H
	DD	04b9fH
	DD	04bd6H
	DD	04c0dH
	DD	04c43H
	DD	04c7aH
	DD	04cb1H
	DD	04ce8H
	DD	04d1eH
	DD	04d55H
	DD	04d8cH
	DD	04dc3H
	DD	04dfaH
	DD	04e31H
	DD	04e68H
	DD	04e9fH
	DD	04ed6H
	DD	04f0dH
	DD	04f44H
	DD	04f7bH
	DD	04fb2H
	DD	04fe9H
	DD	05021H
	DD	05058H
	DD	0508fH
	DD	050c6H
	DD	050feH
	DD	05135H
	DD	0516cH
	DD	051a4H
	DD	051dbH
	DD	05212H
	DD	0524aH
	DD	05281H
	DD	052b9H
	DD	052f0H
	DD	05328H
	DD	0535fH
	DD	05397H
	DD	053cfH
	DD	05406H
	DD	0543eH
	DD	05476H
	DD	054aeH
	DD	054e5H
	DD	0551dH
	DD	05555H
	DD	0558dH
	DD	055c5H
	DD	055fdH
	DD	05635H
	DD	0566dH
	DD	056a5H
	DD	056ddH
	DD	05715H
	DD	0574dH
	DD	05785H
	DD	057bdH
	DD	057f5H
	DD	0582dH
	DD	05866H
	DD	0589eH
	DD	058d6H
	DD	0590fH
	DD	05947H
	DD	0597fH
	DD	059b8H
	DD	059f0H
	DD	05a29H
	DD	05a61H
	DD	05a9aH
	DD	05ad2H
	DD	05b0bH
	DD	05b44H
	DD	05b7cH
	DD	05bb5H
	DD	05beeH
	DD	05c27H
	DD	05c5fH
	DD	05c98H
	DD	05cd1H
	DD	05d0aH
	DD	05d43H
	DD	05d7cH
	DD	05db5H
	DD	05deeH
	DD	05e27H
	DD	05e60H
	DD	05e99H
	DD	05ed2H
	DD	05f0bH
	DD	05f45H
	DD	05f7eH
	DD	05fb7H
	DD	05ff0H
	DD	0602aH
	DD	06063H
	DD	0609cH
	DD	060d6H
	DD	0610fH
	DD	06149H
	DD	06182H
	DD	061bcH
	DD	061f6H
	DD	0622fH
	DD	06269H
	DD	062a3H
	DD	062dcH
	DD	06316H
	DD	06350H
	DD	0638aH
	DD	063c4H
	DD	063feH
	DD	06438H
	DD	06472H
	DD	064acH
	DD	064e6H
	DD	06520H
	DD	0655aH
	DD	06594H
	DD	065ceH
	DD	06608H
	DD	06643H
	DD	0667dH
	DD	066b7H
	DD	066f2H
	DD	0672cH
	DD	06767H
	DD	067a1H
	DD	067dcH
	DD	06816H
	DD	06851H
	DD	0688bH
	DD	068c6H
	DD	06901H
	DD	0693cH
	DD	06976H
	DD	069b1H
	DD	069ecH
	DD	06a27H
	DD	06a62H
	DD	06a9dH
	DD	06ad8H
	DD	06b13H
	DD	06b4eH
	DD	06b89H
	DD	06bc4H
	DD	06bffH
	DD	06c3bH
	DD	06c76H
	DD	06cb1H
	DD	06cecH
	DD	06d28H
	DD	06d63H
	DD	06d9fH
	DD	06ddaH
	DD	06e16H
	DD	06e51H
	DD	06e8dH
	DD	06ec9H
	DD	06f04H
	DD	06f40H
	DD	06f7cH
	DD	06fb8H
	DD	06ff4H
	DD	0702fH
	DD	0706bH
	DD	070a7H
	DD	070e3H
	DD	0711fH
	DD	0715cH
	DD	07198H
	DD	071d4H
	DD	07210H
	DD	0724cH
	DD	07289H
	DD	072c5H
	DD	07301H
	DD	0733eH
	DD	0737aH
	DD	073b7H
	DD	073f3H
	DD	07430H
	DD	0746dH
	DD	074a9H
	DD	074e6H
	DD	07523H
	DD	07560H
	DD	0759cH
	DD	075d9H
	DD	07616H
	DD	07653H
	DD	07690H
	DD	076cdH
	DD	0770aH
	DD	07748H
	DD	07785H
	DD	077c2H
	DD	077ffH
	DD	0783dH
	DD	0787aH
	DD	078b8H
	DD	078f5H
	DD	07932H
	DD	07970H
	DD	079aeH
	DD	079ebH
	DD	07a29H
	DD	07a67H
	DD	07aa4H
	DD	07ae2H
	DD	07b20H
	DD	07b5eH
	DD	07b9cH
	DD	07bdaH
	DD	07c18H
	DD	07c56H
	DD	07c94H
	DD	07cd3H
	DD	07d11H
	DD	07d4fH
	DD	07d8dH
	DD	07dccH
	DD	07e0aH
	DD	07e49H
	DD	07e87H
	DD	07ec6H
	DD	07f04H
	DD	07f43H
	DD	07f82H
	DD	07fc1H
	DD	07fffH
	DD	0803eH
	DD	0807dH
	DD	080bcH
	DD	080fbH
	DD	0813aH
	DD	08179H
	DD	081b8H
	DD	081f8H
	DD	08237H
	DD	08276H
	DD	082b5H
	DD	082f5H
	DD	08334H
	DD	08374H
	DD	083b3H
	DD	083f3H
	DD	08433H
	DD	08472H
	DD	084b2H
	DD	084f2H
	DD	08532H
	DD	08572H
	DD	085b1H
	DD	085f1H
	DD	08632H
	DD	08672H
	DD	086b2H
	DD	086f2H
	DD	08732H
	DD	08773H
	DD	087b3H
	DD	087f3H
	DD	08834H
	DD	08874H
	DD	088b5H
	DD	088f6H
	DD	08936H
	DD	08977H
	DD	089b8H
	DD	089f9H
	DD	08a39H
	DD	08a7aH
	DD	08abbH
	DD	08afcH
	DD	08b3eH
	DD	08b7fH
	DD	08bc0H
	DD	08c01H
	DD	08c43H
	DD	08c84H
	DD	08cc5H
	DD	08d07H
	DD	08d48H
	DD	08d8aH
	DD	08dccH
	DD	08e0dH
	DD	08e4fH
	DD	08e91H
	DD	08ed3H
	DD	08f15H
	DD	08f57H
	DD	08f99H
	DD	08fdbH
	DD	0901dH
	DD	0905fH
	DD	090a2H
	DD	090e4H
	DD	09126H
	DD	09169H
	DD	091abH
	DD	091eeH
	DD	09231H
	DD	09273H
	DD	092b6H
	DD	092f9H
	DD	0933cH
	DD	0937fH
	DD	093c2H
	DD	09405H
	DD	09448H
	DD	0948bH
	DD	094ceH
	DD	09511H
	DD	09555H
	DD	09598H
	DD	095dcH
	DD	0961fH
	DD	09663H
	DD	096a6H
	DD	096eaH
	DD	0972eH
	DD	09772H
	DD	097b5H
	DD	097f9H
	DD	0983dH
	DD	09882H
	DD	098c6H
	DD	0990aH
	DD	0994eH
	DD	09992H
	DD	099d7H
	DD	09a1bH
	DD	09a60H
	DD	09aa4H
	DD	09ae9H
	DD	09b2eH
	DD	09b72H
	DD	09bb7H
	DD	09bfcH
	DD	09c41H
	DD	09c86H
	DD	09ccbH
	DD	09d10H
	DD	09d56H
	DD	09d9bH
	DD	09de0H
	DD	09e26H
	DD	09e6bH
	DD	09eb1H
	DD	09ef6H
	DD	09f3cH
	DD	09f82H
	DD	09fc8H
	DD	0a00dH
	DD	0a053H
	DD	0a099H
	DD	0a0e0H
	DD	0a126H
	DD	0a16cH
	DD	0a1b2H
	DD	0a1f9H
	DD	0a23fH
	DD	0a285H
	DD	0a2ccH
	DD	0a313H
	DD	0a359H
	DD	0a3a0H
	DD	0a3e7H
	DD	0a42eH
	DD	0a475H
	DD	0a4bcH
	DD	0a503H
	DD	0a54aH
	DD	0a591H
	DD	0a5d9H
	DD	0a620H
	DD	0a668H
	DD	0a6afH
	DD	0a6f7H
	DD	0a73eH
	DD	0a786H
	DD	0a7ceH
	DD	0a816H
	DD	0a85eH
	DD	0a8a6H
	DD	0a8eeH
	DD	0a936H
	DD	0a97eH
	DD	0a9c7H
	DD	0aa0fH
	DD	0aa58H
	DD	0aaa0H
	DD	0aae9H
	DD	0ab32H
	DD	0ab7aH
	DD	0abc3H
	DD	0ac0cH
	DD	0ac55H
	DD	0ac9eH
	DD	0ace7H
	DD	0ad31H
	DD	0ad7aH
	DD	0adc3H
	DD	0ae0dH
	DD	0ae56H
	DD	0aea0H
	DD	0aeeaH
	DD	0af33H
	DD	0af7dH
	DD	0afc7H
	DD	0b011H
	DD	0b05bH
	DD	0b0a5H
	DD	0b0f0H
	DD	0b13aH
	DD	0b184H
	DD	0b1cfH
	DD	0b219H
	DD	0b264H
	DD	0b2afH
	DD	0b2faH
	DD	0b344H
	DD	0b38fH
	DD	0b3daH
	DD	0b426H
	DD	0b471H
	DD	0b4bcH
	DD	0b507H
	DD	0b553H
	DD	0b59eH
	DD	0b5eaH
	DD	0b636H
	DD	0b681H
	DD	0b6cdH
	DD	0b719H
	DD	0b765H
	DD	0b7b1H
	DD	0b7feH
	DD	0b84aH
	DD	0b896H
	DD	0b8e3H
	DD	0b92fH
	DD	0b97cH
	DD	0b9c8H
	DD	0ba15H
	DD	0ba62H
	DD	0baafH
	DD	0bafcH
	DD	0bb49H
	DD	0bb96H
	DD	0bbe4H
	DD	0bc31H
	DD	0bc7fH
	DD	0bcccH
	DD	0bd1aH
	DD	0bd68H
	DD	0bdb5H
	DD	0be03H
	DD	0be51H
	DD	0be9fH
	DD	0beeeH
	DD	0bf3cH
	DD	0bf8aH
	DD	0bfd9H
	DD	0c027H
	DD	0c076H
	DD	0c0c5H
	DD	0c113H
	DD	0c162H
	DD	0c1b1H
	DD	0c200H
	DD	0c250H
	DD	0c29fH
	DD	0c2eeH
	DD	0c33eH
	DD	0c38dH
	DD	0c3ddH
	DD	0c42dH
	DD	0c47cH
	DD	0c4ccH
	DD	0c51cH
	DD	0c56cH
	DD	0c5bdH
	DD	0c60dH
	DD	0c65dH
	DD	0c6aeH
	DD	0c6feH
	DD	0c74fH
	DD	0c7a0H
	DD	0c7f1H
	DD	0c842H
	DD	0c893H
	DD	0c8e4H
	DD	0c935H
	DD	0c987H
	DD	0c9d8H
	DD	0ca2aH
	DD	0ca7bH
	DD	0cacdH
	DD	0cb1fH
	DD	0cb71H
	DD	0cbc3H
	DD	0cc15H
	DD	0cc67H
	DD	0ccbaH
	DD	0cd0cH
	DD	0cd5fH
	DD	0cdb1H
	DD	0ce04H
	DD	0ce57H
	DD	0ceaaH
	DD	0cefdH
	DD	0cf50H
	DD	0cfa4H
	DD	0cff7H
	DD	0d04aH
	DD	0d09eH
	DD	0d0f2H
	DD	0d146H
	DD	0d199H
	DD	0d1edH
	DD	0d242H
	DD	0d296H
	DD	0d2eaH
	DD	0d33fH
	DD	0d393H
	DD	0d3e8H
	DD	0d43dH
	DD	0d491H
	DD	0d4e6H
	DD	0d53bH
	DD	0d591H
	DD	0d5e6H
	DD	0d63bH
	DD	0d691H
	DD	0d6e7H
	DD	0d73cH
	DD	0d792H
	DD	0d7e8H
	DD	0d83eH
	DD	0d894H
	DD	0d8ebH
	DD	0d941H
	DD	0d998H
	DD	0d9eeH
	DD	0da45H
	DD	0da9cH
	DD	0daf3H
	DD	0db4aH
	DD	0dba1H
	DD	0dbf8H
	DD	0dc50H
	DD	0dca7H
	DD	0dcffH
	DD	0dd57H
	DD	0ddafH
	DD	0de07H
	DD	0de5fH
	DD	0deb7H
	DD	0df10H
	DD	0df68H
	DD	0dfc1H
	DD	0e019H
	DD	0e072H
	DD	0e0cbH
	DD	0e124H
	DD	0e17dH
	DD	0e1d7H
	DD	0e230H
	DD	0e28aH
	DD	0e2e3H
	DD	0e33dH
	DD	0e397H
	DD	0e3f1H
	DD	0e44bH
	DD	0e4a6H
	DD	0e500H
	DD	0e55bH
	DD	0e5b5H
	DD	0e610H
	DD	0e66bH
	DD	0e6c6H
	DD	0e721H
	DD	0e77dH
	DD	0e7d8H
	DD	0e834H
	DD	0e88fH
	DD	0e8ebH
	DD	0e947H
	DD	0e9a3H
	DD	0e9ffH
	DD	0ea5cH
	DD	0eab8H
	DD	0eb15H
	DD	0eb71H
	DD	0ebceH
	DD	0ec2bH
	DD	0ec88H
	DD	0ece6H
	DD	0ed43H
	DD	0eda1H
	DD	0edfeH
	DD	0ee5cH
	DD	0eebaH
	DD	0ef18H
	DD	0ef76H
	DD	0efd4H
	DD	0f033H
	DD	0f091H
	DD	0f0f0H
	DD	0f14fH
	DD	0f1aeH
	DD	0f20dH
	DD	0f26cH
	DD	0f2ccH
	DD	0f32bH
	DD	0f38bH
	DD	0f3ebH
	DD	0f44bH
	DD	0f4abH
	DD	0f50bH
	DD	0f56cH
	DD	0f5ccH
	DD	0f62dH
	DD	0f68eH
	DD	0f6efH
	DD	0f750H
	DD	0f7b1H
	DD	0f812H
	DD	0f874H
	DD	0f8d6H
	DD	0f937H
	DD	0f999H
	DD	0f9fcH
	DD	0fa5eH
	DD	0fac0H
	DD	0fb23H
	DD	0fb85H
	DD	0fbe8H
	DD	0fc4bH
	DD	0fcafH
	DD	0fd12H
	DD	0fd75H
	DD	0fdd9H
	DD	0fe3dH
	DD	0fea1H
	DD	0ff05H
	DD	0ff69H
	DD	0ffcdH
	DD	010032H
	DD	010096H
	DD	0100fbH
	DD	010160H
	DD	0101c5H
	DD	01022bH
	DD	010290H
	DD	0102f6H
	DD	01035cH
	DD	0103c2H
	DD	010428H
	DD	01048eH
	DD	0104f4H
	DD	01055bH
	DD	0105c2H
	DD	010629H
	DD	010690H
	DD	0106f7H
	DD	01075eH
	DD	0107c6H
	DD	01082dH
	DD	010895H
	DD	0108fdH
	DD	010966H
	DD	0109ceH
	DD	010a37H
	DD	010a9fH
	DD	010b08H
	DD	010b71H
	DD	010bdaH
	DD	010c44H
	DD	010cadH
	DD	010d17H
	DD	010d81H
	DD	010debH
	DD	010e55H
	DD	010ec0H
	DD	010f2aH
	DD	010f95H
	DD	011000H
	DD	01106bH
	DD	0110d6H
	DD	011142H
	DD	0111adH
	DD	011219H
	DD	011285H
	DD	0112f1H
	DD	01135eH
	DD	0113caH
	DD	011437H
	DD	0114a4H
	DD	011511H
	DD	01157eH
	DD	0115ebH
	DD	011659H
	DD	0116c7H
	DD	011735H
	DD	0117a3H
	DD	011811H
	DD	011880H
	DD	0118eeH
	DD	01195dH
	DD	0119ccH
	DD	011a3cH
	DD	011aabH
	DD	011b1bH
	DD	011b8bH
	DD	011bfbH
	DD	011c6bH
	DD	011cdbH
	DD	011d4cH
	DD	011dbdH
	DD	011e2eH
	DD	011e9fH
	DD	011f10H
	DD	011f82H
	DD	011ff3H
	DD	012065H
	DD	0120d8H
	DD	01214aH
	DD	0121bcH
	DD	01222fH
	DD	0122a2H
	DD	012315H
	DD	012389H
	DD	0123fcH
	DD	012470H
	DD	0124e4H
	DD	012558H
	DD	0125cdH
	DD	012641H
	DD	0126b6H
	DD	01272bH
	DD	0127a0H
	DD	012815H
	DD	01288bH
	DD	012901H
	DD	012977H
	DD	0129edH
	DD	012a64H
	DD	012adaH
	DD	012b51H
	DD	012bc8H
	DD	012c40H
	DD	012cb7H
	DD	012d2fH
	DD	012da7H
	DD	012e1fH
	DD	012e97H
	DD	012f10H
	DD	012f89H
	DD	013002H
	DD	01307bH
	DD	0130f4H
	DD	01316eH
	DD	0131e8H
	DD	013262H
	DD	0132ddH
	DD	013357H
	DD	0133d2H
	DD	01344dH
	DD	0134c8H
	DD	013544H
	DD	0135c0H
	DD	01363cH
	DD	0136b8H
	DD	013734H
	DD	0137b1H
	DD	01382eH
	DD	0138abH
	DD	013928H
	DD	0139a6H
	DD	013a24H
	DD	013aa2H
	DD	013b20H
	DD	013b9fH
	DD	013c1dH
	DD	013c9dH
	DD	013d1cH
	DD	013d9bH
	DD	013e1bH
	DD	013e9bH
	DD	013f1bH
	DD	013f9cH
	DD	01401dH
	DD	01409eH
	DD	01411fH
	DD	0141a0H
	DD	014222H
	DD	0142a4H
	DD	014326H
	DD	0143a9H
	DD	01442bH
	DD	0144aeH
	DD	014532H
	DD	0145b5H
	DD	014639H
	DD	0146bdH
	DD	014741H
	DD	0147c6H
	DD	01484bH
	DD	0148d0H
	DD	014955H
	DD	0149dbH
	DD	014a60H
	DD	014ae6H
	DD	014b6dH
	DD	014bf4H
	DD	014c7aH
	DD	014d02H
	DD	014d89H
	DD	014e11H
	DD	014e99H
	DD	014f21H
	DD	014faaH
	DD	015032H
	DD	0150bcH
	DD	015145H
	DD	0151cfH
	DD	015258H
	DD	0152e3H
	DD	01536dH
	DD	0153f8H
	DD	015483H
	DD	01550eH
	DD	01559aH
	DD	015626H
	DD	0156b2H
	DD	01573fH
	DD	0157cbH
	DD	015858H
	DD	0158e6H
	DD	015973H
	DD	015a01H
	DD	015a90H
	DD	015b1eH
	DD	015badH
	DD	015c3cH
	DD	015cccH
	DD	015d5bH
	DD	015debH
	DD	015e7cH
	DD	015f0cH
	DD	015f9dH
	DD	01602eH
	DD	0160c0H
	DD	016152H
	DD	0161e4H
	DD	016276H
	DD	016309H
	DD	01639cH
	DD	016430H
	DD	0164c4H
	DD	016558H
	DD	0165ecH
	DD	016681H
	DD	016716H
	DD	0167abH
	DD	016841H
	DD	0168d7H
	DD	01696dH
	DD	016a03H
	DD	016a9aH
	DD	016b32H
	DD	016bc9H
	DD	016c61H
	DD	016cfaH
	DD	016d92H
	DD	016e2bH
	DD	016ec4H
	DD	016f5eH
	DD	016ff8H
	DD	017092H
	DD	01712dH
	DD	0171c8H
	DD	017263H
	DD	0172ffH
	DD	01739bH
	DD	017437H
	DD	0174d4H
	DD	017571H
	DD	01760eH
	DD	0176acH
	DD	01774aH
	DD	0177e9H
	DD	017887H
	DD	017927H
	DD	0179c6H
	DD	017a66H
	DD	017b06H
	DD	017ba7H
	DD	017c48H
	DD	017ce9H
	DD	017d8bH
	DD	017e2dH
	DD	017ed0H
	DD	017f73H
	DD	018016H
	DD	0180b9H
	DD	01815dH
	DD	018202H
	DD	0182a6H
	DD	01834cH
	DD	0183f1H
	DD	018497H
	DD	01853dH
	DD	0185e4H
	DD	01868bH
	DD	018732H
	DD	0187daH
	DD	018882H
	DD	01892bH
	DD	0189d4H
	DD	018a7eH
	DD	018b27H
	DD	018bd2H
	DD	018c7cH
	DD	018d27H
	DD	018dd3H
	DD	018e7fH
	DD	018f2bH
	DD	018fd8H
	DD	019085H
	DD	019132H
	DD	0191e0H
	DD	01928eH
	DD	01933dH
	DD	0193ecH
	DD	01949cH
	DD	01954cH
	DD	0195fdH
	DD	0196adH
	DD	01975fH
	DD	019811H
	DD	0198c3H
	DD	019975H
	DD	019a28H
	DD	019adcH
	DD	019b90H
	DD	019c44H
	DD	019cf9H
	DD	019daeH
	DD	019e64H
	DD	019f1aH
	DD	019fd1H
	DD	01a088H
	DD	01a140H
	DD	01a1f8H
	DD	01a2b0H
	DD	01a369H
	DD	01a423H
	DD	01a4ddH
	DD	01a597H
	DD	01a652H
	DD	01a70dH
	DD	01a7c9H
	DD	01a885H
	DD	01a942H
	DD	01a9ffH
	DD	01aabdH
	DD	01ab7bH
	DD	01ac3aH
	DD	01acf9H
	DD	01adb8H
	DD	01ae78H
	DD	01af39H
	DD	01affaH
	DD	01b0bcH
	DD	01b17eH
	DD	01b241H
	DD	01b304H
	DD	01b3c8H
	DD	01b48cH
	DD	01b550H
	DD	01b616H
	DD	01b6dbH
	DD	01b7a2H
	DD	01b868H
	DD	01b930H
	DD	01b9f7H
	DD	01bac0H
	DD	01bb89H
	DD	01bc52H
	DD	01bd1cH
	DD	01bde7H
	DD	01beb2H
	DD	01bf7dH
	DD	01c049H
	DD	01c116H
	DD	01c1e3H
	DD	01c2b1H
	DD	01c37fH
	DD	01c44eH
	DD	01c51eH
	DD	01c5eeH
	DD	01c6beH
	DD	01c78fH
	DD	01c861H
	DD	01c934H
	DD	01ca06H
	DD	01cadaH
	DD	01cbaeH
	DD	01cc83H
	DD	01cd58H
	DD	01ce2eH
	DD	01cf04H
	DD	01cfdbH
	DD	01d0b3H
	DD	01d18bH
	DD	01d264H
	DD	01d33dH
	DD	01d417H
	DD	01d4f2H
	DD	01d5cdH
	DD	01d6a9H
	DD	01d785H
	DD	01d862H
	DD	01d940H
	DD	01da1eH
	DD	01dafdH
	DD	01dbddH
	DD	01dcbdH
	DD	01dd9eH
	DD	01de80H
	DD	01df62H
	DD	01e045H
	DD	01e128H
	DD	01e20cH
	DD	01e2f1H
	DD	01e3d7H
	DD	01e4bdH
	DD	01e5a4H
	DD	01e68bH
	DD	01e773H
	DD	01e85cH
	DD	01e946H
	DD	01ea30H
	DD	01eb1bH
	DD	01ec07H
	DD	01ecf3H
	DD	01ede0H
	DD	01eecdH
	DD	01efbcH
	DD	01f0abH
	DD	01f19bH
	DD	01f28bH
	DD	01f37dH
	DD	01f46fH
	DD	01f561H
	DD	01f655H
	DD	01f749H
	DD	01f83eH
	DD	01f934H
	DD	01fa2aH
	DD	01fb21H
	DD	01fc19H
	DD	01fd12H
	DD	01fe0bH
	DD	01ff05H
	DD	020000H
	DD	0200fcH
	DD	0201f8H
	DD	0202f6H
	DD	0203f4H
	DD	0204f3H
	DD	0205f2H
	DD	0206f3H
	DD	0207f4H
	DD	0208f6H
	DD	0209f9H
	DD	020afcH
	DD	020c01H
	DD	020d06H
	DD	020e0cH
	DD	020f13H
	DD	02101bH
	DD	021123H
	DD	02122dH
	DD	021337H
	DD	021442H
	DD	02154eH
	DD	02165bH
	DD	021769H
	DD	021877H
	DD	021987H
	DD	021a97H
	DD	021ba8H
	DD	021cbaH
	DD	021dcdH
	DD	021ee1H
	DD	021ff6H
	DD	02210cH
	DD	022222H
	DD	02233aH
	DD	022452H
	DD	02256bH
	DD	022686H
	DD	0227a1H
	DD	0228bdH
	DD	0229daH
	DD	022af8H
	DD	022c17H
	DD	022d37H
	DD	022e58H
	DD	022f7aH
	DD	02309dH
	DD	0231c0H
	DD	0232e5H
	DD	02340bH
	DD	023532H
	DD	02365aH
	DD	023782H
	DD	0238acH
	DD	0239d7H
	DD	023b03H
	DD	023c30H
	DD	023d5eH
	DD	023e8cH
	DD	023fbcH
	DD	0240edH
	DD	024220H
	DD	024353H
	DD	024487H
	DD	0245bcH
	DD	0246f3H
	DD	02482aH
	DD	024963H
	DD	024a9cH
	DD	024bd7H
	DD	024d13H
	DD	024e50H
	DD	024f8eH
	DD	0250cdH
	DD	02520dH
	DD	02534fH
	DD	025492H
	DD	0255d5H
	DD	02571aH
	DD	025861H
	DD	0259a8H
	DD	025af0H
	DD	025c3aH
	DD	025d85H
	DD	025ed1H
	DD	02601eH
	DD	02616dH
	DD	0262bdH
	DD	02640eH
	DD	026560H
	DD	0266b3H
	DD	026808H
	DD	02695eH
	DD	026ab5H
	DD	026c0eH
	DD	026d67H
	DD	026ec3H
	DD	02701fH
	DD	02717dH
	DD	0272dcH
	DD	02743cH
	DD	02759eH
	DD	027701H
	DD	027865H
	DD	0279cbH
	DD	027b32H
	DD	027c9aH
	DD	027e04H
	DD	027f6fH
	DD	0280dcH
	DD	02824aH
	DD	0283b9H
	DD	02852aH
	DD	02869cH
	DD	028810H
	DD	028985H
	DD	028afbH
	DD	028c73H
	DD	028dedH
	DD	028f68H
	DD	0290e4H
	DD	029262H
	DD	0293e2H
	DD	029563H
	DD	0296e5H
	DD	029869H
	DD	0299efH
	DD	029b76H
	DD	029cffH
	DD	029e89H
	DD	02a015H
	DD	02a1a3H
	DD	02a332H
	DD	02a4c3H
	DD	02a655H
	DD	02a7e9H
	DD	02a97fH
	DD	02ab16H
	DD	02acafH
	DD	02ae4aH
	DD	02afe6H
	DD	02b184H
	DD	02b324H
	DD	02b4c5H
	DD	02b669H
	DD	02b80eH
	DD	02b9b4H
	DD	02bb5dH
	DD	02bd07H
	DD	02beb3H
	DD	02c061H
	DD	02c211H
	DD	02c3c2H
	DD	02c576H
	DD	02c72bH
	DD	02c8e2H
	DD	02ca9bH
	DD	02cc56H
	DD	02ce13H
	DD	02cfd2H
	DD	02d192H
	DD	02d355H
	DD	02d519H
	DD	02d6e0H
	DD	02d8a8H
	DD	02da73H
	DD	02dc3fH
	DD	02de0eH
	DD	02dfdeH
	DD	02e1b1H
	DD	02e386H
	DD	02e55dH
	DD	02e735H
	DD	02e910H
	DD	02eaedH
	DD	02eccdH
	DD	02eeaeH
	DD	02f092H
	DD	02f277H
	DD	02f45fH
	DD	02f64aH
	DD	02f836H
	DD	02fa25H
	DD	02fc16H
	DD	02fe09H
	DD	02fffeH
	DD	0301f6H
	DD	0303f0H
	DD	0305edH
	DD	0307ecH
	DD	0309edH
	DD	030bf0H
	DD	030df6H
	DD	030fffH
	DD	03120aH
	DD	031417H
	DD	031627H
	DD	031839H
	DD	031a4eH
	DD	031c66H
	DD	031e80H
	DD	03209cH
	DD	0322bcH
	DD	0324ddH
	DD	032702H
	DD	032929H
	DD	032b53H
	DD	032d7fH
	DD	032fafH
	DD	0331e0H
	DD	033415H
	DD	03364dH
	DD	033887H
	DD	033ac4H
	DD	033d04H
	DD	033f47H
	DD	03418dH
	DD	0343d5H
	DD	034621H
	DD	03486fH
	DD	034ac1H
	DD	034d15H
	DD	034f6dH
	DD	0351c8H
	DD	035425H
	DD	035686H
	DD	0358eaH
	DD	035b51H
	DD	035dbbH
	DD	036029H
	DD	036299H
	DD	03650dH
	DD	036784H
	DD	0369ffH
	DD	036c7dH
	DD	036efeH
	DD	037182H
	DD	03740aH
	DD	037696H
	DD	037925H
	DD	037bb7H
	DD	037e4dH
	DD	0380e6H
	DD	038383H
	DD	038624H
	DD	0388c8H
	DD	038b70H
	DD	038e1cH
	DD	0390ccH
	DD	03937fH
	DD	039636H
	DD	0398f1H
	DD	039bafH
	DD	039e72H
	DD	03a139H
	DD	03a403H
	DD	03a6d2H
	DD	03a9a4H
	DD	03ac7bH
	DD	03af55H
	DD	03b234H
	DD	03b517H
	DD	03b7ffH
	DD	03baeaH
	DD	03bddaH
	DD	03c0ceH
	DD	03c3c7H
	DD	03c6c4H
	DD	03c9c5H
	DD	03cccbH
	DD	03cfd5H
	DD	03d2e4H
	DD	03d5f8H
	DD	03d910H
	DD	03dc2dH
	DD	03df4eH
	DD	03e275H
	DD	03e5a0H
	DD	03e8d0H
	DD	03ec05H
	DD	03ef3fH
	DD	03f27eH
	DD	03f5c2H
	DD	03f90bH
	DD	03fc59H
	DD	03ffacH
	DD	040305H
	DD	040663H
	DD	0409c6H
	DD	040d2fH
	DD	04109dH
	DD	041410H
	DD	041789H
	DD	041b08H
	DD	041e8dH
	DD	042217H
	DD	0425a6H
	DD	04293cH
	DD	042cd8H
	DD	043079H
	DD	043421H
	DD	0437ceH
	DD	043b82H
	DD	043f3cH
	DD	0442fcH
	DD	0446c2H
	DD	044a8fH
	DD	044e62H
	DD	04523bH
	DD	04561cH
	DD	045a02H
	DD	045df0H
	DD	0461e4H
	DD	0465dfH
	DD	0469e1H
	DD	046deaH
	DD	0471faH
	DD	047611H
	DD	047a2fH
	DD	047e55H
	DD	048282H
	DD	0486b6H
	DD	048af2H
	DD	048f35H
	DD	049380H
	DD	0497d3H
	DD	049c2eH
	DD	04a090H
	DD	04a4fbH
	DD	04a96dH
	DD	04ade8H
	DD	04b26bH
	DD	04b6f7H
	DD	04bb8aH
	DD	04c027H
	DD	04c4ccH
	DD	04c979H
	DD	04ce30H
	DD	04d2efH
	DD	04d7b8H
	DD	04dc89H
	DD	04e164H
	DD	04e649H
	DD	04eb36H
	DD	04f02dH
	DD	04f52eH
	DD	04fa39H
	DD	04ff4eH
	DD	05046cH
	DD	050995H
	DD	050ec8H
	DD	051405H
	DD	05194dH
	DD	051e9fH
	DD	0523fcH
	DD	052964H
	DD	052ed7H
	DD	053456H
	DD	0539dfH
	DD	053f74H
	DD	054514H
	DD	054ac0H
	DD	055078H
	DD	05563cH
	DD	055c0cH
	DD	0561e8H
	DD	0567d1H
	DD	056dc7H
	DD	0573c9H
	DD	0579d8H
	DD	057ff4H
	DD	05861dH
	DD	058c54H
	DD	059298H
	DD	0598eaH
	DD	059f4bH
	DD	05a5b9H
	DD	05ac35H
	DD	05b2c0H
	DD	05b95aH
	DD	05c003H
	DD	05c6bbH
	DD	05cd82H
	DD	05d458H
	DD	05db3fH
	DD	05e235H
	DD	05e93bH
	DD	05f052H
	DD	05f77aH
	DD	05feb2H
	DD	0605fbH
	DD	060d56H
	DD	0614c2H
	DD	061c40H
	DD	0623d0H
	DD	062b72H
	DD	063327H
	DD	063aefH
	DD	0642caH
	DD	064ab8H
	DD	0652bbH
	DD	065ad1H
	DD	0662fbH
	DD	066b3aH
	DD	06738eH
	DD	067bf7H
	DD	068475H
	DD	068d09H
	DD	0695b4H
	DD	069e75H
	DD	06a74dH
	DD	06b03cH
	DD	06b943H
	DD	06c262H
	DD	06cb99H
	DD	06d4e8H
	DD	06de51H
	DD	06e7d4H
	DD	06f170H
	DD	06fb27H
	DD	0704f8H
	DD	070ee5H
	DD	0718edH
	DD	072312H
	DD	072d53H
	DD	0737b1H
	DD	07422cH
	DD	074cc6H
	DD	07577eH
	DD	076255H
	DD	076d4cH
	DD	077863H
	DD	07839bH
	DD	078ef4H
	DD	079a6fH
	DD	07a60dH
	DD	07b1cdH
	DD	07bdb1H
	DD	07c9baH
	DD	07d5e8H
	DD	07e23bH
	DD	07eeb5H
	DD	07fb56H
	DD	08081eH
	DD	081510H
	DD	08222aH
	DD	082f6fH
	DD	083cdeH
	DD	084a7aH
	DD	085841H
	DD	086637H
	DD	08745aH
	DD	0882adH
	DD	089130H
	DD	089fe5H
	DD	08aecbH
	DD	08bde5H
	DD	08cd32H
	DD	08dcb5H
	DD	08ec6fH
	DD	08fc60H
	DD	090c89H
	DD	091cedH
	DD	092d8bH
	DD	093e66H
	DD	094f7eH
	DD	0960d5H
	DD	09726dH
	DD	098446H
	DD	099663H
	DD	09a8c4H
	DD	09bb6bH
	DD	09ce5bH
	DD	09e194H
	DD	09f518H
	DD	0a08e8H
	DD	0a1d08H
	DD	0a3178H
	DD	0a463aH
	DD	0a5b51H
	DD	0a70bfH
	DD	0a8685H
	DD	0a9ca6H
	DD	0ab323H
	DD	0aca00H
	DD	0ae13fH
	DD	0af8e2H
	DD	0b10ebH
	DD	0b295eH
	DD	0b423dH
	DD	0b5b8bH
	DD	0b754aH
	DD	0b8f7fH
	DD	0baa2cH
	DD	0bc553H
	DD	0be0faH
	DD	0bfd23H
	DD	0c19d1H
	DD	0c3709H
	DD	0c54cfH
	DD	0c7326H
	DD	0c9213H
	DD	0cb19aH
	DD	0cd1bfH
	DD	0cf288H
	DD	0d13f9H
	DD	0d3619H
	DD	0d58eaH
	DD	0d7c75H
	DD	0da0bdH
	DD	0dc5caH
	DD	0deba1H
	DD	0e124aH
	DD	0e39caH
	DD	0e6229H
	DD	0e8b6fH
	DD	0eb5a3H
	DD	0ee0ceH
	DD	0f0cf9H
	DD	0f3a2bH
	DD	0f686eH
	DD	0f97cdH
	DD	0fc852H
	DD	0ffa06H
	DD	0102cf7H
	DD	010612fH
	DD	01096bcH
	DD	010cda9H
	DD	0110606H
	DD	0113fe1H
	DD	0117b49H
	DD	011b84eH
	DD	011f701H
	DD	0123776H
	DD	01279bdH
	DD	012bdedH
	DD	013041aH
	DD	0134c5aH
	DD	01396c7H
	DD	013e378H
	DD	014328aH
	DD	0148419H
	DD	014d844H
	DD	0152f2aH
	DD	01588f0H
	DD	015e5b9H
	DD	01645aeH
	DD	016a8f9H
	DD	0170fc7H
	DD	0177a48H
	DD	017e8b2H
	DD	0185b3cH
	DD	018d222H
	DD	0194da6H
	DD	019ce0dH
	DD	01a53a4H
	DD	01adebcH
	DD	01b6fafH
	DD	01c06d6H
	DD	01ca4a9H
	DD	01d4992H
	DD	01df610H
	DD	01eaaabH
	DD	01f67f9H
	DD	0202e9fH
	DD	020ff54H
	DD	021dadfH
	DD	022c21fH
	DD	023b60aH
	DD	024b7b2H
	DD	025c848H
	DD	026e924H
	DD	0281bc5H
	DD	02961deH
	DD	02abd57H
	DD	02c305eH
	DD	02dbd6dH
	DD	02f675bH
	DD	031316eH
	DD	0331f6dH
	DD	03535bdH
	DD	0377986H
	DD	039f0d6H
	DD	03ca2dfH
	DD	03f9839H
	DD	042db3eH
	DD	0467887H
	DD	04a7f8eH
	DD	04f038bH
	DD	0541cb0H
	DD	059e9d7H
	DD	0609302H
	DD	0684cffH
	DD	0715ef8H
	DD	07c2b37H
	DD	0893d65H
	DD	09962e7H
	DD	0add6abH
	DD	0c8956fH
	DD	0ed0defH
	DD	0121bc04H
	DD	01748484H
	DD	02098758H
	DD	03653a78H
	DD	0a2fe260H
_tantoangle DD	00H
	DD	0517ccH
	DD	0a2f98H
	DD	0f4763H
	DD	0145f2eH
	DD	01976f9H
	DD	01e8ec2H
	DD	023a68bH
	DD	028be53H
	DD	02dd619H
	DD	032eddeH
	DD	03805a1H
	DD	03d1d63H
	DD	0423523H
	DD	0474ce0H
	DD	04c649cH
	DD	0517c55H
	DD	056940bH
	DD	05babbfH
	DD	060c370H
	DD	065db1eH
	DD	06af2c8H
	DD	0700a70H
	DD	0752213H
	DD	07a39b4H
	DD	07f5150H
	DD	08468e9H
	DD	089807dH
	DD	08e980dH
	DD	093af98H
	DD	098c71fH
	DD	09ddea1H
	DD	0a2f61eH
	DD	0a80d96H
	DD	0ad2509H
	DD	0b23c77H
	DD	0b753deH
	DD	0bc6b41H
	DD	0c1829dH
	DD	0c699f3H
	DD	0cbb143H
	DD	0d0c88dH
	DD	0d5dfd0H
	DD	0daf70cH
	DD	0e00e42H
	DD	0e52570H
	DD	0ea3c98H
	DD	0ef53b8H
	DD	0f46ad1H
	DD	0f981e2H
	DD	0fe98ebH
	DD	0103afecH
	DD	0108c6e6H
	DD	010dddd6H
	DD	0112f4beH
	DD	01180b9eH
	DD	011d2276H
	DD	01223944H
	DD	0127500aH
	DD	012c66c6H
	DD	01317d78H
	DD	01369420H
	DD	013baac0H
	DD	0140c156H
	DD	0145d7e2H
	DD	014aee62H
	DD	015004daH
	DD	01551b46H
	DD	015a31a8H
	DD	015f4800H
	DD	01645e4cH
	DD	0169748cH
	DD	016e8ac2H
	DD	0173a0ecH
	DD	0178b70cH
	DD	017dcd1eH
	DD	0182e326H
	DD	0187f920H
	DD	018d0f10H
	DD	019224f2H
	DD	01973ac8H
	DD	019c5090H
	DD	01a1664eH
	DD	01a67bfcH
	DD	01ab919eH
	DD	01b0a734H
	DD	01b5bcbcH
	DD	01bad234H
	DD	01bfe7a0H
	DD	01c4fcfeH
	DD	01ca124eH
	DD	01cf2790H
	DD	01d43cc4H
	DD	01d951e8H
	DD	01de66feH
	DD	01e37c04H
	DD	01e890fcH
	DD	01eda5e6H
	DD	01f2babeH
	DD	01f7cf88H
	DD	01fce442H
	DD	0201f8ecH
	DD	02070d88H
	DD	020c2210H
	DD	0211368cH
	DD	02164af4H
	DD	021b5f4cH
	DD	02207394H
	DD	022587ccH
	DD	022a9bf4H
	DD	022fb008H
	DD	0234c40cH
	DD	0239d7fcH
	DD	023eebdcH
	DD	0243ffa8H
	DD	02491364H
	DD	024e2710H
	DD	02533aa8H
	DD	02584e2cH
	DD	025d61a0H
	DD	02627500H
	DD	0267884cH
	DD	026c9b84H
	DD	0271aeacH
	DD	0276c1bcH
	DD	027bd4bcH
	DD	0280e7a8H
	DD	0285fa80H
	DD	028b0d44H
	DD	02901ff4H
	DD	0295328cH
	DD	029a4514H
	DD	029f5784H
	DD	02a469e4H
	DD	02a97c28H
	DD	02ae8e5cH
	DD	02b3a078H
	DD	02b8b280H
	DD	02bdc474H
	DD	02c2d650H
	DD	02c7e818H
	DD	02ccf9c8H
	DD	02d20b64H
	DD	02d71ce8H
	DD	02dc2e54H
	DD	02e13facH
	DD	02e650ecH
	DD	02eb6214H
	DD	02f07324H
	DD	02f58420H
	DD	02fa9504H
	DD	02ffa5ccH
	DD	0304b680H
	DD	0309c71cH
	DD	030ed7a0H
	DD	0313e80cH
	DD	0318f860H
	DD	031e0898H
	DD	032318bcH
	DD	032828c4H
	DD	032d38b4H
	DD	0332488cH
	DD	03375848H
	DD	033c67ecH
	DD	03417774H
	DD	034686e8H
	DD	034b963cH
	DD	0350a578H
	DD	0355b49cH
	DD	035ac3a4H
	DD	035fd290H
	DD	0364e164H
	DD	0369f01cH
	DD	036efeb8H
	DD	03740d3cH
	DD	03791ba0H
	DD	037e29ecH
	DD	0383381cH
	DD	03884630H
	DD	038d5428H
	DD	03926200H
	DD	03976fc0H
	DD	039c7d64H
	DD	03a18aecH
	DD	03a69854H
	DD	03aba5a0H
	DD	03b0b2d0H
	DD	03b5bfe4H
	DD	03baccdcH
	DD	03bfd9b4H
	DD	03c4e66cH
	DD	03c9f30cH
	DD	03ceff88H
	DD	03d40becH
	DD	03d9182cH
	DD	03de2454H
	DD	03e33058H
	DD	03e83c40H
	DD	03ed4808H
	DD	03f253b4H
	DD	03f75f3cH
	DD	03fc6aa8H
	DD	040175f8H
	DD	04068120H
	DD	040b8c30H
	DD	04109718H
	DD	0415a1e8H
	DD	041aac98H
	DD	041fb720H
	DD	0424c190H
	DD	0429cbd8H
	DD	042ed600H
	DD	0433e010H
	DD	0438e9f8H
	DD	043df3c0H
	DD	0442fd68H
	DD	044806e8H
	DD	044d1050H
	DD	04521990H
	DD	045722b0H
	DD	045c2bb0H
	DD	04613488H
	DD	04663d40H
	DD	046b45d8H
	DD	04704e48H
	DD	04755698H
	DD	047a5ec8H
	DD	047f66d8H
	DD	04846ec0H
	DD	04897680H
	DD	048e7e20H
	DD	049385a0H
	DD	04988cf8H
	DD	049d9430H
	DD	04a29b40H
	DD	04a7a228H
	DD	04aca8f0H
	DD	04b1af98H
	DD	04b6b618H
	DD	04bbbc70H
	DD	04c0c2a8H
	DD	04c5c8b8H
	DD	04cacea0H
	DD	04cfd468H
	DD	04d4da08H
	DD	04d9df80H
	DD	04dee4d0H
	DD	04e3ea00H
	DD	04e8ef08H
	DD	04edf3e8H
	DD	04f2f8a0H
	DD	04f7fd38H
	DD	04fd01a8H
	DD	050205e8H
	DD	05070a08H
	DD	050c0e00H
	DD	051111d8H
	DD	05161580H
	DD	051b1900H
	DD	05201c58H
	DD	05251f88H
	DD	052a2298H
	DD	052f2578H
	DD	05342830H
	DD	05392ac0H
	DD	053e2d28H
	DD	05432f68H
	DD	05483180H
	DD	054d3370H
	DD	05523530H
	DD	055736c8H
	DD	055c3840H
	DD	05613980H
	DD	05663aa0H
	DD	056b3b98H
	DD	05703c60H
	DD	05753d00H
	DD	057a3d70H
	DD	057f3dc0H
	DD	05843de0H
	DD	05893dd0H
	DD	058e3da0H
	DD	05933d40H
	DD	05983cb0H
	DD	059d3bf8H
	DD	05a23b18H
	DD	05a73a08H
	DD	05ac38d0H
	DD	05b13768H
	DD	05b635d8H
	DD	05bb3418H
	DD	05c03228H
	DD	05c53010H
	DD	05ca2dd0H
	DD	05cf2b60H
	DD	05d428c0H
	DD	05d925f8H
	DD	05de2300H
	DD	05e31fd8H
	DD	05e81c88H
	DD	05ed1908H
	DD	05f21558H
	DD	05f71178H
	DD	05fc0d70H
	DD	06010938H
	DD	060604d0H
	DD	060b0038H
	DD	060ffb78H
	DD	0614f688H
	DD	0619f160H
	DD	061eec10H
	DD	0623e690H
	DD	0628e0e8H
	DD	062ddb08H
	DD	0632d4f8H
	DD	0637ceb8H
	DD	063cc850H
	DD	0641c1b0H
	DD	0646bae0H
	DD	064bb3e8H
	DD	0650acb8H
	DD	0655a558H
	DD	065a9dc8H
	DD	065f9608H
	DD	06648e18H
	DD	066985f8H
	DD	066e7da0H
	DD	06737520H
	DD	06786c68H
	DD	067d6380H
	DD	06825a68H
	DD	06875118H
	DD	068c4798H
	DD	06913df0H
	DD	06963408H
	DD	069b29f8H
	DD	06a01fb0H
	DD	06a51538H
	DD	06aa0a88H
	DD	06aeffa8H
	DD	06b3f498H
	DD	06b8e950H
	DD	06bdddd8H
	DD	06c2d228H
	DD	06c7c648H
	DD	06ccba38H
	DD	06d1adf0H
	DD	06d6a170H
	DD	06db94c0H
	DD	06e087d8H
	DD	06e57ac0H
	DD	06ea6d78H
	DD	06ef5ff0H
	DD	06f45238H
	DD	06f94450H
	DD	06fe3630H
	DD	070327d8H
	DD	07081948H
	DD	070d0a88H
	DD	0711fb90H
	DD	0716ec60H
	DD	071bdd00H
	DD	0720cd68H
	DD	0725bd98H
	DD	072aad90H
	DD	072f9d58H
	DD	07348ce8H
	DD	07397c38H
	DD	073e6b58H
	DD	07435a40H
	DD	074848f8H
	DD	074d3770H
	DD	075225b0H
	DD	075713c0H
	DD	075c0190H
	DD	0760ef30H
	DD	0765dc98H
	DD	076ac9c0H
	DD	076fb6b8H
	DD	0774a370H
	DD	07798ff8H
	DD	077e7c40H
	DD	07836850H
	DD	07885430H
	DD	078d3fd0H
	DD	07922b38H
	DD	07971668H
	DD	079c0158H
	DD	07a0ec18H
	DD	07a5d698H
	DD	07aac0e0H
	DD	07afaaf0H
	DD	07b494c8H
	DD	07b97e60H
	DD	07be67c0H
	DD	07c350e8H
	DD	07c839d8H
	DD	07cd2288H
	DD	07d20b00H
	DD	07d6f338H
	DD	07dbdb38H
	DD	07e0c300H
	DD	07e5aa88H
	DD	07ea91d8H
	DD	07ef78f0H
	DD	07f45fc8H
	DD	07f94660H
	DD	07fe2cc8H
	DD	080312f0H
	DD	0807f8d0H
	DD	080cde80H
	DD	0811c3f0H
	DD	0816a920H
	DD	081b8e20H
	DD	082072d0H
	DD	08255750H
	DD	082a3b90H
	DD	082f1fa0H
	DD	08340360H
	DD	0838e6f0H
	DD	083dca30H
	DD	0842ad40H
	DD	08479010H
	DD	084c72a0H
	DD	08515500H
	DD	08563710H
	DD	085b18f0H
	DD	085ffa80H
	DD	0864dbe0H
	DD	0869bd00H
	DD	086e9de0H
	DD	08737e80H
	DD	08785ee0H
	DD	087d3f00H
	DD	08821ee0H
	DD	0886fe90H
	DD	088bddf0H
	DD	0890bd10H
	DD	08959bf0H
	DD	089a7aa0H
	DD	089f5900H
	DD	08a43720H
	DD	08a91510H
	DD	08adf2b0H
	DD	08b2d010H
	DD	08b7ad40H
	DD	08bc8a20H
	DD	08c166c0H
	DD	08c64320H
	DD	08cb1f40H
	DD	08cffb20H
	DD	08d4d6c0H
	DD	08d9b220H
	DD	08de8d40H
	DD	08e36820H
	DD	08e842b0H
	DD	08ed1d10H
	DD	08f1f720H
	DD	08f6d0f0H
	DD	08fbaa80H
	DD	090083d0H
	DD	09055ce0H
	DD	090a35b0H
	DD	090f0e30H
	DD	0913e680H
	DD	0918be80H
	DD	091d9640H
	DD	09226dc0H
	DD	092744f0H
	DD	092c1bf0H
	DD	0930f2a0H
	DD	0935c910H
	DD	093a9f30H
	DD	093f7520H
	DD	09444ac0H
	DD	09492020H
	DD	094df540H
	DD	0952ca10H
	DD	09579eb0H
	DD	095c7300H
	DD	09614700H
	DD	09661ad0H
	DD	096aee50H
	DD	096fc180H
	DD	09749480H
	DD	09796730H
	DD	097e39a0H
	DD	09830bc0H
	DD	0987dda0H
	DD	098caf40H
	DD	099180a0H
	DD	099651b0H
	DD	099b2270H
	DD	099ff300H
	DD	09a4c340H
	DD	09a99330H
	DD	09ae62e0H
	DD	09b33250H
	DD	09b80180H
	DD	09bcd050H
	DD	09c19ef0H
	DD	09c66d40H
	DD	09cb3b50H
	DD	09d00910H
	DD	09d4d690H
	DD	09d9a3c0H
	DD	09de70b0H
	DD	09e33d50H
	DD	09e809b0H
	DD	09ecd5c0H
	DD	09f1a190H
	DD	09f66d20H
	DD	09fb3860H
	DD	0a000350H
	DD	0a04ce00H
	DD	0a099860H
	DD	0a0e6280H
	DD	0a132c50H
	DD	0a17f5e0H
	DD	0a1cbf20H
	DD	0a218820H
	DD	0a2650d0H
	DD	0a2b1940H
	DD	0a2fe150H
	DD	0a34a930H
	DD	0a3970c0H
	DD	0a3e3800H
	DD	0a42fef0H
	DD	0a47c5a0H
	DD	0a4c8c00H
	DD	0a515220H
	DD	0a5617f0H
	DD	0a5add80H
	DD	0a5fa2b0H
	DD	0a6467a0H
	DD	0a692c50H
	DD	0a6df0b0H
	DD	0a72b4c0H
	DD	0a777880H
	DD	0a7c3c00H
	DD	0a80ff30H
	DD	0a85c220H
	DD	0a8a84b0H
	DD	0a8f4700H
	DD	0a940900H
	DD	0a98cac0H
	DD	0a9d8c30H
	DD	0aa24d50H
	DD	0aa70e20H
	DD	0aabceb0H
	DD	0ab08ef0H
	DD	0ab54ee0H
	DD	0aba0e80H
	DD	0abecde0H
	DD	0ac38ce0H
	DD	0ac84ba0H
	DD	0acd0a10H
	DD	0ad1c840H
	DD	0ad68610H
	DD	0adb43a0H
	DD	0ae000e0H
	DD	0ae4bdd0H
	DD	0ae97a80H
	DD	0aee36d0H
	DD	0af2f2e0H
	DD	0af7ae90H
	DD	0afc6a00H
	DD	0b012520H
	DD	0b05e000H
	DD	0b0a9a80H
	DD	0b0f54b0H
	DD	0b140ea0H
	DD	0b18c840H
	DD	0b1d8180H
	DD	0b223a80H
	DD	0b26f330H
	DD	0b2bab90H
	DD	0b3063a0H
	DD	0b351b70H
	DD	0b39d2e0H
	DD	0b3e8a00H
	DD	0b4340e0H
	DD	0b47f760H
	DD	0b4cada0H
	DD	0b516380H
	DD	0b561920H
	DD	0b5ace60H
	DD	0b5f8360H
	DD	0b643800H
	DD	0b68ec60H
	DD	0b6da070H
	DD	0b725420H
	DD	0b770790H
	DD	0b7bbab0H
	DD	0b806d70H
	DD	0b851ff0H
	DD	0b89d210H
	DD	0b8e83f0H
	DD	0b933570H
	DD	0b97e6a0H
	DD	0b9c9790H
	DD	0ba14820H
	DD	0ba5f860H
	DD	0baaa850H
	DD	0baf57f0H
	DD	0bb40740H
	DD	0bb8b640H
	DD	0bbd64f0H
	DD	0bc21350H
	DD	0bc6c150H
	DD	0bcb6f10H
	DD	0bd01c70H
	DD	0bd4c980H
	DD	0bd97640H
	DD	0bde22b0H
	DD	0be2ced0H
	DD	0be77aa0H
	DD	0bec2610H
	DD	0bf0d140H
	DD	0bf57c10H
	DD	0bfa2690H
	DD	0bfed0c0H
	DD	0c037a90H
	DD	0c082420H
	DD	0c0ccd50H
	DD	0c117630H
	DD	0c161ec0H
	DD	0c1ac6f0H
	DD	0c1f6ee0H
	DD	0c241670H
	DD	0c28bdb0H
	DD	0c2d64a0H
	DD	0c320b30H
	DD	0c36b180H
	DD	0c3b5770H
	DD	0c3ffd10H
	DD	0c44a250H
	DD	0c494740H
	DD	0c4debe0H
	DD	0c529030H
	DD	0c573430H
	DD	0c5bd7d0H
	DD	0c607b20H
	DD	0c651e10H
	DD	0c69c0c0H
	DD	0c6e6310H
	DD	0c730500H
	DD	0c77a6b0H
	DD	0c7c4800H
	DD	0c80e8f0H
	DD	0c8589a0H
	DD	0c8a29f0H
	DD	0c8ec9e0H
	DD	0c936990H
	DD	0c9808e0H
	DD	0c9ca7e0H
	DD	0ca14680H
	DD	0ca5e4d0H
	DD	0caa82c0H
	DD	0caf2060H
	DD	0cb3bdb0H
	DD	0cb85ab0H
	DD	0cbcf750H
	DD	0cc19390H
	DD	0cc62f80H
	DD	0ccacb20H
	DD	0ccf6670H
	DD	0cd40160H
	DD	0cd89bf0H
	DD	0cdd3630H
	DD	0ce1d020H
	DD	0ce669b0H
	DD	0ceb02f0H
	DD	0cef9bd0H
	DD	0cf43460H
	DD	0cf8cca0H
	DD	0cfd6480H
	DD	0d01fc00H
	DD	0d069330H
	DD	0d0b2a10H
	DD	0d0fc090H
	DD	0d1456b0H
	DD	0d18ec80H
	DD	0d1d8200H
	DD	0d221720H
	DD	0d26abf0H
	DD	0d2b4060H
	DD	0d2fd470H
	DD	0d346830H
	DD	0d38fba0H
	DD	0d3d8eb0H
	DD	0d422160H
	DD	0d46b3c0H
	DD	0d4b45d0H
	DD	0d4fd770H
	DD	0d5468d0H
	DD	0d58f9c0H
	DD	0d5d8a70H
	DD	0d621ab0H
	DD	0d66aaa0H
	DD	0d6b3a40H
	DD	0d6fc970H
	DD	0d745860H
	DD	0d78e6e0H
	DD	0d7d7510H
	DD	0d8202f0H
	DD	0d869070H
	DD	0d8b1d90H
	DD	0d8faa50H
	DD	0d9436c0H
	DD	0d98c2e0H
	DD	0d9d4ea0H
	DD	0da1da00H
	DD	0da66500H
	DD	0daaefb0H
	DD	0daf7a00H
	DD	0db40400H
	DD	0db88da0H
	DD	0dbd16e0H
	DD	0dc19fc0H
	DD	0dc62850H
	DD	0dcab090H
	DD	0dcf3860H
	DD	0dd3bfe0H
	DD	0dd84700H
	DD	0ddccdd0H
	DD	0de15430H
	DD	0de5da50H
	DD	0dea6000H
	DD	0deee560H
	DD	0df36a60H
	DD	0df7ef00H
	DD	0dfc7340H
	DD	0e00f730H
	DD	0e057ac0H
	DD	0e09fe00H
	DD	0e0e80d0H
	DD	0e130350H
	DD	0e178570H
	DD	0e1c0740H
	DD	0e2088a0H
	DD	0e2509b0H
	DD	0e298a60H
	DD	0e2e0ab0H
	DD	0e328ab0H
	DD	0e370a50H
	DD	0e3b8990H
	DD	0e400870H
	DD	0e4486f0H
	DD	0e490520H
	DD	0e4d82f0H
	DD	0e520060H
	DD	0e567d70H
	DD	0e5afa30H
	DD	0e5f7680H
	DD	0e63f280H
	DD	0e686e20H
	DD	0e6ce960H
	DD	0e716440H
	DD	0e75ded0H
	DD	0e7a5900H
	DD	0e7ed2c0H
	DD	0e834c30H
	DD	0e87c550H
	DD	0e8c3e00H
	DD	0e90b650H
	DD	0e952e50H
	DD	0e99a5e0H
	DD	0e9e1d20H
	DD	0ea29400H
	DD	0ea70a80H
	DD	0eab80a0H
	DD	0eaff670H
	DD	0eb46bd0H
	DD	0eb8e0e0H
	DD	0ebd5580H
	DD	0ec1c9d0H
	DD	0ec63dc0H
	DD	0ecab150H
	DD	0ecf2480H
	DD	0ed39750H
	DD	0ed809c0H
	DD	0edc7bd0H
	DD	0ee0ed90H
	DD	0ee55ee0H
	DD	0ee9cfe0H
	DD	0eee4070H
	DD	0ef2b0b0H
	DD	0ef72080H
	DD	0efb9000H
	DD	0effff20H
	DD	0f046de0H
	DD	0f08dc40H
	DD	0f0d4a30H
	DD	0f11b7d0H
	DD	0f162510H
	DD	0f1a91f0H
	DD	0f1efe70H
	DD	0f236a90H
	DD	0f27d650H
	DD	0f2c41b0H
	DD	0f30acb0H
	DD	0f351760H
	DD	0f3981a0H
	DD	0f3deb80H
	DD	0f425500H
	DD	0f46be20H
	DD	0f4b26e0H
	DD	0f4f8f40H
	DD	0f53f740H
	DD	0f585ee0H
	DD	0f5cc620H
	DD	0f612d00H
	DD	0f659380H
	DD	0f69f9a0H
	DD	0f6e5f50H
	DD	0f72c4b0H
	DD	0f7729b0H
	DD	0f7b8e50H
	DD	0f7ff280H
	DD	0f845660H
	DD	0f88b9d0H
	DD	0f8d1cf0H
	DD	0f917fa0H
	DD	0f95e200H
	DD	0f9a43f0H
	DD	0f9ea580H
	DD	0fa306b0H
	DD	0fa76780H
	DD	0fabc7f0H
	DD	0fb02800H
	DD	0fb487b0H
	DD	0fb8e700H
	DD	0fbd45e0H
	DD	0fc1a470H
	DD	0fc60290H
	DD	0fca6050H
	DD	0fcebdb0H
	DD	0fd31ab0H
	DD	0fd77750H
	DD	0fdbd390H
	DD	0fe02f70H
	DD	0fe48ae0H
	DD	0fe8e600H
	DD	0fed40b0H
	DD	0ff19b00H
	DD	0ff5f4f0H
	DD	0ffa4e80H
	DD	0ffea7b0H
	DD	010030080H
	DD	0100758e0H
	DD	0100bb0e0H
	DD	010100880H
	DD	010145fc0H
	DD	01018b6a0H
	DD	0101d0d20H
	DD	010216340H
	DD	01025b8e0H
	DD	0102a0e40H
	DD	0102e6320H
	DD	01032b7c0H
	DD	010370be0H
	DD	0103b5fa0H
	DD	0103fb300H
	DD	010440600H
	DD	0104858a0H
	DD	0104caae0H
	DD	01050fcc0H
	DD	010554e40H
	DD	010599f40H
	DD	0105df000H
	DD	010624040H
	DD	010669020H
	DD	0106adfa0H
	DD	0106f2ec0H
	DD	010737d80H
	DD	01077cbe0H
	DD	0107c19c0H
	DD	010806760H
	DD	01084b480H
	DD	010890160H
	DD	0108d4dc0H
	DD	0109199c0H
	DD	01095e560H
	DD	0109a30a0H
	DD	0109e7b60H
	DD	010a2c5e0H
	DD	010a70fe0H
	DD	010ab59a0H
	DD	010afa2e0H
	DD	010b3ebc0H
	DD	010b83440H
	DD	010bc7c60H
	DD	010c0c400H
	DD	010c50b60H
	DD	010c95240H
	DD	010cd98e0H
	DD	010d1df00H
	DD	010d624c0H
	DD	010da6a00H
	DD	010deaf00H
	DD	010e2f3a0H
	DD	010e737c0H
	DD	010eb7b80H
	DD	010efbee0H
	DD	010f401e0H
	DD	010f84480H
	DD	010fc86c0H
	DD	01100c880H
	DD	011050a00H
	DD	011094b00H
	DD	0110d8ba0H
	DD	01111cbe0H
	DD	011160ba0H
	DD	0111a4b20H
	DD	0111e8a20H
	DD	01122c8e0H
	DD	011270720H
	DD	0112b4500H
	DD	0112f8260H
	DD	01133bf80H
	DD	01137fc20H
	DD	0113c3860H
	DD	011407460H
	DD	01144afc0H
	DD	01148eae0H
	DD	0114d25a0H
	DD	011515fe0H
	DD	0115599c0H
	DD	01159d340H
	DD	0115e0c60H
	DD	011624520H
	DD	011667d60H
	DD	0116ab540H
	DD	0116eece0H
	DD	011732400H
	DD	011775aa0H
	DD	0117b9100H
	DD	0117fc6e0H
	DD	01183fc60H
	DD	011883180H
	DD	0118c6640H
	DD	011909aa0H
	DD	01194ce80H
	DD	011990200H
	DD	0119d3520H
	DD	011a167e0H
	DD	011a59a40H
	DD	011a9cc20H
	DD	011adfdc0H
	DD	011b22ee0H
	DD	011b65fa0H
	DD	011ba8fe0H
	DD	011bebfe0H
	DD	011c2ef60H
	DD	011c71e80H
	DD	011cb4d40H
	DD	011cf7b80H
	DD	011d3a980H
	DD	011d7d700H
	DD	011dc0420H
	DD	011e030e0H
	DD	011e45d20H
	DD	011e88920H
	DD	011ecb4a0H
	DD	011f0dfc0H
	DD	011f50a80H
	DD	011f934c0H
	DD	011fd5ec0H
	DD	012018840H
	DD	01205b160H
	DD	01209da00H
	DD	0120e0260H
	DD	012122a40H
	DD	0121651c0H
	DD	0121a78e0H
	DD	0121e9f80H
	DD	01222c5e0H
	DD	01226ebc0H
	DD	0122b1120H
	DD	0122f3640H
	DD	012335b00H
	DD	012377f40H
	DD	0123ba320H
	DD	0123fc680H
	DD	01243e9a0H
	DD	012480c40H
	DD	0124c2e80H
	DD	012505060H
	DD	0125471e0H
	DD	0125892e0H
	DD	0125cb380H
	DD	01260d3c0H
	DD	01264f3a0H
	DD	012691300H
	DD	0126d3200H
	DD	0127150a0H
	DD	012756ee0H
	DD	012798ca0H
	DD	0127daa00H
	DD	01281c700H
	DD	01285e3a0H
	DD	01289ffe0H
	DD	0128e1ba0H
	DD	012923700H
	DD	012965200H
	DD	0129a6c80H
	DD	0129e86a0H
	DD	012a2a060H
	DD	012a6b9c0H
	DD	012aad2c0H
	DD	012aeeb40H
	DD	012b30360H
	DD	012b71b20H
	DD	012bb3260H
	DD	012bf4940H
	DD	012c35fc0H
	DD	012c775e0H
	DD	012cb8b80H
	DD	012cfa0e0H
	DD	012d3b5c0H
	DD	012d7ca20H
	DD	012dbde40H
	DD	012dff1e0H
	DD	012e40520H
	DD	012e81800H
	DD	012ec2a60H
	DD	012f03c60H
	DD	012f44e00H
	DD	012f85f40H
	DD	012fc7000H
	DD	013008060H
	DD	013049060H
	DD	01308a000H
	DD	0130caf20H
	DD	01310bde0H
	DD	01314cc40H
	DD	01318da20H
	DD	0131ce7a0H
	DD	01320f4c0H
	DD	013250180H
	DD	013290de0H
	DD	0132d19c0H
	DD	013312540H
	DD	013353040H
	DD	013393b00H
	DD	0133d4540H
	DD	013414f20H
	DD	013455880H
	DD	013496180H
	DD	0134d6a20H
	DD	013517260H
	DD	013557a20H
	DD	0135981a0H
	DD	0135d88a0H
	DD	013618f20H
	DD	013659540H
	DD	013699b20H
	DD	0136da060H
	DD	01371a560H
	DD	01375a9e0H
	DD	01379ae00H
	DD	0137db1c0H
	DD	01381b500H
	DD	01385b7e0H
	DD	01389ba60H
	DD	0138dbc60H
	DD	01391be20H
	DD	01395bf60H
	DD	01399c020H
	DD	0139dc0a0H
	DD	013a1c0a0H
	DD	013a5c040H
	DD	013a9bf60H
	DD	013adbe40H
	DD	013b1bca0H
	DD	013b5ba80H
	DD	013b9b820H
	DD	013bdb540H
	DD	013c1b200H
	DD	013c5ae40H
	DD	013c9aa20H
	DD	013cda5a0H
	DD	013d1a0c0H
	DD	013d59b60H
	DD	013d995c0H
	DD	013dd8f80H
	DD	013e18900H
	DD	013e58200H
	DD	013e97aa0H
	DD	013ed72e0H
	DD	013f16aa0H
	DD	013f56200H
	DD	013f95900H
	DD	013fd4f80H
	DD	0140145c0H
	DD	014053b60H
	DD	0140930c0H
	DD	0140d25a0H
	DD	014111a20H
	DD	014150e40H
	DD	0141901e0H
	DD	0141cf540H
	DD	01420e800H
	DD	01424da80H
	DD	01428cc80H
	DD	0142cbe20H
	DD	01430af60H
	DD	01434a020H
	DD	014389080H
	DD	0143c8080H
	DD	014407000H
	DD	014445f20H
	DD	014484de0H
	DD	0144c3c40H
	DD	014502a20H
	DD	0145417a0H
	DD	0145804c0H
	DD	0145bf160H
	DD	0145fdda0H
	DD	01463c980H
	DD	01467b4e0H
	DD	0146b9fe0H
	DD	0146f8a80H
	DD	0147374c0H
	DD	014775e80H
	DD	0147b47e0H
	DD	0147f30e0H
	DD	014831960H
	DD	014870180H
	DD	0148ae940H
	DD	0148ed080H
	DD	01492b760H
	DD	014969de0H
	DD	0149a8400H
	DD	0149e69a0H
	DD	014a24ee0H
	DD	014a633a0H
	DD	014aa1820H
	DD	014adfc20H
	DD	014b1dfa0H
	DD	014b5c2e0H
	DD	014b9a5a0H
	DD	014bd8800H
	DD	014c169e0H
	DD	014c54b60H
	DD	014c92c80H
	DD	014cd0d40H
	DD	014d0ed80H
	DD	014d4cd60H
	DD	014d8acc0H
	DD	014dc8be0H
	DD	014e06a80H
	DD	014e448c0H
	DD	014e82680H
	DD	014ec03e0H
	DD	014efe0e0H
	DD	014f3bd60H
	DD	014f799a0H
	DD	014fb7540H
	DD	014ff50a0H
	DD	015032b80H
	DD	015070600H
	DD	0150ae020H
	DD	0150eb9c0H
	DD	015129300H
	DD	015166be0H
	DD	0151a4440H
	DD	0151e1c60H
	DD	01521f3e0H
	DD	01525cb20H
	DD	01529a1e0H
	DD	0152d7840H
	DD	015314e20H
	DD	0153523c0H
	DD	01538f8e0H
	DD	0153ccd80H
	DD	01540a1e0H
	DD	0154475c0H
	DD	015484920H
	DD	0154c1c40H
	DD	0154feee0H
	DD	01553c120H
	DD	0155792e0H
	DD	0155b6460H
	DD	0155f3540H
	DD	0156305e0H
	DD	01566d600H
	DD	0156aa5c0H
	DD	0156e7520H
	DD	015724400H
	DD	015761280H
	DD	01579e0a0H
	DD	0157dae40H
	DD	015817b80H
	DD	015854860H
	DD	0158914e0H
	DD	0158ce0e0H
	DD	01590ac80H
	DD	0159477a0H
	DD	015984280H
	DD	0159c0ce0H
	DD	0159fd6c0H
	DD	015a3a060H
	DD	015a76980H
	DD	015ab3220H
	DD	015aefa80H
	DD	015b2c260H
	DD	015b689e0H
	DD	015ba50e0H
	DD	015be1780H
	DD	015c1ddc0H
	DD	015c5a3a0H
	DD	015c96900H
	DD	015cd2e00H
	DD	015d0f2a0H
	DD	015d4b6c0H
	DD	015d87a80H
	DD	015dc3de0H
	DD	015e000c0H
	DD	015e3c340H
	DD	015e78560H
	DD	015eb4720H
	DD	015ef0860H
	DD	015f2c940H
	DD	015f689c0H
	DD	015fa49c0H
	DD	015fe0960H
	DD	01601c8a0H
	DD	016058760H
	DD	0160945c0H
	DD	0160d03c0H
	DD	01610c140H
	DD	016147e60H
	DD	016183b20H
	DD	0161bf780H
	DD	0161fb360H
	DD	016236ee0H
	DD	016272a00H
	DD	0162ae4a0H
	DD	0162e9ee0H
	DD	0163258c0H
	DD	016361220H
	DD	01639cb20H
	DD	0163d83c0H
	DD	016413c00H
	DD	01644f3c0H
	DD	01648ab20H
	DD	0164c6220H
	DD	0165018a0H
	DD	01653cec0H
	DD	016578480H
	DD	0165b39c0H
	DD	0165eeea0H
	DD	01662a320H
	DD	016665740H
	DD	0166a0ae0H
	DD	0166dbe20H
	DD	016717100H
	DD	016752360H
	DD	01678d560H
	DD	0167c8700H
	DD	016803820H
	DD	01683e8e0H
	DD	016879940H
	DD	0168b4940H
	DD	0168ef8c0H
	DD	01692a7e0H
	DD	0169656a0H
	DD	0169a04e0H
	DD	0169db2c0H
	DD	016a16040H
	DD	016a50d40H
	DD	016a8ba00H
	DD	016ac6620H
	DD	016b01200H
	DD	016b3bd60H
	DD	016b76860H
	DD	016bb1300H
	DD	016bebd40H
	DD	016c26700H
	DD	016c61060H
	DD	016c9b940H
	DD	016cd61c0H
	DD	016d109e0H
	DD	016d4b1a0H
	DD	016d858e0H
	DD	016dbffe0H
	DD	016dfa640H
	DD	016e34c60H
	DD	016e6f200H
	DD	016ea9740H
	DD	016ee3c20H
	DD	016f1e080H
	DD	016f58480H
	DD	016f92820H
	DD	016fccb60H
	DD	017006e20H
	DD	017041080H
	DD	01707b260H
	DD	0170b5400H
	DD	0170ef520H
	DD	0171295e0H
	DD	017163620H
	DD	01719d600H
	DD	0171d7580H
	DD	0172114a0H
	DD	01724b340H
	DD	017285180H
	DD	0172bef60H
	DD	0172f8ce0H
	DD	0173329e0H
	DD	01736c680H
	DD	0173a62c0H
	DD	0173dfe80H
	DD	0174199e0H
	DD	0174534e0H
	DD	01748cf80H
	DD	0174c69a0H
	DD	017500360H
	DD	017539cc0H
	DD	0175735a0H
	DD	0175ace20H
	DD	0175e6640H
	DD	01761fe00H
	DD	017659540H
	DD	017692c20H
	DD	0176cc2a0H
	DD	0177058c0H
	DD	01773ee60H
	DD	0177783a0H
	DD	0177b1880H
	DD	0177eace0H
	DD	0178240e0H
	DD	01785d480H
	DD	0178967c0H
	DD	0178cfa80H
	DD	017908ce0H
	DD	017941ee0H
	DD	01797b080H
	DD	0179b41a0H
	DD	0179ed260H
	DD	017a262c0H
	DD	017a5f2a0H
	DD	017a98220H
	DD	017ad1140H
	DD	017b0a000H
	DD	017b42e40H
	DD	017b7bc40H
	DD	017bb49c0H
	DD	017bed6c0H
	DD	017c26380H
	DD	017c5efc0H
	DD	017c97b80H
	DD	017cd0700H
	DD	017d09200H
	DD	017d41ca0H
	DD	017d7a6e0H
	DD	017db30c0H
	DD	017deba20H
	DD	017e24320H
	DD	017e5cbc0H
	DD	017e953e0H
	DD	017ecdbc0H
	DD	017f06320H
	DD	017f3ea00H
	DD	017f770a0H
	DD	017faf6c0H
	DD	017fe7c80H
	DD	0180201e0H
	DD	0180586c0H
	DD	018090b40H
	DD	0180c8f60H
	DD	018101320H
	DD	018139680H
	DD	018171960H
	DD	0181a9be0H
	DD	0181e1e00H
	DD	018219fa0H
	DD	0182520e0H
	DD	01828a1c0H
	DD	0182c2240H
	DD	0182fa240H
	DD	018332200H
	DD	01836a140H
	DD	0183a2000H
	DD	0183d9e80H
	DD	018411c80H
	DD	018449a20H
	DD	018481760H
	DD	0184b9440H
	DD	0184f10a0H
	DD	018528ca0H
	DD	018560840H
	DD	018598360H
	DD	0185cfe40H
	DD	0186078a0H
	DD	01863f2a0H
	DD	018676c20H
	DD	0186ae560H
	DD	0186e5e20H
	DD	01871d680H
	DD	018754e80H
	DD	01878c600H
	DD	0187c3d20H
	DD	0187fb3e0H
	DD	018832a40H
	DD	01886a040H
	DD	0188a15c0H
	DD	0188d8ae0H
	DD	01890ffa0H
	DD	0189473e0H
	DD	01897e7e0H
	DD	0189b5b60H
	DD	0189ece80H
	DD	018a24140H
	DD	018a5b380H
	DD	018a92560H
	DD	018ac96e0H
	DD	018b00800H
	DD	018b378c0H
	DD	018b6e900H
	DD	018ba58e0H
	DD	018bdc860H
	DD	018c13780H
	DD	018c4a640H
	DD	018c81480H
	DD	018cb8260H
	DD	018ceefe0H
	DD	018d25d00H
	DD	018d5c9a0H
	DD	018d935e0H
	DD	018dca1c0H
	DD	018e00d40H
	DD	018e37860H
	DD	018e6e300H
	DD	018ea4d40H
	DD	018edb720H
	DD	018f120a0H
	DD	018f489a0H
	DD	018f7f260H
	DD	018fb5aa0H
	DD	018fec280H
	DD	0190229e0H
	DD	019059100H
	DD	01908f7a0H
	DD	0190c5de0H
	DD	0190fc3c0H
	DD	019132940H
	DD	019168e40H
	DD	01919f2e0H
	DD	0191d5740H
	DD	01920bb00H
	DD	019241e80H
	DD	0192781a0H
	DD	0192ae440H
	DD	0192e4680H
	DD	01931a860H
	DD	0193509e0H
	DD	019386ae0H
	DD	0193bcb80H
	DD	0193f2be0H
	DD	019428ba0H
	DD	01945eb20H
	DD	019494a40H
	DD	0194ca8e0H
	DD	019500720H
	DD	019536500H
	DD	01956c280H
	DD	0195a1fa0H
	DD	0195d7c40H
	DD	01960d880H
	DD	019643460H
	DD	019678fe0H
	DD	0196aeb00H
	DD	0196e45a0H
	DD	01971a000H
	DD	01974f9e0H
	DD	019785360H
	DD	0197bac80H
	DD	0197f0520H
	DD	019825d80H
	DD	01985b560H
	DD	019890ce0H
	DD	0198c6400H
	DD	0198fbac0H
	DD	019931100H
	DD	019966700H
	DD	01999bc80H
	DD	0199d11a0H
	DD	019a06660H
	DD	019a3bac0H
	DD	019a70ea0H
	DD	019aa6240H
	DD	019adb560H
	DD	019b10820H
	DD	019b45a80H
	DD	019b7ac60H
	DD	019bafe00H
	DD	019be4f20H
	DD	019c1a000H
	DD	019c4f060H
	DD	019c84060H
	DD	019cb8fe0H
	DD	019cedf20H
	DD	019d22e00H
	DD	019d57c60H
	DD	019d8ca60H
	DD	019dc1800H
	DD	019df6540H
	DD	019e2b200H
	DD	019e5fe80H
	DD	019e94a80H
	DD	019ec9640H
	DD	019efe180H
	DD	019f32c60H
	DD	019f676c0H
	DD	019f9c0e0H
	DD	019fd0a80H
	DD	01a0053e0H
	DD	01a039cc0H
	DD	01a06e540H
	DD	01a0a2d60H
	DD	01a0d7520H
	DD	01a10bc60H
	DD	01a140360H
	DD	01a1749e0H
	DD	01a1a9000H
	DD	01a1dd5c0H
	DD	01a211b20H
	DD	01a246020H
	DD	01a27a4c0H
	DD	01a2ae8e0H
	DD	01a2e2cc0H
	DD	01a317020H
	DD	01a34b320H
	DD	01a37f5c0H
	DD	01a3b3800H
	DD	01a3e79e0H
	DD	01a41bb40H
	DD	01a44fc60H
	DD	01a483d00H
	DD	01a4b7d40H
	DD	01a4ebd40H
	DD	01a51fcc0H
	DD	01a553bc0H
	DD	01a587a80H
	DD	01a5bb8e0H
	DD	01a5ef6c0H
	DD	01a623460H
	DD	01a657180H
	DD	01a68ae40H
	DD	01a6beaa0H
	DD	01a6f26a0H
	DD	01a726240H
	DD	01a759d80H
	DD	01a78d840H
	DD	01a7c12c0H
	DD	01a7f4cc0H
	DD	01a828660H
	DD	01a85bfc0H
	DD	01a88f8a0H
	DD	01a8c3120H
	DD	01a8f6920H
	DD	01a92a0e0H
	DD	01a95d840H
	DD	01a990f20H
	DD	01a9c45c0H
	DD	01a9f7be0H
	DD	01aa2b1a0H
	DD	01aa5e700H
	DD	01aa91c20H
	DD	01aac50a0H
	DD	01aaf84e0H
	DD	01ab2b8c0H
	DD	01ab5ec40H
	DD	01ab91f40H
	DD	01abc5200H
	DD	01abf8440H
	DD	01ac2b620H
	DD	01ac5e7c0H
	DD	01ac918e0H
	DD	01acc49a0H
	DD	01acf7a00H
	DD	01ad2a9e0H
	DD	01ad5d980H
	DD	01ad908c0H
	DD	01adc37a0H
	DD	01adf6600H
	DD	01ae29400H
	DD	01ae5c1c0H
	DD	01ae8ef00H
	DD	01aec1be0H
	DD	01aef4860H
	DD	01af27480H
	DD	01af5a040H
	DD	01af8cba0H
	DD	01afbf6a0H
	DD	01aff2140H
	DD	01b024b80H
	DD	01b057540H
	DD	01b089ec0H
	DD	01b0bc7c0H
	DD	01b0ef080H
	DD	01b1218c0H
	DD	01b1540a0H
	DD	01b186840H
	DD	01b1b8f60H
	DD	01b1eb620H
	DD	01b21dc80H
	DD	01b250280H
	DD	01b282820H
	DD	01b2b4d60H
	DD	01b2e7220H
	DD	01b3196a0H
	DD	01b34bac0H
	DD	01b37de60H
	DD	01b3b01c0H
	DD	01b3e24c0H
	DD	01b414740H
	DD	01b446960H
	DD	01b478b40H
	DD	01b4aaca0H
	DD	01b4dcda0H
	DD	01b50ee60H
	DD	01b540ea0H
	DD	01b572e80H
	DD	01b5a4e00H
	DD	01b5d6d20H
	DD	01b608be0H
	DD	01b63aa40H
	DD	01b66c840H
	DD	01b69e5e0H
	DD	01b6d0320H
	DD	01b702000H
	DD	01b733c80H
	DD	01b765880H
	DD	01b797440H
	DD	01b7c8fa0H
	DD	01b7faaa0H
	DD	01b82c520H
	DD	01b85df60H
	DD	01b88f940H
	DD	01b8c12a0H
	DD	01b8f2bc0H
	DD	01b924460H
	DD	01b955cc0H
	DD	01b9874a0H
	DD	01b9b8c40H
	DD	01b9ea360H
	DD	01ba1ba20H
	DD	01ba4d0a0H
	DD	01ba7e6a0H
	DD	01baafc60H
	DD	01bae11a0H
	DD	01bb12680H
	DD	01bb43b20H
	DD	01bb74f40H
	DD	01bba6300H
	DD	01bbd7680H
	DD	01bc08980H
	DD	01bc39c20H
	DD	01bc6ae60H
	DD	01bc9c060H
	DD	01bccd1e0H
	DD	01bcfe300H
	DD	01bd2f3e0H
	DD	01bd60440H
	DD	01bd91440H
	DD	01bdc23e0H
	DD	01bdf3340H
	DD	01be24220H
	DD	01be550a0H
	DD	01be85ec0H
	DD	01beb6ca0H
	DD	01bee7a00H
	DD	01bf18700H
	DD	01bf493c0H
	DD	01bf7a000H
	DD	01bfaabe0H
	DD	01bfdb780H
	DD	01c00c2a0H
	DD	01c03cd60H
	DD	01c06d7e0H
	DD	01c09e1e0H
	DD	01c0ceba0H
	DD	01c0ff4e0H
	DD	01c12fde0H
	DD	01c160660H
	DD	01c190ea0H
	DD	01c1c1660H
	DD	01c1f1de0H
	DD	01c2224e0H
	DD	01c252ba0H
	DD	01c283200H
	DD	01c2b37e0H
	DD	01c2e3d80H
	DD	01c3142c0H
	DD	01c3447a0H
	DD	01c374c00H
	DD	01c3a5020H
	DD	01c3d53e0H
	DD	01c405740H
	DD	01c435a40H
	DD	01c465ce0H
	DD	01c495f20H
	DD	01c4c6100H
	DD	01c4f6280H
	DD	01c5263a0H
	DD	01c556480H
	DD	01c5864e0H
	DD	01c5b64e0H
	DD	01c5e64a0H
	DD	01c6163e0H
	DD	01c6462c0H
	DD	01c676160H
	DD	01c6a5f80H
	DD	01c6d5d60H
	DD	01c705ae0H
	DD	01c7357e0H
	DD	01c7654a0H
	DD	01c795100H
	DD	01c7c4d00H
	DD	01c7f48a0H
	DD	01c8243e0H
	DD	01c853ec0H
	DD	01c883940H
	DD	01c8b3360H
	DD	01c8e2d40H
	DD	01c9126a0H
	DD	01c941fc0H
	DD	01c971860H
	DD	01c9a10c0H
	DD	01c9d08a0H
	DD	01ca00040H
	DD	01ca2f780H
	DD	01ca5ee60H
	DD	01ca8e4c0H
	DD	01cabdae0H
	DD	01caed0c0H
	DD	01cb1c620H
	DD	01cb4bb20H
	DD	01cb7afc0H
	DD	01cbaa420H
	DD	01cbd9800H
	DD	01cc08ba0H
	DD	01cc37ec0H
	DD	01cc671a0H
	DD	01cc96420H
	DD	01ccc5640H
	DD	01ccf4800H
	DD	01cd23960H
	DD	01cd52a60H
	DD	01cd81b20H
	DD	01cdb0b60H
	DD	01cddfb60H
	DD	01ce0eae0H
	DD	01ce3da20H
	DD	01ce6c900H
	DD	01ce9b780H
	DD	01ceca5a0H
	DD	01cef9360H
	DD	01cf280c0H
	DD	01cf56dc0H
	DD	01cf85a80H
	DD	01cfb46c0H
	DD	01cfe32c0H
	DD	01d011e60H
	DD	01d040980H
	DD	01d06f460H
	DD	01d09df00H
	DD	01d0cc920H
	DD	01d0fb2e0H
	DD	01d129c40H
	DD	01d158560H
	DD	01d186e20H
	DD	01d1b5680H
	DD	01d1e3e60H
	DD	01d212620H
	DD	01d240d60H
	DD	01d26f440H
	DD	01d29dac0H
	DD	01d2cc100H
	DD	01d2fa6e0H
	DD	01d328c40H
	DD	01d357160H
	DD	01d385620H
	DD	01d3b3aa0H
	DD	01d3e1ea0H
	DD	01d410260H
	DD	01d43e5a0H
	DD	01d46c8a0H
	DD	01d49ab40H
	DD	01d4c8d80H
	DD	01d4f6f60H
	DD	01d5250e0H
	DD	01d553220H
	DD	01d5812e0H
	DD	01d5af360H
	DD	01d5dd380H
	DD	01d60b340H
	DD	01d6392a0H
	DD	01d6671c0H
	DD	01d695060H
	DD	01d6c2ec0H
	DD	01d6f0cc0H
	DD	01d71ea60H
	DD	01d74c7a0H
	DD	01d77a480H
	DD	01d7a8120H
	DD	01d7d5d40H
	DD	01d803920H
	DD	01d8314a0H
	DD	01d85efc0H
	DD	01d88ca80H
	DD	01d8ba500H
	DD	01d8e7f00H
	DD	01d9158c0H
	DD	01d943220H
	DD	01d970b20H
	DD	01d99e3e0H
	DD	01d9cbc20H
	DD	01d9f9420H
	DD	01da26bc0H
	DD	01da54300H
	DD	01da819e0H
	DD	01daaf060H
	DD	01dadc6a0H
	DD	01db09c60H
	DD	01db371e0H
	DD	01db64700H
	DD	01db91be0H
	DD	01dbbf040H
	DD	01dbec460H
	DD	01dc19820H
	DD	01dc46b80H
	DD	01dc73e80H
	DD	01dca1120H
	DD	01dcce380H
	DD	01dcfb580H
	DD	01dd28720H
	DD	01dd55860H
	DD	01dd82940H
	DD	01ddaf9e0H
	DD	01dddca20H
	DD	01de09a00H
	DD	01de36980H
	DD	01de638a0H
	DD	01de90780H
	DD	01debd600H
	DD	01deea420H
	DD	01df171e0H
	DD	01df43f40H
	DD	01df70c60H
	DD	01df9d920H
	DD	01dfca580H
	DD	01dff7180H
	DD	01e023d40H
	DD	01e0508a0H
	DD	01e07d3a0H
	DD	01e0a9e40H
	DD	01e0d6880H
	DD	01e103280H
	DD	01e12fc20H
	DD	01e15c560H
	DD	01e188e40H
	DD	01e1b56e0H
	DD	01e1e1f00H
	DD	01e20e6e0H
	DD	01e23ae80H
	DD	01e2675a0H
	DD	01e293c80H
	DD	01e2c0300H
	DD	01e2ec920H
	DD	01e318ee0H
	DD	01e345460H
	DD	01e371980H
	DD	01e39de40H
	DD	01e3ca2a0H
	DD	01e3f66c0H
	DD	01e422a80H
	DD	01e44ede0H
	DD	01e47b0e0H
	DD	01e4a73a0H
	DD	01e4d3600H
	DD	01e4ff800H
	DD	01e52b9a0H
	DD	01e557b00H
	DD	01e583c00H
	DD	01e5afca0H
	DD	01e5dbce0H
	DD	01e607ce0H
	DD	01e633c80H
	DD	01e65fbc0H
	DD	01e68baa0H
	DD	01e6b7940H
	DD	01e6e3780H
	DD	01e70f560H
	DD	01e73b300H
	DD	01e767020H
	DD	01e792d00H
	DD	01e7be9a0H
	DD	01e7ea5c0H
	DD	01e8161a0H
	DD	01e841d20H
	DD	01e86d840H
	DD	01e899320H
	DD	01e8c4da0H
	DD	01e8f07c0H
	DD	01e91c1a0H
	DD	01e947b00H
	DD	01e973440H
	DD	01e99ed00H
	DD	01e9ca560H
	DD	01e9f5d80H
	DD	01ea21560H
	DD	01ea4ccc0H
	DD	01ea783e0H
	DD	01eaa3aa0H
	DD	01eacf100H
	DD	01eafa720H
	DD	01eb25ce0H
	DD	01eb51240H
	DD	01eb7c760H
	DD	01eba7c20H
	DD	01ebd3080H
	DD	01ebfe480H
	DD	01ec29840H
	DD	01ec54ba0H
	DD	01ec7fea0H
	DD	01ecab160H
	DD	01ecd63c0H
	DD	01ed015c0H
	DD	01ed2c780H
	DD	01ed578e0H
	DD	01ed829e0H
	DD	01edada80H
	DD	01edd8ae0H
	DD	01ee03ae0H
	DD	01ee2eaa0H
	DD	01ee59a00H
	DD	01ee84900H
	DD	01eeaf7a0H
	DD	01eeda600H
	DD	01ef05400H
	DD	01ef301a0H
	DD	01ef5af00H
	DD	01ef85c00H
	DD	01efb08c0H
	DD	01efdb500H
	DD	01f006100H
	DD	01f030cc0H
	DD	01f05b800H
	DD	01f086300H
	DD	01f0b0dc0H
	DD	01f0db820H
	DD	01f106220H
	DD	01f130bc0H
	DD	01f15b520H
	DD	01f185e20H
	DD	01f1b06c0H
	DD	01f1daf20H
	DD	01f205720H
	DD	01f22fee0H
	DD	01f25a620H
	DD	01f284d40H
	DD	01f2af3e0H
	DD	01f2d9a40H
	DD	01f304040H
	DD	01f32e600H
	DD	01f358b60H
	DD	01f383060H
	DD	01f3ad500H
	DD	01f3d7960H
	DD	01f401d80H
	DD	01f42c120H
	DD	01f4564a0H
	DD	01f4807a0H
	DD	01f4aaa60H
	DD	01f4d4cc0H
	DD	01f4feee0H
	DD	01f529080H
	DD	01f553200H
	DD	01f57d300H
	DD	01f5a73c0H
	DD	01f5d1440H
	DD	01f5fb460H
	DD	01f625420H
	DD	01f64f380H
	DD	01f6792a0H
	DD	01f6a3160H
	DD	01f6ccfe0H
	DD	01f6f6e00H
	DD	01f720be0H
	DD	01f74a940H
	DD	01f774680H
	DD	01f79e340H
	DD	01f7c7fc0H
	DD	01f7f1c00H
	DD	01f81b7c0H
	DD	01f845340H
	DD	01f86ee80H
	DD	01f898960H
	DD	01f8c23e0H
	DD	01f8ebe20H
	DD	01f915800H
	DD	01f93f1a0H
	DD	01f968ae0H
	DD	01f9923c0H
	DD	01f9bbc60H
	DD	01f9e54a0H
	DD	01fa0ec80H
	DD	01fa38420H
	DD	01fa61b80H
	DD	01fa8b280H
	DD	01fab4920H
	DD	01faddf60H
	DD	01fb07560H
	DD	01fb30b20H
	DD	01fb5a080H
	DD	01fb83580H
	DD	01fbaca40H
	DD	01fbd5ea0H
	DD	01fbff2a0H
	DD	01fc28660H
	DD	01fc519e0H
	DD	01fc7ace0H
	DD	01fca3fc0H
	DD	01fccd220H
	DD	01fcf6440H
	DD	01fd1f620H
	DD	01fd487a0H
	DD	01fd718c0H
	DD	01fd9a9a0H
	DD	01fdc3a20H
	DD	01fdeca60H
	DD	01fe15a40H
	DD	01fe3e9e0H
	DD	01fe67920H
	DD	01fe90800H
	DD	01feb96a0H
	DD	01fee24e0H
	DD	01ff0b2e0H
	DD	01ff34080H
	DD	01ff5cde0H
	DD	01ff85ae0H
	DD	01ffae7a0H
	DD	01ffd7400H
	DD	020000000H
_DATA	ENDS
PUBLIC	_SlopeDiv
PUBLIC	_AngleFixed
PUBLIC	_FixedAngle
PUBLIC	_FixedAngleC
PUBLIC	_FixedAcos
PUBLIC	_FV_AngleBetweenVectors
PUBLIC	_FV_InsidePolygon
PUBLIC	_FV_IntersectedPolygon
PUBLIC	_FV_Rotate
PUBLIC	_FM_Rotate
EXTRN	_abs:PROC
EXTRN	_FixedMul:PROC
EXTRN	_FixedDiv2:PROC
EXTRN	_FV_Magnitude:PROC
EXTRN	_FV_Normalize:PROC
EXTRN	_FV_Dot:PROC
EXTRN	_FV_Point2Vec:PROC
EXTRN	_FV_IntersectedPlane:PROC
EXTRN	_FV_IntersectionPoint:PROC
EXTRN	@__security_check_cookie@4:PROC
EXTRN	_finecosine:DWORD
EXTRN	___security_cookie:DWORD
_DATA	SEGMENT
	ORG $+4
_fineacon DD	0ffffffffH
	DD	07fc66132H
	DD	07fae8330H
	DD	07f9c32ccH
	DD	07f8cc248H
	DD	07f7f2809H
	DD	07f72dbd5H
	DD	07f678cc0H
	DD	07f5d060fH
	DD	07f532325H
	DD	07f49c956H
	DD	07f40e481H
	DD	07f386502H
	DD	07f303e6bH
	DD	07f2866a4H
	DD	07f20d560H
	DD	07f1983abH
	DD	07f126ba6H
	DD	07f0b884cH
	DD	07f04d546H
	DD	07efe4ed1H
	DD	07ef7f19eH
	DD	07ef1bac2H
	DD	07eeba7a9H
	DD	07ee5b603H
	DD	07edfe3beH
	DD	07eda2efcH
	DD	07ed4960dH
	DD	07ecf176aH
	DD	07ec9b1acH
	DD	07ec4638dH
	DD	07ebf2be1H
	DD	07eba0993H
	DD	07eb4fba6H
	DD	07eb0012dH
	DD	07eab194fH
	DD	07ea64340H
	DD	07ea17e45H
	DD	07e9cc9acH
	DD	07e9824d2H
	DD	07e938f1dH
	DD	07e8f07fbH
	DD	07e8a8ee5H
	DD	07e86235cH
	DD	07e81c4e7H
	DD	07e7d7314H
	DD	07e792d79H
	DD	07e74f3afH
	DD	07e70c557H
	DD	07e6ca216H
	DD	07e688995H
	DD	07e647b82H
	DD	07e60778fH
	DD	07e5c7d71H
	DD	07e588ce2H
	DD	07e54a59dH
	DD	07e50c763H
	DD	07e4cf1f5H
	DD	07e492519H
	DD	07e456096H
	DD	07e41a435H
	DD	07e3defc4H
	DD	07e3a4310H
	DD	07e369de9H
	DD	07e330022H
	DD	07e2f698eH
	DD	07e2bda04H
	DD	07e28515aH
	DD	07e24cf69H
	DD	07e21540bH
	DD	07e1ddf1cH
	DD	07e1a7079H
	DD	07e1707ffH
	DD	07e13a58eH
	DD	07e104907H
	DD	07e0cf24aH
	DD	07e09a13aH
	DD	07e0655bbH
	DD	07e030fb1H
	DD	07dffcf00H
	DD	07dfc9390H
	DD	07df95d47H
	DD	07df62c0dH
	DD	07df2ffc9H
	DD	07defd866H
	DD	07decb5cdH
	DD	07de997e8H
	DD	07de67ea2H
	DD	07de369e7H
	DD	07de059a4H
	DD	07ddd4dc5H
	DD	07dda4637H
	DD	07dd742e8H
	DD	07dd443c7H
	DD	07dd148c1H
	DD	07dce51c8H
	DD	07dcb5ecaH
	DD	07dc86fb7H
	DD	07dc58480H
	DD	07dc29d15H
	DD	07dbfb969H
	DD	07dbcd96cH
	DD	07db9fd11H
	DD	07db7244bH
	DD	07db44f0bH
	DD	07db17d45H
	DD	07daeaeebH
	DD	07dabe3f3H
	DD	07da91c4fH
	DD	07da657f4H
	DD	07da396d7H
	DD	07da0d8ebH
	DD	07d9e1e26H
	DD	07d9b667dH
	DD	07d98b1e6H
	DD	07d960056H
	DD	07d9351c4H
	DD	07d90a625H
	DD	07d8dfd6fH
	DD	07d8b5799H
	DD	07d88b49bH
	DD	07d86146aH
	DD	07d8376feH
	DD	07d80dc4fH
	DD	07d7e4453H
	DD	07d7baf03H
	DD	07d791c56H
	DD	07d768c44H
	DD	07d73fec5H
	DD	07d7173d2H
	DD	07d6eeb63H
	DD	07d6c6571H
	DD	07d69e1f3H
	DD	07d6760e5H
	DD	07d64e23dH
	DD	07d6265f5H
	DD	07d5fec07H
	DD	07d5d746dH
	DD	07d5aff1eH
	DD	07d588c16H
	DD	07d561b4dH
	DD	07d53acbeH
	DD	07d514062H
	DD	07d4ed634H
	DD	07d4c6e2eH
	DD	07d4a084aH
	DD	07d47a482H
	DD	07d4542d1H
	DD	07d42e332H
	DD	07d40859fH
	DD	07d3e2a12H
	DD	07d3bd087H
	DD	07d3978f8H
	DD	07d372361H
	DD	07d34cfbdH
	DD	07d327e06H
	DD	07d302e38H
	DD	07d2de04eH
	DD	07d2b9444H
	DD	07d294a15H
	DD	07d2701bdH
	DD	07d24bb36H
	DD	07d22767eH
	DD	07d20338fH
	DD	07d1df266H
	DD	07d1bb2fdH
	DD	07d197552H
	DD	07d173960H
	DD	07d14ff23H
	DD	07d12c698H
	DD	07d108fbaH
	DD	07d0e5a85H
	DD	07d0c26f7H
	DD	07d09f50aH
	DD	07d07c4bdH
	DD	07d05960aH
	DD	07d0368efH
	DD	07d013d68H
	DD	07cff1371H
	DD	07cfceb08H
	DD	07cfac429H
	DD	07cf89ed0H
	DD	07cf67afbH
	DD	07cf458a6H
	DD	07cf237ceH
	DD	07cf01870H
	DD	07cedfa89H
	DD	07cebde16H
	DD	07ce9c314H
	DD	07ce7a980H
	DD	07ce59156H
	DD	07ce37a95H
	DD	07ce1653aH
	DD	07cdf5141H
	DD	07cdd3ea8H
	DD	07cdb2d6cH
	DD	07cd91d8aH
	DD	07cd70f00H
	DD	07cd501ccH
	DD	07cd2f5eaH
	DD	07cd0eb58H
	DD	07ccee213H
	DD	07cccda1aH
	DD	07ccad369H
	DD	07cc8cdfeH
	DD	07cc6c9d7H
	DD	07cc4c6f2H
	DD	07cc2c54bH
	DD	07cc0c4e1H
	DD	07cbec5b2H
	DD	07cbcc7bbH
	DD	07cbacafaH
	DD	07cb8cf6cH
	DD	07cb6d511H
	DD	07cb4dbe4H
	DD	07cb2e3e5H
	DD	07cb0ed11H
	DD	07caef767H
	DD	07cad02e3H
	DD	07cab0f84H
	DD	07ca91d49H
	DD	07ca72c2eH
	DD	07ca53c33H
	DD	07ca34d55H
	DD	07ca15f92H
	DD	07c9f72e8H
	DD	07c9d8756H
	DD	07c9b9cdaH
	DD	07c99b371H
	DD	07c97cb1aH
	DD	07c95e3d4H
	DD	07c93fd9cH
	DD	07c921870H
	DD	07c903450H
	DD	07c8e5139H
	DD	07c8c6f29H
	DD	07c8a8e1fH
	DD	07c88ae19H
	DD	07c86cf16H
	DD	07c84f113H
	DD	07c831410H
	DD	07c81380aH
	DD	07c7f5d01H
	DD	07c7d82f2H
	DD	07c7ba9dcH
	DD	07c79d1beH
	DD	07c77fa95H
	DD	07c762461H
	DD	07c744f20H
	DD	07c727ad1H
	DD	07c70a771H
	DD	07c6ed500H
	DD	07c6d037dH
	DD	07c6b32e5H
	DD	07c696337H
	DD	07c679472H
	DD	07c65c695H
	DD	07c63f99eH
	DD	07c622d8dH
	DD	07c60625eH
	DD	07c5e9812H
	DD	07c5ccea7H
	DD	07c5b061cH
	DD	07c593e6fH
	DD	07c57779fH
	DD	07c55b1abH
	DD	07c53ec92H
	DD	07c522852H
	DD	07c5064eaH
	DD	07c4ea259H
	DD	07c4ce09eH
	DD	07c4b1fb7H
	DD	07c495fa4H
	DD	07c47a063H
	DD	07c45e1f3H
	DD	07c442453H
	DD	07c426782H
	DD	07c40ab7fH
	DD	07c3ef048H
	DD	07c3d35dcH
	DD	07c3b7c3bH
	DD	07c39c363H
	DD	07c380b54H
	DD	07c36540bH
	DD	07c349d89H
	DD	07c32e7ccH
	DD	07c3132d2H
	DD	07c2f7e9cH
	DD	07c2dcb27H
	DD	07c2c1874H
	DD	07c2a6680H
	DD	07c28b54cH
	DD	07c2704d5H
	DD	07c25551bH
	DD	07c23a61eH
	DD	07c21f7dbH
	DD	07c204a53H
	DD	07c1e9d83H
	DD	07c1cf16cH
	DD	07c1b460dH
	DD	07c199b63H
	DD	07c17f16fH
	DD	07c164830H
	DD	07c149fa4H
	DD	07c12f7cbH
	DD	07c1150a5H
	DD	07c0faa2fH
	DD	07c0e0469H
	DD	07c0c5f52H
	DD	07c0abaeaH
	DD	07c091730H
	DD	07c077422H
	DD	07c05d1c0H
	DD	07c04300aH
	DD	07c028efdH
	DD	07c00ee9aH
	DD	07bff4ee0H
	DD	07bfdafceH
	DD	07bfc1162H
	DD	07bfa739dH
	DD	07bf8d67eH
	DD	07bf73a03H
	DD	07bf59e2cH
	DD	07bf402f8H
	DD	07bf26867H
	DD	07bf0ce77H
	DD	07bef3529H
	DD	07bed9c7aH
	DD	07bec046bH
	DD	07bea6cfbH
	DD	07be8d628H
	DD	07be73ff3H
	DD	07be5aa5bH
	DD	07be4155eH
	DD	07be280fdH
	DD	07be0ed36H
	DD	07bdf5a08H
	DD	07bddc774H
	DD	07bdc3579H
	DD	07bdaa415H
	DD	07bd91348H
	DD	07bd78311H
	DD	07bd5f370H
	DD	07bd46464H
	DD	07bd2d5edH
	DD	07bd14809H
	DD	07bcfbab9H
	DD	07bce2dfbH
	DD	07bcca1cfH
	DD	07bcb1634H
	DD	07bc98b29H
	DD	07bc800afH
	DD	07bc676c4H
	DD	07bc4ed68H
	DD	07bc3649aH
	DD	07bc1dc59H
	DD	07bc054a6H
	DD	07bbecd7fH
	DD	07bbd46e3H
	DD	07bbbc0d3H
	DD	07bba3b4dH
	DD	07bb8b652H
	DD	07bb731dfH
	DD	07bb5adf6H
	DD	07bb42a95H
	DD	07bb2a7bcH
	DD	07bb1256aH
	DD	07bafa39eH
	DD	07bae2259H
	DD	07baca199H
	DD	07bab215eH
	DD	07ba9a1a8H
	DD	07ba82276H
	DD	07ba6a3c7H
	DD	07ba5259aH
	DD	07ba3a7f1H
	DD	07ba22ac9H
	DD	07ba0ae22H
	DD	07b9f31fcH
	DD	07b9db656H
	DD	07b9c3b30H
	DD	07b9ac08aH
	DD	07b994662H
	DD	07b97ccb8H
	DD	07b96538cH
	DD	07b94dadeH
	DD	07b9362acH
	DD	07b91eaf6H
	DD	07b9073bdH
	DD	07b8efcfeH
	DD	07b8d86bbH
	DD	07b8c10f2H
	DD	07b8a9ba2H
	DD	07b8926cdH
	DD	07b87b270H
	DD	07b863e8cH
	DD	07b84cb20H
	DD	07b83582bH
	DD	07b81e5aeH
	DD	07b8073a7H
	DD	07b7f0217H
	DD	07b7d90fcH
	DD	07b7c2057H
	DD	07b7ab027H
	DD	07b79406bH
	DD	07b77d123H
	DD	07b76624fH
	DD	07b74f3efH
	DD	07b738601H
	DD	07b721885H
	DD	07b70ab7bH
	DD	07b6f3ee3H
	DD	07b6dd2bcH
	DD	07b6c6706H
	DD	07b6afbc0H
	DD	07b6990eaH
	DD	07b682683H
	DD	07b66bc8cH
	DD	07b655303H
	DD	07b63e9e9H
	DD	07b62813cH
	DD	07b6118fdH
	DD	07b5fb12bH
	DD	07b5e49c5H
	DD	07b5ce2cdH
	DD	07b5b7c3fH
	DD	07b5a161eH
	DD	07b58b068H
	DD	07b574b1cH
	DD	07b55e63bH
	DD	07b5481c5H
	DD	07b531db7H
	DD	07b51ba13H
	DD	07b5056d9H
	DD	07b4ef406H
	DD	07b4d919cH
	DD	07b4c2f9aH
	DD	07b4acdffH
	DD	07b496cccH
	DD	07b480bffH
	DD	07b46ab99H
	DD	07b454b99H
	DD	07b43ebfeH
	DD	07b428ccaH
	DD	07b412dfaH
	DD	07b3fcf8fH
	DD	07b3e7188H
	DD	07b3d13e5H
	DD	07b3bb6a6H
	DD	07b3a59cbH
	DD	07b38fd52H
	DD	07b37a13cH
	DD	07b364589H
	DD	07b34ea38H
	DD	07b338f48H
	DD	07b3234baH
	DD	07b30da8dH
	DD	07b2f80c1H
	DD	07b2e2755H
	DD	07b2cce49H
	DD	07b2b759dH
	DD	07b2a1d51H
	DD	07b28c564H
	DD	07b276dd6H
	DD	07b2616a6H
	DD	07b24bfd5H
	DD	07b236962H
	DD	07b22134cH
	DD	07b20bd94H
	DD	07b1f6838H
	DD	07b1e133aH
	DD	07b1cbe98H
	DD	07b1b6a52H
	DD	07b1a1668H
	DD	07b18c2daH
	DD	07b176fa7H
	DD	07b161ccfH
	DD	07b14ca52H
	DD	07b13782fH
	DD	07b122667H
	DD	07b10d4f8H
	DD	07b0f83e3H
	DD	07b0e3327H
	DD	07b0ce2c5H
	DD	07b0b92bbH
	DD	07b0a4309H
	DD	07b08f3b0H
	DD	07b07a4afH
	DD	07b065605H
	DD	07b0507b3H
	DD	07b03b9b8H
	DD	07b026c14H
	DD	07b011ec6H
	DD	07affd1cfH
	DD	07afe852eH
	DD	07afd38e3H
	DD	07afbecedH
	DD	07afaa14dH
	DD	07af95601H
	DD	07af80b0aH
	DD	07af6c068H
	DD	07af5761bH
	DD	07af42c21H
	DD	07af2e27bH
	DD	07af19928H
	DD	07af05029H
	DD	07aef077dH
	DD	07aedbf23H
	DD	07aec771cH
	DD	07aeb2f68H
	DD	07ae9e805H
	DD	07ae8a0f5H
	DD	07ae75a35H
	DD	07ae613c7H
	DD	07ae4cdabH
	DD	07ae387dfH
	DD	07ae24264H
	DD	07ae0fd39H
	DD	07adfb85eH
	DD	07ade73d3H
	DD	07add2f98H
	DD	07adbebacH
	DD	07adaa810H
	DD	07ad964c2H
	DD	07ad821c3H
	DD	07ad6df13H
	DD	07ad59cb1H
	DD	07ad45a9eH
	DD	07ad318d8H
	DD	07ad1d760H
	DD	07ad09635H
	DD	07acf5557H
	DD	07ace14c7H
	DD	07accd483H
	DD	07acb948cH
	DD	07aca54e1H
	DD	07ac91582H
	DD	07ac7d66fH
	DD	07ac697a8H
	DD	07ac5592cH
	DD	07ac41afcH
	DD	07ac2dd17H
	DD	07ac19f7cH
	DD	07ac0622cH
	DD	07abf2527H
	DD	07abde86cH
	DD	07abcabfbH
	DD	07abb6fd4H
	DD	07aba33f6H
	DD	07ab8f862H
	DD	07ab7bd17H
	DD	07ab68216H
	DD	07ab5475dH
	DD	07ab40cecH
	DD	07ab2d2c4H
	DD	07ab198e5H
	DD	07ab05f4dH
	DD	07aaf25fdH
	DD	07aadecf5H
	DD	07aacb435H
	DD	07aab7bbbH
	DD	07aaa4389H
	DD	07aa90b9eH
	DD	07aa7d3f9H
	DD	07aa69c9bH
	DD	07aa56583H
	DD	07aa42eb1H
	DD	07aa2f825H
	DD	07aa1c1dfH
	DD	07aa08bdfH
	DD	07a9f5624H
	DD	07a9e20aeH
	DD	07a9ceb7eH
	DD	07a9bb692H
	DD	07a9a81ebH
	DD	07a994d88H
	DD	07a98196aH
	DD	07a96e58fH
	DD	07a95b1f9H
	DD	07a947ea7H
	DD	07a934b98H
	DD	07a9218ccH
	DD	07a90e644H
	DD	07a8fb3ffH
	DD	07a8e81fdH
	DD	07a8d503dH
	DD	07a8c1ec0H
	DD	07a8aed86H
	DD	07a89bc8eH
	DD	07a888bd8H
	DD	07a875b63H
	DD	07a862b31H
	DD	07a84fb40H
	DD	07a83cb90H
	DD	07a829c22H
	DD	07a816cf4H
	DD	07a803e08H
	DD	07a7f0f5cH
	DD	07a7de0f1H
	DD	07a7cb2c6H
	DD	07a7b84dcH
	DD	07a7a5732H
	DD	07a7929c7H
	DD	07a77fc9cH
	DD	07a76cfb1H
	DD	07a75a306H
	DD	07a747699H
	DD	07a734a6cH
	DD	07a721e7eH
	DD	07a70f2cfH
	DD	07a6fc75eH
	DD	07a6e9c2cH
	DD	07a6d7138H
	DD	07a6c4682H
	DD	07a6b1c0aH
	DD	07a69f1d1H
	DD	07a68c7d5H
	DD	07a679e16H
	DD	07a667496H
	DD	07a654b52H
	DD	07a64224cH
	DD	07a62f982H
	DD	07a61d0f6H
	DD	07a60a8a6H
	DD	07a5f8092H
	DD	07a5e58bcH
	DD	07a5d3121H
	DD	07a5c09c2H
	DD	07a5ae2a0H
	DD	07a59bbb9H
	DD	07a58950eH
	DD	07a576e9fH
	DD	07a56486bH
	DD	07a552272H
	DD	07a53fcb5H
	DD	07a52d732H
	DD	07a51b1eaH
	DD	07a508cddH
	DD	07a4f680bH
	DD	07a4e4373H
	DD	07a4d1f15H
	DD	07a4bfaf2H
	DD	07a4ad708H
	DD	07a49b359H
	DD	07a488fe3H
	DD	07a476ca7H
	DD	07a4649a4H
	DD	07a4526daH
	DD	07a44044aH
	DD	07a42e1f3H
	DD	07a41bfd5H
	DD	07a409df0H
	DD	07a3f7c43H
	DD	07a3e5acfH
	DD	07a3d3993H
	DD	07a3c1890H
	DD	07a3af7c5H
	DD	07a39d732H
	DD	07a38b6d7H
	DD	07a3796b3H
	DD	07a3676c8H
	DD	07a355713H
	DD	07a343797H
	DD	07a331851H
	DD	07a31f943H
	DD	07a30da6bH
	DD	07a2fbbcbH
	DD	07a2e9d61H
	DD	07a2d7f2eH
	DD	07a2c6132H
	DD	07a2b436cH
	DD	07a2a25dcH
	DD	07a290883H
	DD	07a27eb5fH
	DD	07a26ce72H
	DD	07a25b1baH
	DD	07a249538H
	DD	07a2378ecH
	DD	07a225cd5H
	DD	07a2140f3H
	DD	07a202546H
	DD	07a1f09cfH
	DD	07a1dee8dH
	DD	07a1cd37fH
	DD	07a1bb8a6H
	DD	07a1a9e02H
	DD	07a198393H
	DD	07a186958H
	DD	07a174f51H
	DD	07a16357eH
	DD	07a151bdfH
	DD	07a140274H
	DD	07a12e93eH
	DD	07a11d03aH
	DD	07a10b76bH
	DD	07a0f9ecfH
	DD	07a0e8666H
	DD	07a0d6e31H
	DD	07a0c562eH
	DD	07a0b3e5fH
	DD	07a0a26c3H
	DD	07a090f5aH
	DD	07a07f823H
	DD	07a06e11fH
	DD	07a05ca4dH
	DD	07a04b3aeH
	DD	07a039d41H
	DD	07a028707H
	DD	07a0170feH
	DD	07a005b27H
	DD	079ff4583H
	DD	079fe3010H
	DD	079fd1aceH
	DD	079fc05bfH
	DD	079faf0e0H
	DD	079f9dc33H
	DD	079f8c7b8H
	DD	079f7b36dH
	DD	079f69f54H
	DD	079f58b6bH
	DD	079f477b3H
	DD	079f3642cH
	DD	079f250d6H
	DD	079f13db0H
	DD	079f02abaH
	DD	079ef17f5H
	DD	079ee0560H
	DD	079ecf2fbH
	DD	079ebe0c7H
	DD	079eacec2H
	DD	079e9bcedH
	DD	079e8ab47H
	DD	079e799d2H
	DD	079e6888cH
	DD	079e57775H
	DD	079e4668eH
	DD	079e355d5H
	DD	079e2454dH
	DD	079e134f3H
	DD	079e024c8H
	DD	079df14ccH
	DD	079de04feH
	DD	079dcf560H
	DD	079dbe5efH
	DD	079dad6aeH
	DD	079d9c79bH
	DD	079d8b8b6H
	DD	079d7a9ffH
	DD	079d69b76H
	DD	079d58d1cH
	DD	079d47eefH
	DD	079d370f0H
	DD	079d2631fH
	DD	079d1557bH
	DD	079d04806H
	DD	079cf3abdH
	DD	079ce2da2H
	DD	079cd20b4H
	DD	079cc13f4H
	DD	079cb0760H
	DD	079c9fafaH
	DD	079c8eec0H
	DD	079c7e2b3H
	DD	079c6d6d3H
	DD	079c5cb20H
	DD	079c4bf99H
	DD	079c3b43fH
	DD	079c2a911H
	DD	079c19e0fH
	DD	079c0933aH
	DD	079bf8891H
	DD	079be7e14H
	DD	079bd73c3H
	DD	079bc699dH
	DD	079bb5fa4H
	DD	079ba55d6H
	DD	079b94c34H
	DD	079b842bdH
	DD	079b73972H
	DD	079b63052H
	DD	079b5275eH
	DD	079b41e94H
	DD	079b315f6H
	DD	079b20d83H
	DD	079b1053bH
	DD	079affd1eH
	DD	079aef52bH
	DD	079aded63H
	DD	079ace5c6H
	DD	079abde54H
	DD	079aad70bH
	DD	079a9cfeeH
	DD	079a8c8faH
	DD	079a7c231H
	DD	079a6bb92H
	DD	079a5b51dH
	DD	079a4aed2H
	DD	079a3a8b1H
	DD	079a2a2b9H
	DD	079a19cecH
	DD	079a09748H
	DD	0799f91ceH
	DD	0799e8c7dH
	DD	0799d8755H
	DD	0799c8258H
	DD	0799b7d83H
	DD	0799a78d7H
	DD	079997455H
	DD	079986ffcH
	DD	079976bcbH
	DD	0799667c4H
	DD	0799563e5H
	DD	07994602fH
	DD	079935ca2H
	DD	07992593eH
	DD	079915601H
	DD	0799052eeH
	DD	0798f5003H
	DD	0798e4d40H
	DD	0798d4aa5H
	DD	0798c4832H
	DD	0798b45e8H
	DD	0798a43c5H
	DD	0798941cbH
	DD	079883ff8H
	DD	079873e4dH
	DD	079863ccaH
	DD	079853b6eH
	DD	079843a3aH
	DD	07983392eH
	DD	079823849H
	DD	07981378bH
	DD	0798036f4H
	DD	0797f3685H
	DD	0797e363dH
	DD	0797d361cH
	DD	0797c3622H
	DD	0797b364fH
	DD	0797a36a3H
	DD	07979371dH
	DD	0797837beH
	DD	079773886H
	DD	079763975H
	DD	079753a8aH
	DD	079743bc5H
	DD	079733d27H
	DD	079723eafH
	DD	07971405eH
	DD	079704232H
	DD	0796f442dH
	DD	0796e464dH
	DD	0796d4894H
	DD	0796c4b01H
	DD	0796b4d93H
	DD	0796a504bH
	DD	079695329H
	DD	07968562dH
	DD	079675956H
	DD	079665ca4H
	DD	079656018H
	DD	0796463b2H
	DD	079636770H
	DD	079626b54H
	DD	079616f5dH
	DD	07960738cH
	DD	0795f77dfH
	DD	0795e7c57H
	DD	0795d80f4H
	DD	0795c85b6H
	DD	0795b8a9dH
	DD	0795a8fa9H
	DD	0795994d9H
	DD	079589a2eH
	DD	079579fa7H
	DD	07956a545H
	DD	07955ab07H
	DD	07954b0eeH
	DD	07953b6f9H
	DD	07952bd28H
	DD	07951c37bH
	DD	07950c9f3H
	DD	0794fd08eH
	DD	0794ed74dH
	DD	0794dde31H
	DD	0794ce538H
	DD	0794bec63H
	DD	0794af3b2H
	DD	07949fb24H
	DD	0794902baH
	DD	079480a73H
	DD	079471251H
	DD	079461a51H
	DD	079452275H
	DD	079442abcH
	DD	079433326H
	DD	079423bb4H
	DD	079414465H
	DD	079404d39H
	DD	0793f562fH
	DD	0793e5f49H
	DD	0793d6886H
	DD	0793c71e5H
	DD	0793b7b68H
	DD	0793a850dH
	DD	079398ed5H
	DD	0793898bfH
	DD	07937a2ccH
	DD	07936acfbH
	DD	07935b74dH
	DD	07934c1c1H
	DD	07933cc58H
	DD	07932d711H
	DD	07931e1ecH
	DD	07930ece9H
	DD	0792ff808H
	DD	0792f0349H
	DD	0792e0eadH
	DD	0792d1a32H
	DD	0792c25d9H
	DD	0792b31a2H
	DD	0792a3d8dH
	DD	079294999H
	DD	0792855c7H
	DD	079276217H
	DD	079266e88H
	DD	079257b1bH
	DD	0792487cfH
	DD	0792394a4H
	DD	07922a19bH
	DD	07921aeb3H
	DD	07920bbedH
	DD	0791fc947H
	DD	0791ed6c3H
	DD	0791de45fH
	DD	0791cf21dH
	DD	0791bfffcH
	DD	0791b0dfbH
	DD	0791a1c1cH
	DD	079192a5dH
	DD	0791838bfH
	DD	079174741H
	DD	0791655e5H
	DD	0791564a8H
	DD	07914738dH
	DD	079138292H
	DD	0791291b7H
	DD	07911a0fdH
	DD	07910b063H
	DD	0790fbfe9H
	DD	0790ecf8fH
	DD	0790ddf56H
	DD	0790cef3dH
	DD	0790bff44H
	DD	0790b0f6bH
	DD	0790a1fb1H
	DD	079093018H
	DD	07908409fH
	DD	079075145H
	DD	07906620cH
	DD	0790572f1H
	DD	0790483f7H
	DD	07903951cH
	DD	07902a661H
	DD	07901b7c5H
	DD	07900c949H
	DD	078ffdaecH
	DD	078feecafH
	DD	078fdfe91H
	DD	078fd1092H
	DD	078fc22b3H
	DD	078fb34f2H
	DD	078fa4751H
	DD	078f959cfH
	DD	078f86c6cH
	DD	078f77f27H
	DD	078f69202H
	DD	078f5a4fcH
	DD	078f4b814H
	DD	078f3cb4cH
	DD	078f2dea2H
	DD	078f1f217H
	DD	078f105aaH
	DD	078f0195cH
	DD	078ef2d2dH
	DD	078ee411cH
	DD	078ed5529H
	DD	078ec6955H
	DD	078eb7da0H
	DD	078ea9208H
	DD	078e9a68fH
	DD	078e8bb35H
	DD	078e7cff8H
	DD	078e6e4daH
	DD	078e5f9d9H
	DD	078e50ef7H
	DD	078e42433H
	DD	078e3398cH
	DD	078e24f04H
	DD	078e16499H
	DD	078e07a4dH
	DD	078df901eH
	DD	078dea60dH
	DD	078ddbc19H
	DD	078dcd243H
	DD	078dbe88bH
	DD	078dafef0H
	DD	078da1573H
	DD	078d92c14H
	DD	078d842d1H
	DD	078d759acH
	DD	078d670a5H
	DD	078d587bbH
	DD	078d49eeeH
	DD	078d3b63eH
	DD	078d2cdabH
	DD	078d1e536H
	DD	078d0fcddH
	DD	078d014a2H
	DD	078cf2c84H
	DD	078ce4482H
	DD	078cd5c9eH
	DD	078cc74d6H
	DD	078cb8d2bH
	DD	078caa59dH
	DD	078c9be2cH
	DD	078c8d6d7H
	DD	078c7ef9fH
	DD	078c70884H
	DD	078c62185H
	DD	078c53aa3H
	DD	078c453ddH
	DD	078c36d33H
	DD	078c286a7H
	DD	078c1a036H
	DD	078c0b9e2H
	DD	078bfd3aaH
	DD	078beed8eH
	DD	078be078eH
	DD	078bd21abH
	DD	078bc3be4H
	DD	078bb5639H
	DD	078ba70a9H
	DD	078b98b36H
	DD	078b8a5dfH
	DD	078b7c0a4H
	DD	078b6db84H
	DD	078b5f681H
	DD	078b51199H
	DD	078b42ccdH
	DD	078b3481dH
	DD	078b26388H
	DD	078b17f0fH
	DD	078b09ab2H
	DD	078afb670H
	DD	078aed249H
	DD	078adee3eH
	DD	078ad0a4fH
	DD	078ac267bH
	DD	078ab42c2H
	DD	078aa5f25H
	DD	078a97ba3H
	DD	078a8983cH
	DD	078a7b4f0H
	DD	078a6d1c0H
	DD	078a5eeaaH
	DD	078a50bb0H
	DD	078a428d1H
	DD	078a3460dH
	DD	078a26363H
	DD	078a180d5H
	DD	078a09e62H
	DD	0789fbc09H
	DD	0789ed9ccH
	DD	0789df7a9H
	DD	0789d15a0H
	DD	0789c33b3H
	DD	0789b51e0H
	DD	0789a7028H
	DD	078998e8aH
	DD	07898ad07H
	DD	07897cb9fH
	DD	07896ea51H
	DD	07896091dH
	DD	078952804H
	DD	078944706H
	DD	078936621H
	DD	078928557H
	DD	07891a4a7H
	DD	07890c412H
	DD	0788fe396H
	DD	0788f0335H
	DD	0788e22eeH
	DD	0788d42c1H
	DD	0788c62aeH
	DD	0788b82b5H
	DD	0788aa2d6H
	DD	07889c311H
	DD	07888e365H
	DD	0788803d4H
	DD	07887245dH
	DD	0788644ffH
	DD	0788565bbH
	DD	078848691H
	DD	07883a781H
	DD	07882c88aH
	DD	07881e9adH
	DD	078810ae9H
	DD	078802c3fH
	DD	0787f4dafH
	DD	0787e6f38H
	DD	0787d90daH
	DD	0787cb296H
	DD	0787bd46bH
	DD	0787af65aH
	DD	0787a1862H
	DD	078793a83H
	DD	078785cbdH
	DD	078777f11H
	DD	07876a17eH
	DD	07875c404H
	DD	07874e6a3H
	DD	07874095bH
	DD	078732c2cH
	DD	078724f16H
	DD	078717219H
	DD	078709536H
	DD	0786fb86bH
	DD	0786edbb8H
	DD	0786dff1fH
	DD	0786d229fH
	DD	0786c4637H
	DD	0786b69e8H
	DD	0786a8db2H
	DD	07869b194H
	DD	07868d590H
	DD	07867f9a3H
	DD	078671dd0H
	DD	078664214H
	DD	078656672H
	DD	078648ae8H
	DD	07863af76H
	DD	07862d41dH
	DD	07861f8dcH
	DD	078611db3H
	DD	0786042a3H
	DD	0785f67abH
	DD	0785e8ccbH
	DD	0785db204H
	DD	0785cd755H
	DD	0785bfcbeH
	DD	0785b223fH
	DD	0785a47d8H
	DD	078596d89H
	DD	078589352H
	DD	07857b934H
	DD	07856df2dH
	DD	07856053eH
	DD	078552b67H
	DD	0785451a8H
	DD	078537801H
	DD	078529e71H
	DD	07851c4faH
	DD	07850eb9aH
	DD	078501252H
	DD	0784f3921H
	DD	0784e6009H
	DD	0784d8708H
	DD	0784cae1eH
	DD	0784bd54cH
	DD	0784afc92H
	DD	0784a23efH
	DD	078494b63H
	DD	0784872efH
	DD	078479a93H
	DD	07846c24eH
	DD	07845ea20H
	DD	07845120aH
	DD	078443a0aH
	DD	078436223H
	DD	078428a52H
	DD	07841b299H
	DD	07840daf6H
	DD	07840036bH
	DD	0783f2bf7H
	DD	0783e549aH
	DD	0783d7d55H
	DD	0783ca626H
	DD	0783bcf0eH
	DD	0783af80dH
	DD	0783a2124H
	DD	078394a51H
	DD	078387395H
	DD	078379cefH
	DD	07836c661H
	DD	07835efeaH
	DD	078351989H
	DD	07834433fH
	DD	078336d0cH
	DD	0783296efH
	DD	07831c0e9H
	DD	07830eafaH
	DD	078301521H
	DD	0782f3f5fH
	DD	0782e69b3H
	DD	0782d941eH
	DD	0782cbea0H
	DD	0782be938H
	DD	0782b13e6H
	DD	0782a3eabH
	DD	078296986H
	DD	078289477H
	DD	07827bf7fH
	DD	07826ea9dH
	DD	0782615d2H
	DD	07825411cH
	DD	078246c7dH
	DD	0782397f4H
	DD	07822c381H
	DD	07821ef25H
	DD	078211adeH
	DD	0782046adH
	DD	0781f7293H
	DD	0781e9e8fH
	DD	0781dcaa0H
	DD	0781cf6c8H
	DD	0781c2305H
	DD	0781b4f58H
	DD	0781a7bc2H
	DD	07819a841H
	DD	07818d4d6H
	DD	078180180H
	DD	078172e41H
	DD	078165b17H
	DD	078158803H
	DD	07814b505H
	DD	07813e21cH
	DD	078130f49H
	DD	078123c8cH
	DD	0781169e4H
	DD	078109752H
	DD	0780fc4d5H
	DD	0780ef26eH
	DD	0780e201dH
	DD	0780d4de1H
	DD	0780c7bbaH
	DD	0780ba9a8H
	DD	0780ad7adH
	DD	0780a05c6H
	DD	0780933f5H
	DD	078086239H
	DD	078079092H
	DD	07806bf01H
	DD	07805ed85H
	DD	078051c1eH
	DD	078044accH
	DD	07803798fH
	DD	07802a868H
	DD	07801d755H
	DD	078010658H
	DD	078003570H
	DD	077ff649dH
	DD	077fe93deH
	DD	077fdc335H
	DD	077fcf2a1H
	DD	077fc2221H
	DD	077fb51b7H
	DD	077fa8161H
	DD	077f9b121H
	DD	077f8e0f5H
	DD	077f810deH
	DD	077f740dbH
	DD	077f670eeH
	DD	077f5a115H
	DD	077f4d151H
	DD	077f401a1H
	DD	077f33207H
	DD	077f26281H
	DD	077f1930fH
	DD	077f0c3b2H
	DD	077eff46aH
	DD	077ef2536H
	DD	077ee5616H
	DD	077ed870cH
	DD	077ecb815H
	DD	077ebe933H
	DD	077eb1a66H
	DD	077ea4badH
	DD	077e97d08H
	DD	077e8ae77H
	DD	077e7dffbH
	DD	077e71194H
	DD	077e64340H
	DD	077e57501H
	DD	077e4a6d6H
	DD	077e3d8bfH
	DD	077e30abcH
	DD	077e23cceH
	DD	077e16ef3H
	DD	077e0a12dH
	DD	077dfd37bH
	DD	077df05ddH
	DD	077de3852H
	DD	077dd6adcH
	DD	077dc9d7aH
	DD	077dbd02cH
	DD	077db02f2H
	DD	077da35ccH
	DD	077d968b9H
	DD	077d89bbbH
	DD	077d7ced0H
	DD	077d701f9H
	DD	077d63536H
	DD	077d56887H
	DD	077d49becH
	DD	077d3cf64H
	DD	077d302f0H
	DD	077d23690H
	DD	077d16a43H
	DD	077d09e0aH
	DD	077cfd1e5H
	DD	077cf05d3H
	DD	077ce39d5H
	DD	077cd6debH
	DD	077cca214H
	DD	077cbd650H
	DD	077cb0aa0H
	DD	077ca3f04H
	DD	077c9737aH
	DD	077c8a805H
	DD	077c7dca2H
	DD	077c71154H
	DD	077c64618H
	DD	077c57af0H
	DD	077c4afdbH
	DD	077c3e4d9H
	DD	077c319ebH
	DD	077c24f10H
	DD	077c18448H
	DD	077c0b994H
	DD	077bfeef2H
	DD	077bf2464H
	DD	077be59e9H
	DD	077bd8f81H
	DD	077bcc52cH
	DD	077bbfaeaH
	DD	077bb30bcH
	DD	077ba66a0H
	DD	077b99c97H
	DD	077b8d2a2H
	DD	077b808bfH
	DD	077b73eefH
	DD	077b67532H
	DD	077b5ab88H
	DD	077b4e1f1H
	DD	077b4186dH
	DD	077b34efcH
	DD	077b2859eH
	DD	077b1bc52H
	DD	077b0f319H
	DD	077b029f3H
	DD	077af60e0H
	DD	077ae97dfH
	DD	077adcef1H
	DD	077ad0616H
	DD	077ac3d4dH
	DD	077ab7497H
	DD	077aaabf4H
	DD	077a9e363H
	DD	077a91ae5H
	DD	077a85279H
	DD	077a78a20H
	DD	077a6c1daH
	DD	077a5f9a6H
	DD	077a53184H
	DD	077a46975H
	DD	077a3a178H
	DD	077a2d98eH
	DD	077a211b6H
	DD	077a149f1H
	DD	077a0823dH
	DD	0779fba9dH
	DD	0779ef30eH
	DD	0779e2b92H
	DD	0779d6428H
	DD	0779c9cd0H
	DD	0779bd58bH
	DD	0779b0e58H
	DD	0779a4737H
	DD	077998028H
	DD	07798b92bH
	DD	07797f241H
	DD	077972b68H
	DD	0779664a2H
	DD	077959deeH
	DD	07794d74cH
	DD	0779410bbH
	DD	077934a3dH
	DD	0779283d1H
	DD	07791bd77H
	DD	07790f72fH
	DD	0779030f9H
	DD	0778f6ad4H
	DD	0778ea4c2H
	DD	0778ddec1H
	DD	0778d18d3H
	DD	0778c52f6H
	DD	0778b8d2bH
	DD	0778ac772H
	DD	0778a01caH
	DD	077893c35H
	DD	0778876b1H
	DD	07787b13fH
	DD	07786ebdeH
	DD	077862690H
	DD	077856153H
	DD	077849c27H
	DD	07783d70dH
	DD	077831205H
	DD	077824d0fH
	DD	07781882aH
	DD	07780c356H
	DD	0777ffe95H
	DD	0777f39e4H
	DD	0777e7545H
	DD	0777db0b8H
	DD	0777cec3cH
	DD	0777c27d2H
	DD	0777b6379H
	DD	0777a9f31H
	DD	07779dafbH
	DD	0777916d6H
	DD	0777852c3H
	DD	077778ec1H
	DD	07776cad0H
	DD	0777606f1H
	DD	077754323H
	DD	077747f66H
	DD	07773bbbaH
	DD	07772f820H
	DD	077723496H
	DD	07771711eH
	DD	07770adb8H
	DD	0776fea62H
	DD	0776f271dH
	DD	0776e63eaH
	DD	0776da0c8H
	DD	0776cddb7H
	DD	0776c1ab7H
	DD	0776b57c7H
	DD	0776a94e9H
	DD	07769d21cH
	DD	077690f60H
	DD	077684cb5H
	DD	077678a1bH
	DD	07766c792H
	DD	07766051aH
	DD	0776542b3H
	DD	07764805cH
	DD	07763be17H
	DD	07762fbe2H
	DD	0776239bfH
	DD	0776177acH
	DD	07760b5a9H
	DD	0775ff3b8H
	DD	0775f31d7H
	DD	0775e7008H
	DD	0775dae49H
	DD	0775cec9aH
	DD	0775c2afdH
	DD	0775b6970H
	DD	0775aa7f3H
	DD	07759e688H
	DD	07759252dH
	DD	0775863e2H
	DD	07757a2a8H
	DD	07756e17fH
	DD	077562067H
	DD	077555f5fH
	DD	077549e67H
	DD	07753dd80H
	DD	077531ca9H
	DD	077525be3H
	DD	077519b2eH
	DD	07750da89H
	DD	0775019f4H
	DD	0774f5970H
	DD	0774e98fcH
	DD	0774dd898H
	DD	0774d1845H
	DD	0774c5802H
	DD	0774b97d0H
	DD	0774ad7aeH
	DD	0774a179cH
	DD	07749579bH
	DD	0774897a9H
	DD	07747d7c8H
	DD	0774717f8H
	DD	077465837H
	DD	077459887H
	DD	07744d8e7H
	DD	077441957H
	DD	0774359d7H
	DD	077429a67H
	DD	07741db07H
	DD	077411bb8H
	DD	077405c79H
	DD	0773f9d49H
	DD	0773ede2aH
	DD	0773e1f1bH
	DD	0773d601cH
	DD	0773ca12cH
	DD	0773be24dH
	DD	0773b237eH
	DD	0773a64bfH
	DD	07739a610H
	DD	07738e770H
	DD	0773828e1H
	DD	077376a61H
	DD	07736abf2H
	DD	07735ed92H
	DD	077352f42H
	DD	077347102H
	DD	07733b2d1H
	DD	07732f4b1H
	DD	0773236a0H
	DD	07731789fH
	DD	07730baaeH
	DD	0772ffccdH
	DD	0772f3efbH
	DD	0772e8139H
	DD	0772dc387H
	DD	0772d05e4H
	DD	0772c4851H
	DD	0772b8aceH
	DD	0772acd5aH
	DD	0772a0ff6H
	DD	0772952a2H
	DD	07728955dH
	DD	07727d828H
	DD	077271b02H
	DD	077265decH
	DD	07725a0e5H
	DD	07724e3eeH
	DD	077242706H
	DD	077236a2eH
	DD	07722ad66H
	DD	07721f0acH
	DD	077213403H
	DD	077207768H
	DD	0771fbaddH
	DD	0771efe62H
	DD	0771e41f5H
	DD	0771d8599H
	DD	0771cc94bH
	DD	0771c0d0dH
	DD	0771b50deH
	DD	0771a94beH
	DD	07719d8aeH
	DD	077191cadH
	DD	0771860bbH
	DD	07717a4d9H
	DD	07716e906H
	DD	077162d42H
	DD	07715718dH
	DD	07714b5e7H
	DD	07713fa51H
	DD	077133ec9H
	DD	077128351H
	DD	07711c7e8H
	DD	077110c8eH
	DD	077105143H
	DD	0770f9607H
	DD	0770edadbH
	DD	0770e1fbdH
	DD	0770d64aeH
	DD	0770ca9afH
	DD	0770beebeH
	DD	0770b33ddH
	DD	0770a790aH
	DD	07709be46H
	DD	077090392H
	DD	0770848ecH
	DD	077078e55H
	DD	07706d3cdH
	DD	077061954H
	DD	077055eeaH
	DD	07704a48fH
	DD	07703ea42H
	DD	077033005H
	DD	0770275d6H
	DD	07701bbb6H
	DD	0770101a5H
	DD	0770047a2H
	DD	076ff8dafH
	DD	076fed3caH
	DD	076fe19f4H
	DD	076fd602dH
	DD	076fca674H
	DD	076fbeccaH
	DD	076fb332fH
	DD	076fa79a2H
	DD	076f9c024H
	DD	076f906b5H
	DD	076f84d54H
	DD	076f79402H
	DD	076f6dabfH
	DD	076f6218aH
	DD	076f56863H
	DD	076f4af4cH
	DD	076f3f643H
	DD	076f33d48H
	DD	076f2845cH
	DD	076f1cb7eH
	DD	076f112afH
	DD	076f059eeH
	DD	076efa13cH
	DD	076eee899H
	DD	076ee3003H
	DD	076ed777cH
	DD	076ecbf04H
	DD	076ec069aH
	DD	076eb4e3eH
	DD	076ea95f1H
	DD	076e9ddb2H
	DD	076e92582H
	DD	076e86d5fH
	DD	076e7b54bH
	DD	076e6fd46H
	DD	076e6454fH
	DD	076e58d66H
	DD	076e4d58bH
	DD	076e41dbeH
	DD	076e36600H
	DD	076e2ae50H
	DD	076e1f6aeH
	DD	076e13f1aH
	DD	076e08795H
	DD	076dfd01eH
	DD	076df18b5H
	DD	076de615aH
	DD	076ddaa0dH
	DD	076dcf2ceH
	DD	076dc3b9eH
	DD	076db847bH
	DD	076dacd67H
	DD	076da1660H
	DD	076d95f68H
	DD	076d8a87eH
	DD	076d7f1a2H
	DD	076d73ad3H
	DD	076d68413H
	DD	076d5cd61H
	DD	076d516bdH
	DD	076d46027H
	DD	076d3a99eH
	DD	076d2f324H
	DD	076d23cb8H
	DD	076d18659H
	DD	076d0d009H
	DD	076d019c6H
	DD	076cf6391H
	DD	076cead6aH
	DD	076cdf751H
	DD	076cd4146H
	DD	076cc8b48H
	DD	076cbd559H
	DD	076cb1f77H
	DD	076ca69a3H
	DD	076c9b3ddH
	DD	076c8fe24H
	DD	076c8487aH
	DD	076c792ddH
	DD	076c6dd4eH
	DD	076c627ccH
	DD	076c57258H
	DD	076c4bcf2H
	DD	076c4079aH
	DD	076c3524fH
	DD	076c29d12H
	DD	076c1e7e2H
	DD	076c132c1H
	DD	076c07dacH
	DD	076bfc8a6H
	DD	076bf13adH
	DD	076be5ec1H
	DD	076bda9e4H
	DD	076bcf513H
	DD	076bc4051H
	DD	076bb8b9bH
	DD	076bad6f4H
	DD	076ba2259H
	DD	076b96dcdH
	DD	076b8b94eH
	DD	076b804dcH
	DD	076b75078H
	DD	076b69c21H
	DD	076b5e7d7H
	DD	076b5339bH
	DD	076b47f6dH
	DD	076b3cb4cH
	DD	076b31738H
	DD	076b26332H
	DD	076b1af39H
	DD	076b0fb4dH
	DD	076b0476fH
	DD	076af939eH
	DD	076aedfdaH
	DD	076ae2c24H
	DD	076ad787bH
	DD	076acc4dfH
	DD	076ac1151H
	DD	076ab5dcfH
	DD	076aaaa5bH
	DD	076a9f6f5H
	DD	076a9439bH
	DD	076a8904fH
	DD	076a7dd10H
	DD	076a729deH
	DD	076a676b9H
	DD	076a5c3a2H
	DD	076a51097H
	DD	076a45d9aH
	DD	076a3aaaaH
	DD	076a2f7c7H
	DD	076a244f1H
	DD	076a19228H
	DD	076a0df6dH
	DD	076a02cbeH
	DD	0769f7a1cH
	DD	0769ec788H
	DD	0769e1500H
	DD	0769d6286H
	DD	0769cb019H
	DD	0769bfdb8H
	DD	0769b4b65H
	DD	0769a991eH
	DD	07699e6e5H
	DD	0769934b8H
	DD	076988299H
	DD	07697d086H
	DD	076971e81H
	DD	076966c88H
	DD	07695ba9cH
	DD	0769508bdH
	DD	0769456ebH
	DD	07693a526H
	DD	07692f36eH
	DD	0769241c2H
	DD	076919023H
	DD	07690de92H
	DD	076902d0dH
	DD	0768f7b94H
	DD	0768eca29H
	DD	0768e18caH
	DD	0768d6779H
	DD	0768cb634H
	DD	0768c04fbH
	DD	0768b53d0H
	DD	0768aa2b1H
	DD	07689f19fH
	DD	076894099H
	DD	076888fa1H
	DD	07687deb5H
	DD	076872dd5H
	DD	076867d03H
	DD	07685cc3cH
	DD	076851b83H
	DD	076846ad6H
	DD	07683ba36H
	DD	0768309a3H
	DD	07682591cH
	DD	07681a8a1H
	DD	07680f834H
	DD	0768047d2H
	DD	0767f977eH
	DD	0767ee736H
	DD	0767e36faH
	DD	0767d86cbH
	DD	0767cd6a9H
	DD	0767c2693H
	DD	0767b7689H
	DD	0767ac68cH
	DD	0767a169cH
	DD	0767966b7H
	DD	07678b6e0H
	DD	076780715H
	DD	076775756H
	DD	07676a7a3H
	DD	07675f7fdH
	DD	076754864H
	DD	0767498d7H
	DD	07673e956H
	DD	0767339e2H
	DD	076728a7aH
	DD	07671db1eH
	DD	076712bceH
	DD	076707c8bH
	DD	0766fcd55H
	DD	0766f1e2aH
	DD	0766e6f0cH
	DD	0766dbffaH
	DD	0766d10f5H
	DD	0766c61fbH
	DD	0766bb30eH
	DD	0766b042eH
	DD	0766a5559H
	DD	07669a691H
	DD	07668f7d4H
	DD	076684924H
	DD	076679a81H
	DD	07666ebe9H
	DD	076663d5eH
	DD	076658edfH
	DD	07664e06bH
	DD	076643205H
	DD	0766383aaH
	DD	07662d55bH
	DD	076622718H
	DD	0766178e2H
	DD	07660cab8H
	DD	076601c99H
	DD	0765f6e87H
	DD	0765ec081H
	DD	0765e1287H
	DD	0765d6499H
	DD	0765cb6b7H
	DD	0765c08e1H
	DD	0765b5b17H
	DD	0765aad59H
	DD	07659ffa7H
	DD	076595201H
	DD	07658a467H
	DD	07657f6d9H
	DD	076574956H
	DD	076569be0H
	DD	07655ee76H
	DD	076554118H
	DD	0765493c5H
	DD	07653e67fH
	DD	076533944H
	DD	076528c15H
	DD	07651def2H
	DD	0765131dbH
	DD	0765084d0H
	DD	0764fd7d1H
	DD	0764f2addH
	DD	0764e7df6H
	DD	0764dd11aH
	DD	0764d244aH
	DD	0764c7786H
	DD	0764bcacdH
	DD	0764b1e21H
	DD	0764a7180H
	DD	07649c4ebH
	DD	076491861H
	DD	076486be4H
	DD	07647bf72H
	DD	07647130bH
	DD	0764666b1H
	DD	07645ba62H
	DD	076450e1fH
	DD	0764461e8H
	DD	07643b5bcH
	DD	07643099cH
	DD	076425d87H
	DD	07641b17fH
	DD	076410582H
	DD	076405990H
	DD	0763fadaaH
	DD	0763f01d0H
	DD	0763e5601H
	DD	0763daa3eH
	DD	0763cfe87H
	DD	0763c52dbH
	DD	0763ba73aH
	DD	0763afba5H
	DD	0763a501cH
	DD	07639a49eH
	DD	07638f92cH
	DD	076384dc5H
	DD	07637a26aH
	DD	07636f71aH
	DD	076364bd6H
	DD	07635a09dH
	DD	07634f570H
	DD	076344a4eH
	DD	076339f38H
	DD	07632f42dH
	DD	07632492dH
	DD	076319e39H
	DD	07630f351H
	DD	076304873H
	DD	0762f9da1H
	DD	0762ef2dbH
	DD	0762e4820H
	DD	0762d9d70H
	DD	0762cf2ccH
	DD	0762c4833H
	DD	0762b9da5H
	DD	0762af322H
	DD	0762a48abH
	DD	076299e40H
	DD	07628f3dfH
	DD	07628498aH
	DD	076279f40H
	DD	07626f502H
	DD	076264aceH
	DD	07625a0a6H
	DD	07624f68aH
	DD	076244c78H
	DD	07623a272H
	DD	07622f877H
	DD	076224e87H
	DD	07621a4a2H
	DD	07620fac9H
	DD	0762050faH
	DD	0761fa737H
	DD	0761efd7fH
	DD	0761e53d2H
	DD	0761daa31H
	DD	0761d009aH
	DD	0761c570fH
	DD	0761bad8fH
	DD	0761b041aH
	DD	0761a5ab0H
	DD	07619b151H
	DD	0761907fdH
	DD	076185eb4H
	DD	07617b577H
	DD	076170c44H
	DD	07616631dH
	DD	07615ba00H
	DD	0761510efH
	DD	0761467e8H
	DD	07613beedH
	DD	0761315fdH
	DD	076126d17H
	DD	07611c43dH
	DD	076111b6eH
	DD	0761072a9H
	DD	0760fc9f0H
	DD	0760f2142H
	DD	0760e789eH
	DD	0760dd006H
	DD	0760d2778H
	DD	0760c7ef5H
	DD	0760bd67eH
	DD	0760b2e11H
	DD	0760a85afH
	DD	07609dd58H
	DD	07609350cH
	DD	076088ccaH
	DD	07607e494H
	DD	076073c68H
	DD	076069448H
	DD	07605ec32H
	DD	076054427H
	DD	076049c27H
	DD	07603f431H
	DD	076034c47H
	DD	07602a467H
	DD	07601fc92H
	DD	0760154c8H
	DD	07600ad09H
	DD	076000554H
	DD	075ff5daaH
	DD	075feb60bH
	DD	075fe0e77H
	DD	075fd66edH
	DD	075fcbf6eH
	DD	075fc17faH
	DD	075fb7091H
	DD	075fac932H
	DD	075fa21deH
	DD	075f97a95H
	DD	075f8d356H
	DD	075f82c22H
	DD	075f784f9H
	DD	075f6dddaH
	DD	075f636c6H
	DD	075f58fbdH
	DD	075f4e8beH
	DD	075f441caH
	DD	075f39ae0H
	DD	075f2f401H
	DD	075f24d2dH
	DD	075f1a663H
	DD	075f0ffa4H
	DD	075f058f0H
	DD	075efb246H
	DD	075ef0ba6H
	DD	075ee6511H
	DD	075edbe87H
	DD	075ed1807H
	DD	075ec7192H
	DD	075ebcb27H
	DD	075eb24c7H
	DD	075ea7e71H
	DD	075e9d826H
	DD	075e931e5H
	DD	075e88bafH
	DD	075e7e583H
	DD	075e73f62H
	DD	075e6994bH
	DD	075e5f33fH
	DD	075e54d3dH
	DD	075e4a745H
	DD	075e40158H
	DD	075e35b75H
	DD	075e2b59dH
	DD	075e20fcfH
	DD	075e16a0bH
	DD	075e0c452H
	DD	075e01ea3H
	DD	075df78ffH
	DD	075ded365H
	DD	075de2dd5H
	DD	075dd8850H
	DD	075dce2d5H
	DD	075dc3d64H
	DD	075db97feH
	DD	075daf2a2H
	DD	075da4d50H
	DD	075d9a809H
	DD	075d902ccH
	DD	075d85d99H
	DD	075d7b870H
	DD	075d71352H
	DD	075d66e3eH
	DD	075d5c934H
	DD	075d52435H
	DD	075d47f3fH
	DD	075d3da54H
	DD	075d33573H
	DD	075d2909dH
	DD	075d1ebd0H
	DD	075d1470eH
	DD	075d0a256H
	DD	075cffda8H
	DD	075cf5905H
	DD	075ceb46bH
	DD	075ce0fdcH
	DD	075cd6b57H
	DD	075ccc6dcH
	DD	075cc226bH
	DD	075cb7e04H
	DD	075cad9a7H
	DD	075ca3555H
	DD	075c9910dH
	DD	075c8ecceH
	DD	075c8489aH
	DD	075c7a470H
	DD	075c70050H
	DD	075c65c3aH
	DD	075c5b82eH
	DD	075c5142cH
	DD	075c47035H
	DD	075c3cc47H
	DD	075c32863H
	DD	075c2848aH
	DD	075c1e0baH
	DD	075c13cf4H
	DD	075c09939H
	DD	075bff587H
	DD	075bf51dfH
	DD	075beae42H
	DD	075be0aaeH
	DD	075bd6724H
	DD	075bcc3a5H
	DD	075bc202fH
	DD	075bb7cc3H
	DD	075bad961H
	DD	075ba3609H
	DD	075b992bbH
	DD	075b8ef77H
	DD	075b84c3dH
	DD	075b7a90dH
	DD	075b705e6H
	DD	075b662caH
	DD	075b5bfb7H
	DD	075b51cafH
	DD	075b479b0H
	DD	075b3d6bbH
	DD	075b333d0H
	DD	075b290eeH
	DD	075b1ee17H
	DD	075b14b49H
	DD	075b0a886H
	DD	075b005ccH
	DD	075af631cH
	DD	075aec075H
	DD	075ae1dd9H
	DD	075ad7b46H
	DD	075acd8bdH
	DD	075ac363eH
	DD	075ab93c8H
	DD	075aaf15dH
	DD	075aa4efbH
	DD	075a9aca3H
	DD	075a90a54H
	DD	075a86810H
	DD	075a7c5d5H
	DD	075a723a3H
	DD	075a6817cH
	DD	075a5df5eH
	DD	075a53d4aH
	DD	075a49b40H
	DD	075a3f93fH
	DD	075a35748H
	DD	075a2b55aH
	DD	075a21377H
	DD	075a1719dH
	DD	075a0cfccH
	DD	075a02e06H
	DD	0759f8c48H
	DD	0759eea95H
	DD	0759e48ebH
	DD	0759da74bH
	DD	0759d05b4H
	DD	0759c6427H
	DD	0759bc2a4H
	DD	0759b212aH
	DD	0759a7fbaH
	DD	07599de53H
	DD	075993cf6H
	DD	075989ba2H
	DD	07597fa59H
	DD	075975918H
	DD	07596b7e1H
	DD	0759616b4H
	DD	075957590H
	DD	07594d476H
	DD	075943365H
	DD	07593925eH
	DD	07592f160H
	DD	07592506cH
	DD	07591af81H
	DD	075910ea0H
	DD	075906dc8H
	DD	0758fccf9H
	DD	0758f2c34H
	DD	0758e8b79H
	DD	0758deac7H
	DD	0758d4a1eH
	DD	0758ca97fH
	DD	0758c08eaH
	DD	0758b685dH
	DD	0758ac7dbH
	DD	0758a2761H
	DD	0758986f1H
	DD	07588e68aH
	DD	07588462dH
	DD	07587a5d9H
	DD	07587058fH
	DD	07586654eH
	DD	07585c516H
	DD	0758524e7H
	DD	0758484c2H
	DD	07583e4a7H
	DD	075834494H
	DD	07582a48bH
	DD	07582048cH
	DD	075816495H
	DD	07580c4a8H
	DD	0758024c4H
	DD	0757f84eaH
	DD	0757ee519H
	DD	0757e4551H
	DD	0757da592H
	DD	0757d05ddH
	DD	0757c6631H
	DD	0757bc68eH
	DD	0757b26f4H
	DD	0757a8764H
	DD	07579e7ddH
	DD	07579485fH
	DD	07578a8eaH
	DD	07578097fH
	DD	075776a1cH
	DD	07576cac3H
	DD	075762b74H
	DD	075758c2dH
	DD	07574ecf0H
	DD	075744dbbH
	DD	07573ae90H
	DD	075730f6eH
	DD	075727056H
	DD	07571d146H
	DD	075713240H
	DD	075709342H
	DD	0756ff44eH
	DD	0756f5563H
	DD	0756eb681H
	DD	0756e17a9H
	DD	0756d78d9H
	DD	0756cda12H
	DD	0756c3b55H
	DD	0756b9ca1H
	DD	0756afdf5H
	DD	0756a5f53H
	DD	07569c0baH
	DD	07569222aH
	DD	0756883a3H
	DD	07567e525H
	DD	0756746b0H
	DD	07566a844H
	DD	0756609e2H
	DD	075656b88H
	DD	07564cd37H
	DD	075642eefH
	DD	0756390b1H
	DD	07562f27bH
	DD	07562544eH
	DD	07561b62bH
	DD	075611810H
	DD	0756079feH
	DD	0755fdbf5H
	DD	0755f3df6H
	DD	0755e9fffH
	DD	0755e0211H
	DD	0755d642cH
	DD	0755cc650H
	DD	0755c287dH
	DD	0755b8ab3H
	DD	0755aecf2H
	DD	0755a4f3aH
	DD	07559b18aH
	DD	0755913e4H
	DD	075587646H
	DD	07557d8b2H
	DD	075573b26H
	DD	075569da3H
	DD	075560029H
	DD	0755562b8H
	DD	07554c550H
	DD	0755427f1H
	DD	075538a9aH
	DD	07552ed4dH
	DD	075525008H
	DD	07551b2ccH
	DD	075511599H
	DD	07550786eH
	DD	0754fdb4dH
	DD	0754f3e34H
	DD	0754ea124H
	DD	0754e041dH
	DD	0754d671fH
	DD	0754cca2aH
	DD	0754c2d3dH
	DD	0754b9059H
	DD	0754af37eH
	DD	0754a56abH
	DD	07549b9e2H
	DD	075491d21H
	DD	075488069H
	DD	07547e3baH
	DD	075474713H
	DD	07546aa75H
	DD	075460de0H
	DD	075457153H
	DD	07544d4d0H
	DD	075443855H
	DD	075439be2H
	DD	07542ff79H
	DD	075426318H
	DD	07541c6bfH
	DD	075412a70H
	DD	075408e29H
	DD	0753ff1ebH
	DD	0753f55b5H
	DD	0753eb988H
	DD	0753e1d64H
	DD	0753d8148H
	DD	0753ce535H
	DD	0753c492bH
	DD	0753bad29H
	DD	0753b1130H
	DD	0753a7540H
	DD	07539d958H
	DD	075393d79H
	DD	07538a1a2H
	DD	0753805d4H
	DD	075376a0eH
	DD	07536ce51H
	DD	07536329dH
	DD	0753596f1H
	DD	07534fb4eH
	DD	075345fb3H
	DD	07533c421H
	DD	075332898H
	DD	075328d17H
	DD	07531f19eH
	DD	07531562eH
	DD	07530bac7H
	DD	075301f68H
	DD	0752f8412H
	DD	0752ee8c4H
	DD	0752e4d7fH
	DD	0752db242H
	DD	0752d170dH
	DD	0752c7be1H
	DD	0752be0beH
	DD	0752b45a3H
	DD	0752aaa91H
	DD	0752a0f87H
	DD	075297485H
	DD	07528d98cH
	DD	075283e9bH
	DD	07527a3b3H
	DD	0752708d3H
	DD	075266dfcH
	DD	07525d32dH
	DD	075253867H
	DD	075249da9H
	DD	0752402f3H
	DD	075236846H
	DD	07522cda1H
	DD	075223304H
	DD	075219870H
	DD	07520fde5H
	DD	075206361H
	DD	0751fc8e6H
	DD	0751f2e74H
	DD	0751e940aH
	DD	0751df9a8H
	DD	0751d5f4eH
	DD	0751cc4fdH
	DD	0751c2ab4H
	DD	0751b9074H
	DD	0751af63bH
	DD	0751a5c0cH
	DD	07519c1e4H
	DD	0751927c5H
	DD	075188daeH
	DD	07517f39fH
	DD	075175999H
	DD	07516bf9bH
	DD	0751625a5H
	DD	075158bb7H
	DD	07514f1d2H
	DD	0751457f5H
	DD	07513be21H
	DD	075132454H
	DD	075128a90H
	DD	07511f0d4H
	DD	075115720H
	DD	07510bd75H
	DD	0751023d2H
	DD	0750f8a37H
	DD	0750ef0a4H
	DD	0750e5719H
	DD	0750dbd97H
	DD	0750d241dH
	DD	0750c8aabH
	DD	0750bf141H
	DD	0750b57e0H
	DD	0750abe86H
	DD	0750a2535H
	DD	075098becH
	DD	07508f2abH
	DD	075085972H
	DD	07507c042H
	DD	07507271aH
	DD	075068df9H
	DD	07505f4e1H
	DD	075055bd1H
	DD	07504c2c9H
	DD	0750429caH
	DD	0750390d2H
	DD	07502f7e3H
	DD	075025efbH
	DD	07501c61cH
	DD	075012d45H
	DD	075009476H
	DD	074fffbafH
	DD	074ff62f0H
	DD	074feca39H
	DD	074fe318aH
	DD	074fd98e4H
	DD	074fd0045H
	DD	074fc67afH
	DD	074fbcf20H
	DD	074fb369aH
	DD	074fa9e1bH
	DD	074fa05a5H
	DD	074f96d37H
	DD	074f8d4d0H
	DD	074f83c72H
	DD	074f7a41cH
	DD	074f70bcdH
	DD	074f67387H
	DD	074f5db49H
	DD	074f54313H
	DD	074f4aae5H
	DD	074f412beH
	DD	074f37aa0H
	DD	074f2e28aH
	DD	074f24a7bH
	DD	074f1b275H
	DD	074f11a77H
	DD	074f08280H
	DD	074efea92H
	DD	074ef52abH
	DD	074eebacdH
	DD	074ee22f6H
	DD	074ed8b27H
	DD	074ecf360H
	DD	074ec5ba2H
	DD	074ebc3ebH
	DD	074eb2c3cH
