; Listing generated by Microsoft (R) Optimizing Compiler Version 19.41.34123.0 

	TITLE	C:\Users\RafaTheFox\Downloads\SRB2-Public-master\objs\VC10\Win32\Debug\win_net.obj
	.686P
	.XMM
	include listing.inc
	.model	flat

INCLUDELIB LIBCMTD
INCLUDELIB OLDNAMES

_DATA	SEGMENT
COMM	_ATTRPACK:DWORD
_DATA	ENDS
PUBLIC	_I_InitNetwork
PUBLIC	??_C@_04NODKNGFO@?9net@				; `string'
PUBLIC	??_C@_0LN@MCDOGHAF@The?5Win32?5version?5of?5SRB2?5doesn@ ; `string'
EXTRN	_I_Error:PROC
EXTRN	_M_CheckParm:PROC
;	COMDAT ??_C@_0LN@MCDOGHAF@The?5Win32?5version?5of?5SRB2?5doesn@
CONST	SEGMENT
??_C@_0LN@MCDOGHAF@The?5Win32?5version?5of?5SRB2?5doesn@ DB 'The Win32 ve'
	DB	'rsion of SRB2 doesn''t work with external drivers like ipxset'
	DB	'up, sersetup, or doomatic', 0aH, 'Read the documentation abou'
	DB	't "-server" and "-connect" parameters or just use the launche'
	DB	'r', 0aH, 00H				; `string'
CONST	ENDS
;	COMDAT ??_C@_04NODKNGFO@?9net@
CONST	SEGMENT
??_C@_04NODKNGFO@?9net@ DB '-net', 00H			; `string'
CONST	ENDS
; Function compile flags: /Odtp /ZI
; File C:\Users\RafaTheFox\Downloads\SRB2-Public-master\src\win32\win_net.c
;	COMDAT _I_InitNetwork
_TEXT	SEGMENT
_I_InitNetwork PROC					; COMDAT

; 33   : {

  00000	55		 push	 ebp
  00001	8b ec		 mov	 ebp, esp
  00003	83 ec 40	 sub	 esp, 64			; 00000040H
  00006	53		 push	 ebx
  00007	56		 push	 esi
  00008	57		 push	 edi

; 34   : 	if (M_CheckParm ("-net"))

  00009	68 00 00 00 00	 push	 OFFSET ??_C@_04NODKNGFO@?9net@
  0000e	e8 00 00 00 00	 call	 _M_CheckParm
  00013	83 c4 04	 add	 esp, 4
  00016	85 c0		 test	 eax, eax
  00018	74 0d		 je	 SHORT $LN2@I_InitNetw

; 35   : 	{
; 36   : 		I_Error("The Win32 version of SRB2 doesn't work with external drivers like ipxsetup, sersetup, or doomatic\n"

  0001a	68 00 00 00 00	 push	 OFFSET ??_C@_0LN@MCDOGHAF@The?5Win32?5version?5of?5SRB2?5doesn@
  0001f	e8 00 00 00 00	 call	 _I_Error
  00024	83 c4 04	 add	 esp, 4
$LN2@I_InitNetw:

; 37   : 		        "Read the documentation about \"-server\" and \"-connect\" parameters or just use the launcher\n");
; 38   : 	}
; 39   : 
; 40   : 	return false;

  00027	33 c0		 xor	 eax, eax

; 41   : }

  00029	5f		 pop	 edi
  0002a	5e		 pop	 esi
  0002b	5b		 pop	 ebx
  0002c	8b e5		 mov	 esp, ebp
  0002e	5d		 pop	 ebp
  0002f	c3		 ret	 0
_I_InitNetwork ENDP
_TEXT	ENDS
END
