; Listing generated by Microsoft (R) Optimizing Compiler Version 19.41.34123.0 

	TITLE	C:\Users\RafaTheFox\Desktop\SRB2-Public-master (1)\SRB2-Public-master\objs\VC10\Win32\Debug\win_dll.obj
	.686P
	.XMM
	include listing.inc
	.model	flat

INCLUDELIB LIBCMTD
INCLUDELIB OLDNAMES

PUBLIC	??_C@_07EOHJMDLM@_Init?$EA4@			; `string'
PUBLIC	??_C@_0M@MCALMIBJ@_Shutdown?$EA0@		; `string'
PUBLIC	??_C@_0P@NHBHPNFC@_GetModeList?$EA8@		; `string'
PUBLIC	??_C@_0O@EOELGCEO@_SetPalette?$EA8@		; `string'
PUBLIC	??_C@_0BA@JILNCKLK@_FinishUpdate?$EA4@		; `string'
PUBLIC	??_C@_0P@KLOLMGOD@_Draw2DLine?$EA12@		; `string'
PUBLIC	??_C@_0BA@GKMMCDFH@_DrawPolygon?$EA16@		; `string'
PUBLIC	??_C@_0M@JHHJLAIC@_SetBlend?$EA4@		; `string'
PUBLIC	??_C@_0BA@HIEDJJKF@_ClearBuffer?$EA12@		; `string'
PUBLIC	??_C@_0O@MLLNFCJK@_SetTexture?$EA4@		; `string'
PUBLIC	??_C@_0N@FLHGCMAA@_ReadRect?$EA24@		; `string'
PUBLIC	??_C@_0O@HAEFBAAC@_GClipRect?$EA20@		; `string'
PUBLIC	??_C@_0BE@HELPFJKM@_ClearMipMapCache?$EA0@	; `string'
PUBLIC	??_C@_0BD@DLGPDBGF@_SetSpecialState?$EA8@	; `string'
PUBLIC	??_C@_0M@OODADPIB@_DrawMD2?$EA16@		; `string'
PUBLIC	??_C@_0N@KNEFKJL@_DrawMD2i?$EA36@		; `string'
PUBLIC	??_C@_0BA@DJGCGNLF@_SetTransform?$EA4@		; `string'
PUBLIC	??_C@_0BC@OJLACEIG@_GetTextureUsed?$EA0@	; `string'
PUBLIC	??_C@_0BE@DKHEFPJO@_GetRenderVersion?$EA0@	; `string'
PUBLIC	??_C@_0BB@OJCOPNCD@_PostImgRedraw?$EA4@		; `string'
PUBLIC	??_C@_0BD@KBOAEGOK@_StartScreenWipe?$EA0@	; `string'
PUBLIC	??_C@_0BB@OOHINFBD@_EndScreenWipe?$EA0@		; `string'
PUBLIC	??_C@_0BA@JBLDJJHE@_DoScreenWipe?$EA4@		; `string'
PUBLIC	??_C@_0BG@KGLAOPNG@_DrawIntermissionBG?$EA0@	; `string'
PUBLIC	??_C@_0BF@ENGHLCLA@_MakeScreenTexture?$EA0@	; `string'
PUBLIC	??_C@_0L@EKFPBIIL@_Startup?$EA8@		; `string'
PUBLIC	??_C@_09EPIIJFEP@_AddSfx?$EA4@			; `string'
PUBLIC	??_C@_0N@ECHHEGGD@_AddSource?$EA8@		; `string'
PUBLIC	??_C@_0P@JKHFCFCN@_StartSource?$EA4@		; `string'
PUBLIC	??_C@_0O@FKMGBHHI@_StopSource?$EA4@		; `string'
PUBLIC	??_C@_0BD@BBBEMCDK@_GetHW3DSVersion?$EA0@	; `string'
PUBLIC	??_C@_0BE@IABODDMN@_BeginFrameUpdate?$EA0@	; `string'
PUBLIC	??_C@_0BC@HJMEPADP@_EndFrameUpdate?$EA0@	; `string'
PUBLIC	??_C@_0N@BGDBAFLM@_IsPlaying?$EA4@		; `string'
PUBLIC	??_C@_0BC@IEEDDAPK@_UpdateListener?$EA8@	; `string'
PUBLIC	??_C@_0BG@FDAGJDNP@_UpdateSourceParms?$EA12@	; `string'
PUBLIC	??_C@_0L@NCENCMHG@_SetCone?$EA8@		; `string'
PUBLIC	??_C@_0BG@HDJKNDIG@_SetGlobalSfxVolume?$EA4@	; `string'
PUBLIC	??_C@_0BC@KBFOHFNJ@_Update3DSource?$EA8@	; `string'
PUBLIC	??_C@_0BA@PDIOHFEI@_ReloadSource?$EA8@		; `string'
PUBLIC	??_C@_0O@ICAFIJLK@_KillSource?$EA4@		; `string'
PUBLIC	??_C@_0L@NLKFDBMM@_KillSfx?$EA4@		; `string'
PUBLIC	??_C@_0BB@EBNNBJAN@_GetHW3DSTitle?$EA8@		; `string'
EXTRN	_hwdriver:BYTE
EXTRN	_hw3ds_driver:BYTE
_DATA	SEGMENT
COMM	_ATTRPACK:DWORD
_DATA	ENDS
;	COMDAT ??_C@_0BB@EBNNBJAN@_GetHW3DSTitle?$EA8@
CONST	SEGMENT
??_C@_0BB@EBNNBJAN@_GetHW3DSTitle?$EA8@ DB '_GetHW3DSTitle@8', 00H ; `string'
CONST	ENDS
;	COMDAT ??_C@_0L@NLKFDBMM@_KillSfx?$EA4@
CONST	SEGMENT
??_C@_0L@NLKFDBMM@_KillSfx?$EA4@ DB '_KillSfx@4', 00H	; `string'
CONST	ENDS
;	COMDAT ??_C@_0O@ICAFIJLK@_KillSource?$EA4@
CONST	SEGMENT
??_C@_0O@ICAFIJLK@_KillSource?$EA4@ DB '_KillSource@4', 00H ; `string'
CONST	ENDS
;	COMDAT ??_C@_0BA@PDIOHFEI@_ReloadSource?$EA8@
CONST	SEGMENT
??_C@_0BA@PDIOHFEI@_ReloadSource?$EA8@ DB '_ReloadSource@8', 00H ; `string'
CONST	ENDS
;	COMDAT ??_C@_0BC@KBFOHFNJ@_Update3DSource?$EA8@
CONST	SEGMENT
??_C@_0BC@KBFOHFNJ@_Update3DSource?$EA8@ DB '_Update3DSource@8', 00H ; `string'
CONST	ENDS
;	COMDAT ??_C@_0BG@HDJKNDIG@_SetGlobalSfxVolume?$EA4@
CONST	SEGMENT
??_C@_0BG@HDJKNDIG@_SetGlobalSfxVolume?$EA4@ DB '_SetGlobalSfxVolume@4', 00H ; `string'
CONST	ENDS
;	COMDAT ??_C@_0L@NCENCMHG@_SetCone?$EA8@
CONST	SEGMENT
??_C@_0L@NCENCMHG@_SetCone?$EA8@ DB '_SetCone@8', 00H	; `string'
CONST	ENDS
;	COMDAT ??_C@_0BG@FDAGJDNP@_UpdateSourceParms?$EA12@
CONST	SEGMENT
??_C@_0BG@FDAGJDNP@_UpdateSourceParms?$EA12@ DB '_UpdateSourceParms@12', 00H ; `string'
CONST	ENDS
;	COMDAT ??_C@_0BC@IEEDDAPK@_UpdateListener?$EA8@
CONST	SEGMENT
??_C@_0BC@IEEDDAPK@_UpdateListener?$EA8@ DB '_UpdateListener@8', 00H ; `string'
CONST	ENDS
;	COMDAT ??_C@_0N@BGDBAFLM@_IsPlaying?$EA4@
CONST	SEGMENT
??_C@_0N@BGDBAFLM@_IsPlaying?$EA4@ DB '_IsPlaying@4', 00H ; `string'
CONST	ENDS
;	COMDAT ??_C@_0BC@HJMEPADP@_EndFrameUpdate?$EA0@
CONST	SEGMENT
??_C@_0BC@HJMEPADP@_EndFrameUpdate?$EA0@ DB '_EndFrameUpdate@0', 00H ; `string'
CONST	ENDS
;	COMDAT ??_C@_0BE@IABODDMN@_BeginFrameUpdate?$EA0@
CONST	SEGMENT
??_C@_0BE@IABODDMN@_BeginFrameUpdate?$EA0@ DB '_BeginFrameUpdate@0', 00H ; `string'
CONST	ENDS
;	COMDAT ??_C@_0BD@BBBEMCDK@_GetHW3DSVersion?$EA0@
CONST	SEGMENT
??_C@_0BD@BBBEMCDK@_GetHW3DSVersion?$EA0@ DB '_GetHW3DSVersion@0', 00H ; `string'
CONST	ENDS
;	COMDAT ??_C@_0O@FKMGBHHI@_StopSource?$EA4@
CONST	SEGMENT
??_C@_0O@FKMGBHHI@_StopSource?$EA4@ DB '_StopSource@4', 00H ; `string'
CONST	ENDS
;	COMDAT ??_C@_0P@JKHFCFCN@_StartSource?$EA4@
CONST	SEGMENT
??_C@_0P@JKHFCFCN@_StartSource?$EA4@ DB '_StartSource@4', 00H ; `string'
CONST	ENDS
;	COMDAT ??_C@_0N@ECHHEGGD@_AddSource?$EA8@
CONST	SEGMENT
??_C@_0N@ECHHEGGD@_AddSource?$EA8@ DB '_AddSource@8', 00H ; `string'
CONST	ENDS
;	COMDAT ??_C@_09EPIIJFEP@_AddSfx?$EA4@
CONST	SEGMENT
??_C@_09EPIIJFEP@_AddSfx?$EA4@ DB '_AddSfx@4', 00H	; `string'
CONST	ENDS
;	COMDAT ??_C@_0L@EKFPBIIL@_Startup?$EA8@
CONST	SEGMENT
??_C@_0L@EKFPBIIL@_Startup?$EA8@ DB '_Startup@8', 00H	; `string'
CONST	ENDS
;	COMDAT ??_C@_0BF@ENGHLCLA@_MakeScreenTexture?$EA0@
CONST	SEGMENT
??_C@_0BF@ENGHLCLA@_MakeScreenTexture?$EA0@ DB '_MakeScreenTexture@0', 00H ; `string'
CONST	ENDS
;	COMDAT ??_C@_0BG@KGLAOPNG@_DrawIntermissionBG?$EA0@
CONST	SEGMENT
??_C@_0BG@KGLAOPNG@_DrawIntermissionBG?$EA0@ DB '_DrawIntermissionBG@0', 00H ; `string'
CONST	ENDS
;	COMDAT ??_C@_0BA@JBLDJJHE@_DoScreenWipe?$EA4@
CONST	SEGMENT
??_C@_0BA@JBLDJJHE@_DoScreenWipe?$EA4@ DB '_DoScreenWipe@4', 00H ; `string'
CONST	ENDS
;	COMDAT ??_C@_0BB@OOHINFBD@_EndScreenWipe?$EA0@
CONST	SEGMENT
??_C@_0BB@OOHINFBD@_EndScreenWipe?$EA0@ DB '_EndScreenWipe@0', 00H ; `string'
CONST	ENDS
;	COMDAT ??_C@_0BD@KBOAEGOK@_StartScreenWipe?$EA0@
CONST	SEGMENT
??_C@_0BD@KBOAEGOK@_StartScreenWipe?$EA0@ DB '_StartScreenWipe@0', 00H ; `string'
CONST	ENDS
;	COMDAT ??_C@_0BB@OJCOPNCD@_PostImgRedraw?$EA4@
CONST	SEGMENT
??_C@_0BB@OJCOPNCD@_PostImgRedraw?$EA4@ DB '_PostImgRedraw@4', 00H ; `string'
CONST	ENDS
;	COMDAT ??_C@_0BE@DKHEFPJO@_GetRenderVersion?$EA0@
CONST	SEGMENT
??_C@_0BE@DKHEFPJO@_GetRenderVersion?$EA0@ DB '_GetRenderVersion@0', 00H ; `string'
CONST	ENDS
;	COMDAT ??_C@_0BC@OJLACEIG@_GetTextureUsed?$EA0@
CONST	SEGMENT
??_C@_0BC@OJLACEIG@_GetTextureUsed?$EA0@ DB '_GetTextureUsed@0', 00H ; `string'
CONST	ENDS
;	COMDAT ??_C@_0BA@DJGCGNLF@_SetTransform?$EA4@
CONST	SEGMENT
??_C@_0BA@DJGCGNLF@_SetTransform?$EA4@ DB '_SetTransform@4', 00H ; `string'
CONST	ENDS
;	COMDAT ??_C@_0N@KNEFKJL@_DrawMD2i?$EA36@
CONST	SEGMENT
??_C@_0N@KNEFKJL@_DrawMD2i?$EA36@ DB '_DrawMD2i@36', 00H ; `string'
CONST	ENDS
;	COMDAT ??_C@_0M@OODADPIB@_DrawMD2?$EA16@
CONST	SEGMENT
??_C@_0M@OODADPIB@_DrawMD2?$EA16@ DB '_DrawMD2@16', 00H	; `string'
CONST	ENDS
;	COMDAT ??_C@_0BD@DLGPDBGF@_SetSpecialState?$EA8@
CONST	SEGMENT
??_C@_0BD@DLGPDBGF@_SetSpecialState?$EA8@ DB '_SetSpecialState@8', 00H ; `string'
CONST	ENDS
;	COMDAT ??_C@_0BE@HELPFJKM@_ClearMipMapCache?$EA0@
CONST	SEGMENT
??_C@_0BE@HELPFJKM@_ClearMipMapCache?$EA0@ DB '_ClearMipMapCache@0', 00H ; `string'
CONST	ENDS
;	COMDAT ??_C@_0O@HAEFBAAC@_GClipRect?$EA20@
CONST	SEGMENT
??_C@_0O@HAEFBAAC@_GClipRect?$EA20@ DB '_GClipRect@20', 00H ; `string'
CONST	ENDS
;	COMDAT ??_C@_0N@FLHGCMAA@_ReadRect?$EA24@
CONST	SEGMENT
??_C@_0N@FLHGCMAA@_ReadRect?$EA24@ DB '_ReadRect@24', 00H ; `string'
CONST	ENDS
;	COMDAT ??_C@_0O@MLLNFCJK@_SetTexture?$EA4@
CONST	SEGMENT
??_C@_0O@MLLNFCJK@_SetTexture?$EA4@ DB '_SetTexture@4', 00H ; `string'
CONST	ENDS
;	COMDAT ??_C@_0BA@HIEDJJKF@_ClearBuffer?$EA12@
CONST	SEGMENT
??_C@_0BA@HIEDJJKF@_ClearBuffer?$EA12@ DB '_ClearBuffer@12', 00H ; `string'
CONST	ENDS
;	COMDAT ??_C@_0M@JHHJLAIC@_SetBlend?$EA4@
CONST	SEGMENT
??_C@_0M@JHHJLAIC@_SetBlend?$EA4@ DB '_SetBlend@4', 00H	; `string'
CONST	ENDS
;	COMDAT ??_C@_0BA@GKMMCDFH@_DrawPolygon?$EA16@
CONST	SEGMENT
??_C@_0BA@GKMMCDFH@_DrawPolygon?$EA16@ DB '_DrawPolygon@16', 00H ; `string'
CONST	ENDS
;	COMDAT ??_C@_0P@KLOLMGOD@_Draw2DLine?$EA12@
CONST	SEGMENT
??_C@_0P@KLOLMGOD@_Draw2DLine?$EA12@ DB '_Draw2DLine@12', 00H ; `string'
CONST	ENDS
;	COMDAT ??_C@_0BA@JILNCKLK@_FinishUpdate?$EA4@
CONST	SEGMENT
??_C@_0BA@JILNCKLK@_FinishUpdate?$EA4@ DB '_FinishUpdate@4', 00H ; `string'
CONST	ENDS
;	COMDAT ??_C@_0O@EOELGCEO@_SetPalette?$EA8@
CONST	SEGMENT
??_C@_0O@EOELGCEO@_SetPalette?$EA8@ DB '_SetPalette@8', 00H ; `string'
CONST	ENDS
;	COMDAT ??_C@_0P@NHBHPNFC@_GetModeList?$EA8@
CONST	SEGMENT
??_C@_0P@NHBHPNFC@_GetModeList?$EA8@ DB '_GetModeList@8', 00H ; `string'
CONST	ENDS
;	COMDAT ??_C@_0M@MCALMIBJ@_Shutdown?$EA0@
CONST	SEGMENT
??_C@_0M@MCALMIBJ@_Shutdown?$EA0@ DB '_Shutdown@0', 00H	; `string'
CONST	ENDS
;	COMDAT ??_C@_07EOHJMDLM@_Init?$EA4@
CONST	SEGMENT
??_C@_07EOHJMDLM@_Init?$EA4@ DB '_Init@4', 00H		; `string'
CONST	ENDS
PUBLIC	_Init3DDriver
PUBLIC	_Shutdown3DDriver
PUBLIC	_Init3DSDriver
PUBLIC	_Shutdown3DSDriver
PUBLIC	??_C@_05NAOIJFC@Error@				; `string'
PUBLIC	??_C@_0GP@EEBBCKEO@The?5?8?$CFs?8?5haven?8t?5the?5good?5speci@ ; `string'
PUBLIC	??_C@_07KGMMFLDN@Warning@			; `string'
PUBLIC	??_C@_0CM@ICHNHDHA@LoadLibrary?$CI?$CJ?5FAILED?5?3?5couldn?8t@ ; `string'
EXTRN	__imp__FreeLibrary@4:PROC
EXTRN	__imp__GetProcAddress@8:PROC
EXTRN	__imp__LoadLibraryA@4:PROC
EXTRN	__imp__MessageBoxA@16:PROC
EXTRN	_va:PROC
EXTRN	_I_ShowLastError:PROC
_BSS	SEGMENT
_hwdModule DD	01H DUP (?)
_hwsModule DD	01H DUP (?)
_BSS	ENDS
_DATA	SEGMENT
_hwdFuncTable DD FLAT:??_C@_07EOHJMDLM@_Init?$EA4@
	DD	FLAT:_hwdriver
	DD	FLAT:??_C@_0M@MCALMIBJ@_Shutdown?$EA0@
	DD	FLAT:_hwdriver+72
	DD	FLAT:??_C@_0P@NHBHPNFC@_GetModeList?$EA8@
	DD	FLAT:_hwdriver+68
	DD	FLAT:??_C@_0O@EOELGCEO@_SetPalette?$EA8@
	DD	FLAT:_hwdriver+4
	DD	FLAT:??_C@_0BA@JILNCKLK@_FinishUpdate?$EA4@
	DD	FLAT:_hwdriver+8
	DD	FLAT:??_C@_0P@KLOLMGOD@_Draw2DLine?$EA12@
	DD	FLAT:_hwdriver+12
	DD	FLAT:??_C@_0BA@GKMMCDFH@_DrawPolygon?$EA16@
	DD	FLAT:_hwdriver+16
	DD	FLAT:??_C@_0M@JHHJLAIC@_SetBlend?$EA4@
	DD	FLAT:_hwdriver+20
	DD	FLAT:??_C@_0BA@HIEDJJKF@_ClearBuffer?$EA12@
	DD	FLAT:_hwdriver+24
	DD	FLAT:??_C@_0O@MLLNFCJK@_SetTexture?$EA4@
	DD	FLAT:_hwdriver+28
	DD	FLAT:??_C@_0N@FLHGCMAA@_ReadRect?$EA24@
	DD	FLAT:_hwdriver+32
	DD	FLAT:??_C@_0O@HAEFBAAC@_GClipRect?$EA20@
	DD	FLAT:_hwdriver+36
	DD	FLAT:??_C@_0BE@HELPFJKM@_ClearMipMapCache?$EA0@
	DD	FLAT:_hwdriver+40
	DD	FLAT:??_C@_0BD@DLGPDBGF@_SetSpecialState?$EA8@
	DD	FLAT:_hwdriver+44
	DD	FLAT:??_C@_0M@OODADPIB@_DrawMD2?$EA16@
	DD	FLAT:_hwdriver+48
	DD	FLAT:??_C@_0N@KNEFKJL@_DrawMD2i?$EA36@
	DD	FLAT:_hwdriver+52
	DD	FLAT:??_C@_0BA@DJGCGNLF@_SetTransform?$EA4@
	DD	FLAT:_hwdriver+56
	DD	FLAT:??_C@_0BC@OJLACEIG@_GetTextureUsed?$EA0@
	DD	FLAT:_hwdriver+60
	DD	FLAT:??_C@_0BE@DKHEFPJO@_GetRenderVersion?$EA0@
	DD	FLAT:_hwdriver+64
	DD	FLAT:??_C@_0BB@OJCOPNCD@_PostImgRedraw?$EA4@
	DD	FLAT:_hwdriver+76
	DD	FLAT:??_C@_0BD@KBOAEGOK@_StartScreenWipe?$EA0@
	DD	FLAT:_hwdriver+80
	DD	FLAT:??_C@_0BB@OOHINFBD@_EndScreenWipe?$EA0@
	DD	FLAT:_hwdriver+84
	DD	FLAT:??_C@_0BA@JBLDJJHE@_DoScreenWipe?$EA4@
	DD	FLAT:_hwdriver+88
	DD	FLAT:??_C@_0BG@KGLAOPNG@_DrawIntermissionBG?$EA0@
	DD	FLAT:_hwdriver+92
	DD	FLAT:??_C@_0BF@ENGHLCLA@_MakeScreenTexture?$EA0@
	DD	FLAT:_hwdriver+96
	DD	00H
	DD	00H
_hwsFuncTable DD FLAT:??_C@_0L@EKFPBIIL@_Startup?$EA8@
	DD	FLAT:_hw3ds_driver
	DD	FLAT:??_C@_0M@MCALMIBJ@_Shutdown?$EA0@
	DD	FLAT:_hw3ds_driver+68
	DD	FLAT:??_C@_09EPIIJFEP@_AddSfx?$EA4@
	DD	FLAT:_hw3ds_driver+4
	DD	FLAT:??_C@_0N@ECHHEGGD@_AddSource?$EA8@
	DD	FLAT:_hw3ds_driver+8
	DD	FLAT:??_C@_0P@JKHFCFCN@_StartSource?$EA4@
	DD	FLAT:_hw3ds_driver+12
	DD	FLAT:??_C@_0O@FKMGBHHI@_StopSource?$EA4@
	DD	FLAT:_hw3ds_driver+16
	DD	FLAT:??_C@_0BD@BBBEMCDK@_GetHW3DSVersion?$EA0@
	DD	FLAT:_hw3ds_driver+20
	DD	FLAT:??_C@_0BE@IABODDMN@_BeginFrameUpdate?$EA0@
	DD	FLAT:_hw3ds_driver+24
	DD	FLAT:??_C@_0BC@HJMEPADP@_EndFrameUpdate?$EA0@
	DD	FLAT:_hw3ds_driver+28
	DD	FLAT:??_C@_0N@BGDBAFLM@_IsPlaying?$EA4@
	DD	FLAT:_hw3ds_driver+32
	DD	FLAT:??_C@_0BC@IEEDDAPK@_UpdateListener?$EA8@
	DD	FLAT:_hw3ds_driver+36
	DD	FLAT:??_C@_0BG@FDAGJDNP@_UpdateSourceParms?$EA12@
	DD	FLAT:_hw3ds_driver+40
	DD	FLAT:??_C@_0L@NCENCMHG@_SetCone?$EA8@
	DD	FLAT:_hw3ds_driver+48
	DD	FLAT:??_C@_0BG@HDJKNDIG@_SetGlobalSfxVolume?$EA4@
	DD	FLAT:_hw3ds_driver+44
	DD	FLAT:??_C@_0BC@KBFOHFNJ@_Update3DSource?$EA8@
	DD	FLAT:_hw3ds_driver+52
	DD	FLAT:??_C@_0BA@PDIOHFEI@_ReloadSource?$EA8@
	DD	FLAT:_hw3ds_driver+56
	DD	FLAT:??_C@_0O@ICAFIJLK@_KillSource?$EA4@
	DD	FLAT:_hw3ds_driver+60
	DD	FLAT:??_C@_0L@NLKFDBMM@_KillSfx?$EA4@
	DD	FLAT:_hw3ds_driver+64
	DD	FLAT:??_C@_0BB@EBNNBJAN@_GetHW3DSTitle?$EA8@
	DD	FLAT:_hw3ds_driver+72
	DD	00H
	DD	00H
_DATA	ENDS
;	COMDAT ??_C@_0CM@ICHNHDHA@LoadLibrary?$CI?$CJ?5FAILED?5?3?5couldn?8t@
CONST	SEGMENT
??_C@_0CM@ICHNHDHA@LoadLibrary?$CI?$CJ?5FAILED?5?3?5couldn?8t@ DB 'LoadLi'
	DB	'brary() FAILED : couldn''t load ''%s''', 0dH, 0aH, 00H ; `string'
CONST	ENDS
;	COMDAT ??_C@_07KGMMFLDN@Warning@
CONST	SEGMENT
??_C@_07KGMMFLDN@Warning@ DB 'Warning', 00H		; `string'
CONST	ENDS
;	COMDAT ??_C@_0GP@EEBBCKEO@The?5?8?$CFs?8?5haven?8t?5the?5good?5speci@
CONST	SEGMENT
??_C@_0GP@EEBBCKEO@The?5?8?$CFs?8?5haven?8t?5the?5good?5speci@ DB 'The '''
	DB	'%s'' haven''t the good specification (function %s missing)', 0aH
	DB	0aH, 'You must use dll from the same zip of this exe', 0aH, 00H ; `string'
CONST	ENDS
;	COMDAT ??_C@_05NAOIJFC@Error@
CONST	SEGMENT
??_C@_05NAOIJFC@Error@ DB 'Error', 00H			; `string'
CONST	ENDS
; Function compile flags: /Odtp /ZI
; File C:\Users\RafaTheFox\Desktop\SRB2-Public-master (1)\SRB2-Public-master\src\win32\win_dll.c
;	COMDAT _UnloadDLL
_TEXT	SEGMENT
_pModule$ = 8						; size = 4
_UnloadDLL PROC						; COMDAT

; 79   : {

  00000	55		 push	 ebp
  00001	8b ec		 mov	 ebp, esp
  00003	83 ec 40	 sub	 esp, 64			; 00000040H
  00006	53		 push	 ebx
  00007	56		 push	 esi
  00008	57		 push	 edi

; 80   : 	if (FreeLibrary(*pModule))

  00009	8b 45 08	 mov	 eax, DWORD PTR _pModule$[ebp]
  0000c	8b 08		 mov	 ecx, DWORD PTR [eax]
  0000e	51		 push	 ecx
  0000f	ff 15 00 00 00
	00		 call	 DWORD PTR __imp__FreeLibrary@4
  00015	85 c0		 test	 eax, eax
  00017	74 0b		 je	 SHORT $LN2@UnloadDLL

; 81   : 		*pModule = NULL;

  00019	8b 45 08	 mov	 eax, DWORD PTR _pModule$[ebp]
  0001c	c7 00 00 00 00
	00		 mov	 DWORD PTR [eax], 0
  00022	eb 0a		 jmp	 SHORT $LN3@UnloadDLL
$LN2@UnloadDLL:

; 82   : 	else
; 83   : 		I_ShowLastError(TRUE);

  00024	6a 01		 push	 1
  00026	e8 00 00 00 00	 call	 _I_ShowLastError
  0002b	83 c4 04	 add	 esp, 4
$LN3@UnloadDLL:

; 84   : }

  0002e	5f		 pop	 edi
  0002f	5e		 pop	 esi
  00030	5b		 pop	 ebx
  00031	8b e5		 mov	 esp, ebp
  00033	5d		 pop	 ebp
  00034	c3		 ret	 0
_UnloadDLL ENDP
_TEXT	ENDS
; Function compile flags: /Odtp /ZI
; File C:\Users\RafaTheFox\Desktop\SRB2-Public-master (1)\SRB2-Public-master\src\win32\win_dll.c
;	COMDAT _LoadDLL
_TEXT	SEGMENT
_hModule$ = -12						; size = 4
_loadfunc$ = -8						; size = 4
_funcPtr$ = -4						; size = 4
_dllName$ = 8						; size = 4
_funcTable$ = 12					; size = 4
_LoadDLL PROC						; COMDAT

; 43   : {

  00000	55		 push	 ebp
  00001	8b ec		 mov	 ebp, esp
  00003	83 ec 4c	 sub	 esp, 76			; 0000004cH
  00006	53		 push	 ebx
  00007	56		 push	 esi
  00008	57		 push	 edi

; 44   : 	LPVOID      funcPtr;
; 45   : 	loadfunc_t *loadfunc;
; 46   : 	HMODULE     hModule;
; 47   : 
; 48   : 	if ((hModule = LoadLibraryA(dllName)) != NULL)

  00009	8b 45 08	 mov	 eax, DWORD PTR _dllName$[ebp]
  0000c	50		 push	 eax
  0000d	ff 15 00 00 00
	00		 call	 DWORD PTR __imp__LoadLibraryA@4
  00013	89 45 f4	 mov	 DWORD PTR _hModule$[ebp], eax
  00016	83 7d f4 00	 cmp	 DWORD PTR _hModule$[ebp], 0
  0001a	74 77		 je	 SHORT $LN5@LoadDLL

; 49   : 	{
; 50   : 		// get function pointers for all functions we use
; 51   : 		for (loadfunc = funcTable; loadfunc->fnName != NULL; loadfunc++)

  0001c	8b 45 0c	 mov	 eax, DWORD PTR _funcTable$[ebp]
  0001f	89 45 f8	 mov	 DWORD PTR _loadfunc$[ebp], eax
  00022	eb 09		 jmp	 SHORT $LN4@LoadDLL
$LN2@LoadDLL:
  00024	8b 45 f8	 mov	 eax, DWORD PTR _loadfunc$[ebp]
  00027	83 c0 08	 add	 eax, 8
  0002a	89 45 f8	 mov	 DWORD PTR _loadfunc$[ebp], eax
$LN4@LoadDLL:
  0002d	8b 45 f8	 mov	 eax, DWORD PTR _loadfunc$[ebp]
  00030	83 38 00	 cmp	 DWORD PTR [eax], 0
  00033	74 5c		 je	 SHORT $LN3@LoadDLL

; 52   : 		{
; 53   : 			funcPtr = GetProcAddress(hModule, loadfunc->fnName);

  00035	8b 45 f8	 mov	 eax, DWORD PTR _loadfunc$[ebp]
  00038	8b 08		 mov	 ecx, DWORD PTR [eax]
  0003a	51		 push	 ecx
  0003b	8b 55 f4	 mov	 edx, DWORD PTR _hModule$[ebp]
  0003e	52		 push	 edx
  0003f	ff 15 00 00 00
	00		 call	 DWORD PTR __imp__GetProcAddress@8
  00045	89 45 fc	 mov	 DWORD PTR _funcPtr$[ebp], eax

; 54   : 			if (!funcPtr) {

  00048	83 7d fc 00	 cmp	 DWORD PTR _funcPtr$[ebp], 0
  0004c	75 36		 jne	 SHORT $LN7@LoadDLL

; 55   : 				I_ShowLastError(FALSE);

  0004e	6a 00		 push	 0
  00050	e8 00 00 00 00	 call	 _I_ShowLastError
  00055	83 c4 04	 add	 esp, 4

; 56   : 				MessageBoxA(NULL, va("The '%s' haven't the good specification (function %s missing)\n\n"

  00058	6a 40		 push	 64			; 00000040H
  0005a	68 00 00 00 00	 push	 OFFSET ??_C@_05NAOIJFC@Error@
  0005f	8b 45 f8	 mov	 eax, DWORD PTR _loadfunc$[ebp]
  00062	8b 08		 mov	 ecx, DWORD PTR [eax]
  00064	51		 push	 ecx
  00065	8b 55 08	 mov	 edx, DWORD PTR _dllName$[ebp]
  00068	52		 push	 edx
  00069	68 00 00 00 00	 push	 OFFSET ??_C@_0GP@EEBBCKEO@The?5?8?$CFs?8?5haven?8t?5the?5good?5speci@
  0006e	e8 00 00 00 00	 call	 _va
  00073	83 c4 0c	 add	 esp, 12			; 0000000cH
  00076	50		 push	 eax
  00077	6a 00		 push	 0
  00079	ff 15 00 00 00
	00		 call	 DWORD PTR __imp__MessageBoxA@16
  0007f	90		 npad	 1

; 57   : 				           "You must use dll from the same zip of this exe\n", dllName, loadfunc->fnName),
; 58   : 				           "Error", MB_OK|MB_ICONINFORMATION);
; 59   : 				return FALSE;

  00080	33 c0		 xor	 eax, eax
  00082	eb 3e		 jmp	 SHORT $LN1@LoadDLL
$LN7@LoadDLL:

; 60   : 			}
; 61   : 			// store function address
; 62   : 			*((LPVOID*)loadfunc->fnPointer) = funcPtr;

  00084	8b 45 f8	 mov	 eax, DWORD PTR _loadfunc$[ebp]
  00087	8b 48 04	 mov	 ecx, DWORD PTR [eax+4]
  0008a	8b 55 fc	 mov	 edx, DWORD PTR _funcPtr$[ebp]
  0008d	89 11		 mov	 DWORD PTR [ecx], edx

; 63   : 		}

  0008f	eb 93		 jmp	 SHORT $LN2@LoadDLL
$LN3@LoadDLL:

; 64   : 	}

  00091	eb 2c		 jmp	 SHORT $LN6@LoadDLL
$LN5@LoadDLL:

; 65   : 	else
; 66   : 	{
; 67   : 		I_ShowLastError(FALSE);

  00093	6a 00		 push	 0
  00095	e8 00 00 00 00	 call	 _I_ShowLastError
  0009a	83 c4 04	 add	 esp, 4

; 68   : 		MessageBoxA(NULL, va("LoadLibrary() FAILED : couldn't load '%s'\r\n", dllName), "Warning", MB_OK|MB_ICONINFORMATION);

  0009d	6a 40		 push	 64			; 00000040H
  0009f	68 00 00 00 00	 push	 OFFSET ??_C@_07KGMMFLDN@Warning@
  000a4	8b 45 08	 mov	 eax, DWORD PTR _dllName$[ebp]
  000a7	50		 push	 eax
  000a8	68 00 00 00 00	 push	 OFFSET ??_C@_0CM@ICHNHDHA@LoadLibrary?$CI?$CJ?5FAILED?5?3?5couldn?8t@
  000ad	e8 00 00 00 00	 call	 _va
  000b2	83 c4 08	 add	 esp, 8
  000b5	50		 push	 eax
  000b6	6a 00		 push	 0
  000b8	ff 15 00 00 00
	00		 call	 DWORD PTR __imp__MessageBoxA@16
  000be	90		 npad	 1
$LN6@LoadDLL:

; 69   : 	}
; 70   : 
; 71   : 	return hModule;

  000bf	8b 45 f4	 mov	 eax, DWORD PTR _hModule$[ebp]
$LN1@LoadDLL:

; 72   : }

  000c2	5f		 pop	 edi
  000c3	5e		 pop	 esi
  000c4	5b		 pop	 ebx
  000c5	8b e5		 mov	 esp, ebp
  000c7	5d		 pop	 ebp
  000c8	c3		 ret	 0
_LoadDLL ENDP
_TEXT	ENDS
; Function compile flags: /Odtp /ZI
; File C:\Users\RafaTheFox\Desktop\SRB2-Public-master (1)\SRB2-Public-master\src\win32\win_dll.c
;	COMDAT _Shutdown3DSDriver
_TEXT	SEGMENT
_Shutdown3DSDriver PROC					; COMDAT

; 224  : {

  00000	55		 push	 ebp
  00001	8b ec		 mov	 ebp, esp
  00003	83 ec 40	 sub	 esp, 64			; 00000040H
  00006	53		 push	 ebx
  00007	56		 push	 esi
  00008	57		 push	 edi

; 225  : 	UnloadDLL(&hwsModule);

  00009	68 00 00 00 00	 push	 OFFSET _hwsModule
  0000e	e8 00 00 00 00	 call	 _UnloadDLL
  00013	83 c4 04	 add	 esp, 4

; 226  : }

  00016	5f		 pop	 edi
  00017	5e		 pop	 esi
  00018	5b		 pop	 ebx
  00019	8b e5		 mov	 esp, ebp
  0001b	5d		 pop	 ebp
  0001c	c3		 ret	 0
_Shutdown3DSDriver ENDP
_TEXT	ENDS
; Function compile flags: /Odtp /ZI
; File C:\Users\RafaTheFox\Desktop\SRB2-Public-master (1)\SRB2-Public-master\src\win32\win_dll.c
;	COMDAT _Init3DSDriver
_TEXT	SEGMENT
tv68 = -68						; size = 4
_dllName$ = 8						; size = 4
_Init3DSDriver PROC					; COMDAT

; 218  : {

  00000	55		 push	 ebp
  00001	8b ec		 mov	 ebp, esp
  00003	83 ec 44	 sub	 esp, 68			; 00000044H
  00006	53		 push	 ebx
  00007	56		 push	 esi
  00008	57		 push	 edi

; 219  : 	hwsModule = LoadDLL(dllName, hwsFuncTable);

  00009	68 00 00 00 00	 push	 OFFSET _hwsFuncTable
  0000e	8b 45 08	 mov	 eax, DWORD PTR _dllName$[ebp]
  00011	50		 push	 eax
  00012	e8 00 00 00 00	 call	 _LoadDLL
  00017	83 c4 08	 add	 esp, 8
  0001a	a3 00 00 00 00	 mov	 DWORD PTR _hwsModule, eax

; 220  : 	return (hwsModule != NULL);

  0001f	83 3d 00 00 00
	00 00		 cmp	 DWORD PTR _hwsModule, 0
  00026	74 09		 je	 SHORT $LN3@Init3DSDri
  00028	c7 45 bc 01 00
	00 00		 mov	 DWORD PTR tv68[ebp], 1
  0002f	eb 07		 jmp	 SHORT $LN4@Init3DSDri
$LN3@Init3DSDri:
  00031	c7 45 bc 00 00
	00 00		 mov	 DWORD PTR tv68[ebp], 0
$LN4@Init3DSDri:
  00038	8b 45 bc	 mov	 eax, DWORD PTR tv68[ebp]

; 221  : }

  0003b	5f		 pop	 edi
  0003c	5e		 pop	 esi
  0003d	5b		 pop	 ebx
  0003e	8b e5		 mov	 esp, ebp
  00040	5d		 pop	 ebp
  00041	c3		 ret	 0
_Init3DSDriver ENDP
_TEXT	ENDS
; Function compile flags: /Odtp /ZI
; File C:\Users\RafaTheFox\Desktop\SRB2-Public-master (1)\SRB2-Public-master\src\win32\win_dll.c
;	COMDAT _Shutdown3DDriver
_TEXT	SEGMENT
_Shutdown3DDriver PROC					; COMDAT

; 164  : {

  00000	55		 push	 ebp
  00001	8b ec		 mov	 ebp, esp
  00003	83 ec 40	 sub	 esp, 64			; 00000040H
  00006	53		 push	 ebx
  00007	56		 push	 esi
  00008	57		 push	 edi

; 165  : 	UnloadDLL(&hwdModule);

  00009	68 00 00 00 00	 push	 OFFSET _hwdModule
  0000e	e8 00 00 00 00	 call	 _UnloadDLL
  00013	83 c4 04	 add	 esp, 4

; 166  : }

  00016	5f		 pop	 edi
  00017	5e		 pop	 esi
  00018	5b		 pop	 ebx
  00019	8b e5		 mov	 esp, ebp
  0001b	5d		 pop	 ebp
  0001c	c3		 ret	 0
_Shutdown3DDriver ENDP
_TEXT	ENDS
; Function compile flags: /Odtp /ZI
; File C:\Users\RafaTheFox\Desktop\SRB2-Public-master (1)\SRB2-Public-master\src\win32\win_dll.c
;	COMDAT _Init3DDriver
_TEXT	SEGMENT
tv68 = -68						; size = 4
_dllName$ = 8						; size = 4
_Init3DDriver PROC					; COMDAT

; 158  : {

  00000	55		 push	 ebp
  00001	8b ec		 mov	 ebp, esp
  00003	83 ec 44	 sub	 esp, 68			; 00000044H
  00006	53		 push	 ebx
  00007	56		 push	 esi
  00008	57		 push	 edi

; 159  : 	hwdModule = LoadDLL(dllName, hwdFuncTable);

  00009	68 00 00 00 00	 push	 OFFSET _hwdFuncTable
  0000e	8b 45 08	 mov	 eax, DWORD PTR _dllName$[ebp]
  00011	50		 push	 eax
  00012	e8 00 00 00 00	 call	 _LoadDLL
  00017	83 c4 08	 add	 esp, 8
  0001a	a3 00 00 00 00	 mov	 DWORD PTR _hwdModule, eax

; 160  : 	return (hwdModule != NULL);

  0001f	83 3d 00 00 00
	00 00		 cmp	 DWORD PTR _hwdModule, 0
  00026	74 09		 je	 SHORT $LN3@Init3DDriv
  00028	c7 45 bc 01 00
	00 00		 mov	 DWORD PTR tv68[ebp], 1
  0002f	eb 07		 jmp	 SHORT $LN4@Init3DDriv
$LN3@Init3DDriv:
  00031	c7 45 bc 00 00
	00 00		 mov	 DWORD PTR tv68[ebp], 0
$LN4@Init3DDriv:
  00038	8b 45 bc	 mov	 eax, DWORD PTR tv68[ebp]

; 161  : }

  0003b	5f		 pop	 edi
  0003c	5e		 pop	 esi
  0003d	5b		 pop	 ebx
  0003e	8b e5		 mov	 esp, ebp
  00040	5d		 pop	 ebp
  00041	c3		 ret	 0
_Init3DDriver ENDP
_TEXT	ENDS
END
